ARM GAS  /tmp/ccFHHhFE.s 			page 1


   1              		.syntax unified
   2              		.cpu cortex-m4
   3              		.fpu softvfp
   4              		.eabi_attribute 20, 1
   5              		.eabi_attribute 21, 1
   6              		.eabi_attribute 23, 3
   7              		.eabi_attribute 24, 1
   8              		.eabi_attribute 25, 1
   9              		.eabi_attribute 26, 1
  10              		.eabi_attribute 30, 2
  11              		.eabi_attribute 34, 1
  12              		.eabi_attribute 18, 4
  13              		.thumb
  14              		.file	"chcond.c"
  15              		.text
  16              	.Ltext0:
  17              		.cfi_sections	.debug_frame
  18              		.section	.text.chCondObjectInit,"ax",%progbits
  19              		.align	2
  20              		.p2align 4,,15
  21              		.global	chCondObjectInit
  22              		.thumb
  23              		.thumb_func
  24              		.type	chCondObjectInit, %function
  25              	chCondObjectInit:
  26              	.LFB239:
  27              		.file 1 "../../../../../ChibiOS-RT/os/rt/src/chcond.c"
  28              		.loc 1 75 0
  29              		.cfi_startproc
  30              		@ args = 0, pretend = 0, frame = 0
  31              		@ frame_needed = 0, uses_anonymous_args = 0
  32              		@ link register save eliminated.
  33              	.LVL0:
  34              	.LBB83:
  35              	.LBB84:
  36              		.file 2 "../../../../../ChibiOS-RT/os/rt/include/chschd.h"
  37              		.loc 2 550 0
  38 0000 0060     		str	r0, [r0]
  39              		.loc 2 551 0
  40 0002 4060     		str	r0, [r0, #4]
  41 0004 7047     		bx	lr
  42              	.LBE84:
  43              	.LBE83:
  44              		.cfi_endproc
  45              	.LFE239:
  46              		.size	chCondObjectInit, .-chCondObjectInit
  47 0006 00BFAFF3 		.section	.text.chCondSignal,"ax",%progbits
  47      0080AFF3 
  47      0080
  48              		.align	2
  49              		.p2align 4,,15
  50              		.global	chCondSignal
  51              		.thumb
  52              		.thumb_func
  53              		.type	chCondSignal, %function
  54              	chCondSignal:
  55              	.LFB240:
ARM GAS  /tmp/ccFHHhFE.s 			page 2


  56              		.loc 1 89 0
  57              		.cfi_startproc
  58              		@ args = 0, pretend = 0, frame = 0
  59              		@ frame_needed = 0, uses_anonymous_args = 0
  60              	.LVL1:
  61 0000 08B5     		push	{r3, lr}
  62              		.cfi_def_cfa_offset 8
  63              		.cfi_offset 3, -8
  64              		.cfi_offset 14, -4
  65              	.LBB85:
  66              	.LBB86:
  67              	.LBB87:
  68              	.LBB88:
  69              		.file 3 "../../../../../ChibiOS-RT/os/common/ext/CMSIS/include/cmsis_gcc.h"
  70              		.loc 3 264 0
  71 0002 2022     		movs	r2, #32
  72              	.LBE88:
  73              	.LBE87:
  74              	.LBE86:
  75              	.LBE85:
  76              		.loc 1 89 0
  77 0004 0346     		mov	r3, r0
  78              	.LBB92:
  79              	.LBB91:
  80              	.LBB90:
  81              	.LBB89:
  82              		.loc 3 264 0
  83              	@ 264 "../../../../../ChibiOS-RT/os/common/ext/CMSIS/include/cmsis_gcc.h" 1
  84 0006 82F31188 		MSR basepri, r2
  85              	@ 0 "" 2
  86              	.LVL2:
  87              		.thumb
  88              	.LBE89:
  89              	.LBE90:
  90              	.LBE91:
  91              	.LBE92:
  92              	.LBB93:
  93              	.LBB94:
  94              		.loc 2 577 0
  95 000a 0068     		ldr	r0, [r0]
  96              	.LVL3:
  97              	.LBE94:
  98              	.LBE93:
  99              		.loc 1 94 0
 100 000c 8342     		cmp	r3, r0
 101 000e 05D0     		beq	.L3
 102              	.LVL4:
 103              	.LBB95:
 104              	.LBB96:
 105              		.loc 2 620 0
 106 0010 0268     		ldr	r2, [r0]
 107              	.LBE96:
 108              	.LBE95:
 109              		.loc 1 95 0
 110 0012 0021     		movs	r1, #0
 111              	.LBB98:
 112              	.LBB97:
ARM GAS  /tmp/ccFHHhFE.s 			page 3


 113              		.loc 2 620 0
 114 0014 1A60     		str	r2, [r3]
 115              		.loc 2 621 0
 116 0016 5360     		str	r3, [r2, #4]
 117              	.LBE97:
 118              	.LBE98:
 119              		.loc 1 95 0
 120 0018 FFF7FEFF 		bl	chSchWakeupS
 121              	.LVL5:
 122              	.L3:
 123              	.LBB99:
 124              	.LBB100:
 125              	.LBB101:
 126              	.LBB102:
 127              	.LBB103:
 128              		.loc 3 264 0
 129 001c 0023     		movs	r3, #0
 130              	@ 264 "../../../../../ChibiOS-RT/os/common/ext/CMSIS/include/cmsis_gcc.h" 1
 131 001e 83F31188 		MSR basepri, r3
 132              	@ 0 "" 2
 133              		.thumb
 134 0022 08BD     		pop	{r3, pc}
 135              	.LBE103:
 136              	.LBE102:
 137              	.LBE101:
 138              	.LBE100:
 139              	.LBE99:
 140              		.cfi_endproc
 141              	.LFE240:
 142              		.size	chCondSignal, .-chCondSignal
 143 0024 AFF30080 		.section	.text.chCondSignalI,"ax",%progbits
 143      AFF30080 
 143      AFF30080 
 144              		.align	2
 145              		.p2align 4,,15
 146              		.global	chCondSignalI
 147              		.thumb
 148              		.thumb_func
 149              		.type	chCondSignalI, %function
 150              	chCondSignalI:
 151              	.LFB241:
 152              		.loc 1 111 0
 153              		.cfi_startproc
 154              		@ args = 0, pretend = 0, frame = 0
 155              		@ frame_needed = 0, uses_anonymous_args = 0
 156              		@ link register save eliminated.
 157              	.LVL6:
 158              	.LBB104:
 159              	.LBB105:
 160              		.loc 2 577 0
 161 0000 0268     		ldr	r2, [r0]
 162              	.LBE105:
 163              	.LBE104:
 164              		.loc 1 116 0
 165 0002 9042     		cmp	r0, r2
 166              		.loc 1 111 0
 167 0004 10B4     		push	{r4}
ARM GAS  /tmp/ccFHHhFE.s 			page 4


 168              		.cfi_def_cfa_offset 4
 169              		.cfi_offset 4, -4
 170              		.loc 1 111 0
 171 0006 0346     		mov	r3, r0
 172              	.LVL7:
 173              		.loc 1 116 0
 174 0008 09D0     		beq	.L5
 175              	.LVL8:
 176              	.LBB106:
 177              	.LBB107:
 178              	.LBB108:
 179              		.loc 2 620 0
 180 000a 1168     		ldr	r1, [r2]
 181              	.LBE108:
 182              	.LBE107:
 183              		.loc 1 118 0
 184 000c 0024     		movs	r4, #0
 185              	.LBB110:
 186              	.LBB109:
 187              		.loc 2 620 0
 188 000e 0160     		str	r1, [r0]
 189              		.loc 2 621 0
 190 0010 4B60     		str	r3, [r1, #4]
 191              	.LBE109:
 192              	.LBE110:
 193              		.loc 1 118 0
 194 0012 5462     		str	r4, [r2, #36]
 195              		.loc 1 119 0
 196 0014 1046     		mov	r0, r2
 197              	.LVL9:
 198              	.LBE106:
 199              		.loc 1 121 0
 200 0016 5DF8044B 		ldr	r4, [sp], #4
 201              	.LBB111:
 202              		.loc 1 119 0
 203 001a FFF7FEBF 		b	chSchReadyI
 204              	.LVL10:
 205              	.L5:
 206              	.LBE111:
 207              		.loc 1 121 0
 208 001e 5DF8044B 		ldr	r4, [sp], #4
 209 0022 7047     		bx	lr
 210              		.cfi_endproc
 211              	.LFE241:
 212              		.size	chCondSignalI, .-chCondSignalI
 213 0024 AFF30080 		.section	.text.chCondBroadcastI,"ax",%progbits
 213      AFF30080 
 213      AFF30080 
 214              		.align	2
 215              		.p2align 4,,15
 216              		.global	chCondBroadcastI
 217              		.thumb
 218              		.thumb_func
 219              		.type	chCondBroadcastI, %function
 220              	chCondBroadcastI:
 221              	.LFB243:
 222              		.loc 1 149 0
ARM GAS  /tmp/ccFHHhFE.s 			page 5


 223              		.cfi_startproc
 224              		@ args = 0, pretend = 0, frame = 0
 225              		@ frame_needed = 0, uses_anonymous_args = 0
 226              	.LVL11:
 227 0000 38B5     		push	{r3, r4, r5, lr}
 228              		.cfi_def_cfa_offset 16
 229              		.cfi_offset 3, -16
 230              		.cfi_offset 4, -12
 231              		.cfi_offset 5, -8
 232              		.cfi_offset 14, -4
 233              		.loc 1 149 0
 234 0002 0446     		mov	r4, r0
 235              	.LVL12:
 236              	.LBB112:
 237              	.LBB113:
 238              		.loc 2 577 0
 239 0004 0068     		ldr	r0, [r0]
 240              	.LVL13:
 241              	.LBE113:
 242              	.LBE112:
 243              		.loc 1 157 0
 244 0006 8442     		cmp	r4, r0
 245 0008 0AD0     		beq	.L7
 246              		.loc 1 158 0
 247 000a 6FF00105 		mvn	r5, #1
 248              	.L10:
 249              	.LVL14:
 250              	.LBB115:
 251              	.LBB116:
 252              		.loc 2 620 0
 253 000e 0368     		ldr	r3, [r0]
 254 0010 2360     		str	r3, [r4]
 255              		.loc 2 621 0
 256 0012 5C60     		str	r4, [r3, #4]
 257              	.LBE116:
 258              	.LBE115:
 259              		.loc 1 158 0
 260 0014 FFF7FEFF 		bl	chSchReadyI
 261              	.LVL15:
 262 0018 4562     		str	r5, [r0, #36]
 263              	.LBB117:
 264              	.LBB114:
 265              		.loc 2 577 0
 266 001a 2068     		ldr	r0, [r4]
 267              	.LBE114:
 268              	.LBE117:
 269              		.loc 1 157 0
 270 001c A042     		cmp	r0, r4
 271 001e F6D1     		bne	.L10
 272              	.LVL16:
 273              	.L7:
 274 0020 38BD     		pop	{r3, r4, r5, pc}
 275              		.cfi_endproc
 276              	.LFE243:
 277              		.size	chCondBroadcastI, .-chCondBroadcastI
 278 0022 00BFAFF3 		.section	.text.chCondBroadcast,"ax",%progbits
 278      0080AFF3 
ARM GAS  /tmp/ccFHHhFE.s 			page 6


 278      0080AFF3 
 278      0080
 279              		.align	2
 280              		.p2align 4,,15
 281              		.global	chCondBroadcast
 282              		.thumb
 283              		.thumb_func
 284              		.type	chCondBroadcast, %function
 285              	chCondBroadcast:
 286              	.LFB242:
 287              		.loc 1 130 0
 288              		.cfi_startproc
 289              		@ args = 0, pretend = 0, frame = 0
 290              		@ frame_needed = 0, uses_anonymous_args = 0
 291              	.LVL17:
 292 0000 08B5     		push	{r3, lr}
 293              		.cfi_def_cfa_offset 8
 294              		.cfi_offset 3, -8
 295              		.cfi_offset 14, -4
 296              	.LBB118:
 297              	.LBB119:
 298              	.LBB120:
 299              	.LBB121:
 300              		.loc 3 264 0
 301 0002 2023     		movs	r3, #32
 302              	@ 264 "../../../../../ChibiOS-RT/os/common/ext/CMSIS/include/cmsis_gcc.h" 1
 303 0004 83F31188 		MSR basepri, r3
 304              	@ 0 "" 2
 305              		.thumb
 306              	.LBE121:
 307              	.LBE120:
 308              	.LBE119:
 309              	.LBE118:
 310              		.loc 1 133 0
 311 0008 FFF7FEFF 		bl	chCondBroadcastI
 312              	.LVL18:
 313              		.loc 1 134 0
 314 000c FFF7FEFF 		bl	chSchRescheduleS
 315              	.LVL19:
 316              	.LBB122:
 317              	.LBB123:
 318              	.LBB124:
 319              	.LBB125:
 320              	.LBB126:
 321              		.loc 3 264 0
 322 0010 0023     		movs	r3, #0
 323              	@ 264 "../../../../../ChibiOS-RT/os/common/ext/CMSIS/include/cmsis_gcc.h" 1
 324 0012 83F31188 		MSR basepri, r3
 325              	@ 0 "" 2
 326              		.thumb
 327 0016 08BD     		pop	{r3, pc}
 328              	.LBE126:
 329              	.LBE125:
 330              	.LBE124:
 331              	.LBE123:
 332              	.LBE122:
 333              		.cfi_endproc
ARM GAS  /tmp/ccFHHhFE.s 			page 7


 334              	.LFE242:
 335              		.size	chCondBroadcast, .-chCondBroadcast
 336 0018 AFF30080 		.section	.text.chCondWaitS,"ax",%progbits
 336      AFF30080 
 337              		.align	2
 338              		.p2align 4,,15
 339              		.global	chCondWaitS
 340              		.thumb
 341              		.thumb_func
 342              		.type	chCondWaitS, %function
 343              	chCondWaitS:
 344              	.LFB245:
 345              		.loc 1 205 0
 346              		.cfi_startproc
 347              		@ args = 0, pretend = 0, frame = 0
 348              		@ frame_needed = 0, uses_anonymous_args = 0
 349              	.LVL20:
 350              		.loc 1 206 0
 351 0000 40F20003 		movw	r3, #:lower16:ch
 352 0004 C0F20003 		movt	r3, #:upper16:ch
 353              		.loc 1 205 0
 354 0008 70B5     		push	{r4, r5, r6, lr}
 355              		.cfi_def_cfa_offset 16
 356              		.cfi_offset 4, -16
 357              		.cfi_offset 5, -12
 358              		.cfi_offset 6, -8
 359              		.cfi_offset 14, -4
 360              		.loc 1 206 0
 361 000a 9C69     		ldr	r4, [r3, #24]
 362              	.LVL21:
 363              	.LBB127:
 364              	.LBB128:
 365              		.file 4 "../../../../../ChibiOS-RT/os/rt/include/chmtx.h"
 366              		.loc 4 147 0
 367 000c A66B     		ldr	r6, [r4, #56]
 368              	.LBE128:
 369              	.LBE127:
 370              		.loc 1 205 0
 371 000e 0546     		mov	r5, r0
 372              		.loc 1 216 0
 373 0010 3046     		mov	r0, r6
 374              	.LVL22:
 375 0012 FFF7FEFF 		bl	chMtxUnlockS
 376              	.LVL23:
 377              		.loc 1 220 0
 378 0016 6562     		str	r5, [r4, #36]
 379              	.LVL24:
 380              	.LBB129:
 381              	.LBB130:
 382              		.loc 2 599 0
 383 0018 2B46     		mov	r3, r5
 384 001a 03E0     		b	.L15
 385              	.LVL25:
 386              	.L17:
 387              		.loc 2 602 0
 388 001c 9968     		ldr	r1, [r3, #8]
 389 001e A268     		ldr	r2, [r4, #8]
ARM GAS  /tmp/ccFHHhFE.s 			page 8


 390 0020 9142     		cmp	r1, r2
 391 0022 02D3     		bcc	.L14
 392              	.L15:
 393              		.loc 2 601 0
 394 0024 1B68     		ldr	r3, [r3]
 395              	.LVL26:
 396              		.loc 2 602 0
 397 0026 9D42     		cmp	r5, r3
 398 0028 F8D1     		bne	.L17
 399              	.L14:
 400              		.loc 2 604 0
 401 002a 5A68     		ldr	r2, [r3, #4]
 402              		.loc 2 603 0
 403 002c 2360     		str	r3, [r4]
 404              		.loc 2 604 0
 405 002e 6260     		str	r2, [r4, #4]
 406              	.LBE130:
 407              	.LBE129:
 408              		.loc 1 222 0
 409 0030 0720     		movs	r0, #7
 410              	.LBB132:
 411              	.LBB131:
 412              		.loc 2 605 0
 413 0032 1460     		str	r4, [r2]
 414              		.loc 2 606 0
 415 0034 5C60     		str	r4, [r3, #4]
 416              	.LBE131:
 417              	.LBE132:
 418              		.loc 1 222 0
 419 0036 FFF7FEFF 		bl	chSchGoSleepS
 420              	.LVL27:
 421              		.loc 1 223 0
 422 003a 646A     		ldr	r4, [r4, #36]
 423              	.LVL28:
 424              		.loc 1 224 0
 425 003c 3046     		mov	r0, r6
 426 003e FFF7FEFF 		bl	chMtxLockS
 427              	.LVL29:
 428              		.loc 1 227 0
 429 0042 2046     		mov	r0, r4
 430 0044 70BD     		pop	{r4, r5, r6, pc}
 431              		.cfi_endproc
 432              	.LFE245:
 433              		.size	chCondWaitS, .-chCondWaitS
 434 0046 00BFAFF3 		.section	.text.chCondWait,"ax",%progbits
 434      0080AFF3 
 434      0080
 435              		.align	2
 436              		.p2align 4,,15
 437              		.global	chCondWait
 438              		.thumb
 439              		.thumb_func
 440              		.type	chCondWait, %function
 441              	chCondWait:
 442              	.LFB244:
 443              		.loc 1 179 0
 444              		.cfi_startproc
ARM GAS  /tmp/ccFHHhFE.s 			page 9


 445              		@ args = 0, pretend = 0, frame = 0
 446              		@ frame_needed = 0, uses_anonymous_args = 0
 447              	.LVL30:
 448 0000 08B5     		push	{r3, lr}
 449              		.cfi_def_cfa_offset 8
 450              		.cfi_offset 3, -8
 451              		.cfi_offset 14, -4
 452              	.LBB133:
 453              	.LBB134:
 454              	.LBB135:
 455              	.LBB136:
 456              		.loc 3 264 0
 457 0002 2023     		movs	r3, #32
 458              	@ 264 "../../../../../ChibiOS-RT/os/common/ext/CMSIS/include/cmsis_gcc.h" 1
 459 0004 83F31188 		MSR basepri, r3
 460              	@ 0 "" 2
 461              		.thumb
 462              	.LBE136:
 463              	.LBE135:
 464              	.LBE134:
 465              	.LBE133:
 466              		.loc 1 183 0
 467 0008 FFF7FEFF 		bl	chCondWaitS
 468              	.LVL31:
 469              	.LBB137:
 470              	.LBB138:
 471              	.LBB139:
 472              	.LBB140:
 473              	.LBB141:
 474              		.loc 3 264 0
 475 000c 0023     		movs	r3, #0
 476              	@ 264 "../../../../../ChibiOS-RT/os/common/ext/CMSIS/include/cmsis_gcc.h" 1
 477 000e 83F31188 		MSR basepri, r3
 478              	@ 0 "" 2
 479              		.thumb
 480              	.LBE141:
 481              	.LBE140:
 482              	.LBE139:
 483              	.LBE138:
 484              	.LBE137:
 485              		.loc 1 186 0
 486 0012 08BD     		pop	{r3, pc}
 487              		.cfi_endproc
 488              	.LFE244:
 489              		.size	chCondWait, .-chCondWait
 490 0014 AFF30080 		.section	.text.chCondWaitTimeoutS,"ax",%progbits
 490      AFF30080 
 490      AFF30080 
 491              		.align	2
 492              		.p2align 4,,15
 493              		.global	chCondWaitTimeoutS
 494              		.thumb
 495              		.thumb_func
 496              		.type	chCondWaitTimeoutS, %function
 497              	chCondWaitTimeoutS:
 498              	.LFB247:
 499              		.loc 1 296 0
ARM GAS  /tmp/ccFHHhFE.s 			page 10


 500              		.cfi_startproc
 501              		@ args = 0, pretend = 0, frame = 0
 502              		@ frame_needed = 0, uses_anonymous_args = 0
 503              	.LVL32:
 504 0000 2DE9F041 		push	{r4, r5, r6, r7, r8, lr}
 505              		.cfi_def_cfa_offset 24
 506              		.cfi_offset 4, -24
 507              		.cfi_offset 5, -20
 508              		.cfi_offset 6, -16
 509              		.cfi_offset 7, -12
 510              		.cfi_offset 8, -8
 511              		.cfi_offset 14, -4
 512              	.LBB142:
 513              	.LBB143:
 514              	.LBB144:
 515              	.LBB145:
 516              		.file 5 "../../../../../ChibiOS-RT/os/rt/include/chthreads.h"
 517              		.loc 5 277 0
 518 0004 40F20004 		movw	r4, #:lower16:ch
 519 0008 C0F20004 		movt	r4, #:upper16:ch
 520              	.LBE145:
 521              	.LBE144:
 522              	.LBE143:
 523              	.LBE142:
 524              		.loc 1 296 0
 525 000c 0646     		mov	r6, r0
 526              	.LBB147:
 527              	.LBB146:
 528              		.loc 4 147 0
 529 000e A369     		ldr	r3, [r4, #24]
 530 0010 9F6B     		ldr	r7, [r3, #56]
 531              	.LBE146:
 532              	.LBE147:
 533              		.loc 1 306 0
 534 0012 3846     		mov	r0, r7
 535              	.LVL33:
 536              		.loc 1 296 0
 537 0014 8846     		mov	r8, r1
 538              		.loc 1 306 0
 539 0016 FFF7FEFF 		bl	chMtxUnlockS
 540              	.LVL34:
 541              		.loc 1 310 0
 542 001a A569     		ldr	r5, [r4, #24]
 543              	.LBB148:
 544              	.LBB149:
 545              		.loc 2 599 0
 546 001c 3346     		mov	r3, r6
 547              	.LBE149:
 548              	.LBE148:
 549              		.loc 1 310 0
 550 001e 6E62     		str	r6, [r5, #36]
 551              	.LVL35:
 552 0020 03E0     		b	.L24
 553              	.LVL36:
 554              	.L20:
 555              	.LBB153:
 556              	.LBB150:
ARM GAS  /tmp/ccFHHhFE.s 			page 11


 557              		.loc 2 602 0
 558 0022 9C68     		ldr	r4, [r3, #8]
 559 0024 AA68     		ldr	r2, [r5, #8]
 560 0026 9442     		cmp	r4, r2
 561 0028 02D3     		bcc	.L23
 562              	.L24:
 563              		.loc 2 601 0
 564 002a 1B68     		ldr	r3, [r3]
 565              	.LVL37:
 566              		.loc 2 602 0
 567 002c 9E42     		cmp	r6, r3
 568 002e F8D1     		bne	.L20
 569              	.L23:
 570              		.loc 2 604 0
 571 0030 5A68     		ldr	r2, [r3, #4]
 572              		.loc 2 603 0
 573 0032 2B60     		str	r3, [r5]
 574              		.loc 2 604 0
 575 0034 6A60     		str	r2, [r5, #4]
 576              	.LBE150:
 577              	.LBE153:
 578              		.loc 1 312 0
 579 0036 4146     		mov	r1, r8
 580              	.LBB154:
 581              	.LBB151:
 582              		.loc 2 605 0
 583 0038 1560     		str	r5, [r2]
 584              	.LBE151:
 585              	.LBE154:
 586              		.loc 1 312 0
 587 003a 0720     		movs	r0, #7
 588              	.LBB155:
 589              	.LBB152:
 590              		.loc 2 606 0
 591 003c 5D60     		str	r5, [r3, #4]
 592              	.LBE152:
 593              	.LBE155:
 594              		.loc 1 312 0
 595 003e FFF7FEFF 		bl	chSchGoSleepTimeoutS
 596              	.LVL38:
 597              		.loc 1 313 0
 598 0042 431C     		adds	r3, r0, #1
 599              		.loc 1 312 0
 600 0044 0446     		mov	r4, r0
 601              	.LVL39:
 602              		.loc 1 313 0
 603 0046 02D0     		beq	.L22
 604              		.loc 1 314 0
 605 0048 3846     		mov	r0, r7
 606              	.LVL40:
 607 004a FFF7FEFF 		bl	chMtxLockS
 608              	.LVL41:
 609              	.L22:
 610              		.loc 1 318 0
 611 004e 2046     		mov	r0, r4
 612 0050 BDE8F081 		pop	{r4, r5, r6, r7, r8, pc}
 613              		.cfi_endproc
ARM GAS  /tmp/ccFHHhFE.s 			page 12


 614              	.LFE247:
 615              		.size	chCondWaitTimeoutS, .-chCondWaitTimeoutS
 616 0054 AFF30080 		.section	.text.chCondWaitTimeout,"ax",%progbits
 616      AFF30080 
 616      AFF30080 
 617              		.align	2
 618              		.p2align 4,,15
 619              		.global	chCondWaitTimeout
 620              		.thumb
 621              		.thumb_func
 622              		.type	chCondWaitTimeout, %function
 623              	chCondWaitTimeout:
 624              	.LFB246:
 625              		.loc 1 258 0
 626              		.cfi_startproc
 627              		@ args = 0, pretend = 0, frame = 0
 628              		@ frame_needed = 0, uses_anonymous_args = 0
 629              	.LVL42:
 630 0000 08B5     		push	{r3, lr}
 631              		.cfi_def_cfa_offset 8
 632              		.cfi_offset 3, -8
 633              		.cfi_offset 14, -4
 634              	.LBB156:
 635              	.LBB157:
 636              	.LBB158:
 637              	.LBB159:
 638              		.loc 3 264 0
 639 0002 2023     		movs	r3, #32
 640              	@ 264 "../../../../../ChibiOS-RT/os/common/ext/CMSIS/include/cmsis_gcc.h" 1
 641 0004 83F31188 		MSR basepri, r3
 642              	@ 0 "" 2
 643              		.thumb
 644              	.LBE159:
 645              	.LBE158:
 646              	.LBE157:
 647              	.LBE156:
 648              		.loc 1 262 0
 649 0008 FFF7FEFF 		bl	chCondWaitTimeoutS
 650              	.LVL43:
 651              	.LBB160:
 652              	.LBB161:
 653              	.LBB162:
 654              	.LBB163:
 655              	.LBB164:
 656              		.loc 3 264 0
 657 000c 0023     		movs	r3, #0
 658              	@ 264 "../../../../../ChibiOS-RT/os/common/ext/CMSIS/include/cmsis_gcc.h" 1
 659 000e 83F31188 		MSR basepri, r3
 660              	@ 0 "" 2
 661              		.thumb
 662              	.LBE164:
 663              	.LBE163:
 664              	.LBE162:
 665              	.LBE161:
 666              	.LBE160:
 667              		.loc 1 266 0
 668 0012 08BD     		pop	{r3, pc}
ARM GAS  /tmp/ccFHHhFE.s 			page 13


 669              		.cfi_endproc
 670              	.LFE246:
 671              		.size	chCondWaitTimeout, .-chCondWaitTimeout
 672 0014 AFF30080 		.text
 672      AFF30080 
 672      AFF30080 
 673              	.Letext0:
 674              		.file 6 "/usr/include/newlib/machine/_default_types.h"
 675              		.file 7 "/usr/include/newlib/stdint.h"
 676              		.file 8 "../../../../../ChibiOS-RT/os/common/ports/ARMCMx/compilers/GCC/chtypes.h"
 677              		.file 9 "../../../../../ChibiOS-RT/os/rt/include/chsystypes.h"
 678              		.file 10 "../../../../../ChibiOS-RT/os/common/ports/ARMCMx/chcore.h"
 679              		.file 11 "../../../../../ChibiOS-RT/os/common/ports/ARMCMx/chcore_v7m.h"
 680              		.file 12 "../../../../../ChibiOS-RT/os/rt/include/chtrace.h"
 681              		.file 13 "../../../../../ChibiOS-RT/os/rt/include/chtm.h"
 682              		.file 14 "../../../../../ChibiOS-RT/os/rt/include/chsem.h"
 683              		.file 15 "../../../../../ChibiOS-RT/os/rt/include/chcond.h"
 684              		.file 16 "../../../../../ChibiOS-RT/os/rt/include/chsys.h"
 685              		.file 17 "../../../../../ChibiOS-RT/os/common/ext/CMSIS/include/core_cm4.h"