ARM GAS  /tmp/ccCl5OHz.s 			page 1


   1              		.syntax unified
   2              		.cpu cortex-m4
   3              		.fpu softvfp
   4              		.eabi_attribute 20, 1
   5              		.eabi_attribute 21, 1
   6              		.eabi_attribute 23, 3
   7              		.eabi_attribute 24, 1
   8              		.eabi_attribute 25, 1
   9              		.eabi_attribute 26, 1
  10              		.eabi_attribute 30, 2
  11              		.eabi_attribute 34, 1
  12              		.eabi_attribute 18, 4
  13              		.thumb
  14              		.file	"chcore_v7m.c"
  15              		.text
  16              	.Ltext0:
  17              		.cfi_sections	.debug_frame
  18              		.section	.text.SVC_Handler,"ax",%progbits
  19              		.align	2
  20              		.p2align 4,,15
  21              		.global	SVC_Handler
  22              		.thumb
  23              		.thumb_func
  24              		.type	SVC_Handler, %function
  25              	SVC_Handler:
  26              	.LFB239:
  27              		.file 1 "../../../../../ChibiOS-RT/os/common/ports/ARMCMx/chcore_v7m.c"
  28              		.loc 1 62 0
  29              		.cfi_startproc
  30              		@ args = 0, pretend = 0, frame = 0
  31              		@ frame_needed = 0, uses_anonymous_args = 0
  32              		@ link register save eliminated.
  33              	.LBB38:
  34              	.LBB39:
  35              		.file 2 "../../../../../ChibiOS-RT/os/common/ext/CMSIS/include/cmsis_gcc.h"
  36              		.loc 2 152 0
  37              	@ 152 "../../../../../ChibiOS-RT/os/common/ext/CMSIS/include/cmsis_gcc.h" 1
  38 0000 EFF30983 		MRS r3, psp
  39              	
  40              	@ 0 "" 2
  41              	.LVL0:
  42              		.thumb
  43              	.LBE39:
  44              	.LBE38:
  45              		.loc 1 76 0
  46 0004 2033     		adds	r3, r3, #32
  47              	.LVL1:
  48              	.LBB40:
  49              	.LBB41:
  50              		.loc 2 164 0
  51              	@ 164 "../../../../../ChibiOS-RT/os/common/ext/CMSIS/include/cmsis_gcc.h" 1
  52 0006 83F30988 		MSR psp, r3
  53              	
  54              	@ 0 "" 2
  55              	.LVL2:
  56              		.thumb
  57              	.LBE41:
ARM GAS  /tmp/ccCl5OHz.s 			page 2


  58              	.LBE40:
  59              	.LBB42:
  60              	.LBB43:
  61              	.LBB44:
  62              	.LBB45:
  63              		.loc 2 264 0
  64 000a 0023     		movs	r3, #0
  65              	.LVL3:
  66              	@ 264 "../../../../../ChibiOS-RT/os/common/ext/CMSIS/include/cmsis_gcc.h" 1
  67 000c 83F31188 		MSR basepri, r3
  68              	@ 0 "" 2
  69              		.thumb
  70 0010 7047     		bx	lr
  71              	.LBE45:
  72              	.LBE44:
  73              	.LBE43:
  74              	.LBE42:
  75              		.cfi_endproc
  76              	.LFE239:
  77              		.size	SVC_Handler, .-SVC_Handler
  78 0012 00BFAFF3 		.section	.text._port_irq_epilogue,"ax",%progbits
  78      0080AFF3 
  78      0080AFF3 
  78      0080
  79              		.align	2
  80              		.p2align 4,,15
  81              		.global	_port_irq_epilogue
  82              		.thumb
  83              		.thumb_func
  84              		.type	_port_irq_epilogue, %function
  85              	_port_irq_epilogue:
  86              	.LFB240:
  87              		.loc 1 122 0
  88              		.cfi_startproc
  89              		@ args = 0, pretend = 0, frame = 0
  90              		@ frame_needed = 0, uses_anonymous_args = 0
  91              	.LVL4:
  92 0000 10B5     		push	{r4, lr}
  93              		.cfi_def_cfa_offset 8
  94              		.cfi_offset 4, -8
  95              		.cfi_offset 14, -4
  96              	.LBB46:
  97              	.LBB47:
  98              	.LBB48:
  99              	.LBB49:
 100              		.loc 2 264 0
 101 0002 2023     		movs	r3, #32
 102              	@ 264 "../../../../../ChibiOS-RT/os/common/ext/CMSIS/include/cmsis_gcc.h" 1
 103 0004 83F31188 		MSR basepri, r3
 104              	@ 0 "" 2
 105              		.thumb
 106              	.LBE49:
 107              	.LBE48:
 108              	.LBE47:
 109              	.LBE46:
 110              		.loc 1 125 0
 111 0008 4FF46D43 		mov	r3, #60672
ARM GAS  /tmp/ccCl5OHz.s 			page 3


 112 000c CEF20003 		movt	r3, 57344
 113 0010 5B68     		ldr	r3, [r3, #4]
 114 0012 13F40063 		ands	r3, r3, #2048
 115 0016 02D1     		bne	.L7
 116              	.LVL5:
 117              	.LBB50:
 118              	.LBB51:
 119              	.LBB52:
 120              	.LBB53:
 121              		.loc 2 264 0
 122              	@ 264 "../../../../../ChibiOS-RT/os/common/ext/CMSIS/include/cmsis_gcc.h" 1
 123 0018 83F31188 		MSR basepri, r3
 124              	@ 0 "" 2
 125              		.thumb
 126 001c 10BD     		pop	{r4, pc}
 127              	.LVL6:
 128              	.L7:
 129              	.LBE53:
 130              	.LBE52:
 131              	.LBE51:
 132              	.LBE50:
 133              	.LBB54:
 134              	.LBB55:
 135              	.LBB56:
 136              		.loc 2 152 0
 137              	@ 152 "../../../../../ChibiOS-RT/os/common/ext/CMSIS/include/cmsis_gcc.h" 1
 138 001e EFF30984 		MRS r4, psp
 139              	
 140              	@ 0 "" 2
 141              	.LVL7:
 142              		.thumb
 143              	.LBE56:
 144              	.LBE55:
 145              		.loc 1 141 0
 146 0022 4FF08073 		mov	r3, #16777216
 147 0026 44F8043C 		str	r3, [r4, #-4]
 148              	.LVL8:
 149              		.loc 1 138 0
 150 002a A4F12003 		sub	r3, r4, #32
 151              	.LVL9:
 152              	.LBB57:
 153              	.LBB58:
 154              		.loc 2 164 0
 155              	@ 164 "../../../../../ChibiOS-RT/os/common/ext/CMSIS/include/cmsis_gcc.h" 1
 156 002e 83F30988 		MSR psp, r3
 157              	
 158              	@ 0 "" 2
 159              		.thumb
 160              	.LBE58:
 161              	.LBE57:
 162              		.loc 1 151 0
 163 0032 FFF7FEFF 		bl	chSchIsPreemptionRequired
 164              	.LVL10:
 165 0036 30B1     		cbz	r0, .L4
 166              		.loc 1 153 0
 167 0038 40F20003 		movw	r3, #:lower16:_port_switch_from_isr
 168 003c C0F20003 		movt	r3, #:upper16:_port_switch_from_isr
ARM GAS  /tmp/ccCl5OHz.s 			page 4


 169 0040 44F8083C 		str	r3, [r4, #-8]
 170 0044 10BD     		pop	{r4, pc}
 171              	.LVL11:
 172              	.L4:
 173              		.loc 1 158 0
 174 0046 40F20003 		movw	r3, #:lower16:_port_exit_from_isr
 175 004a C0F20003 		movt	r3, #:upper16:_port_exit_from_isr
 176 004e 44F8083C 		str	r3, [r4, #-8]
 177 0052 10BD     		pop	{r4, pc}
 178              	.LBE54:
 179              		.cfi_endproc
 180              	.LFE240:
 181              		.size	_port_irq_epilogue, .-_port_irq_epilogue
 182 0054 AFF30080 		.text
 182      AFF30080 
 182      AFF30080 
 183              	.Letext0:
 184              		.file 3 "/usr/include/newlib/machine/_default_types.h"
 185              		.file 4 "/usr/include/newlib/stdint.h"
 186              		.file 5 "../../../../../ChibiOS-RT/os/common/ports/ARMCMx/compilers/GCC/chtypes.h"
 187              		.file 6 "../../../../../ChibiOS-RT/os/rt/include/chsystypes.h"
 188              		.file 7 "../../../../../ChibiOS-RT/os/rt/include/chschd.h"
 189              		.file 8 "../../../../../ChibiOS-RT/os/common/ext/CMSIS/include/core_cm4.h"
 190              		.file 9 "../../../../../ChibiOS-RT/os/common/ports/ARMCMx/chcore.h"
 191              		.file 10 "../../../../../ChibiOS-RT/os/common/ports/ARMCMx/chcore_v7m.h"
 192              		.file 11 "../../../../../ChibiOS-RT/os/rt/include/chtrace.h"
 193              		.file 12 "../../../../../ChibiOS-RT/os/rt/include/chtm.h"
 194              		.file 13 "../../../../../ChibiOS-RT/os/rt/include/chsem.h"
 195              		.file 14 "../../../../../ChibiOS-RT/os/rt/include/chmtx.h"
 196              		.section	.debug_info,"",%progbits
 197              	.Ldebug_info0:
 198 0000 AD0B0000 		.4byte	0xbad
 199 0004 0400     		.2byte	0x4
 200 0006 00000000 		.4byte	.Ldebug_abbrev0
 201 000a 04       		.byte	0x4
 202 000b 01       		.uleb128 0x1
 203 000c 7D030000 		.4byte	.LASF135
 204 0010 01       		.byte	0x1
 205 0011 C3040000 		.4byte	.LASF136
 206 0015 10010000 		.4byte	.LASF137
 207 0019 00000000 		.4byte	.Ldebug_ranges0+0
 208 001d 00000000 		.4byte	0
 209 0021 00000000 		.4byte	.Ldebug_line0
 210 0025 02       		.uleb128 0x2
 211 0026 04       		.byte	0x4
 212 0027 05       		.byte	0x5
 213 0028 696E7400 		.ascii	"int\000"
 214 002c 03       		.uleb128 0x3
 215 002d 04       		.byte	0x4
 216 002e 07       		.byte	0x7
 217 002f 6A000000 		.4byte	.LASF0
 218 0033 03       		.uleb128 0x3
 219 0034 01       		.byte	0x1
 220 0035 06       		.byte	0x6
 221 0036 37060000 		.4byte	.LASF1
 222 003a 04       		.uleb128 0x4
 223 003b 07050000 		.4byte	.LASF4
ARM GAS  /tmp/ccCl5OHz.s 			page 5


 224 003f 03       		.byte	0x3
 225 0040 1C       		.byte	0x1c
 226 0041 45000000 		.4byte	0x45
 227 0045 03       		.uleb128 0x3
 228 0046 01       		.byte	0x1
 229 0047 08       		.byte	0x8
 230 0048 B5050000 		.4byte	.LASF2
 231 004c 03       		.uleb128 0x3
 232 004d 02       		.byte	0x2
 233 004e 05       		.byte	0x5
 234 004f 68040000 		.4byte	.LASF3
 235 0053 04       		.uleb128 0x4
 236 0054 2A020000 		.4byte	.LASF5
 237 0058 03       		.byte	0x3
 238 0059 26       		.byte	0x26
 239 005a 5E000000 		.4byte	0x5e
 240 005e 03       		.uleb128 0x3
 241 005f 02       		.byte	0x2
 242 0060 07       		.byte	0x7
 243 0061 49060000 		.4byte	.LASF6
 244 0065 04       		.uleb128 0x4
 245 0066 90000000 		.4byte	.LASF7
 246 006a 03       		.byte	0x3
 247 006b 37       		.byte	0x37
 248 006c 70000000 		.4byte	0x70
 249 0070 03       		.uleb128 0x3
 250 0071 04       		.byte	0x4
 251 0072 05       		.byte	0x5
 252 0073 77040000 		.4byte	.LASF8
 253 0077 04       		.uleb128 0x4
 254 0078 C3050000 		.4byte	.LASF9
 255 007c 03       		.byte	0x3
 256 007d 38       		.byte	0x38
 257 007e 82000000 		.4byte	0x82
 258 0082 03       		.uleb128 0x3
 259 0083 04       		.byte	0x4
 260 0084 07       		.byte	0x7
 261 0085 4B050000 		.4byte	.LASF10
 262 0089 03       		.uleb128 0x3
 263 008a 08       		.byte	0x8
 264 008b 05       		.byte	0x5
 265 008c 3E030000 		.4byte	.LASF11
 266 0090 04       		.uleb128 0x4
 267 0091 BB020000 		.4byte	.LASF12
 268 0095 03       		.byte	0x3
 269 0096 4E       		.byte	0x4e
 270 0097 9B000000 		.4byte	0x9b
 271 009b 03       		.uleb128 0x3
 272 009c 08       		.byte	0x8
 273 009d 07       		.byte	0x7
 274 009e F2010000 		.4byte	.LASF13
 275 00a2 04       		.uleb128 0x4
 276 00a3 14030000 		.4byte	.LASF14
 277 00a7 04       		.byte	0x4
 278 00a8 2A       		.byte	0x2a
 279 00a9 3A000000 		.4byte	0x3a
 280 00ad 04       		.uleb128 0x4
ARM GAS  /tmp/ccCl5OHz.s 			page 6


 281 00ae 37040000 		.4byte	.LASF15
 282 00b2 04       		.byte	0x4
 283 00b3 36       		.byte	0x36
 284 00b4 53000000 		.4byte	0x53
 285 00b8 04       		.uleb128 0x4
 286 00b9 78050000 		.4byte	.LASF16
 287 00bd 04       		.byte	0x4
 288 00be 41       		.byte	0x41
 289 00bf 65000000 		.4byte	0x65
 290 00c3 04       		.uleb128 0x4
 291 00c4 9E010000 		.4byte	.LASF17
 292 00c8 04       		.byte	0x4
 293 00c9 42       		.byte	0x42
 294 00ca 77000000 		.4byte	0x77
 295 00ce 04       		.uleb128 0x4
 296 00cf BA040000 		.4byte	.LASF18
 297 00d3 04       		.byte	0x4
 298 00d4 4E       		.byte	0x4e
 299 00d5 90000000 		.4byte	0x90
 300 00d9 04       		.uleb128 0x4
 301 00da 40040000 		.4byte	.LASF19
 302 00de 05       		.byte	0x5
 303 00df 39       		.byte	0x39
 304 00e0 C3000000 		.4byte	0xc3
 305 00e4 04       		.uleb128 0x4
 306 00e5 24040000 		.4byte	.LASF20
 307 00e9 05       		.byte	0x5
 308 00ea 3C       		.byte	0x3c
 309 00eb A2000000 		.4byte	0xa2
 310 00ef 04       		.uleb128 0x4
 311 00f0 05030000 		.4byte	.LASF21
 312 00f4 05       		.byte	0x5
 313 00f5 3D       		.byte	0x3d
 314 00f6 A2000000 		.4byte	0xa2
 315 00fa 04       		.uleb128 0x4
 316 00fb 43050000 		.4byte	.LASF22
 317 00ff 05       		.byte	0x5
 318 0100 3E       		.byte	0x3e
 319 0101 A2000000 		.4byte	0xa2
 320 0105 04       		.uleb128 0x4
 321 0106 CD010000 		.4byte	.LASF23
 322 010a 05       		.byte	0x5
 323 010b 40       		.byte	0x40
 324 010c C3000000 		.4byte	0xc3
 325 0110 04       		.uleb128 0x4
 326 0111 4C030000 		.4byte	.LASF24
 327 0115 05       		.byte	0x5
 328 0116 41       		.byte	0x41
 329 0117 B8000000 		.4byte	0xb8
 330 011b 04       		.uleb128 0x4
 331 011c B4010000 		.4byte	.LASF25
 332 0120 05       		.byte	0x5
 333 0121 43       		.byte	0x43
 334 0122 C3000000 		.4byte	0xc3
 335 0126 04       		.uleb128 0x4
 336 0127 35020000 		.4byte	.LASF26
 337 012b 05       		.byte	0x5
ARM GAS  /tmp/ccCl5OHz.s 			page 7


 338 012c 45       		.byte	0x45
 339 012d B8000000 		.4byte	0xb8
 340 0131 04       		.uleb128 0x4
 341 0132 3D000000 		.4byte	.LASF27
 342 0136 06       		.byte	0x6
 343 0137 33       		.byte	0x33
 344 0138 C3000000 		.4byte	0xc3
 345 013c 04       		.uleb128 0x4
 346 013d 8A020000 		.4byte	.LASF28
 347 0141 06       		.byte	0x6
 348 0142 3F       		.byte	0x3f
 349 0143 47010000 		.4byte	0x147
 350 0147 05       		.uleb128 0x5
 351 0148 25030000 		.4byte	.LASF46
 352 014c 44       		.byte	0x44
 353 014d 07       		.byte	0x7
 354 014e 9A       		.byte	0x9a
 355 014f 25020000 		.4byte	0x225
 356 0153 06       		.uleb128 0x6
 357 0154 72050000 		.4byte	.LASF29
 358 0158 07       		.byte	0x7
 359 0159 9B       		.byte	0x9b
 360 015a 5A020000 		.4byte	0x25a
 361 015e 00       		.byte	0
 362 015f 06       		.uleb128 0x6
 363 0160 DC020000 		.4byte	.LASF30
 364 0164 07       		.byte	0x7
 365 0165 9C       		.byte	0x9c
 366 0166 05010000 		.4byte	0x105
 367 016a 08       		.byte	0x8
 368 016b 07       		.uleb128 0x7
 369 016c 63747800 		.ascii	"ctx\000"
 370 0170 07       		.byte	0x7
 371 0171 9D       		.byte	0x9d
 372 0172 F7050000 		.4byte	0x5f7
 373 0176 0C       		.byte	0xc
 374 0177 06       		.uleb128 0x6
 375 0178 95050000 		.4byte	.LASF31
 376 017c 07       		.byte	0x7
 377 017d 9F       		.byte	0x9f
 378 017e 30020000 		.4byte	0x230
 379 0182 10       		.byte	0x10
 380 0183 06       		.uleb128 0x6
 381 0184 80060000 		.4byte	.LASF32
 382 0188 07       		.byte	0x7
 383 0189 A0       		.byte	0xa0
 384 018a 30020000 		.4byte	0x230
 385 018e 14       		.byte	0x14
 386 018f 06       		.uleb128 0x6
 387 0190 26050000 		.4byte	.LASF33
 388 0194 07       		.byte	0x7
 389 0195 A7       		.byte	0xa7
 390 0196 38070000 		.4byte	0x738
 391 019a 18       		.byte	0x18
 392 019b 06       		.uleb128 0x6
 393 019c F9020000 		.4byte	.LASF34
 394 01a0 07       		.byte	0x7
ARM GAS  /tmp/ccCl5OHz.s 			page 8


 395 01a1 B0       		.byte	0xb0
 396 01a2 51090000 		.4byte	0x951
 397 01a6 1C       		.byte	0x1c
 398 01a7 06       		.uleb128 0x6
 399 01a8 FF050000 		.4byte	.LASF35
 400 01ac 07       		.byte	0x7
 401 01ad B5       		.byte	0xb5
 402 01ae EF000000 		.4byte	0xef
 403 01b2 20       		.byte	0x20
 404 01b3 06       		.uleb128 0x6
 405 01b4 37000000 		.4byte	.LASF36
 406 01b8 07       		.byte	0x7
 407 01b9 B9       		.byte	0xb9
 408 01ba E4000000 		.4byte	0xe4
 409 01be 21       		.byte	0x21
 410 01bf 06       		.uleb128 0x6
 411 01c0 9A000000 		.4byte	.LASF37
 412 01c4 07       		.byte	0x7
 413 01c5 BE       		.byte	0xbe
 414 01c6 FA000000 		.4byte	0xfa
 415 01ca 22       		.byte	0x22
 416 01cb 08       		.uleb128 0x8
 417 01cc 7500     		.ascii	"u\000"
 418 01ce 07       		.byte	0x7
 419 01cf 0F01     		.2byte	0x10f
 420 01d1 86080000 		.4byte	0x886
 421 01d5 24       		.byte	0x24
 422 01d6 09       		.uleb128 0x9
 423 01d7 CE050000 		.4byte	.LASF38
 424 01db 07       		.byte	0x7
 425 01dc 1401     		.2byte	0x114
 426 01de 36020000 		.4byte	0x236
 427 01e2 28       		.byte	0x28
 428 01e3 09       		.uleb128 0x9
 429 01e4 1C030000 		.4byte	.LASF39
 430 01e8 07       		.byte	0x7
 431 01e9 1A01     		.2byte	0x11a
 432 01eb 5A020000 		.4byte	0x25a
 433 01ef 2C       		.byte	0x2c
 434 01f0 09       		.uleb128 0x9
 435 01f1 61000000 		.4byte	.LASF40
 436 01f5 07       		.byte	0x7
 437 01f6 2001     		.2byte	0x120
 438 01f8 1B010000 		.4byte	0x11b
 439 01fc 34       		.byte	0x34
 440 01fd 09       		.uleb128 0x9
 441 01fe 6B020000 		.4byte	.LASF41
 442 0202 07       		.byte	0x7
 443 0203 2701     		.2byte	0x127
 444 0205 4B090000 		.4byte	0x94b
 445 0209 38       		.byte	0x38
 446 020a 09       		.uleb128 0x9
 447 020b 47000000 		.4byte	.LASF42
 448 020f 07       		.byte	0x7
 449 0210 2B01     		.2byte	0x12b
 450 0212 05010000 		.4byte	0x105
 451 0216 3C       		.byte	0x3c
ARM GAS  /tmp/ccCl5OHz.s 			page 9


 452 0217 09       		.uleb128 0x9
 453 0218 8F060000 		.4byte	.LASF43
 454 021c 07       		.byte	0x7
 455 021d 3201     		.2byte	0x132
 456 021f 0D030000 		.4byte	0x30d
 457 0223 40       		.byte	0x40
 458 0224 00       		.byte	0
 459 0225 04       		.uleb128 0x4
 460 0226 E6020000 		.4byte	.LASF44
 461 022a 06       		.byte	0x6
 462 022b 44       		.byte	0x44
 463 022c 30020000 		.4byte	0x230
 464 0230 0A       		.uleb128 0xa
 465 0231 04       		.byte	0x4
 466 0232 3C010000 		.4byte	0x13c
 467 0236 04       		.uleb128 0x4
 468 0237 7C000000 		.4byte	.LASF45
 469 023b 06       		.byte	0x6
 470 023c 49       		.byte	0x49
 471 023d 41020000 		.4byte	0x241
 472 0241 05       		.uleb128 0x5
 473 0242 00000000 		.4byte	.LASF47
 474 0246 04       		.byte	0x4
 475 0247 07       		.byte	0x7
 476 0248 88       		.byte	0x88
 477 0249 5A020000 		.4byte	0x25a
 478 024d 06       		.uleb128 0x6
 479 024e 77000000 		.4byte	.LASF48
 480 0252 07       		.byte	0x7
 481 0253 89       		.byte	0x89
 482 0254 30020000 		.4byte	0x230
 483 0258 00       		.byte	0
 484 0259 00       		.byte	0
 485 025a 04       		.uleb128 0x4
 486 025b 46020000 		.4byte	.LASF49
 487 025f 06       		.byte	0x6
 488 0260 50       		.byte	0x50
 489 0261 65020000 		.4byte	0x265
 490 0265 05       		.uleb128 0x5
 491 0266 F6000000 		.4byte	.LASF50
 492 026a 08       		.byte	0x8
 493 026b 07       		.byte	0x7
 494 026c 8F       		.byte	0x8f
 495 026d 8A020000 		.4byte	0x28a
 496 0271 06       		.uleb128 0x6
 497 0272 77000000 		.4byte	.LASF48
 498 0276 07       		.byte	0x7
 499 0277 90       		.byte	0x90
 500 0278 30020000 		.4byte	0x230
 501 027c 00       		.byte	0
 502 027d 06       		.uleb128 0x6
 503 027e F1000000 		.4byte	.LASF51
 504 0282 07       		.byte	0x7
 505 0283 91       		.byte	0x91
 506 0284 30020000 		.4byte	0x230
 507 0288 04       		.byte	0x4
 508 0289 00       		.byte	0
ARM GAS  /tmp/ccCl5OHz.s 			page 10


 509 028a 04       		.uleb128 0x4
 510 028b 5D050000 		.4byte	.LASF52
 511 028f 06       		.byte	0x6
 512 0290 57       		.byte	0x57
 513 0291 95020000 		.4byte	0x295
 514 0295 0B       		.uleb128 0xb
 515 0296 D7000000 		.4byte	.LASF53
 516 029a 1C       		.byte	0x1c
 517 029b 07       		.byte	0x7
 518 029c 6A01     		.2byte	0x16a
 519 029e F1020000 		.4byte	0x2f1
 520 02a2 09       		.uleb128 0x9
 521 02a3 72050000 		.4byte	.LASF29
 522 02a7 07       		.byte	0x7
 523 02a8 6B01     		.2byte	0x16b
 524 02aa 5A020000 		.4byte	0x25a
 525 02ae 00       		.byte	0
 526 02af 09       		.uleb128 0x9
 527 02b0 DC020000 		.4byte	.LASF30
 528 02b4 07       		.byte	0x7
 529 02b5 6C01     		.2byte	0x16c
 530 02b7 05010000 		.4byte	0x105
 531 02bb 08       		.byte	0x8
 532 02bc 08       		.uleb128 0x8
 533 02bd 63747800 		.ascii	"ctx\000"
 534 02c1 07       		.byte	0x7
 535 02c2 6E01     		.2byte	0x16e
 536 02c4 F7050000 		.4byte	0x5f7
 537 02c8 0C       		.byte	0xc
 538 02c9 09       		.uleb128 0x9
 539 02ca 95050000 		.4byte	.LASF31
 540 02ce 07       		.byte	0x7
 541 02cf 7101     		.2byte	0x171
 542 02d1 30020000 		.4byte	0x230
 543 02d5 10       		.byte	0x10
 544 02d6 09       		.uleb128 0x9
 545 02d7 80060000 		.4byte	.LASF32
 546 02db 07       		.byte	0x7
 547 02dc 7201     		.2byte	0x172
 548 02de 30020000 		.4byte	0x230
 549 02e2 14       		.byte	0x14
 550 02e3 09       		.uleb128 0x9
 551 02e4 67060000 		.4byte	.LASF54
 552 02e8 07       		.byte	0x7
 553 02e9 7501     		.2byte	0x175
 554 02eb 30020000 		.4byte	0x230
 555 02ef 18       		.byte	0x18
 556 02f0 00       		.byte	0
 557 02f1 04       		.uleb128 0x4
 558 02f2 07010000 		.4byte	.LASF55
 559 02f6 06       		.byte	0x6
 560 02f7 5C       		.byte	0x5c
 561 02f8 FC020000 		.4byte	0x2fc
 562 02fc 0A       		.uleb128 0xa
 563 02fd 04       		.byte	0x4
 564 02fe 02030000 		.4byte	0x302
 565 0302 0C       		.uleb128 0xc
ARM GAS  /tmp/ccCl5OHz.s 			page 11


 566 0303 0D030000 		.4byte	0x30d
 567 0307 0D       		.uleb128 0xd
 568 0308 0D030000 		.4byte	0x30d
 569 030c 00       		.byte	0
 570 030d 0E       		.uleb128 0xe
 571 030e 04       		.byte	0x4
 572 030f 04       		.uleb128 0x4
 573 0310 57030000 		.4byte	.LASF56
 574 0314 06       		.byte	0x6
 575 0315 61       		.byte	0x61
 576 0316 1A030000 		.4byte	0x31a
 577 031a 0B       		.uleb128 0xb
 578 031b D5010000 		.4byte	.LASF57
 579 031f 14       		.byte	0x14
 580 0320 07       		.byte	0x7
 581 0321 4501     		.2byte	0x145
 582 0323 69030000 		.4byte	0x369
 583 0327 09       		.uleb128 0x9
 584 0328 77000000 		.4byte	.LASF48
 585 032c 07       		.byte	0x7
 586 032d 4601     		.2byte	0x146
 587 032f 57090000 		.4byte	0x957
 588 0333 00       		.byte	0
 589 0334 09       		.uleb128 0x9
 590 0335 F1000000 		.4byte	.LASF51
 591 0339 07       		.byte	0x7
 592 033a 4701     		.2byte	0x147
 593 033c 57090000 		.4byte	0x957
 594 0340 04       		.byte	0x4
 595 0341 09       		.uleb128 0x9
 596 0342 43060000 		.4byte	.LASF58
 597 0346 07       		.byte	0x7
 598 0347 4801     		.2byte	0x148
 599 0349 31010000 		.4byte	0x131
 600 034d 08       		.byte	0x8
 601 034e 09       		.uleb128 0x9
 602 034f E5000000 		.4byte	.LASF59
 603 0353 07       		.byte	0x7
 604 0354 4901     		.2byte	0x149
 605 0356 F1020000 		.4byte	0x2f1
 606 035a 0C       		.byte	0xc
 607 035b 08       		.uleb128 0x8
 608 035c 70617200 		.ascii	"par\000"
 609 0360 07       		.byte	0x7
 610 0361 4B01     		.2byte	0x14b
 611 0363 0D030000 		.4byte	0x30d
 612 0367 10       		.byte	0x10
 613 0368 00       		.byte	0
 614 0369 04       		.uleb128 0x4
 615 036a D6050000 		.4byte	.LASF60
 616 036e 06       		.byte	0x6
 617 036f 66       		.byte	0x66
 618 0370 74030000 		.4byte	0x374
 619 0374 0B       		.uleb128 0xb
 620 0375 73020000 		.4byte	.LASF61
 621 0379 10       		.byte	0x10
 622 037a 07       		.byte	0x7
ARM GAS  /tmp/ccCl5OHz.s 			page 12


 623 037b 5501     		.2byte	0x155
 624 037d B6030000 		.4byte	0x3b6
 625 0381 09       		.uleb128 0x9
 626 0382 77000000 		.4byte	.LASF48
 627 0386 07       		.byte	0x7
 628 0387 5601     		.2byte	0x156
 629 0389 57090000 		.4byte	0x957
 630 038d 00       		.byte	0
 631 038e 09       		.uleb128 0x9
 632 038f F1000000 		.4byte	.LASF51
 633 0393 07       		.byte	0x7
 634 0394 5801     		.2byte	0x158
 635 0396 57090000 		.4byte	0x957
 636 039a 04       		.byte	0x4
 637 039b 09       		.uleb128 0x9
 638 039c 43060000 		.4byte	.LASF58
 639 03a0 07       		.byte	0x7
 640 03a1 5A01     		.2byte	0x15a
 641 03a3 31010000 		.4byte	0x131
 642 03a7 08       		.byte	0x8
 643 03a8 09       		.uleb128 0x9
 644 03a9 B1040000 		.4byte	.LASF62
 645 03ad 07       		.byte	0x7
 646 03ae 6201     		.2byte	0x162
 647 03b0 31010000 		.4byte	0x131
 648 03b4 0C       		.byte	0xc
 649 03b5 00       		.byte	0
 650 03b6 04       		.uleb128 0x4
 651 03b7 2F030000 		.4byte	.LASF63
 652 03bb 06       		.byte	0x6
 653 03bc 6B       		.byte	0x6b
 654 03bd C1030000 		.4byte	0x3c1
 655 03c1 0F       		.uleb128 0xf
 656 03c2 8E010000 		.4byte	.LASF64
 657 03c6 0C08     		.2byte	0x80c
 658 03c8 07       		.byte	0x7
 659 03c9 7C01     		.2byte	0x17c
 660 03cb EA030000 		.4byte	0x3ea
 661 03cf 09       		.uleb128 0x9
 662 03d0 1A040000 		.4byte	.LASF65
 663 03d4 07       		.byte	0x7
 664 03d5 8401     		.2byte	0x184
 665 03d7 5D090000 		.4byte	0x95d
 666 03db 00       		.byte	0
 667 03dc 09       		.uleb128 0x9
 668 03dd 80050000 		.4byte	.LASF66
 669 03e1 07       		.byte	0x7
 670 03e2 9301     		.2byte	0x193
 671 03e4 5B080000 		.4byte	0x85b
 672 03e8 04       		.byte	0x4
 673 03e9 00       		.byte	0
 674 03ea 04       		.uleb128 0x4
 675 03eb 0C060000 		.4byte	.LASF67
 676 03ef 06       		.byte	0x6
 677 03f0 70       		.byte	0x70
 678 03f1 F5030000 		.4byte	0x3f5
 679 03f5 0F       		.uleb128 0xf
ARM GAS  /tmp/ccCl5OHz.s 			page 13


 680 03f6 99040000 		.4byte	.LASF68
 681 03fa 8008     		.2byte	0x880
 682 03fc 07       		.byte	0x7
 683 03fd 9C01     		.2byte	0x19c
 684 03ff 46040000 		.4byte	0x446
 685 0403 09       		.uleb128 0x9
 686 0404 01050000 		.4byte	.LASF69
 687 0408 07       		.byte	0x7
 688 0409 A001     		.2byte	0x1a0
 689 040b 8A020000 		.4byte	0x28a
 690 040f 00       		.byte	0
 691 0410 09       		.uleb128 0x9
 692 0411 B0000000 		.4byte	.LASF70
 693 0415 07       		.byte	0x7
 694 0416 A401     		.2byte	0x1a4
 695 0418 69030000 		.4byte	0x369
 696 041c 1C       		.byte	0x1c
 697 041d 08       		.uleb128 0x8
 698 041e 64626700 		.ascii	"dbg\000"
 699 0422 07       		.byte	0x7
 700 0423 A801     		.2byte	0x1a8
 701 0425 B6030000 		.4byte	0x3b6
 702 0429 2C       		.byte	0x2c
 703 042a 10       		.uleb128 0x10
 704 042b 2C040000 		.4byte	.LASF71
 705 042f 07       		.byte	0x7
 706 0430 AC01     		.2byte	0x1ac
 707 0432 3C010000 		.4byte	0x13c
 708 0436 3808     		.2byte	0x838
 709 0438 11       		.uleb128 0x11
 710 0439 746D00   		.ascii	"tm\000"
 711 043c 07       		.byte	0x7
 712 043d B101     		.2byte	0x1b1
 713 043f 7B080000 		.4byte	0x87b
 714 0443 7C08     		.2byte	0x87c
 715 0445 00       		.byte	0
 716 0446 03       		.uleb128 0x3
 717 0447 04       		.byte	0x4
 718 0448 07       		.byte	0x7
 719 0449 3A050000 		.4byte	.LASF72
 720 044d 12       		.uleb128 0x12
 721 044e C3000000 		.4byte	0xc3
 722 0452 13       		.uleb128 0x13
 723 0453 8C       		.byte	0x8c
 724 0454 08       		.byte	0x8
 725 0455 E501     		.2byte	0x1e5
 726 0457 6D050000 		.4byte	0x56d
 727 045b 09       		.uleb128 0x9
 728 045c A6020000 		.4byte	.LASF73
 729 0460 08       		.byte	0x8
 730 0461 E701     		.2byte	0x1e7
 731 0463 6D050000 		.4byte	0x56d
 732 0467 00       		.byte	0
 733 0468 09       		.uleb128 0x9
 734 0469 00030000 		.4byte	.LASF74
 735 046d 08       		.byte	0x8
 736 046e E801     		.2byte	0x1e8
ARM GAS  /tmp/ccCl5OHz.s 			page 14


 737 0470 4D040000 		.4byte	0x44d
 738 0474 04       		.byte	0x4
 739 0475 09       		.uleb128 0x9
 740 0476 30050000 		.4byte	.LASF75
 741 047a 08       		.byte	0x8
 742 047b E901     		.2byte	0x1e9
 743 047d 4D040000 		.4byte	0x44d
 744 0481 08       		.byte	0x8
 745 0482 09       		.uleb128 0x9
 746 0483 0E030000 		.4byte	.LASF76
 747 0487 08       		.byte	0x8
 748 0488 EA01     		.2byte	0x1ea
 749 048a 4D040000 		.4byte	0x44d
 750 048e 0C       		.byte	0xc
 751 048f 08       		.uleb128 0x8
 752 0490 53435200 		.ascii	"SCR\000"
 753 0494 08       		.byte	0x8
 754 0495 EB01     		.2byte	0x1eb
 755 0497 4D040000 		.4byte	0x44d
 756 049b 10       		.byte	0x10
 757 049c 08       		.uleb128 0x8
 758 049d 43435200 		.ascii	"CCR\000"
 759 04a1 08       		.byte	0x8
 760 04a2 EC01     		.2byte	0x1ec
 761 04a4 4D040000 		.4byte	0x44d
 762 04a8 14       		.byte	0x14
 763 04a9 08       		.uleb128 0x8
 764 04aa 53485000 		.ascii	"SHP\000"
 765 04ae 08       		.byte	0x8
 766 04af ED01     		.2byte	0x1ed
 767 04b1 82050000 		.4byte	0x582
 768 04b5 18       		.byte	0x18
 769 04b6 09       		.uleb128 0x9
 770 04b7 62040000 		.4byte	.LASF77
 771 04bb 08       		.byte	0x8
 772 04bc EE01     		.2byte	0x1ee
 773 04be 4D040000 		.4byte	0x44d
 774 04c2 24       		.byte	0x24
 775 04c3 09       		.uleb128 0x9
 776 04c4 52030000 		.4byte	.LASF78
 777 04c8 08       		.byte	0x8
 778 04c9 EF01     		.2byte	0x1ef
 779 04cb 4D040000 		.4byte	0x44d
 780 04cf 28       		.byte	0x28
 781 04d0 09       		.uleb128 0x9
 782 04d1 D7020000 		.4byte	.LASF79
 783 04d5 08       		.byte	0x8
 784 04d6 F001     		.2byte	0x1f0
 785 04d8 4D040000 		.4byte	0x44d
 786 04dc 2C       		.byte	0x2c
 787 04dd 09       		.uleb128 0x9
 788 04de 8B000000 		.4byte	.LASF80
 789 04e2 08       		.byte	0x8
 790 04e3 F101     		.2byte	0x1f1
 791 04e5 4D040000 		.4byte	0x44d
 792 04e9 30       		.byte	0x30
 793 04ea 09       		.uleb128 0x9
ARM GAS  /tmp/ccCl5OHz.s 			page 15


 794 04eb 48040000 		.4byte	.LASF81
 795 04ef 08       		.byte	0x8
 796 04f0 F201     		.2byte	0x1f2
 797 04f2 4D040000 		.4byte	0x44d
 798 04f6 34       		.byte	0x34
 799 04f7 09       		.uleb128 0x9
 800 04f8 2B050000 		.4byte	.LASF82
 801 04fc 08       		.byte	0x8
 802 04fd F301     		.2byte	0x1f3
 803 04ff 4D040000 		.4byte	0x44d
 804 0503 38       		.byte	0x38
 805 0504 09       		.uleb128 0x9
 806 0505 C6020000 		.4byte	.LASF83
 807 0509 08       		.byte	0x8
 808 050a F401     		.2byte	0x1f4
 809 050c 4D040000 		.4byte	0x44d
 810 0510 3C       		.byte	0x3c
 811 0511 08       		.uleb128 0x8
 812 0512 50465200 		.ascii	"PFR\000"
 813 0516 08       		.byte	0x8
 814 0517 F501     		.2byte	0x1f5
 815 0519 97050000 		.4byte	0x597
 816 051d 40       		.byte	0x40
 817 051e 08       		.uleb128 0x8
 818 051f 44465200 		.ascii	"DFR\000"
 819 0523 08       		.byte	0x8
 820 0524 F601     		.2byte	0x1f6
 821 0526 6D050000 		.4byte	0x56d
 822 052a 48       		.byte	0x48
 823 052b 08       		.uleb128 0x8
 824 052c 41445200 		.ascii	"ADR\000"
 825 0530 08       		.byte	0x8
 826 0531 F701     		.2byte	0x1f7
 827 0533 6D050000 		.4byte	0x56d
 828 0537 4C       		.byte	0x4c
 829 0538 09       		.uleb128 0x9
 830 0539 AF010000 		.4byte	.LASF84
 831 053d 08       		.byte	0x8
 832 053e F801     		.2byte	0x1f8
 833 0540 B1050000 		.4byte	0x5b1
 834 0544 50       		.byte	0x50
 835 0545 09       		.uleb128 0x9
 836 0546 7B060000 		.4byte	.LASF85
 837 054a 08       		.byte	0x8
 838 054b F901     		.2byte	0x1f9
 839 054d CB050000 		.4byte	0x5cb
 840 0551 60       		.byte	0x60
 841 0552 09       		.uleb128 0x9
 842 0553 58040000 		.4byte	.LASF86
 843 0557 08       		.byte	0x8
 844 0558 FA01     		.2byte	0x1fa
 845 055a BB050000 		.4byte	0x5bb
 846 055e 74       		.byte	0x74
 847 055f 09       		.uleb128 0x9
 848 0560 10000000 		.4byte	.LASF87
 849 0564 08       		.byte	0x8
 850 0565 FB01     		.2byte	0x1fb
ARM GAS  /tmp/ccCl5OHz.s 			page 16


 851 0567 4D040000 		.4byte	0x44d
 852 056b 88       		.byte	0x88
 853 056c 00       		.byte	0
 854 056d 14       		.uleb128 0x14
 855 056e 4D040000 		.4byte	0x44d
 856 0572 15       		.uleb128 0x15
 857 0573 A2000000 		.4byte	0xa2
 858 0577 82050000 		.4byte	0x582
 859 057b 16       		.uleb128 0x16
 860 057c 46040000 		.4byte	0x446
 861 0580 0B       		.byte	0xb
 862 0581 00       		.byte	0
 863 0582 12       		.uleb128 0x12
 864 0583 72050000 		.4byte	0x572
 865 0587 15       		.uleb128 0x15
 866 0588 C3000000 		.4byte	0xc3
 867 058c 97050000 		.4byte	0x597
 868 0590 16       		.uleb128 0x16
 869 0591 46040000 		.4byte	0x446
 870 0595 01       		.byte	0x1
 871 0596 00       		.byte	0
 872 0597 14       		.uleb128 0x14
 873 0598 9C050000 		.4byte	0x59c
 874 059c 12       		.uleb128 0x12
 875 059d 87050000 		.4byte	0x587
 876 05a1 15       		.uleb128 0x15
 877 05a2 C3000000 		.4byte	0xc3
 878 05a6 B1050000 		.4byte	0x5b1
 879 05aa 16       		.uleb128 0x16
 880 05ab 46040000 		.4byte	0x446
 881 05af 03       		.byte	0x3
 882 05b0 00       		.byte	0
 883 05b1 14       		.uleb128 0x14
 884 05b2 B6050000 		.4byte	0x5b6
 885 05b6 12       		.uleb128 0x12
 886 05b7 A1050000 		.4byte	0x5a1
 887 05bb 15       		.uleb128 0x15
 888 05bc C3000000 		.4byte	0xc3
 889 05c0 CB050000 		.4byte	0x5cb
 890 05c4 16       		.uleb128 0x16
 891 05c5 46040000 		.4byte	0x446
 892 05c9 04       		.byte	0x4
 893 05ca 00       		.byte	0
 894 05cb 14       		.uleb128 0x14
 895 05cc D0050000 		.4byte	0x5d0
 896 05d0 12       		.uleb128 0x12
 897 05d1 BB050000 		.4byte	0x5bb
 898 05d5 17       		.uleb128 0x17
 899 05d6 1D050000 		.4byte	.LASF88
 900 05da 08       		.byte	0x8
 901 05db FC01     		.2byte	0x1fc
 902 05dd 52040000 		.4byte	0x452
 903 05e1 04       		.uleb128 0x4
 904 05e2 2E000000 		.4byte	.LASF89
 905 05e6 09       		.byte	0x9
 906 05e7 65       		.byte	0x65
 907 05e8 0D030000 		.4byte	0x30d
ARM GAS  /tmp/ccCl5OHz.s 			page 17


 908 05ec 04       		.uleb128 0x4
 909 05ed 5C060000 		.4byte	.LASF90
 910 05f1 09       		.byte	0x9
 911 05f2 6D       		.byte	0x6d
 912 05f3 CE000000 		.4byte	0xce
 913 05f7 05       		.uleb128 0x5
 914 05f8 B7000000 		.4byte	.LASF91
 915 05fc 04       		.byte	0x4
 916 05fd 09       		.byte	0x9
 917 05fe 89       		.byte	0x89
 918 05ff 0F060000 		.4byte	0x60f
 919 0603 07       		.uleb128 0x7
 920 0604 737000   		.ascii	"sp\000"
 921 0607 09       		.byte	0x9
 922 0608 8A       		.byte	0x8a
 923 0609 8B060000 		.4byte	0x68b
 924 060d 00       		.byte	0
 925 060e 00       		.byte	0
 926 060f 0B       		.uleb128 0xb
 927 0610 80040000 		.4byte	.LASF92
 928 0614 24       		.byte	0x24
 929 0615 0A       		.byte	0xa
 930 0616 5901     		.2byte	0x159
 931 0618 8B060000 		.4byte	0x68b
 932 061c 08       		.uleb128 0x8
 933 061d 723400   		.ascii	"r4\000"
 934 0620 0A       		.byte	0xa
 935 0621 6C01     		.2byte	0x16c
 936 0623 E1050000 		.4byte	0x5e1
 937 0627 00       		.byte	0
 938 0628 08       		.uleb128 0x8
 939 0629 723500   		.ascii	"r5\000"
 940 062c 0A       		.byte	0xa
 941 062d 6D01     		.2byte	0x16d
 942 062f E1050000 		.4byte	0x5e1
 943 0633 04       		.byte	0x4
 944 0634 08       		.uleb128 0x8
 945 0635 723600   		.ascii	"r6\000"
 946 0638 0A       		.byte	0xa
 947 0639 6E01     		.2byte	0x16e
 948 063b E1050000 		.4byte	0x5e1
 949 063f 08       		.byte	0x8
 950 0640 08       		.uleb128 0x8
 951 0641 723700   		.ascii	"r7\000"
 952 0644 0A       		.byte	0xa
 953 0645 6F01     		.2byte	0x16f
 954 0647 E1050000 		.4byte	0x5e1
 955 064b 0C       		.byte	0xc
 956 064c 08       		.uleb128 0x8
 957 064d 723800   		.ascii	"r8\000"
 958 0650 0A       		.byte	0xa
 959 0651 7001     		.2byte	0x170
 960 0653 E1050000 		.4byte	0x5e1
 961 0657 10       		.byte	0x10
 962 0658 08       		.uleb128 0x8
 963 0659 723900   		.ascii	"r9\000"
 964 065c 0A       		.byte	0xa
ARM GAS  /tmp/ccCl5OHz.s 			page 18


 965 065d 7101     		.2byte	0x171
 966 065f E1050000 		.4byte	0x5e1
 967 0663 14       		.byte	0x14
 968 0664 08       		.uleb128 0x8
 969 0665 72313000 		.ascii	"r10\000"
 970 0669 0A       		.byte	0xa
 971 066a 7201     		.2byte	0x172
 972 066c E1050000 		.4byte	0x5e1
 973 0670 18       		.byte	0x18
 974 0671 08       		.uleb128 0x8
 975 0672 72313100 		.ascii	"r11\000"
 976 0676 0A       		.byte	0xa
 977 0677 7301     		.2byte	0x173
 978 0679 E1050000 		.4byte	0x5e1
 979 067d 1C       		.byte	0x1c
 980 067e 08       		.uleb128 0x8
 981 067f 6C7200   		.ascii	"lr\000"
 982 0682 0A       		.byte	0xa
 983 0683 7401     		.2byte	0x174
 984 0685 E1050000 		.4byte	0x5e1
 985 0689 20       		.byte	0x20
 986 068a 00       		.byte	0
 987 068b 0A       		.uleb128 0xa
 988 068c 04       		.byte	0x4
 989 068d 0F060000 		.4byte	0x60f
 990 0691 0B       		.uleb128 0xb
 991 0692 11050000 		.4byte	.LASF93
 992 0696 20       		.byte	0x20
 993 0697 0A       		.byte	0xa
 994 0698 3A01     		.2byte	0x13a
 995 069a 02070000 		.4byte	0x702
 996 069e 08       		.uleb128 0x8
 997 069f 723000   		.ascii	"r0\000"
 998 06a2 0A       		.byte	0xa
 999 06a3 3B01     		.2byte	0x13b
 1000 06a5 E1050000 		.4byte	0x5e1
 1001 06a9 00       		.byte	0
 1002 06aa 08       		.uleb128 0x8
 1003 06ab 723100   		.ascii	"r1\000"
 1004 06ae 0A       		.byte	0xa
 1005 06af 3C01     		.2byte	0x13c
 1006 06b1 E1050000 		.4byte	0x5e1
 1007 06b5 04       		.byte	0x4
 1008 06b6 08       		.uleb128 0x8
 1009 06b7 723200   		.ascii	"r2\000"
 1010 06ba 0A       		.byte	0xa
 1011 06bb 3D01     		.2byte	0x13d
 1012 06bd E1050000 		.4byte	0x5e1
 1013 06c1 08       		.byte	0x8
 1014 06c2 08       		.uleb128 0x8
 1015 06c3 723300   		.ascii	"r3\000"
 1016 06c6 0A       		.byte	0xa
 1017 06c7 3E01     		.2byte	0x13e
 1018 06c9 E1050000 		.4byte	0x5e1
 1019 06cd 0C       		.byte	0xc
 1020 06ce 08       		.uleb128 0x8
 1021 06cf 72313200 		.ascii	"r12\000"
ARM GAS  /tmp/ccCl5OHz.s 			page 19


 1022 06d3 0A       		.byte	0xa
 1023 06d4 3F01     		.2byte	0x13f
 1024 06d6 E1050000 		.4byte	0x5e1
 1025 06da 10       		.byte	0x10
 1026 06db 09       		.uleb128 0x9
 1027 06dc 05060000 		.4byte	.LASF94
 1028 06e0 0A       		.byte	0xa
 1029 06e1 4001     		.2byte	0x140
 1030 06e3 E1050000 		.4byte	0x5e1
 1031 06e7 14       		.byte	0x14
 1032 06e8 08       		.uleb128 0x8
 1033 06e9 706300   		.ascii	"pc\000"
 1034 06ec 0A       		.byte	0xa
 1035 06ed 4101     		.2byte	0x141
 1036 06ef E1050000 		.4byte	0x5e1
 1037 06f3 18       		.byte	0x18
 1038 06f4 09       		.uleb128 0x9
 1039 06f5 35050000 		.4byte	.LASF95
 1040 06f9 0A       		.byte	0xa
 1041 06fa 4201     		.2byte	0x142
 1042 06fc E1050000 		.4byte	0x5e1
 1043 0700 1C       		.byte	0x1c
 1044 0701 00       		.byte	0
 1045 0702 18       		.uleb128 0x18
 1046 0703 08       		.byte	0x8
 1047 0704 0B       		.byte	0xb
 1048 0705 80       		.byte	0x80
 1049 0706 23070000 		.4byte	0x723
 1050 070a 07       		.uleb128 0x7
 1051 070b 6E747000 		.ascii	"ntp\000"
 1052 070f 0B       		.byte	0xb
 1053 0710 84       		.byte	0x84
 1054 0711 30020000 		.4byte	0x230
 1055 0715 00       		.byte	0
 1056 0716 06       		.uleb128 0x6
 1057 0717 9F000000 		.4byte	.LASF96
 1058 071b 0B       		.byte	0xb
 1059 071c 88       		.byte	0x88
 1060 071d 0D030000 		.4byte	0x30d
 1061 0721 04       		.byte	0x4
 1062 0722 00       		.byte	0
 1063 0723 18       		.uleb128 0x18
 1064 0724 04       		.byte	0x4
 1065 0725 0B       		.byte	0xb
 1066 0726 8D       		.byte	0x8d
 1067 0727 38070000 		.4byte	0x738
 1068 072b 06       		.uleb128 0x6
 1069 072c 26050000 		.4byte	.LASF33
 1070 0730 0B       		.byte	0xb
 1071 0731 91       		.byte	0x91
 1072 0732 38070000 		.4byte	0x738
 1073 0736 00       		.byte	0
 1074 0737 00       		.byte	0
 1075 0738 0A       		.uleb128 0xa
 1076 0739 04       		.byte	0x4
 1077 073a 3E070000 		.4byte	0x73e
 1078 073e 14       		.uleb128 0x14
ARM GAS  /tmp/ccCl5OHz.s 			page 20


 1079 073f 43070000 		.4byte	0x743
 1080 0743 03       		.uleb128 0x3
 1081 0744 01       		.byte	0x1
 1082 0745 08       		.byte	0x8
 1083 0746 E1020000 		.4byte	.LASF97
 1084 074a 18       		.uleb128 0x18
 1085 074b 04       		.byte	0x4
 1086 074c 0B       		.byte	0xb
 1087 074d 96       		.byte	0x96
 1088 074e 5F070000 		.4byte	0x75f
 1089 0752 06       		.uleb128 0x6
 1090 0753 09020000 		.4byte	.LASF98
 1091 0757 0B       		.byte	0xb
 1092 0758 9A       		.byte	0x9a
 1093 0759 38070000 		.4byte	0x738
 1094 075d 00       		.byte	0
 1095 075e 00       		.byte	0
 1096 075f 18       		.uleb128 0x18
 1097 0760 08       		.byte	0x8
 1098 0761 0B       		.byte	0xb
 1099 0762 9F       		.byte	0x9f
 1100 0763 80070000 		.4byte	0x780
 1101 0767 07       		.uleb128 0x7
 1102 0768 75703100 		.ascii	"up1\000"
 1103 076c 0B       		.byte	0xb
 1104 076d A3       		.byte	0xa3
 1105 076e 0D030000 		.4byte	0x30d
 1106 0772 00       		.byte	0
 1107 0773 07       		.uleb128 0x7
 1108 0774 75703200 		.ascii	"up2\000"
 1109 0778 0B       		.byte	0xb
 1110 0779 A7       		.byte	0xa7
 1111 077a 0D030000 		.4byte	0x30d
 1112 077e 04       		.byte	0x4
 1113 077f 00       		.byte	0
 1114 0780 19       		.uleb128 0x19
 1115 0781 08       		.byte	0x8
 1116 0782 0B       		.byte	0xb
 1117 0783 7C       		.byte	0x7c
 1118 0784 B4070000 		.4byte	0x7b4
 1119 0788 1A       		.uleb128 0x1a
 1120 0789 737700   		.ascii	"sw\000"
 1121 078c 0B       		.byte	0xb
 1122 078d 89       		.byte	0x89
 1123 078e 02070000 		.4byte	0x702
 1124 0792 1A       		.uleb128 0x1a
 1125 0793 69737200 		.ascii	"isr\000"
 1126 0797 0B       		.byte	0xb
 1127 0798 92       		.byte	0x92
 1128 0799 23070000 		.4byte	0x723
 1129 079d 1B       		.uleb128 0x1b
 1130 079e ED010000 		.4byte	.LASF99
 1131 07a2 0B       		.byte	0xb
 1132 07a3 9B       		.byte	0x9b
 1133 07a4 4A070000 		.4byte	0x74a
 1134 07a8 1B       		.uleb128 0x1b
 1135 07a9 93020000 		.4byte	.LASF100
ARM GAS  /tmp/ccCl5OHz.s 			page 21


 1136 07ad 0B       		.byte	0xb
 1137 07ae A8       		.byte	0xa8
 1138 07af 5F070000 		.4byte	0x75f
 1139 07b3 00       		.byte	0
 1140 07b4 18       		.uleb128 0x18
 1141 07b5 10       		.byte	0x10
 1142 07b6 0B       		.byte	0xb
 1143 07b7 69       		.byte	0x69
 1144 07b8 00080000 		.4byte	0x800
 1145 07bc 1C       		.uleb128 0x1c
 1146 07bd 9B050000 		.4byte	.LASF101
 1147 07c1 0B       		.byte	0xb
 1148 07c2 6D       		.byte	0x6d
 1149 07c3 C3000000 		.4byte	0xc3
 1150 07c7 04       		.byte	0x4
 1151 07c8 03       		.byte	0x3
 1152 07c9 1D       		.byte	0x1d
 1153 07ca 00       		.byte	0
 1154 07cb 1C       		.uleb128 0x1c
 1155 07cc FF050000 		.4byte	.LASF35
 1156 07d0 0B       		.byte	0xb
 1157 07d1 71       		.byte	0x71
 1158 07d2 C3000000 		.4byte	0xc3
 1159 07d6 04       		.byte	0x4
 1160 07d7 05       		.byte	0x5
 1161 07d8 18       		.byte	0x18
 1162 07d9 00       		.byte	0
 1163 07da 1C       		.uleb128 0x1c
 1164 07db 6A050000 		.4byte	.LASF102
 1165 07df 0B       		.byte	0xb
 1166 07e0 77       		.byte	0x77
 1167 07e1 C3000000 		.4byte	0xc3
 1168 07e5 04       		.byte	0x4
 1169 07e6 18       		.byte	0x18
 1170 07e7 00       		.byte	0
 1171 07e8 00       		.byte	0
 1172 07e9 06       		.uleb128 0x6
 1173 07ea 3B020000 		.4byte	.LASF103
 1174 07ee 0B       		.byte	0xb
 1175 07ef 7B       		.byte	0x7b
 1176 07f0 31010000 		.4byte	0x131
 1177 07f4 04       		.byte	0x4
 1178 07f5 07       		.uleb128 0x7
 1179 07f6 7500     		.ascii	"u\000"
 1180 07f8 0B       		.byte	0xb
 1181 07f9 A9       		.byte	0xa9
 1182 07fa 80070000 		.4byte	0x780
 1183 07fe 08       		.byte	0x8
 1184 07ff 00       		.byte	0
 1185 0800 04       		.uleb128 0x4
 1186 0801 6C030000 		.4byte	.LASF104
 1187 0805 0B       		.byte	0xb
 1188 0806 AA       		.byte	0xaa
 1189 0807 B4070000 		.4byte	0x7b4
 1190 080b 1D       		.uleb128 0x1d
 1191 080c 0808     		.2byte	0x808
 1192 080e 0B       		.byte	0xb
ARM GAS  /tmp/ccCl5OHz.s 			page 22


 1193 080f B0       		.byte	0xb0
 1194 0810 45080000 		.4byte	0x845
 1195 0814 06       		.uleb128 0x6
 1196 0815 57000000 		.4byte	.LASF105
 1197 0819 0B       		.byte	0xb
 1198 081a B4       		.byte	0xb4
 1199 081b AD000000 		.4byte	0xad
 1200 081f 00       		.byte	0
 1201 0820 06       		.uleb128 0x6
 1202 0821 67030000 		.4byte	.LASF106
 1203 0825 0B       		.byte	0xb
 1204 0826 B8       		.byte	0xb8
 1205 0827 AD000000 		.4byte	0xad
 1206 082b 02       		.byte	0x2
 1207 082c 07       		.uleb128 0x7
 1208 082d 70747200 		.ascii	"ptr\000"
 1209 0831 0B       		.byte	0xb
 1210 0832 BC       		.byte	0xbc
 1211 0833 45080000 		.4byte	0x845
 1212 0837 04       		.byte	0x4
 1213 0838 06       		.uleb128 0x6
 1214 0839 50000000 		.4byte	.LASF107
 1215 083d 0B       		.byte	0xb
 1216 083e C0       		.byte	0xc0
 1217 083f 4B080000 		.4byte	0x84b
 1218 0843 08       		.byte	0x8
 1219 0844 00       		.byte	0
 1220 0845 0A       		.uleb128 0xa
 1221 0846 04       		.byte	0x4
 1222 0847 00080000 		.4byte	0x800
 1223 084b 15       		.uleb128 0x15
 1224 084c 00080000 		.4byte	0x800
 1225 0850 5B080000 		.4byte	0x85b
 1226 0854 16       		.uleb128 0x16
 1227 0855 46040000 		.4byte	0x446
 1228 0859 7F       		.byte	0x7f
 1229 085a 00       		.byte	0
 1230 085b 04       		.uleb128 0x4
 1231 085c 25060000 		.4byte	.LASF108
 1232 0860 0B       		.byte	0xb
 1233 0861 C1       		.byte	0xc1
 1234 0862 0B080000 		.4byte	0x80b
 1235 0866 18       		.uleb128 0x18
 1236 0867 04       		.byte	0x4
 1237 0868 0C       		.byte	0xc
 1238 0869 38       		.byte	0x38
 1239 086a 7B080000 		.4byte	0x87b
 1240 086e 06       		.uleb128 0x6
 1241 086f 9F020000 		.4byte	.LASF109
 1242 0873 0C       		.byte	0xc
 1243 0874 3C       		.byte	0x3c
 1244 0875 D9000000 		.4byte	0xd9
 1245 0879 00       		.byte	0
 1246 087a 00       		.byte	0
 1247 087b 04       		.uleb128 0x4
 1248 087c 1D000000 		.4byte	.LASF110
 1249 0880 0C       		.byte	0xc
ARM GAS  /tmp/ccCl5OHz.s 			page 23


 1250 0881 3D       		.byte	0x3d
 1251 0882 66080000 		.4byte	0x866
 1252 0886 19       		.uleb128 0x19
 1253 0887 04       		.byte	0x4
 1254 0888 07       		.byte	0x7
 1255 0889 D2       		.byte	0xd2
 1256 088a E9080000 		.4byte	0x8e9
 1257 088e 1B       		.uleb128 0x1b
 1258 088f 98020000 		.4byte	.LASF111
 1259 0893 07       		.byte	0x7
 1260 0894 D9       		.byte	0xd9
 1261 0895 10010000 		.4byte	0x110
 1262 0899 1B       		.uleb128 0x1b
 1263 089a 86060000 		.4byte	.LASF112
 1264 089e 07       		.byte	0x7
 1265 089f E0       		.byte	0xe0
 1266 08a0 10010000 		.4byte	0x110
 1267 08a4 1B       		.uleb128 0x1b
 1268 08a5 9F000000 		.4byte	.LASF96
 1269 08a9 07       		.byte	0x7
 1270 08aa E7       		.byte	0xe7
 1271 08ab 0D030000 		.4byte	0x30d
 1272 08af 1B       		.uleb128 0x1b
 1273 08b0 1F060000 		.4byte	.LASF113
 1274 08b4 07       		.byte	0x7
 1275 08b5 EE       		.byte	0xee
 1276 08b6 E9080000 		.4byte	0x8e9
 1277 08ba 1B       		.uleb128 0x1b
 1278 08bb A7010000 		.4byte	.LASF114
 1279 08bf 07       		.byte	0x7
 1280 08c0 F3       		.byte	0xf3
 1281 08c1 10010000 		.4byte	0x110
 1282 08c5 1B       		.uleb128 0x1b
 1283 08c6 18060000 		.4byte	.LASF115
 1284 08ca 07       		.byte	0x7
 1285 08cb FC       		.byte	0xfc
 1286 08cc 14090000 		.4byte	0x914
 1287 08d0 1E       		.uleb128 0x1e
 1288 08d1 16000000 		.4byte	.LASF116
 1289 08d5 07       		.byte	0x7
 1290 08d6 0501     		.2byte	0x105
 1291 08d8 4B090000 		.4byte	0x94b
 1292 08dc 1E       		.uleb128 0x1e
 1293 08dd EA000000 		.4byte	.LASF117
 1294 08e1 07       		.byte	0x7
 1295 08e2 0D01     		.2byte	0x10d
 1296 08e4 1B010000 		.4byte	0x11b
 1297 08e8 00       		.byte	0
 1298 08e9 0A       		.uleb128 0xa
 1299 08ea 04       		.byte	0x4
 1300 08eb 25020000 		.4byte	0x225
 1301 08ef 05       		.uleb128 0x5
 1302 08f0 C0010000 		.4byte	.LASF118
 1303 08f4 0C       		.byte	0xc
 1304 08f5 0D       		.byte	0xd
 1305 08f6 34       		.byte	0x34
 1306 08f7 14090000 		.4byte	0x914
ARM GAS  /tmp/ccCl5OHz.s 			page 24


 1307 08fb 06       		.uleb128 0x6
 1308 08fc 72050000 		.4byte	.LASF29
 1309 0900 0D       		.byte	0xd
 1310 0901 35       		.byte	0x35
 1311 0902 5A020000 		.4byte	0x25a
 1312 0906 00       		.byte	0
 1313 0907 07       		.uleb128 0x7
 1314 0908 636E7400 		.ascii	"cnt\000"
 1315 090c 0D       		.byte	0xd
 1316 090d 37       		.byte	0x37
 1317 090e 26010000 		.4byte	0x126
 1318 0912 08       		.byte	0x8
 1319 0913 00       		.byte	0
 1320 0914 0A       		.uleb128 0xa
 1321 0915 04       		.byte	0x4
 1322 0916 EF080000 		.4byte	0x8ef
 1323 091a 05       		.uleb128 0x5
 1324 091b B2020000 		.4byte	.LASF119
 1325 091f 10       		.byte	0x10
 1326 0920 0E       		.byte	0xe
 1327 0921 39       		.byte	0x39
 1328 0922 4B090000 		.4byte	0x94b
 1329 0926 06       		.uleb128 0x6
 1330 0927 72050000 		.4byte	.LASF29
 1331 092b 0E       		.byte	0xe
 1332 092c 3A       		.byte	0x3a
 1333 092d 5A020000 		.4byte	0x25a
 1334 0931 00       		.byte	0
 1335 0932 06       		.uleb128 0x6
 1336 0933 40020000 		.4byte	.LASF120
 1337 0937 0E       		.byte	0xe
 1338 0938 3C       		.byte	0x3c
 1339 0939 30020000 		.4byte	0x230
 1340 093d 08       		.byte	0x8
 1341 093e 06       		.uleb128 0x6
 1342 093f 77000000 		.4byte	.LASF48
 1343 0943 0E       		.byte	0xe
 1344 0944 3E       		.byte	0x3e
 1345 0945 6D090000 		.4byte	0x96d
 1346 0949 0C       		.byte	0xc
 1347 094a 00       		.byte	0
 1348 094b 0A       		.uleb128 0xa
 1349 094c 04       		.byte	0x4
 1350 094d 1A090000 		.4byte	0x91a
 1351 0951 0A       		.uleb128 0xa
 1352 0952 04       		.byte	0x4
 1353 0953 EC050000 		.4byte	0x5ec
 1354 0957 0A       		.uleb128 0xa
 1355 0958 04       		.byte	0x4
 1356 0959 0F030000 		.4byte	0x30f
 1357 095d 12       		.uleb128 0x12
 1358 095e 38070000 		.4byte	0x738
 1359 0962 04       		.uleb128 0x4
 1360 0963 8D050000 		.4byte	.LASF121
 1361 0967 0E       		.byte	0xe
 1362 0968 34       		.byte	0x34
 1363 0969 1A090000 		.4byte	0x91a
ARM GAS  /tmp/ccCl5OHz.s 			page 25


 1364 096d 0A       		.uleb128 0xa
 1365 096e 04       		.byte	0x4
 1366 096f 62090000 		.4byte	0x962
 1367 0973 1F       		.uleb128 0x1f
 1368 0974 A3040000 		.4byte	.LASF124
 1369 0978 02       		.byte	0x2
 1370 0979 0601     		.2byte	0x106
 1371 097b 03       		.byte	0x3
 1372 097c 8D090000 		.4byte	0x98d
 1373 0980 20       		.uleb128 0x20
 1374 0981 65020000 		.4byte	.LASF126
 1375 0985 02       		.byte	0x2
 1376 0986 0601     		.2byte	0x106
 1377 0988 C3000000 		.4byte	0xc3
 1378 098c 00       		.byte	0
 1379 098d 21       		.uleb128 0x21
 1380 098e A6000000 		.4byte	.LASF122
 1381 0992 0A       		.byte	0xa
 1382 0993 5202     		.2byte	0x252
 1383 0995 03       		.byte	0x3
 1384 0996 21       		.uleb128 0x21
 1385 0997 6F060000 		.4byte	.LASF123
 1386 099b 0A       		.byte	0xa
 1387 099c 6A02     		.2byte	0x26a
 1388 099e 03       		.byte	0x3
 1389 099f 22       		.uleb128 0x22
 1390 09a0 95060000 		.4byte	.LASF138
 1391 09a4 02       		.byte	0x2
 1392 09a5 94       		.byte	0x94
 1393 09a6 C3000000 		.4byte	0xc3
 1394 09aa 03       		.byte	0x3
 1395 09ab BB090000 		.4byte	0x9bb
 1396 09af 23       		.uleb128 0x23
 1397 09b0 E6010000 		.4byte	.LASF139
 1398 09b4 02       		.byte	0x2
 1399 09b5 96       		.byte	0x96
 1400 09b6 C3000000 		.4byte	0xc3
 1401 09ba 00       		.byte	0
 1402 09bb 24       		.uleb128 0x24
 1403 09bc 4E040000 		.4byte	.LASF125
 1404 09c0 02       		.byte	0x2
 1405 09c1 A2       		.byte	0xa2
 1406 09c2 03       		.byte	0x3
 1407 09c3 D3090000 		.4byte	0x9d3
 1408 09c7 25       		.uleb128 0x25
 1409 09c8 56020000 		.4byte	.LASF127
 1410 09cc 02       		.byte	0x2
 1411 09cd A2       		.byte	0xa2
 1412 09ce C3000000 		.4byte	0xc3
 1413 09d2 00       		.byte	0
 1414 09d3 21       		.uleb128 0x21
 1415 09d4 A0050000 		.4byte	.LASF128
 1416 09d8 0A       		.byte	0xa
 1417 09d9 8402     		.2byte	0x284
 1418 09db 03       		.byte	0x3
 1419 09dc 21       		.uleb128 0x21
 1420 09dd C4000000 		.4byte	.LASF129
ARM GAS  /tmp/ccCl5OHz.s 			page 26


 1421 09e1 0A       		.byte	0xa
 1422 09e2 7902     		.2byte	0x279
 1423 09e4 03       		.byte	0x3
 1424 09e5 26       		.uleb128 0x26
 1425 09e6 CB020000 		.4byte	.LASF130
 1426 09ea 01       		.byte	0x1
 1427 09eb 3E       		.byte	0x3e
 1428 09ec 00000000 		.4byte	.LFB239
 1429 09f0 12000000 		.4byte	.LFE239-.LFB239
 1430 09f4 01       		.uleb128 0x1
 1431 09f5 9C       		.byte	0x9c
 1432 09f6 860A0000 		.4byte	0xa86
 1433 09fa 27       		.uleb128 0x27
 1434 09fb 72040000 		.4byte	.LASF132
 1435 09ff 01       		.byte	0x1
 1436 0a00 40       		.byte	0x40
 1437 0a01 860A0000 		.4byte	0xa86
 1438 0a05 00000000 		.4byte	.LLST0
 1439 0a09 28       		.uleb128 0x28
 1440 0a0a 9F090000 		.4byte	0x99f
 1441 0a0e 00000000 		.4byte	.LBB38
 1442 0a12 04000000 		.4byte	.LBE38-.LBB38
 1443 0a16 01       		.byte	0x1
 1444 0a17 48       		.byte	0x48
 1445 0a18 300A0000 		.4byte	0xa30
 1446 0a1c 29       		.uleb128 0x29
 1447 0a1d 00000000 		.4byte	.LBB39
 1448 0a21 04000000 		.4byte	.LBE39-.LBB39
 1449 0a25 2A       		.uleb128 0x2a
 1450 0a26 AF090000 		.4byte	0x9af
 1451 0a2a 20000000 		.4byte	.LLST1
 1452 0a2e 00       		.byte	0
 1453 0a2f 00       		.byte	0
 1454 0a30 28       		.uleb128 0x28
 1455 0a31 BB090000 		.4byte	0x9bb
 1456 0a35 06000000 		.4byte	.LBB40
 1457 0a39 04000000 		.4byte	.LBE40-.LBB40
 1458 0a3d 01       		.byte	0x1
 1459 0a3e 4F       		.byte	0x4f
 1460 0a3f 4D0A0000 		.4byte	0xa4d
 1461 0a43 2B       		.uleb128 0x2b
 1462 0a44 C7090000 		.4byte	0x9c7
 1463 0a48 00000000 		.4byte	.LLST0
 1464 0a4c 00       		.byte	0
 1465 0a4d 2C       		.uleb128 0x2c
 1466 0a4e D3090000 		.4byte	0x9d3
 1467 0a52 0A000000 		.4byte	.LBB42
 1468 0a56 08000000 		.4byte	.LBE42-.LBB42
 1469 0a5a 01       		.byte	0x1
 1470 0a5b 52       		.byte	0x52
 1471 0a5c 2D       		.uleb128 0x2d
 1472 0a5d 96090000 		.4byte	0x996
 1473 0a61 0A000000 		.4byte	.LBB43
 1474 0a65 08000000 		.4byte	.LBE43-.LBB43
 1475 0a69 0A       		.byte	0xa
 1476 0a6a 8602     		.2byte	0x286
 1477 0a6c 2D       		.uleb128 0x2d
ARM GAS  /tmp/ccCl5OHz.s 			page 27


 1478 0a6d 73090000 		.4byte	0x973
 1479 0a71 0A000000 		.4byte	.LBB44
 1480 0a75 08000000 		.4byte	.LBE44-.LBB44
 1481 0a79 0A       		.byte	0xa
 1482 0a7a 6D02     		.2byte	0x26d
 1483 0a7c 2E       		.uleb128 0x2e
 1484 0a7d 80090000 		.4byte	0x980
 1485 0a81 00       		.byte	0
 1486 0a82 00       		.byte	0
 1487 0a83 00       		.byte	0
 1488 0a84 00       		.byte	0
 1489 0a85 00       		.byte	0
 1490 0a86 0A       		.uleb128 0xa
 1491 0a87 04       		.byte	0x4
 1492 0a88 91060000 		.4byte	0x691
 1493 0a8c 26       		.uleb128 0x26
 1494 0a8d EC050000 		.4byte	.LASF131
 1495 0a91 01       		.byte	0x1
 1496 0a92 7A       		.byte	0x7a
 1497 0a93 00000000 		.4byte	.LFB240
 1498 0a97 54000000 		.4byte	.LFE240-.LFB240
 1499 0a9b 01       		.uleb128 0x1
 1500 0a9c 9C       		.byte	0x9c
 1501 0a9d 810B0000 		.4byte	0xb81
 1502 0aa1 28       		.uleb128 0x28
 1503 0aa2 DC090000 		.4byte	0x9dc
 1504 0aa6 02000000 		.4byte	.LBB46
 1505 0aaa 06000000 		.4byte	.LBE46-.LBB46
 1506 0aae 01       		.byte	0x1
 1507 0aaf 7C       		.byte	0x7c
 1508 0ab0 DD0A0000 		.4byte	0xadd
 1509 0ab4 2D       		.uleb128 0x2d
 1510 0ab5 8D090000 		.4byte	0x98d
 1511 0ab9 02000000 		.4byte	.LBB47
 1512 0abd 06000000 		.4byte	.LBE47-.LBB47
 1513 0ac1 0A       		.byte	0xa
 1514 0ac2 7B02     		.2byte	0x27b
 1515 0ac4 2D       		.uleb128 0x2d
 1516 0ac5 73090000 		.4byte	0x973
 1517 0ac9 02000000 		.4byte	.LBB48
 1518 0acd 06000000 		.4byte	.LBE48-.LBB48
 1519 0ad1 0A       		.byte	0xa
 1520 0ad2 5A02     		.2byte	0x25a
 1521 0ad4 2E       		.uleb128 0x2e
 1522 0ad5 80090000 		.4byte	0x980
 1523 0ad9 20       		.byte	0x20
 1524 0ada 00       		.byte	0
 1525 0adb 00       		.byte	0
 1526 0adc 00       		.byte	0
 1527 0add 28       		.uleb128 0x28
 1528 0ade D3090000 		.4byte	0x9d3
 1529 0ae2 18000000 		.4byte	.LBB50
 1530 0ae6 06000000 		.4byte	.LBE50-.LBB50
 1531 0aea 01       		.byte	0x1
 1532 0aeb A5       		.byte	0xa5
 1533 0aec 1C0B0000 		.4byte	0xb1c
 1534 0af0 2D       		.uleb128 0x2d
ARM GAS  /tmp/ccCl5OHz.s 			page 28


 1535 0af1 96090000 		.4byte	0x996
 1536 0af5 18000000 		.4byte	.LBB51
 1537 0af9 06000000 		.4byte	.LBE51-.LBB51
 1538 0afd 0A       		.byte	0xa
 1539 0afe 8602     		.2byte	0x286
 1540 0b00 2D       		.uleb128 0x2d
 1541 0b01 73090000 		.4byte	0x973
 1542 0b05 18000000 		.4byte	.LBB52
 1543 0b09 06000000 		.4byte	.LBE52-.LBB52
 1544 0b0d 0A       		.byte	0xa
 1545 0b0e 6D02     		.2byte	0x26d
 1546 0b10 2B       		.uleb128 0x2b
 1547 0b11 80090000 		.4byte	0x980
 1548 0b15 40000000 		.4byte	.LLST3
 1549 0b19 00       		.byte	0
 1550 0b1a 00       		.byte	0
 1551 0b1b 00       		.byte	0
 1552 0b1c 29       		.uleb128 0x29
 1553 0b1d 1E000000 		.4byte	.LBB54
 1554 0b21 36000000 		.4byte	.LBE54-.LBB54
 1555 0b25 27       		.uleb128 0x27
 1556 0b26 72040000 		.4byte	.LASF132
 1557 0b2a 01       		.byte	0x1
 1558 0b2b 7E       		.byte	0x7e
 1559 0b2c 860A0000 		.4byte	0xa86
 1560 0b30 54000000 		.4byte	.LLST4
 1561 0b34 28       		.uleb128 0x28
 1562 0b35 9F090000 		.4byte	0x99f
 1563 0b39 1E000000 		.4byte	.LBB55
 1564 0b3d 04000000 		.4byte	.LBE55-.LBB55
 1565 0b41 01       		.byte	0x1
 1566 0b42 86       		.byte	0x86
 1567 0b43 590B0000 		.4byte	0xb59
 1568 0b47 29       		.uleb128 0x29
 1569 0b48 1E000000 		.4byte	.LBB56
 1570 0b4c 04000000 		.4byte	.LBE56-.LBB56
 1571 0b50 2F       		.uleb128 0x2f
 1572 0b51 AF090000 		.4byte	0x9af
 1573 0b55 01       		.uleb128 0x1
 1574 0b56 54       		.byte	0x54
 1575 0b57 00       		.byte	0
 1576 0b58 00       		.byte	0
 1577 0b59 28       		.uleb128 0x28
 1578 0b5a BB090000 		.4byte	0x9bb
 1579 0b5e 2E000000 		.4byte	.LBB57
 1580 0b62 04000000 		.4byte	.LBE57-.LBB57
 1581 0b66 01       		.byte	0x1
 1582 0b67 93       		.byte	0x93
 1583 0b68 760B0000 		.4byte	0xb76
 1584 0b6c 2B       		.uleb128 0x2b
 1585 0b6d C7090000 		.4byte	0x9c7
 1586 0b71 81000000 		.4byte	.LLST5
 1587 0b75 00       		.byte	0
 1588 0b76 30       		.uleb128 0x30
 1589 0b77 36000000 		.4byte	.LVL10
 1590 0b7b 9D0B0000 		.4byte	0xb9d
 1591 0b7f 00       		.byte	0
ARM GAS  /tmp/ccCl5OHz.s 			page 29


 1592 0b80 00       		.byte	0
 1593 0b81 31       		.uleb128 0x31
 1594 0b82 8C040000 		.4byte	.LASF133
 1595 0b86 08       		.byte	0x8
 1596 0b87 4407     		.2byte	0x744
 1597 0b89 8D0B0000 		.4byte	0xb8d
 1598 0b8d 12       		.uleb128 0x12
 1599 0b8e B8000000 		.4byte	0xb8
 1600 0b92 32       		.uleb128 0x32
 1601 0b93 636800   		.ascii	"ch\000"
 1602 0b96 07       		.byte	0x7
 1603 0b97 D201     		.2byte	0x1d2
 1604 0b99 EA030000 		.4byte	0x3ea
 1605 0b9d 33       		.uleb128 0x33
 1606 0b9e 10020000 		.4byte	.LASF140
 1607 0ba2 07       		.byte	0x7
 1608 0ba3 E201     		.2byte	0x1e2
 1609 0ba5 A90B0000 		.4byte	0xba9
 1610 0ba9 03       		.uleb128 0x3
 1611 0baa 01       		.byte	0x1
 1612 0bab 02       		.byte	0x2
 1613 0bac AC020000 		.4byte	.LASF134
 1614 0bb0 00       		.byte	0
 1615              		.section	.debug_abbrev,"",%progbits
 1616              	.Ldebug_abbrev0:
 1617 0000 01       		.uleb128 0x1
 1618 0001 11       		.uleb128 0x11
 1619 0002 01       		.byte	0x1
 1620 0003 25       		.uleb128 0x25
 1621 0004 0E       		.uleb128 0xe
 1622 0005 13       		.uleb128 0x13
 1623 0006 0B       		.uleb128 0xb
 1624 0007 03       		.uleb128 0x3
 1625 0008 0E       		.uleb128 0xe
 1626 0009 1B       		.uleb128 0x1b
 1627 000a 0E       		.uleb128 0xe
 1628 000b 55       		.uleb128 0x55
 1629 000c 17       		.uleb128 0x17
 1630 000d 11       		.uleb128 0x11
 1631 000e 01       		.uleb128 0x1
 1632 000f 10       		.uleb128 0x10
 1633 0010 17       		.uleb128 0x17
 1634 0011 00       		.byte	0
 1635 0012 00       		.byte	0
 1636 0013 02       		.uleb128 0x2
 1637 0014 24       		.uleb128 0x24
 1638 0015 00       		.byte	0
 1639 0016 0B       		.uleb128 0xb
 1640 0017 0B       		.uleb128 0xb
 1641 0018 3E       		.uleb128 0x3e
 1642 0019 0B       		.uleb128 0xb
 1643 001a 03       		.uleb128 0x3
 1644 001b 08       		.uleb128 0x8
 1645 001c 00       		.byte	0
 1646 001d 00       		.byte	0
 1647 001e 03       		.uleb128 0x3
 1648 001f 24       		.uleb128 0x24
ARM GAS  /tmp/ccCl5OHz.s 			page 30


 1649 0020 00       		.byte	0
 1650 0021 0B       		.uleb128 0xb
 1651 0022 0B       		.uleb128 0xb
 1652 0023 3E       		.uleb128 0x3e
 1653 0024 0B       		.uleb128 0xb
 1654 0025 03       		.uleb128 0x3
 1655 0026 0E       		.uleb128 0xe
 1656 0027 00       		.byte	0
 1657 0028 00       		.byte	0
 1658 0029 04       		.uleb128 0x4
 1659 002a 16       		.uleb128 0x16
 1660 002b 00       		.byte	0
 1661 002c 03       		.uleb128 0x3
 1662 002d 0E       		.uleb128 0xe
 1663 002e 3A       		.uleb128 0x3a
 1664 002f 0B       		.uleb128 0xb
 1665 0030 3B       		.uleb128 0x3b
 1666 0031 0B       		.uleb128 0xb
 1667 0032 49       		.uleb128 0x49
 1668 0033 13       		.uleb128 0x13
 1669 0034 00       		.byte	0
 1670 0035 00       		.byte	0
 1671 0036 05       		.uleb128 0x5
 1672 0037 13       		.uleb128 0x13
 1673 0038 01       		.byte	0x1
 1674 0039 03       		.uleb128 0x3
 1675 003a 0E       		.uleb128 0xe
 1676 003b 0B       		.uleb128 0xb
 1677 003c 0B       		.uleb128 0xb
 1678 003d 3A       		.uleb128 0x3a
 1679 003e 0B       		.uleb128 0xb
 1680 003f 3B       		.uleb128 0x3b
 1681 0040 0B       		.uleb128 0xb
 1682 0041 01       		.uleb128 0x1
 1683 0042 13       		.uleb128 0x13
 1684 0043 00       		.byte	0
 1685 0044 00       		.byte	0
 1686 0045 06       		.uleb128 0x6
 1687 0046 0D       		.uleb128 0xd
 1688 0047 00       		.byte	0
 1689 0048 03       		.uleb128 0x3
 1690 0049 0E       		.uleb128 0xe
 1691 004a 3A       		.uleb128 0x3a
 1692 004b 0B       		.uleb128 0xb
 1693 004c 3B       		.uleb128 0x3b
 1694 004d 0B       		.uleb128 0xb
 1695 004e 49       		.uleb128 0x49
 1696 004f 13       		.uleb128 0x13
 1697 0050 38       		.uleb128 0x38
 1698 0051 0B       		.uleb128 0xb
 1699 0052 00       		.byte	0
 1700 0053 00       		.byte	0
 1701 0054 07       		.uleb128 0x7
 1702 0055 0D       		.uleb128 0xd
 1703 0056 00       		.byte	0
 1704 0057 03       		.uleb128 0x3
 1705 0058 08       		.uleb128 0x8
ARM GAS  /tmp/ccCl5OHz.s 			page 31


 1706 0059 3A       		.uleb128 0x3a
 1707 005a 0B       		.uleb128 0xb
 1708 005b 3B       		.uleb128 0x3b
 1709 005c 0B       		.uleb128 0xb
 1710 005d 49       		.uleb128 0x49
 1711 005e 13       		.uleb128 0x13
 1712 005f 38       		.uleb128 0x38
 1713 0060 0B       		.uleb128 0xb
 1714 0061 00       		.byte	0
 1715 0062 00       		.byte	0
 1716 0063 08       		.uleb128 0x8
 1717 0064 0D       		.uleb128 0xd
 1718 0065 00       		.byte	0
 1719 0066 03       		.uleb128 0x3
 1720 0067 08       		.uleb128 0x8
 1721 0068 3A       		.uleb128 0x3a
 1722 0069 0B       		.uleb128 0xb
 1723 006a 3B       		.uleb128 0x3b
 1724 006b 05       		.uleb128 0x5
 1725 006c 49       		.uleb128 0x49
 1726 006d 13       		.uleb128 0x13
 1727 006e 38       		.uleb128 0x38
 1728 006f 0B       		.uleb128 0xb
 1729 0070 00       		.byte	0
 1730 0071 00       		.byte	0
 1731 0072 09       		.uleb128 0x9
 1732 0073 0D       		.uleb128 0xd
 1733 0074 00       		.byte	0
 1734 0075 03       		.uleb128 0x3
 1735 0076 0E       		.uleb128 0xe
 1736 0077 3A       		.uleb128 0x3a
 1737 0078 0B       		.uleb128 0xb
 1738 0079 3B       		.uleb128 0x3b
 1739 007a 05       		.uleb128 0x5
 1740 007b 49       		.uleb128 0x49
 1741 007c 13       		.uleb128 0x13
 1742 007d 38       		.uleb128 0x38
 1743 007e 0B       		.uleb128 0xb
 1744 007f 00       		.byte	0
 1745 0080 00       		.byte	0
 1746 0081 0A       		.uleb128 0xa
 1747 0082 0F       		.uleb128 0xf
 1748 0083 00       		.byte	0
 1749 0084 0B       		.uleb128 0xb
 1750 0085 0B       		.uleb128 0xb
 1751 0086 49       		.uleb128 0x49
 1752 0087 13       		.uleb128 0x13
 1753 0088 00       		.byte	0
 1754 0089 00       		.byte	0
 1755 008a 0B       		.uleb128 0xb
 1756 008b 13       		.uleb128 0x13
 1757 008c 01       		.byte	0x1
 1758 008d 03       		.uleb128 0x3
 1759 008e 0E       		.uleb128 0xe
 1760 008f 0B       		.uleb128 0xb
 1761 0090 0B       		.uleb128 0xb
 1762 0091 3A       		.uleb128 0x3a
ARM GAS  /tmp/ccCl5OHz.s 			page 32


 1763 0092 0B       		.uleb128 0xb
 1764 0093 3B       		.uleb128 0x3b
 1765 0094 05       		.uleb128 0x5
 1766 0095 01       		.uleb128 0x1
 1767 0096 13       		.uleb128 0x13
 1768 0097 00       		.byte	0
 1769 0098 00       		.byte	0
 1770 0099 0C       		.uleb128 0xc
 1771 009a 15       		.uleb128 0x15
 1772 009b 01       		.byte	0x1
 1773 009c 27       		.uleb128 0x27
 1774 009d 19       		.uleb128 0x19
 1775 009e 01       		.uleb128 0x1
 1776 009f 13       		.uleb128 0x13
 1777 00a0 00       		.byte	0
 1778 00a1 00       		.byte	0
 1779 00a2 0D       		.uleb128 0xd
 1780 00a3 05       		.uleb128 0x5
 1781 00a4 00       		.byte	0
 1782 00a5 49       		.uleb128 0x49
 1783 00a6 13       		.uleb128 0x13
 1784 00a7 00       		.byte	0
 1785 00a8 00       		.byte	0
 1786 00a9 0E       		.uleb128 0xe
 1787 00aa 0F       		.uleb128 0xf
 1788 00ab 00       		.byte	0
 1789 00ac 0B       		.uleb128 0xb
 1790 00ad 0B       		.uleb128 0xb
 1791 00ae 00       		.byte	0
 1792 00af 00       		.byte	0
 1793 00b0 0F       		.uleb128 0xf
 1794 00b1 13       		.uleb128 0x13
 1795 00b2 01       		.byte	0x1
 1796 00b3 03       		.uleb128 0x3
 1797 00b4 0E       		.uleb128 0xe
 1798 00b5 0B       		.uleb128 0xb
 1799 00b6 05       		.uleb128 0x5
 1800 00b7 3A       		.uleb128 0x3a
 1801 00b8 0B       		.uleb128 0xb
 1802 00b9 3B       		.uleb128 0x3b
 1803 00ba 05       		.uleb128 0x5
 1804 00bb 01       		.uleb128 0x1
 1805 00bc 13       		.uleb128 0x13
 1806 00bd 00       		.byte	0
 1807 00be 00       		.byte	0
 1808 00bf 10       		.uleb128 0x10
 1809 00c0 0D       		.uleb128 0xd
 1810 00c1 00       		.byte	0
 1811 00c2 03       		.uleb128 0x3
 1812 00c3 0E       		.uleb128 0xe
 1813 00c4 3A       		.uleb128 0x3a
 1814 00c5 0B       		.uleb128 0xb
 1815 00c6 3B       		.uleb128 0x3b
 1816 00c7 05       		.uleb128 0x5
 1817 00c8 49       		.uleb128 0x49
 1818 00c9 13       		.uleb128 0x13
 1819 00ca 38       		.uleb128 0x38
ARM GAS  /tmp/ccCl5OHz.s 			page 33


 1820 00cb 05       		.uleb128 0x5
 1821 00cc 00       		.byte	0
 1822 00cd 00       		.byte	0
 1823 00ce 11       		.uleb128 0x11
 1824 00cf 0D       		.uleb128 0xd
 1825 00d0 00       		.byte	0
 1826 00d1 03       		.uleb128 0x3
 1827 00d2 08       		.uleb128 0x8
 1828 00d3 3A       		.uleb128 0x3a
 1829 00d4 0B       		.uleb128 0xb
 1830 00d5 3B       		.uleb128 0x3b
 1831 00d6 05       		.uleb128 0x5
 1832 00d7 49       		.uleb128 0x49
 1833 00d8 13       		.uleb128 0x13
 1834 00d9 38       		.uleb128 0x38
 1835 00da 05       		.uleb128 0x5
 1836 00db 00       		.byte	0
 1837 00dc 00       		.byte	0
 1838 00dd 12       		.uleb128 0x12
 1839 00de 35       		.uleb128 0x35
 1840 00df 00       		.byte	0
 1841 00e0 49       		.uleb128 0x49
 1842 00e1 13       		.uleb128 0x13
 1843 00e2 00       		.byte	0
 1844 00e3 00       		.byte	0
 1845 00e4 13       		.uleb128 0x13
 1846 00e5 13       		.uleb128 0x13
 1847 00e6 01       		.byte	0x1
 1848 00e7 0B       		.uleb128 0xb
 1849 00e8 0B       		.uleb128 0xb
 1850 00e9 3A       		.uleb128 0x3a
 1851 00ea 0B       		.uleb128 0xb
 1852 00eb 3B       		.uleb128 0x3b
 1853 00ec 05       		.uleb128 0x5
 1854 00ed 01       		.uleb128 0x1
 1855 00ee 13       		.uleb128 0x13
 1856 00ef 00       		.byte	0
 1857 00f0 00       		.byte	0
 1858 00f1 14       		.uleb128 0x14
 1859 00f2 26       		.uleb128 0x26
 1860 00f3 00       		.byte	0
 1861 00f4 49       		.uleb128 0x49
 1862 00f5 13       		.uleb128 0x13
 1863 00f6 00       		.byte	0
 1864 00f7 00       		.byte	0
 1865 00f8 15       		.uleb128 0x15
 1866 00f9 01       		.uleb128 0x1
 1867 00fa 01       		.byte	0x1
 1868 00fb 49       		.uleb128 0x49
 1869 00fc 13       		.uleb128 0x13
 1870 00fd 01       		.uleb128 0x1
 1871 00fe 13       		.uleb128 0x13
 1872 00ff 00       		.byte	0
 1873 0100 00       		.byte	0
 1874 0101 16       		.uleb128 0x16
 1875 0102 21       		.uleb128 0x21
 1876 0103 00       		.byte	0
ARM GAS  /tmp/ccCl5OHz.s 			page 34


 1877 0104 49       		.uleb128 0x49
 1878 0105 13       		.uleb128 0x13
 1879 0106 2F       		.uleb128 0x2f
 1880 0107 0B       		.uleb128 0xb
 1881 0108 00       		.byte	0
 1882 0109 00       		.byte	0
 1883 010a 17       		.uleb128 0x17
 1884 010b 16       		.uleb128 0x16
 1885 010c 00       		.byte	0
 1886 010d 03       		.uleb128 0x3
 1887 010e 0E       		.uleb128 0xe
 1888 010f 3A       		.uleb128 0x3a
 1889 0110 0B       		.uleb128 0xb
 1890 0111 3B       		.uleb128 0x3b
 1891 0112 05       		.uleb128 0x5
 1892 0113 49       		.uleb128 0x49
 1893 0114 13       		.uleb128 0x13
 1894 0115 00       		.byte	0
 1895 0116 00       		.byte	0
 1896 0117 18       		.uleb128 0x18
 1897 0118 13       		.uleb128 0x13
 1898 0119 01       		.byte	0x1
 1899 011a 0B       		.uleb128 0xb
 1900 011b 0B       		.uleb128 0xb
 1901 011c 3A       		.uleb128 0x3a
 1902 011d 0B       		.uleb128 0xb
 1903 011e 3B       		.uleb128 0x3b
 1904 011f 0B       		.uleb128 0xb
 1905 0120 01       		.uleb128 0x1
 1906 0121 13       		.uleb128 0x13
 1907 0122 00       		.byte	0
 1908 0123 00       		.byte	0
 1909 0124 19       		.uleb128 0x19
 1910 0125 17       		.uleb128 0x17
 1911 0126 01       		.byte	0x1
 1912 0127 0B       		.uleb128 0xb
 1913 0128 0B       		.uleb128 0xb
 1914 0129 3A       		.uleb128 0x3a
 1915 012a 0B       		.uleb128 0xb
 1916 012b 3B       		.uleb128 0x3b
 1917 012c 0B       		.uleb128 0xb
 1918 012d 01       		.uleb128 0x1
 1919 012e 13       		.uleb128 0x13
 1920 012f 00       		.byte	0
 1921 0130 00       		.byte	0
 1922 0131 1A       		.uleb128 0x1a
 1923 0132 0D       		.uleb128 0xd
 1924 0133 00       		.byte	0
 1925 0134 03       		.uleb128 0x3
 1926 0135 08       		.uleb128 0x8
 1927 0136 3A       		.uleb128 0x3a
 1928 0137 0B       		.uleb128 0xb
 1929 0138 3B       		.uleb128 0x3b
 1930 0139 0B       		.uleb128 0xb
 1931 013a 49       		.uleb128 0x49
 1932 013b 13       		.uleb128 0x13
 1933 013c 00       		.byte	0
ARM GAS  /tmp/ccCl5OHz.s 			page 35


 1934 013d 00       		.byte	0
 1935 013e 1B       		.uleb128 0x1b
 1936 013f 0D       		.uleb128 0xd
 1937 0140 00       		.byte	0
 1938 0141 03       		.uleb128 0x3
 1939 0142 0E       		.uleb128 0xe
 1940 0143 3A       		.uleb128 0x3a
 1941 0144 0B       		.uleb128 0xb
 1942 0145 3B       		.uleb128 0x3b
 1943 0146 0B       		.uleb128 0xb
 1944 0147 49       		.uleb128 0x49
 1945 0148 13       		.uleb128 0x13
 1946 0149 00       		.byte	0
 1947 014a 00       		.byte	0
 1948 014b 1C       		.uleb128 0x1c
 1949 014c 0D       		.uleb128 0xd
 1950 014d 00       		.byte	0
 1951 014e 03       		.uleb128 0x3
 1952 014f 0E       		.uleb128 0xe
 1953 0150 3A       		.uleb128 0x3a
 1954 0151 0B       		.uleb128 0xb
 1955 0152 3B       		.uleb128 0x3b
 1956 0153 0B       		.uleb128 0xb
 1957 0154 49       		.uleb128 0x49
 1958 0155 13       		.uleb128 0x13
 1959 0156 0B       		.uleb128 0xb
 1960 0157 0B       		.uleb128 0xb
 1961 0158 0D       		.uleb128 0xd
 1962 0159 0B       		.uleb128 0xb
 1963 015a 0C       		.uleb128 0xc
 1964 015b 0B       		.uleb128 0xb
 1965 015c 38       		.uleb128 0x38
 1966 015d 0B       		.uleb128 0xb
 1967 015e 00       		.byte	0
 1968 015f 00       		.byte	0
 1969 0160 1D       		.uleb128 0x1d
 1970 0161 13       		.uleb128 0x13
 1971 0162 01       		.byte	0x1
 1972 0163 0B       		.uleb128 0xb
 1973 0164 05       		.uleb128 0x5
 1974 0165 3A       		.uleb128 0x3a
 1975 0166 0B       		.uleb128 0xb
 1976 0167 3B       		.uleb128 0x3b
 1977 0168 0B       		.uleb128 0xb
 1978 0169 01       		.uleb128 0x1
 1979 016a 13       		.uleb128 0x13
 1980 016b 00       		.byte	0
 1981 016c 00       		.byte	0
 1982 016d 1E       		.uleb128 0x1e
 1983 016e 0D       		.uleb128 0xd
 1984 016f 00       		.byte	0
 1985 0170 03       		.uleb128 0x3
 1986 0171 0E       		.uleb128 0xe
 1987 0172 3A       		.uleb128 0x3a
 1988 0173 0B       		.uleb128 0xb
 1989 0174 3B       		.uleb128 0x3b
 1990 0175 05       		.uleb128 0x5
ARM GAS  /tmp/ccCl5OHz.s 			page 36


 1991 0176 49       		.uleb128 0x49
 1992 0177 13       		.uleb128 0x13
 1993 0178 00       		.byte	0
 1994 0179 00       		.byte	0
 1995 017a 1F       		.uleb128 0x1f
 1996 017b 2E       		.uleb128 0x2e
 1997 017c 01       		.byte	0x1
 1998 017d 03       		.uleb128 0x3
 1999 017e 0E       		.uleb128 0xe
 2000 017f 3A       		.uleb128 0x3a
 2001 0180 0B       		.uleb128 0xb
 2002 0181 3B       		.uleb128 0x3b
 2003 0182 05       		.uleb128 0x5
 2004 0183 27       		.uleb128 0x27
 2005 0184 19       		.uleb128 0x19
 2006 0185 20       		.uleb128 0x20
 2007 0186 0B       		.uleb128 0xb
 2008 0187 01       		.uleb128 0x1
 2009 0188 13       		.uleb128 0x13
 2010 0189 00       		.byte	0
 2011 018a 00       		.byte	0
 2012 018b 20       		.uleb128 0x20
 2013 018c 05       		.uleb128 0x5
 2014 018d 00       		.byte	0
 2015 018e 03       		.uleb128 0x3
 2016 018f 0E       		.uleb128 0xe
 2017 0190 3A       		.uleb128 0x3a
 2018 0191 0B       		.uleb128 0xb
 2019 0192 3B       		.uleb128 0x3b
 2020 0193 05       		.uleb128 0x5
 2021 0194 49       		.uleb128 0x49
 2022 0195 13       		.uleb128 0x13
 2023 0196 00       		.byte	0
 2024 0197 00       		.byte	0
 2025 0198 21       		.uleb128 0x21
 2026 0199 2E       		.uleb128 0x2e
 2027 019a 00       		.byte	0
 2028 019b 03       		.uleb128 0x3
 2029 019c 0E       		.uleb128 0xe
 2030 019d 3A       		.uleb128 0x3a
 2031 019e 0B       		.uleb128 0xb
 2032 019f 3B       		.uleb128 0x3b
 2033 01a0 05       		.uleb128 0x5
 2034 01a1 27       		.uleb128 0x27
 2035 01a2 19       		.uleb128 0x19
 2036 01a3 20       		.uleb128 0x20
 2037 01a4 0B       		.uleb128 0xb
 2038 01a5 00       		.byte	0
 2039 01a6 00       		.byte	0
 2040 01a7 22       		.uleb128 0x22
 2041 01a8 2E       		.uleb128 0x2e
 2042 01a9 01       		.byte	0x1
 2043 01aa 03       		.uleb128 0x3
 2044 01ab 0E       		.uleb128 0xe
 2045 01ac 3A       		.uleb128 0x3a
 2046 01ad 0B       		.uleb128 0xb
 2047 01ae 3B       		.uleb128 0x3b
ARM GAS  /tmp/ccCl5OHz.s 			page 37


 2048 01af 0B       		.uleb128 0xb
 2049 01b0 27       		.uleb128 0x27
 2050 01b1 19       		.uleb128 0x19
 2051 01b2 49       		.uleb128 0x49
 2052 01b3 13       		.uleb128 0x13
 2053 01b4 20       		.uleb128 0x20
 2054 01b5 0B       		.uleb128 0xb
 2055 01b6 01       		.uleb128 0x1
 2056 01b7 13       		.uleb128 0x13
 2057 01b8 00       		.byte	0
 2058 01b9 00       		.byte	0
 2059 01ba 23       		.uleb128 0x23
 2060 01bb 34       		.uleb128 0x34
 2061 01bc 00       		.byte	0
 2062 01bd 03       		.uleb128 0x3
 2063 01be 0E       		.uleb128 0xe
 2064 01bf 3A       		.uleb128 0x3a
 2065 01c0 0B       		.uleb128 0xb
 2066 01c1 3B       		.uleb128 0x3b
 2067 01c2 0B       		.uleb128 0xb
 2068 01c3 49       		.uleb128 0x49
 2069 01c4 13       		.uleb128 0x13
 2070 01c5 00       		.byte	0
 2071 01c6 00       		.byte	0
 2072 01c7 24       		.uleb128 0x24
 2073 01c8 2E       		.uleb128 0x2e
 2074 01c9 01       		.byte	0x1
 2075 01ca 03       		.uleb128 0x3
 2076 01cb 0E       		.uleb128 0xe
 2077 01cc 3A       		.uleb128 0x3a
 2078 01cd 0B       		.uleb128 0xb
 2079 01ce 3B       		.uleb128 0x3b
 2080 01cf 0B       		.uleb128 0xb
 2081 01d0 27       		.uleb128 0x27
 2082 01d1 19       		.uleb128 0x19
 2083 01d2 20       		.uleb128 0x20
 2084 01d3 0B       		.uleb128 0xb
 2085 01d4 01       		.uleb128 0x1
 2086 01d5 13       		.uleb128 0x13
 2087 01d6 00       		.byte	0
 2088 01d7 00       		.byte	0
 2089 01d8 25       		.uleb128 0x25
 2090 01d9 05       		.uleb128 0x5
 2091 01da 00       		.byte	0
 2092 01db 03       		.uleb128 0x3
 2093 01dc 0E       		.uleb128 0xe
 2094 01dd 3A       		.uleb128 0x3a
 2095 01de 0B       		.uleb128 0xb
 2096 01df 3B       		.uleb128 0x3b
 2097 01e0 0B       		.uleb128 0xb
 2098 01e1 49       		.uleb128 0x49
 2099 01e2 13       		.uleb128 0x13
 2100 01e3 00       		.byte	0
 2101 01e4 00       		.byte	0
 2102 01e5 26       		.uleb128 0x26
 2103 01e6 2E       		.uleb128 0x2e
 2104 01e7 01       		.byte	0x1
ARM GAS  /tmp/ccCl5OHz.s 			page 38


 2105 01e8 3F       		.uleb128 0x3f
 2106 01e9 19       		.uleb128 0x19
 2107 01ea 03       		.uleb128 0x3
 2108 01eb 0E       		.uleb128 0xe
 2109 01ec 3A       		.uleb128 0x3a
 2110 01ed 0B       		.uleb128 0xb
 2111 01ee 3B       		.uleb128 0x3b
 2112 01ef 0B       		.uleb128 0xb
 2113 01f0 27       		.uleb128 0x27
 2114 01f1 19       		.uleb128 0x19
 2115 01f2 11       		.uleb128 0x11
 2116 01f3 01       		.uleb128 0x1
 2117 01f4 12       		.uleb128 0x12
 2118 01f5 06       		.uleb128 0x6
 2119 01f6 40       		.uleb128 0x40
 2120 01f7 18       		.uleb128 0x18
 2121 01f8 9742     		.uleb128 0x2117
 2122 01fa 19       		.uleb128 0x19
 2123 01fb 01       		.uleb128 0x1
 2124 01fc 13       		.uleb128 0x13
 2125 01fd 00       		.byte	0
 2126 01fe 00       		.byte	0
 2127 01ff 27       		.uleb128 0x27
 2128 0200 34       		.uleb128 0x34
 2129 0201 00       		.byte	0
 2130 0202 03       		.uleb128 0x3
 2131 0203 0E       		.uleb128 0xe
 2132 0204 3A       		.uleb128 0x3a
 2133 0205 0B       		.uleb128 0xb
 2134 0206 3B       		.uleb128 0x3b
 2135 0207 0B       		.uleb128 0xb
 2136 0208 49       		.uleb128 0x49
 2137 0209 13       		.uleb128 0x13
 2138 020a 02       		.uleb128 0x2
 2139 020b 17       		.uleb128 0x17
 2140 020c 00       		.byte	0
 2141 020d 00       		.byte	0
 2142 020e 28       		.uleb128 0x28
 2143 020f 1D       		.uleb128 0x1d
 2144 0210 01       		.byte	0x1
 2145 0211 31       		.uleb128 0x31
 2146 0212 13       		.uleb128 0x13
 2147 0213 11       		.uleb128 0x11
 2148 0214 01       		.uleb128 0x1
 2149 0215 12       		.uleb128 0x12
 2150 0216 06       		.uleb128 0x6
 2151 0217 58       		.uleb128 0x58
 2152 0218 0B       		.uleb128 0xb
 2153 0219 59       		.uleb128 0x59
 2154 021a 0B       		.uleb128 0xb
 2155 021b 01       		.uleb128 0x1
 2156 021c 13       		.uleb128 0x13
 2157 021d 00       		.byte	0
 2158 021e 00       		.byte	0
 2159 021f 29       		.uleb128 0x29
 2160 0220 0B       		.uleb128 0xb
 2161 0221 01       		.byte	0x1
ARM GAS  /tmp/ccCl5OHz.s 			page 39


 2162 0222 11       		.uleb128 0x11
 2163 0223 01       		.uleb128 0x1
 2164 0224 12       		.uleb128 0x12
 2165 0225 06       		.uleb128 0x6
 2166 0226 00       		.byte	0
 2167 0227 00       		.byte	0
 2168 0228 2A       		.uleb128 0x2a
 2169 0229 34       		.uleb128 0x34
 2170 022a 00       		.byte	0
 2171 022b 31       		.uleb128 0x31
 2172 022c 13       		.uleb128 0x13
 2173 022d 02       		.uleb128 0x2
 2174 022e 17       		.uleb128 0x17
 2175 022f 00       		.byte	0
 2176 0230 00       		.byte	0
 2177 0231 2B       		.uleb128 0x2b
 2178 0232 05       		.uleb128 0x5
 2179 0233 00       		.byte	0
 2180 0234 31       		.uleb128 0x31
 2181 0235 13       		.uleb128 0x13
 2182 0236 02       		.uleb128 0x2
 2183 0237 17       		.uleb128 0x17
 2184 0238 00       		.byte	0
 2185 0239 00       		.byte	0
 2186 023a 2C       		.uleb128 0x2c
 2187 023b 1D       		.uleb128 0x1d
 2188 023c 01       		.byte	0x1
 2189 023d 31       		.uleb128 0x31
 2190 023e 13       		.uleb128 0x13
 2191 023f 11       		.uleb128 0x11
 2192 0240 01       		.uleb128 0x1
 2193 0241 12       		.uleb128 0x12
 2194 0242 06       		.uleb128 0x6
 2195 0243 58       		.uleb128 0x58
 2196 0244 0B       		.uleb128 0xb
 2197 0245 59       		.uleb128 0x59
 2198 0246 0B       		.uleb128 0xb
 2199 0247 00       		.byte	0
 2200 0248 00       		.byte	0
 2201 0249 2D       		.uleb128 0x2d
 2202 024a 1D       		.uleb128 0x1d
 2203 024b 01       		.byte	0x1
 2204 024c 31       		.uleb128 0x31
 2205 024d 13       		.uleb128 0x13
 2206 024e 11       		.uleb128 0x11
 2207 024f 01       		.uleb128 0x1
 2208 0250 12       		.uleb128 0x12
 2209 0251 06       		.uleb128 0x6
 2210 0252 58       		.uleb128 0x58
 2211 0253 0B       		.uleb128 0xb
 2212 0254 59       		.uleb128 0x59
 2213 0255 05       		.uleb128 0x5
 2214 0256 00       		.byte	0
 2215 0257 00       		.byte	0
 2216 0258 2E       		.uleb128 0x2e
 2217 0259 05       		.uleb128 0x5
 2218 025a 00       		.byte	0
ARM GAS  /tmp/ccCl5OHz.s 			page 40


 2219 025b 31       		.uleb128 0x31
 2220 025c 13       		.uleb128 0x13
 2221 025d 1C       		.uleb128 0x1c
 2222 025e 0B       		.uleb128 0xb
 2223 025f 00       		.byte	0
 2224 0260 00       		.byte	0
 2225 0261 2F       		.uleb128 0x2f
 2226 0262 34       		.uleb128 0x34
 2227 0263 00       		.byte	0
 2228 0264 31       		.uleb128 0x31
 2229 0265 13       		.uleb128 0x13
 2230 0266 02       		.uleb128 0x2
 2231 0267 18       		.uleb128 0x18
 2232 0268 00       		.byte	0
 2233 0269 00       		.byte	0
 2234 026a 30       		.uleb128 0x30
 2235 026b 898201   		.uleb128 0x4109
 2236 026e 00       		.byte	0
 2237 026f 11       		.uleb128 0x11
 2238 0270 01       		.uleb128 0x1
 2239 0271 31       		.uleb128 0x31
 2240 0272 13       		.uleb128 0x13
 2241 0273 00       		.byte	0
 2242 0274 00       		.byte	0
 2243 0275 31       		.uleb128 0x31
 2244 0276 34       		.uleb128 0x34
 2245 0277 00       		.byte	0
 2246 0278 03       		.uleb128 0x3
 2247 0279 0E       		.uleb128 0xe
 2248 027a 3A       		.uleb128 0x3a
 2249 027b 0B       		.uleb128 0xb
 2250 027c 3B       		.uleb128 0x3b
 2251 027d 05       		.uleb128 0x5
 2252 027e 49       		.uleb128 0x49
 2253 027f 13       		.uleb128 0x13
 2254 0280 3F       		.uleb128 0x3f
 2255 0281 19       		.uleb128 0x19
 2256 0282 3C       		.uleb128 0x3c
 2257 0283 19       		.uleb128 0x19
 2258 0284 00       		.byte	0
 2259 0285 00       		.byte	0
 2260 0286 32       		.uleb128 0x32
 2261 0287 34       		.uleb128 0x34
 2262 0288 00       		.byte	0
 2263 0289 03       		.uleb128 0x3
 2264 028a 08       		.uleb128 0x8
 2265 028b 3A       		.uleb128 0x3a
 2266 028c 0B       		.uleb128 0xb
 2267 028d 3B       		.uleb128 0x3b
 2268 028e 05       		.uleb128 0x5
 2269 028f 49       		.uleb128 0x49
 2270 0290 13       		.uleb128 0x13
 2271 0291 3F       		.uleb128 0x3f
 2272 0292 19       		.uleb128 0x19
 2273 0293 3C       		.uleb128 0x3c
 2274 0294 19       		.uleb128 0x19
 2275 0295 00       		.byte	0
ARM GAS  /tmp/ccCl5OHz.s 			page 41


 2276 0296 00       		.byte	0
 2277 0297 33       		.uleb128 0x33
 2278 0298 2E       		.uleb128 0x2e
 2279 0299 00       		.byte	0
 2280 029a 3F       		.uleb128 0x3f
 2281 029b 19       		.uleb128 0x19
 2282 029c 03       		.uleb128 0x3
 2283 029d 0E       		.uleb128 0xe
 2284 029e 3A       		.uleb128 0x3a
 2285 029f 0B       		.uleb128 0xb
 2286 02a0 3B       		.uleb128 0x3b
 2287 02a1 05       		.uleb128 0x5
 2288 02a2 27       		.uleb128 0x27
 2289 02a3 19       		.uleb128 0x19
 2290 02a4 49       		.uleb128 0x49
 2291 02a5 13       		.uleb128 0x13
 2292 02a6 3C       		.uleb128 0x3c
 2293 02a7 19       		.uleb128 0x19
 2294 02a8 00       		.byte	0
 2295 02a9 00       		.byte	0
 2296 02aa 00       		.byte	0
 2297              		.section	.debug_loc,"",%progbits
 2298              	.Ldebug_loc0:
 2299              	.LLST0:
 2300 0000 04000000 		.4byte	.LVL0
 2301 0004 06000000 		.4byte	.LVL1
 2302 0008 0300     		.2byte	0x3
 2303 000a 73       		.byte	0x73
 2304 000b 20       		.sleb128 32
 2305 000c 9F       		.byte	0x9f
 2306 000d 06000000 		.4byte	.LVL1
 2307 0011 0C000000 		.4byte	.LVL3
 2308 0015 0100     		.2byte	0x1
 2309 0017 53       		.byte	0x53
 2310 0018 00000000 		.4byte	0
 2311 001c 00000000 		.4byte	0
 2312              	.LLST1:
 2313 0020 04000000 		.4byte	.LVL0
 2314 0024 06000000 		.4byte	.LVL1
 2315 0028 0100     		.2byte	0x1
 2316 002a 53       		.byte	0x53
 2317 002b 06000000 		.4byte	.LVL1
 2318 002f 0C000000 		.4byte	.LVL3
 2319 0033 0300     		.2byte	0x3
 2320 0035 73       		.byte	0x73
 2321 0036 60       		.sleb128 -32
 2322 0037 9F       		.byte	0x9f
 2323 0038 00000000 		.4byte	0
 2324 003c 00000000 		.4byte	0
 2325              	.LLST3:
 2326 0040 18000000 		.4byte	.LVL5
 2327 0044 1E000000 		.4byte	.LVL6
 2328 0048 0200     		.2byte	0x2
 2329 004a 30       		.byte	0x30
 2330 004b 9F       		.byte	0x9f
 2331 004c 00000000 		.4byte	0
 2332 0050 00000000 		.4byte	0
ARM GAS  /tmp/ccCl5OHz.s 			page 42


 2333              	.LLST4:
 2334 0054 22000000 		.4byte	.LVL7
 2335 0058 2E000000 		.4byte	.LVL9
 2336 005c 0300     		.2byte	0x3
 2337 005e 74       		.byte	0x74
 2338 005f 60       		.sleb128 -32
 2339 0060 9F       		.byte	0x9f
 2340 0061 2E000000 		.4byte	.LVL9
 2341 0065 35000000 		.4byte	.LVL10-1
 2342 0069 0100     		.2byte	0x1
 2343 006b 53       		.byte	0x53
 2344 006c 35000000 		.4byte	.LVL10-1
 2345 0070 54000000 		.4byte	.LFE240
 2346 0074 0300     		.2byte	0x3
 2347 0076 74       		.byte	0x74
 2348 0077 60       		.sleb128 -32
 2349 0078 9F       		.byte	0x9f
 2350 0079 00000000 		.4byte	0
 2351 007d 00000000 		.4byte	0
 2352              	.LLST5:
 2353 0081 2A000000 		.4byte	.LVL8
 2354 0085 2E000000 		.4byte	.LVL9
 2355 0089 0300     		.2byte	0x3
 2356 008b 74       		.byte	0x74
 2357 008c 60       		.sleb128 -32
 2358 008d 9F       		.byte	0x9f
 2359 008e 2E000000 		.4byte	.LVL9
 2360 0092 35000000 		.4byte	.LVL10-1
 2361 0096 0100     		.2byte	0x1
 2362 0098 53       		.byte	0x53
 2363 0099 35000000 		.4byte	.LVL10-1
 2364 009d 54000000 		.4byte	.LFE240
 2365 00a1 0300     		.2byte	0x3
 2366 00a3 74       		.byte	0x74
 2367 00a4 60       		.sleb128 -32
 2368 00a5 9F       		.byte	0x9f
 2369 00a6 00000000 		.4byte	0
 2370 00aa 00000000 		.4byte	0
 2371              		.section	.debug_aranges,"",%progbits
 2372 0000 24000000 		.4byte	0x24
 2373 0004 0200     		.2byte	0x2
 2374 0006 00000000 		.4byte	.Ldebug_info0
 2375 000a 04       		.byte	0x4
 2376 000b 00       		.byte	0
 2377 000c 0000     		.2byte	0
 2378 000e 0000     		.2byte	0
 2379 0010 00000000 		.4byte	.LFB239
 2380 0014 12000000 		.4byte	.LFE239-.LFB239
 2381 0018 00000000 		.4byte	.LFB240
 2382 001c 54000000 		.4byte	.LFE240-.LFB240
 2383 0020 00000000 		.4byte	0
 2384 0024 00000000 		.4byte	0
 2385              		.section	.debug_ranges,"",%progbits
 2386              	.Ldebug_ranges0:
 2387 0000 00000000 		.4byte	.LFB239
 2388 0004 12000000 		.4byte	.LFE239
 2389 0008 00000000 		.4byte	.LFB240
ARM GAS  /tmp/ccCl5OHz.s 			page 43


 2390 000c 54000000 		.4byte	.LFE240
 2391 0010 00000000 		.4byte	0
 2392 0014 00000000 		.4byte	0
 2393              		.section	.debug_line,"",%progbits
 2394              	.Ldebug_line0:
 2395 0000 33020000 		.section	.debug_str,"MS",%progbits,1
 2395      0200D001 
 2395      00000201 
 2395      FB0E0D00 
 2395      01010101 
 2396              	.LASF47:
 2397 0000 63685F74 		.ascii	"ch_threads_list\000"
 2397      68726561 
 2397      64735F6C 
 2397      69737400 
 2398              	.LASF87:
 2399 0010 43504143 		.ascii	"CPACR\000"
 2399      5200
 2400              	.LASF116:
 2401 0016 77746D74 		.ascii	"wtmtxp\000"
 2401      787000
 2402              	.LASF110:
 2403 001d 746D5F63 		.ascii	"tm_calibration_t\000"
 2403      616C6962 
 2403      72617469 
 2403      6F6E5F74 
 2403      00
 2404              	.LASF89:
 2405 002e 72656761 		.ascii	"regarm_t\000"
 2405      726D5F74 
 2405      00
 2406              	.LASF36:
 2407 0037 666C6167 		.ascii	"flags\000"
 2407      7300
 2408              	.LASF27:
 2409 003d 73797374 		.ascii	"systime_t\000"
 2409      696D655F 
 2409      7400
 2410              	.LASF42:
 2411 0047 7265616C 		.ascii	"realprio\000"
 2411      7072696F 
 2411      00
 2412              	.LASF107:
 2413 0050 62756666 		.ascii	"buffer\000"
 2413      657200
 2414              	.LASF105:
 2415 0057 73757370 		.ascii	"suspended\000"
 2415      656E6465 
 2415      6400
 2416              	.LASF40:
 2417 0061 6570656E 		.ascii	"epending\000"
 2417      64696E67 
 2417      00
 2418              	.LASF0:
 2419 006a 756E7369 		.ascii	"unsigned int\000"
 2419      676E6564 
 2419      20696E74 
ARM GAS  /tmp/ccCl5OHz.s 			page 44


 2419      00
 2420              	.LASF48:
 2421 0077 6E657874 		.ascii	"next\000"
 2421      00
 2422              	.LASF45:
 2423 007c 74687265 		.ascii	"threads_list_t\000"
 2423      6164735F 
 2423      6C697374 
 2423      5F7400
 2424              	.LASF80:
 2425 008b 44465352 		.ascii	"DFSR\000"
 2425      00
 2426              	.LASF7:
 2427 0090 5F5F696E 		.ascii	"__int32_t\000"
 2427      7433325F 
 2427      7400
 2428              	.LASF37:
 2429 009a 72656673 		.ascii	"refs\000"
 2429      00
 2430              	.LASF96:
 2431 009f 77746F62 		.ascii	"wtobjp\000"
 2431      6A7000
 2432              	.LASF122:
 2433 00a6 706F7274 		.ascii	"port_lock\000"
 2433      5F6C6F63 
 2433      6B00
 2434              	.LASF70:
 2435 00b0 76746C69 		.ascii	"vtlist\000"
 2435      737400
 2436              	.LASF91:
 2437 00b7 706F7274 		.ascii	"port_context\000"
 2437      5F636F6E 
 2437      74657874 
 2437      00
 2438              	.LASF129:
 2439 00c4 706F7274 		.ascii	"port_lock_from_isr\000"
 2439      5F6C6F63 
 2439      6B5F6672 
 2439      6F6D5F69 
 2439      737200
 2440              	.LASF53:
 2441 00d7 63685F72 		.ascii	"ch_ready_list\000"
 2441      65616479 
 2441      5F6C6973 
 2441      7400
 2442              	.LASF59:
 2443 00e5 66756E63 		.ascii	"func\000"
 2443      00
 2444              	.LASF117:
 2445 00ea 65776D61 		.ascii	"ewmask\000"
 2445      736B00
 2446              	.LASF51:
 2447 00f1 70726576 		.ascii	"prev\000"
 2447      00
 2448              	.LASF50:
 2449 00f6 63685F74 		.ascii	"ch_threads_queue\000"
 2449      68726561 
ARM GAS  /tmp/ccCl5OHz.s 			page 45


 2449      64735F71 
 2449      75657565 
 2449      00
 2450              	.LASF55:
 2451 0107 76746675 		.ascii	"vtfunc_t\000"
 2451      6E635F74 
 2451      00
 2452              	.LASF137:
 2453 0110 2F686F6D 		.ascii	"/home/johnnyco/Documentos/Embebidos/Chibios Johnny/"
 2453      652F6A6F 
 2453      686E6E79 
 2453      636F2F44 
 2453      6F63756D 
 2454 0143 43686962 		.ascii	"ChibiOS-Contrib/testhal/STM32/STM32F4xx/1WIRE + RTC"
 2454      694F532D 
 2454      436F6E74 
 2454      7269622F 
 2454      74657374 
 2455 0176 202B2055 		.ascii	" + UART + PWM + ADC 1.0\000"
 2455      41525420 
 2455      2B205057 
 2455      4D202B20 
 2455      41444320 
 2456              	.LASF64:
 2457 018e 63685F73 		.ascii	"ch_system_debug\000"
 2457      79737465 
 2457      6D5F6465 
 2457      62756700 
 2458              	.LASF17:
 2459 019e 75696E74 		.ascii	"uint32_t\000"
 2459      33325F74 
 2459      00
 2460              	.LASF114:
 2461 01a7 73656E74 		.ascii	"sentmsg\000"
 2461      6D736700 
 2462              	.LASF84:
 2463 01af 4D4D4652 		.ascii	"MMFR\000"
 2463      00
 2464              	.LASF25:
 2465 01b4 6576656E 		.ascii	"eventmask_t\000"
 2465      746D6173 
 2465      6B5F7400 
 2466              	.LASF118:
 2467 01c0 63685F73 		.ascii	"ch_semaphore\000"
 2467      656D6170 
 2467      686F7265 
 2467      00
 2468              	.LASF23:
 2469 01cd 74707269 		.ascii	"tprio_t\000"
 2469      6F5F7400 
 2470              	.LASF57:
 2471 01d5 63685F76 		.ascii	"ch_virtual_timer\000"
 2471      69727475 
 2471      616C5F74 
 2471      696D6572 
 2471      00
 2472              	.LASF139:
ARM GAS  /tmp/ccCl5OHz.s 			page 46


 2473 01e6 72657375 		.ascii	"result\000"
 2473      6C7400
 2474              	.LASF99:
 2475 01ed 68616C74 		.ascii	"halt\000"
 2475      00
 2476              	.LASF13:
 2477 01f2 6C6F6E67 		.ascii	"long long unsigned int\000"
 2477      206C6F6E 
 2477      6720756E 
 2477      7369676E 
 2477      65642069 
 2478              	.LASF98:
 2479 0209 72656173 		.ascii	"reason\000"
 2479      6F6E00
 2480              	.LASF140:
 2481 0210 63685363 		.ascii	"chSchIsPreemptionRequired\000"
 2481      68497350 
 2481      7265656D 
 2481      7074696F 
 2481      6E526571 
 2482              	.LASF5:
 2483 022a 5F5F7569 		.ascii	"__uint16_t\000"
 2483      6E743136 
 2483      5F7400
 2484              	.LASF26:
 2485 0235 636E745F 		.ascii	"cnt_t\000"
 2485      7400
 2486              	.LASF103:
 2487 023b 74696D65 		.ascii	"time\000"
 2487      00
 2488              	.LASF120:
 2489 0240 6F776E65 		.ascii	"owner\000"
 2489      7200
 2490              	.LASF49:
 2491 0246 74687265 		.ascii	"threads_queue_t\000"
 2491      6164735F 
 2491      71756575 
 2491      655F7400 
 2492              	.LASF127:
 2493 0256 746F704F 		.ascii	"topOfProcStack\000"
 2493      6650726F 
 2493      63537461 
 2493      636B00
 2494              	.LASF126:
 2495 0265 76616C75 		.ascii	"value\000"
 2495      6500
 2496              	.LASF41:
 2497 026b 6D74786C 		.ascii	"mtxlist\000"
 2497      69737400 
 2498              	.LASF61:
 2499 0273 63685F76 		.ascii	"ch_virtual_timers_list\000"
 2499      69727475 
 2499      616C5F74 
 2499      696D6572 
 2499      735F6C69 
 2500              	.LASF28:
 2501 028a 74687265 		.ascii	"thread_t\000"
ARM GAS  /tmp/ccCl5OHz.s 			page 47


 2501      61645F74 
 2501      00
 2502              	.LASF100:
 2503 0293 75736572 		.ascii	"user\000"
 2503      00
 2504              	.LASF111:
 2505 0298 7264796D 		.ascii	"rdymsg\000"
 2505      736700
 2506              	.LASF109:
 2507 029f 6F666673 		.ascii	"offset\000"
 2507      657400
 2508              	.LASF73:
 2509 02a6 43505549 		.ascii	"CPUID\000"
 2509      4400
 2510              	.LASF134:
 2511 02ac 5F426F6F 		.ascii	"_Bool\000"
 2511      6C00
 2512              	.LASF119:
 2513 02b2 63685F6D 		.ascii	"ch_mutex\000"
 2513      75746578 
 2513      00
 2514              	.LASF12:
 2515 02bb 5F5F7569 		.ascii	"__uint64_t\000"
 2515      6E743634 
 2515      5F7400
 2516              	.LASF83:
 2517 02c6 41465352 		.ascii	"AFSR\000"
 2517      00
 2518              	.LASF130:
 2519 02cb 5356435F 		.ascii	"SVC_Handler\000"
 2519      48616E64 
 2519      6C657200 
 2520              	.LASF79:
 2521 02d7 48465352 		.ascii	"HFSR\000"
 2521      00
 2522              	.LASF30:
 2523 02dc 7072696F 		.ascii	"prio\000"
 2523      00
 2524              	.LASF97:
 2525 02e1 63686172 		.ascii	"char\000"
 2525      00
 2526              	.LASF44:
 2527 02e6 74687265 		.ascii	"thread_reference_t\000"
 2527      61645F72 
 2527      65666572 
 2527      656E6365 
 2527      5F7400
 2528              	.LASF34:
 2529 02f9 77616261 		.ascii	"wabase\000"
 2529      736500
 2530              	.LASF74:
 2531 0300 49435352 		.ascii	"ICSR\000"
 2531      00
 2532              	.LASF21:
 2533 0305 74737461 		.ascii	"tstate_t\000"
 2533      74655F74 
 2533      00
ARM GAS  /tmp/ccCl5OHz.s 			page 48


 2534              	.LASF76:
 2535 030e 41495243 		.ascii	"AIRCR\000"
 2535      5200
 2536              	.LASF14:
 2537 0314 75696E74 		.ascii	"uint8_t\000"
 2537      385F7400 
 2538              	.LASF39:
 2539 031c 6D736771 		.ascii	"msgqueue\000"
 2539      75657565 
 2539      00
 2540              	.LASF46:
 2541 0325 63685F74 		.ascii	"ch_thread\000"
 2541      68726561 
 2541      6400
 2542              	.LASF63:
 2543 032f 73797374 		.ascii	"system_debug_t\000"
 2543      656D5F64 
 2543      65627567 
 2543      5F7400
 2544              	.LASF11:
 2545 033e 6C6F6E67 		.ascii	"long long int\000"
 2545      206C6F6E 
 2545      6720696E 
 2545      7400
 2546              	.LASF24:
 2547 034c 6D73675F 		.ascii	"msg_t\000"
 2547      7400
 2548              	.LASF78:
 2549 0352 43465352 		.ascii	"CFSR\000"
 2549      00
 2550              	.LASF56:
 2551 0357 76697274 		.ascii	"virtual_timer_t\000"
 2551      75616C5F 
 2551      74696D65 
 2551      725F7400 
 2552              	.LASF106:
 2553 0367 73697A65 		.ascii	"size\000"
 2553      00
 2554              	.LASF104:
 2555 036c 63685F74 		.ascii	"ch_trace_event_t\000"
 2555      72616365 
 2555      5F657665 
 2555      6E745F74 
 2555      00
 2556              	.LASF135:
 2557 037d 474E5520 		.ascii	"GNU C 4.8.2 -mcpu=cortex-m4 -mno-thumb-interwork -m"
 2557      4320342E 
 2557      382E3220 
 2557      2D6D6370 
 2557      753D636F 
 2558 03b0 7468756D 		.ascii	"thumb -ggdb -O2 -fomit-frame-pointer -falign-functi"
 2558      62202D67 
 2558      67646220 
 2558      2D4F3220 
 2558      2D666F6D 
 2559 03e3 6F6E733D 		.ascii	"ons=16 -ffunction-sections -fdata-sections -fno-com"
 2559      3136202D 
ARM GAS  /tmp/ccCl5OHz.s 			page 49


 2559      6666756E 
 2559      6374696F 
 2559      6E2D7365 
 2560 0416 6D6F6E00 		.ascii	"mon\000"
 2561              	.LASF65:
 2562 041a 70616E69 		.ascii	"panic_msg\000"
 2562      635F6D73 
 2562      6700
 2563              	.LASF20:
 2564 0424 746D6F64 		.ascii	"tmode_t\000"
 2564      655F7400 
 2565              	.LASF71:
 2566 042c 6D61696E 		.ascii	"mainthread\000"
 2566      74687265 
 2566      616400
 2567              	.LASF15:
 2568 0437 75696E74 		.ascii	"uint16_t\000"
 2568      31365F74 
 2568      00
 2569              	.LASF19:
 2570 0440 7274636E 		.ascii	"rtcnt_t\000"
 2570      745F7400 
 2571              	.LASF81:
 2572 0448 4D4D4641 		.ascii	"MMFAR\000"
 2572      5200
 2573              	.LASF125:
 2574 044e 5F5F7365 		.ascii	"__set_PSP\000"
 2574      745F5053 
 2574      5000
 2575              	.LASF86:
 2576 0458 52455345 		.ascii	"RESERVED0\000"
 2576      52564544 
 2576      3000
 2577              	.LASF77:
 2578 0462 53484353 		.ascii	"SHCSR\000"
 2578      5200
 2579              	.LASF3:
 2580 0468 73686F72 		.ascii	"short int\000"
 2580      7420696E 
 2580      7400
 2581              	.LASF132:
 2582 0472 63747870 		.ascii	"ctxp\000"
 2582      00
 2583              	.LASF8:
 2584 0477 6C6F6E67 		.ascii	"long int\000"
 2584      20696E74 
 2584      00
 2585              	.LASF92:
 2586 0480 706F7274 		.ascii	"port_intctx\000"
 2586      5F696E74 
 2586      63747800 
 2587              	.LASF133:
 2588 048c 49544D5F 		.ascii	"ITM_RxBuffer\000"
 2588      52784275 
 2588      66666572 
 2588      00
 2589              	.LASF68:
ARM GAS  /tmp/ccCl5OHz.s 			page 50


 2590 0499 63685F73 		.ascii	"ch_system\000"
 2590      79737465 
 2590      6D00
 2591              	.LASF124:
 2592 04a3 5F5F7365 		.ascii	"__set_BASEPRI\000"
 2592      745F4241 
 2592      53455052 
 2592      4900
 2593              	.LASF62:
 2594 04b1 6C617374 		.ascii	"lasttime\000"
 2594      74696D65 
 2594      00
 2595              	.LASF18:
 2596 04ba 75696E74 		.ascii	"uint64_t\000"
 2596      36345F74 
 2596      00
 2597              	.LASF136:
 2598 04c3 2E2E2F2E 		.ascii	"../../../../../ChibiOS-RT/os/common/ports/ARMCMx/ch"
 2598      2E2F2E2E 
 2598      2F2E2E2F 
 2598      2E2E2F43 
 2598      68696269 
 2599 04f6 636F7265 		.ascii	"core_v7m.c\000"
 2599      5F76376D 
 2599      2E6300
 2600              	.LASF69:
 2601 0501 726C6973 		.ascii	"rlist\000"
 2601      7400
 2602              	.LASF4:
 2603 0507 5F5F7569 		.ascii	"__uint8_t\000"
 2603      6E74385F 
 2603      7400
 2604              	.LASF93:
 2605 0511 706F7274 		.ascii	"port_extctx\000"
 2605      5F657874 
 2605      63747800 
 2606              	.LASF88:
 2607 051d 5343425F 		.ascii	"SCB_Type\000"
 2607      54797065 
 2607      00
 2608              	.LASF33:
 2609 0526 6E616D65 		.ascii	"name\000"
 2609      00
 2610              	.LASF82:
 2611 052b 42464152 		.ascii	"BFAR\000"
 2611      00
 2612              	.LASF75:
 2613 0530 56544F52 		.ascii	"VTOR\000"
 2613      00
 2614              	.LASF95:
 2615 0535 78707372 		.ascii	"xpsr\000"
 2615      00
 2616              	.LASF72:
 2617 053a 73697A65 		.ascii	"sizetype\000"
 2617      74797065 
 2617      00
 2618              	.LASF22:
ARM GAS  /tmp/ccCl5OHz.s 			page 51


 2619 0543 74726566 		.ascii	"trefs_t\000"
 2619      735F7400 
 2620              	.LASF10:
 2621 054b 6C6F6E67 		.ascii	"long unsigned int\000"
 2621      20756E73 
 2621      69676E65 
 2621      6420696E 
 2621      7400
 2622              	.LASF52:
 2623 055d 72656164 		.ascii	"ready_list_t\000"
 2623      795F6C69 
 2623      73745F74 
 2623      00
 2624              	.LASF102:
 2625 056a 72747374 		.ascii	"rtstamp\000"
 2625      616D7000 
 2626              	.LASF29:
 2627 0572 71756575 		.ascii	"queue\000"
 2627      6500
 2628              	.LASF16:
 2629 0578 696E7433 		.ascii	"int32_t\000"
 2629      325F7400 
 2630              	.LASF66:
 2631 0580 74726163 		.ascii	"trace_buffer\000"
 2631      655F6275 
 2631      66666572 
 2631      00
 2632              	.LASF121:
 2633 058d 6D757465 		.ascii	"mutex_t\000"
 2633      785F7400 
 2634              	.LASF31:
 2635 0595 6E657765 		.ascii	"newer\000"
 2635      7200
 2636              	.LASF101:
 2637 059b 74797065 		.ascii	"type\000"
 2637      00
 2638              	.LASF128:
 2639 05a0 706F7274 		.ascii	"port_unlock_from_isr\000"
 2639      5F756E6C 
 2639      6F636B5F 
 2639      66726F6D 
 2639      5F697372 
 2640              	.LASF2:
 2641 05b5 756E7369 		.ascii	"unsigned char\000"
 2641      676E6564 
 2641      20636861 
 2641      7200
 2642              	.LASF9:
 2643 05c3 5F5F7569 		.ascii	"__uint32_t\000"
 2643      6E743332 
 2643      5F7400
 2644              	.LASF38:
 2645 05ce 77616974 		.ascii	"waiting\000"
 2645      696E6700 
 2646              	.LASF60:
 2647 05d6 76697274 		.ascii	"virtual_timers_list_t\000"
 2647      75616C5F 
ARM GAS  /tmp/ccCl5OHz.s 			page 52


 2647      74696D65 
 2647      72735F6C 
 2647      6973745F 
 2648              	.LASF131:
 2649 05ec 5F706F72 		.ascii	"_port_irq_epilogue\000"
 2649      745F6972 
 2649      715F6570 
 2649      696C6F67 
 2649      756500
 2650              	.LASF35:
 2651 05ff 73746174 		.ascii	"state\000"
 2651      6500
 2652              	.LASF94:
 2653 0605 6C725F74 		.ascii	"lr_thd\000"
 2653      686400
 2654              	.LASF67:
 2655 060c 63685F73 		.ascii	"ch_system_t\000"
 2655      79737465 
 2655      6D5F7400 
 2656              	.LASF115:
 2657 0618 77747365 		.ascii	"wtsemp\000"
 2657      6D7000
 2658              	.LASF113:
 2659 061f 77747472 		.ascii	"wttrp\000"
 2659      7000
 2660              	.LASF108:
 2661 0625 63685F74 		.ascii	"ch_trace_buffer_t\000"
 2661      72616365 
 2661      5F627566 
 2661      6665725F 
 2661      7400
 2662              	.LASF1:
 2663 0637 7369676E 		.ascii	"signed char\000"
 2663      65642063 
 2663      68617200 
 2664              	.LASF58:
 2665 0643 64656C74 		.ascii	"delta\000"
 2665      6100
 2666              	.LASF6:
 2667 0649 73686F72 		.ascii	"short unsigned int\000"
 2667      7420756E 
 2667      7369676E 
 2667      65642069 
 2667      6E7400
 2668              	.LASF90:
 2669 065c 73746B61 		.ascii	"stkalign_t\000"
 2669      6C69676E 
 2669      5F7400
 2670              	.LASF54:
 2671 0667 63757272 		.ascii	"current\000"
 2671      656E7400 
 2672              	.LASF123:
 2673 066f 706F7274 		.ascii	"port_unlock\000"
 2673      5F756E6C 
 2673      6F636B00 
 2674              	.LASF85:
 2675 067b 49534152 		.ascii	"ISAR\000"
ARM GAS  /tmp/ccCl5OHz.s 			page 53


 2675      00
 2676              	.LASF32:
 2677 0680 6F6C6465 		.ascii	"older\000"
 2677      7200
 2678              	.LASF112:
 2679 0686 65786974 		.ascii	"exitcode\000"
 2679      636F6465 
 2679      00
 2680              	.LASF43:
 2681 068f 6D706F6F 		.ascii	"mpool\000"
 2681      6C00
 2682              	.LASF138:
 2683 0695 5F5F6765 		.ascii	"__get_PSP\000"
 2683      745F5053 
 2683      5000
 2684              		.ident	"GCC: (4.8.2-14ubuntu1+6) 4.8.2"
ARM GAS  /tmp/ccCl5OHz.s 			page 54


DEFINED SYMBOLS
                            *ABS*:0000000000000000 chcore_v7m.c
     /tmp/ccCl5OHz.s:19     .text.SVC_Handler:0000000000000000 $t
     /tmp/ccCl5OHz.s:25     .text.SVC_Handler:0000000000000000 SVC_Handler
     /tmp/ccCl5OHz.s:79     .text._port_irq_epilogue:0000000000000000 $t
     /tmp/ccCl5OHz.s:85     .text._port_irq_epilogue:0000000000000000 _port_irq_epilogue
                     .debug_frame:0000000000000010 $d

UNDEFINED SYMBOLS
chSchIsPreemptionRequired
_port_switch_from_isr
_port_exit_from_isr
