ARM GAS  /tmp/ccXgczhK.s 			page 1


   1              		.syntax unified
   2              		.cpu cortex-m4
   3              		.fpu softvfp
   4              		.eabi_attribute 20, 1
   5              		.eabi_attribute 21, 1
   6              		.eabi_attribute 23, 3
   7              		.eabi_attribute 24, 1
   8              		.eabi_attribute 25, 1
   9              		.eabi_attribute 26, 1
  10              		.eabi_attribute 30, 2
  11              		.eabi_attribute 34, 1
  12              		.eabi_attribute 18, 4
  13              		.thumb
  14              		.file	"chevents.c"
  15              		.text
  16              	.Ltext0:
  17              		.cfi_sections	.debug_frame
  18              		.section	.text.chEvtRegisterMaskWithFlags,"ax",%progbits
  19              		.align	2
  20              		.p2align 4,,15
  21              		.global	chEvtRegisterMaskWithFlags
  22              		.thumb
  23              		.thumb_func
  24              		.type	chEvtRegisterMaskWithFlags, %function
  25              	chEvtRegisterMaskWithFlags:
  26              	.LFB239:
  27              		.file 1 "../../../../../ChibiOS-RT/os/rt/src/chevents.c"
  28              		.loc 1 106 0
  29              		.cfi_startproc
  30              		@ args = 0, pretend = 0, frame = 0
  31              		@ frame_needed = 0, uses_anonymous_args = 0
  32              		@ link register save eliminated.
  33              	.LVL0:
  34 0000 70B4     		push	{r4, r5, r6}
  35              		.cfi_def_cfa_offset 12
  36              		.cfi_offset 4, -12
  37              		.cfi_offset 5, -8
  38              		.cfi_offset 6, -4
  39              	.LBB174:
  40              	.LBB175:
  41              	.LBB176:
  42              	.LBB177:
  43              		.file 2 "../../../../../ChibiOS-RT/os/common/ext/CMSIS/include/cmsis_gcc.h"
  44              		.loc 2 264 0
  45 0002 2024     		movs	r4, #32
  46              	@ 264 "../../../../../ChibiOS-RT/os/common/ext/CMSIS/include/cmsis_gcc.h" 1
  47 0004 84F31188 		MSR basepri, r4
  48              	@ 0 "" 2
  49              		.thumb
  50              	.LBE177:
  51              	.LBE176:
  52              	.LBE175:
  53              	.LBE174:
  54              		.loc 1 113 0
  55 0008 40F20004 		movw	r4, #:lower16:ch
  56 000c C0F20004 		movt	r4, #:upper16:ch
  57              		.loc 1 111 0
ARM GAS  /tmp/ccXgczhK.s 			page 2


  58 0010 0568     		ldr	r5, [r0]
  59              		.loc 1 113 0
  60 0012 A669     		ldr	r6, [r4, #24]
  61              		.loc 1 111 0
  62 0014 0D60     		str	r5, [r1]
  63              		.loc 1 115 0
  64 0016 0024     		movs	r4, #0
  65              		.loc 1 112 0
  66 0018 0160     		str	r1, [r0]
  67              		.loc 1 113 0
  68 001a 4E60     		str	r6, [r1, #4]
  69              		.loc 1 114 0
  70 001c 8A60     		str	r2, [r1, #8]
  71              		.loc 1 116 0
  72 001e 0B61     		str	r3, [r1, #16]
  73              	.LVL1:
  74              		.loc 1 115 0
  75 0020 CC60     		str	r4, [r1, #12]
  76              	.LBB178:
  77              	.LBB179:
  78              	.LBB180:
  79              	.LBB181:
  80              	.LBB182:
  81              		.loc 2 264 0
  82              	@ 264 "../../../../../ChibiOS-RT/os/common/ext/CMSIS/include/cmsis_gcc.h" 1
  83 0022 84F31188 		MSR basepri, r4
  84              	@ 0 "" 2
  85              		.thumb
  86              	.LBE182:
  87              	.LBE181:
  88              	.LBE180:
  89              	.LBE179:
  90              	.LBE178:
  91              		.loc 1 118 0
  92 0026 70BC     		pop	{r4, r5, r6}
  93 0028 7047     		bx	lr
  94              		.cfi_endproc
  95              	.LFE239:
  96              		.size	chEvtRegisterMaskWithFlags, .-chEvtRegisterMaskWithFlags
  97 002a 00BFAFF3 		.section	.text.chEvtUnregister,"ax",%progbits
  97      0080
  98              		.align	2
  99              		.p2align 4,,15
 100              		.global	chEvtUnregister
 101              		.thumb
 102              		.thumb_func
 103              		.type	chEvtUnregister, %function
 104              	chEvtUnregister:
 105              	.LFB240:
 106              		.loc 1 133 0
 107              		.cfi_startproc
 108              		@ args = 0, pretend = 0, frame = 0
 109              		@ frame_needed = 0, uses_anonymous_args = 0
 110              		@ link register save eliminated.
 111              	.LVL2:
 112              	.LBB183:
 113              	.LBB184:
ARM GAS  /tmp/ccXgczhK.s 			page 3


 114              	.LBB185:
 115              	.LBB186:
 116              		.loc 2 264 0
 117 0000 2023     		movs	r3, #32
 118              	@ 264 "../../../../../ChibiOS-RT/os/common/ext/CMSIS/include/cmsis_gcc.h" 1
 119 0002 83F31188 		MSR basepri, r3
 120              	@ 0 "" 2
 121              		.thumb
 122              	.LBE186:
 123              	.LBE185:
 124              	.LBE184:
 125              	.LBE183:
 126              		.loc 1 139 0
 127 0006 0246     		mov	r2, r0
 128 0008 02E0     		b	.L3
 129              	.LVL3:
 130              	.L6:
 131              		.loc 1 145 0
 132 000a 8B42     		cmp	r3, r1
 133 000c 07D0     		beq	.L8
 134 000e 1A46     		mov	r2, r3
 135              	.LVL4:
 136              	.L3:
 137              		.loc 1 143 0 discriminator 1
 138 0010 1368     		ldr	r3, [r2]
 139 0012 8342     		cmp	r3, r0
 140 0014 F9D1     		bne	.L6
 141              	.LVL5:
 142              	.LBB187:
 143              	.LBB188:
 144              	.LBB189:
 145              	.LBB190:
 146              	.LBB191:
 147              		.loc 2 264 0
 148 0016 0023     		movs	r3, #0
 149              	@ 264 "../../../../../ChibiOS-RT/os/common/ext/CMSIS/include/cmsis_gcc.h" 1
 150 0018 83F31188 		MSR basepri, r3
 151              	@ 0 "" 2
 152              		.thumb
 153 001c 7047     		bx	lr
 154              	.LVL6:
 155              	.L8:
 156              	.LBE191:
 157              	.LBE190:
 158              	.LBE189:
 159              	.LBE188:
 160              	.LBE187:
 161              		.loc 1 146 0
 162 001e 0B68     		ldr	r3, [r1]
 163 0020 1360     		str	r3, [r2]
 164              	.LVL7:
 165              	.LBB196:
 166              	.LBB195:
 167              	.LBB194:
 168              	.LBB193:
 169              	.LBB192:
 170              		.loc 2 264 0
ARM GAS  /tmp/ccXgczhK.s 			page 4


 171 0022 0023     		movs	r3, #0
 172              	@ 264 "../../../../../ChibiOS-RT/os/common/ext/CMSIS/include/cmsis_gcc.h" 1
 173 0024 83F31188 		MSR basepri, r3
 174              	@ 0 "" 2
 175              		.thumb
 176 0028 7047     		bx	lr
 177              	.LBE192:
 178              	.LBE193:
 179              	.LBE194:
 180              	.LBE195:
 181              	.LBE196:
 182              		.cfi_endproc
 183              	.LFE240:
 184              		.size	chEvtUnregister, .-chEvtUnregister
 185 002a 00BFAFF3 		.section	.text.chEvtGetAndClearEvents,"ax",%progbits
 185      0080
 186              		.align	2
 187              		.p2align 4,,15
 188              		.global	chEvtGetAndClearEvents
 189              		.thumb
 190              		.thumb_func
 191              		.type	chEvtGetAndClearEvents, %function
 192              	chEvtGetAndClearEvents:
 193              	.LFB241:
 194              		.loc 1 162 0
 195              		.cfi_startproc
 196              		@ args = 0, pretend = 0, frame = 0
 197              		@ frame_needed = 0, uses_anonymous_args = 0
 198              		@ link register save eliminated.
 199              	.LVL8:
 200 0000 10B4     		push	{r4}
 201              		.cfi_def_cfa_offset 4
 202              		.cfi_offset 4, -4
 203              	.LBB197:
 204              	.LBB198:
 205              	.LBB199:
 206              	.LBB200:
 207              		.loc 2 264 0
 208 0002 2023     		movs	r3, #32
 209              	@ 264 "../../../../../ChibiOS-RT/os/common/ext/CMSIS/include/cmsis_gcc.h" 1
 210 0004 83F31188 		MSR basepri, r3
 211              	@ 0 "" 2
 212              		.thumb
 213              	.LBE200:
 214              	.LBE199:
 215              	.LBE198:
 216              	.LBE197:
 217              		.loc 1 166 0
 218 0008 40F20003 		movw	r3, #:lower16:ch
 219 000c C0F20003 		movt	r3, #:upper16:ch
 220              	.LBB201:
 221              	.LBB202:
 222              	.LBB203:
 223              	.LBB204:
 224              	.LBB205:
 225              		.loc 2 264 0
 226 0010 0021     		movs	r1, #0
ARM GAS  /tmp/ccXgczhK.s 			page 5


 227              	.LBE205:
 228              	.LBE204:
 229              	.LBE203:
 230              	.LBE202:
 231              	.LBE201:
 232              		.loc 1 166 0
 233 0012 9A69     		ldr	r2, [r3, #24]
 234 0014 536B     		ldr	r3, [r2, #52]
 235              	.LVL9:
 236              		.loc 1 167 0
 237 0016 23EA0004 		bic	r4, r3, r0
 238 001a 5463     		str	r4, [r2, #52]
 239              	.LVL10:
 240              	.LBB210:
 241              	.LBB209:
 242              	.LBB208:
 243              	.LBB207:
 244              	.LBB206:
 245              		.loc 2 264 0
 246              	@ 264 "../../../../../ChibiOS-RT/os/common/ext/CMSIS/include/cmsis_gcc.h" 1
 247 001c 81F31188 		MSR basepri, r1
 248              	@ 0 "" 2
 249              		.thumb
 250              	.LBE206:
 251              	.LBE207:
 252              	.LBE208:
 253              	.LBE209:
 254              	.LBE210:
 255              		.loc 1 171 0
 256 0020 1840     		ands	r0, r0, r3
 257              	.LVL11:
 258 0022 5DF8044B 		ldr	r4, [sp], #4
 259 0026 7047     		bx	lr
 260              		.cfi_endproc
 261              	.LFE241:
 262              		.size	chEvtGetAndClearEvents, .-chEvtGetAndClearEvents
 263 0028 AFF30080 		.section	.text.chEvtAddEvents,"ax",%progbits
 263      AFF30080 
 264              		.align	2
 265              		.p2align 4,,15
 266              		.global	chEvtAddEvents
 267              		.thumb
 268              		.thumb_func
 269              		.type	chEvtAddEvents, %function
 270              	chEvtAddEvents:
 271              	.LFB242:
 272              		.loc 1 182 0
 273              		.cfi_startproc
 274              		@ args = 0, pretend = 0, frame = 0
 275              		@ frame_needed = 0, uses_anonymous_args = 0
 276              		@ link register save eliminated.
 277              	.LVL12:
 278              	.LBB211:
 279              	.LBB212:
 280              	.LBB213:
 281              	.LBB214:
 282              		.loc 2 264 0
ARM GAS  /tmp/ccXgczhK.s 			page 6


 283 0000 2023     		movs	r3, #32
 284              	@ 264 "../../../../../ChibiOS-RT/os/common/ext/CMSIS/include/cmsis_gcc.h" 1
 285 0002 83F31188 		MSR basepri, r3
 286              	@ 0 "" 2
 287              		.thumb
 288              	.LBE214:
 289              	.LBE213:
 290              	.LBE212:
 291              	.LBE211:
 292              		.loc 1 185 0
 293 0006 40F20003 		movw	r3, #:lower16:ch
 294 000a C0F20003 		movt	r3, #:upper16:ch
 295              	.LBB215:
 296              	.LBB216:
 297              	.LBB217:
 298              	.LBB218:
 299              	.LBB219:
 300              		.loc 2 264 0
 301 000e 0021     		movs	r1, #0
 302              	.LBE219:
 303              	.LBE218:
 304              	.LBE217:
 305              	.LBE216:
 306              	.LBE215:
 307              		.loc 1 185 0
 308 0010 9B69     		ldr	r3, [r3, #24]
 309 0012 5A6B     		ldr	r2, [r3, #52]
 310 0014 1043     		orrs	r0, r0, r2
 311              	.LVL13:
 312 0016 5863     		str	r0, [r3, #52]
 313              	.LVL14:
 314              	.LBB224:
 315              	.LBB223:
 316              	.LBB222:
 317              	.LBB221:
 318              	.LBB220:
 319              		.loc 2 264 0
 320              	@ 264 "../../../../../ChibiOS-RT/os/common/ext/CMSIS/include/cmsis_gcc.h" 1
 321 0018 81F31188 		MSR basepri, r1
 322              	@ 0 "" 2
 323              		.thumb
 324              	.LBE220:
 325              	.LBE221:
 326              	.LBE222:
 327              	.LBE223:
 328              	.LBE224:
 329              		.loc 1 190 0
 330 001c 7047     		bx	lr
 331              		.cfi_endproc
 332              	.LFE242:
 333              		.size	chEvtAddEvents, .-chEvtAddEvents
 334 001e 00BF     		.section	.text.chEvtGetAndClearFlags,"ax",%progbits
 335              		.align	2
 336              		.p2align 4,,15
 337              		.global	chEvtGetAndClearFlags
 338              		.thumb
 339              		.thumb_func
ARM GAS  /tmp/ccXgczhK.s 			page 7


 340              		.type	chEvtGetAndClearFlags, %function
 341              	chEvtGetAndClearFlags:
 342              	.LFB244:
 343              		.loc 1 241 0
 344              		.cfi_startproc
 345              		@ args = 0, pretend = 0, frame = 0
 346              		@ frame_needed = 0, uses_anonymous_args = 0
 347              		@ link register save eliminated.
 348              	.LVL15:
 349              		.loc 1 241 0
 350 0000 0246     		mov	r2, r0
 351              	.LBB225:
 352              	.LBB226:
 353              	.LBB227:
 354              	.LBB228:
 355              		.loc 2 264 0
 356 0002 2023     		movs	r3, #32
 357              	@ 264 "../../../../../ChibiOS-RT/os/common/ext/CMSIS/include/cmsis_gcc.h" 1
 358 0004 83F31188 		MSR basepri, r3
 359              	@ 0 "" 2
 360              		.thumb
 361              	.LBE228:
 362              	.LBE227:
 363              	.LBE226:
 364              	.LBE225:
 365              		.loc 1 246 0
 366 0008 0023     		movs	r3, #0
 367              		.loc 1 245 0
 368 000a C068     		ldr	r0, [r0, #12]
 369              	.LVL16:
 370              		.loc 1 246 0
 371 000c D360     		str	r3, [r2, #12]
 372              	.LVL17:
 373              	.LBB229:
 374              	.LBB230:
 375              	.LBB231:
 376              	.LBB232:
 377              	.LBB233:
 378              		.loc 2 264 0
 379              	@ 264 "../../../../../ChibiOS-RT/os/common/ext/CMSIS/include/cmsis_gcc.h" 1
 380 000e 83F31188 		MSR basepri, r3
 381              	@ 0 "" 2
 382              		.thumb
 383              	.LBE233:
 384              	.LBE232:
 385              	.LBE231:
 386              	.LBE230:
 387              	.LBE229:
 388              		.loc 1 250 0
 389 0012 7047     		bx	lr
 390              		.cfi_endproc
 391              	.LFE244:
 392              		.size	chEvtGetAndClearFlags, .-chEvtGetAndClearFlags
 393 0014 AFF30080 		.section	.text.chEvtSignalI,"ax",%progbits
 393      AFF30080 
 393      AFF30080 
 394              		.align	2
ARM GAS  /tmp/ccXgczhK.s 			page 8


 395              		.p2align 4,,15
 396              		.global	chEvtSignalI
 397              		.thumb
 398              		.thumb_func
 399              		.type	chEvtSignalI, %function
 400              	chEvtSignalI:
 401              	.LFB246:
 402              		.loc 1 282 0
 403              		.cfi_startproc
 404              		@ args = 0, pretend = 0, frame = 0
 405              		@ frame_needed = 0, uses_anonymous_args = 0
 406              		@ link register save eliminated.
 407              	.LVL18:
 408              		.loc 1 287 0
 409 0000 426B     		ldr	r2, [r0, #52]
 410              		.loc 1 289 0
 411 0002 90F82030 		ldrb	r3, [r0, #32]	@ zero_extendqisi2
 412              		.loc 1 287 0
 413 0006 1143     		orrs	r1, r1, r2
 414              	.LVL19:
 415              		.loc 1 289 0
 416 0008 0A2B     		cmp	r3, #10
 417              		.loc 1 287 0
 418 000a 4163     		str	r1, [r0, #52]
 419              		.loc 1 289 0
 420 000c 0AD0     		beq	.L16
 421              		.loc 1 290 0
 422 000e 0B2B     		cmp	r3, #11
 423 0010 00D0     		beq	.L17
 424              	.L12:
 425 0012 7047     		bx	lr
 426              	.L17:
 427              		.loc 1 292 0
 428 0014 436A     		ldr	r3, [r0, #36]
 429 0016 1940     		ands	r1, r1, r3
 430              		.loc 1 291 0
 431 0018 8B42     		cmp	r3, r1
 432 001a FAD1     		bne	.L12
 433              	.L14:
 434              		.loc 1 293 0
 435 001c 0023     		movs	r3, #0
 436 001e 4362     		str	r3, [r0, #36]
 437              		.loc 1 294 0
 438 0020 FFF7FEBF 		b	chSchReadyI
 439              	.LVL20:
 440              	.L16:
 441              		.loc 1 290 0 discriminator 1
 442 0024 436A     		ldr	r3, [r0, #36]
 443              		.loc 1 289 0 discriminator 1
 444 0026 1942     		tst	r1, r3
 445 0028 F8D1     		bne	.L14
 446 002a 7047     		bx	lr
 447              		.cfi_endproc
 448              	.LFE246:
 449              		.size	chEvtSignalI, .-chEvtSignalI
 450 002c AFF30080 		.section	.text.chEvtBroadcastFlagsI,"ax",%progbits
 451              		.align	2
ARM GAS  /tmp/ccXgczhK.s 			page 9


 452              		.p2align 4,,15
 453              		.global	chEvtBroadcastFlagsI
 454              		.thumb
 455              		.thumb_func
 456              		.type	chEvtBroadcastFlagsI, %function
 457              	chEvtBroadcastFlagsI:
 458              	.LFB243:
 459              		.loc 1 209 0
 460              		.cfi_startproc
 461              		@ args = 0, pretend = 0, frame = 0
 462              		@ frame_needed = 0, uses_anonymous_args = 0
 463              	.LVL21:
 464 0000 70B5     		push	{r4, r5, r6, lr}
 465              		.cfi_def_cfa_offset 16
 466              		.cfi_offset 4, -16
 467              		.cfi_offset 5, -12
 468              		.cfi_offset 6, -8
 469              		.cfi_offset 14, -4
 470              		.loc 1 215 0
 471 0002 0468     		ldr	r4, [r0]
 472              	.LVL22:
 473              		.loc 1 217 0
 474 0004 A042     		cmp	r0, r4
 475              		.loc 1 209 0
 476 0006 0646     		mov	r6, r0
 477 0008 0D46     		mov	r5, r1
 478              		.loc 1 217 0
 479 000a 0DD0     		beq	.L18
 480              	.LVL23:
 481              	.L23:
 482              		.loc 1 219 0
 483 000c E368     		ldr	r3, [r4, #12]
 484 000e 2B43     		orrs	r3, r3, r5
 485 0010 E360     		str	r3, [r4, #12]
 486              		.loc 1 222 0
 487 0012 15B1     		cbz	r5, .L20
 488              		.loc 1 223 0 discriminator 1
 489 0014 2269     		ldr	r2, [r4, #16]
 490              		.loc 1 222 0 discriminator 1
 491 0016 1342     		tst	r3, r2
 492 0018 03D0     		beq	.L21
 493              	.L20:
 494              		.loc 1 224 0
 495 001a 6068     		ldr	r0, [r4, #4]
 496 001c A168     		ldr	r1, [r4, #8]
 497 001e FFF7FEFF 		bl	chEvtSignalI
 498              	.LVL24:
 499              	.L21:
 500              		.loc 1 226 0
 501 0022 2468     		ldr	r4, [r4]
 502              	.LVL25:
 503              		.loc 1 217 0
 504 0024 A642     		cmp	r6, r4
 505 0026 F1D1     		bne	.L23
 506              	.L18:
 507 0028 70BD     		pop	{r4, r5, r6, pc}
 508              		.cfi_endproc
ARM GAS  /tmp/ccXgczhK.s 			page 10


 509              	.LFE243:
 510              		.size	chEvtBroadcastFlagsI, .-chEvtBroadcastFlagsI
 511 002a 00BFAFF3 		.section	.text.chEvtSignal,"ax",%progbits
 511      0080
 512              		.align	2
 513              		.p2align 4,,15
 514              		.global	chEvtSignal
 515              		.thumb
 516              		.thumb_func
 517              		.type	chEvtSignal, %function
 518              	chEvtSignal:
 519              	.LFB245:
 520              		.loc 1 260 0
 521              		.cfi_startproc
 522              		@ args = 0, pretend = 0, frame = 0
 523              		@ frame_needed = 0, uses_anonymous_args = 0
 524              	.LVL26:
 525 0000 08B5     		push	{r3, lr}
 526              		.cfi_def_cfa_offset 8
 527              		.cfi_offset 3, -8
 528              		.cfi_offset 14, -4
 529              	.LBB234:
 530              	.LBB235:
 531              	.LBB236:
 532              	.LBB237:
 533              		.loc 2 264 0
 534 0002 2023     		movs	r3, #32
 535              	@ 264 "../../../../../ChibiOS-RT/os/common/ext/CMSIS/include/cmsis_gcc.h" 1
 536 0004 83F31188 		MSR basepri, r3
 537              	@ 0 "" 2
 538              		.thumb
 539              	.LBE237:
 540              	.LBE236:
 541              	.LBE235:
 542              	.LBE234:
 543              		.loc 1 265 0
 544 0008 FFF7FEFF 		bl	chEvtSignalI
 545              	.LVL27:
 546              		.loc 1 266 0
 547 000c FFF7FEFF 		bl	chSchRescheduleS
 548              	.LVL28:
 549              	.LBB238:
 550              	.LBB239:
 551              	.LBB240:
 552              	.LBB241:
 553              	.LBB242:
 554              		.loc 2 264 0
 555 0010 0023     		movs	r3, #0
 556              	@ 264 "../../../../../ChibiOS-RT/os/common/ext/CMSIS/include/cmsis_gcc.h" 1
 557 0012 83F31188 		MSR basepri, r3
 558              	@ 0 "" 2
 559              		.thumb
 560 0016 08BD     		pop	{r3, pc}
 561              	.LBE242:
 562              	.LBE241:
 563              	.LBE240:
 564              	.LBE239:
ARM GAS  /tmp/ccXgczhK.s 			page 11


 565              	.LBE238:
 566              		.cfi_endproc
 567              	.LFE245:
 568              		.size	chEvtSignal, .-chEvtSignal
 569 0018 AFF30080 		.section	.text.chEvtBroadcastFlags,"ax",%progbits
 569      AFF30080 
 570              		.align	2
 571              		.p2align 4,,15
 572              		.global	chEvtBroadcastFlags
 573              		.thumb
 574              		.thumb_func
 575              		.type	chEvtBroadcastFlags, %function
 576              	chEvtBroadcastFlags:
 577              	.LFB247:
 578              		.loc 1 311 0
 579              		.cfi_startproc
 580              		@ args = 0, pretend = 0, frame = 0
 581              		@ frame_needed = 0, uses_anonymous_args = 0
 582              	.LVL29:
 583 0000 08B5     		push	{r3, lr}
 584              		.cfi_def_cfa_offset 8
 585              		.cfi_offset 3, -8
 586              		.cfi_offset 14, -4
 587              	.LBB243:
 588              	.LBB244:
 589              	.LBB245:
 590              	.LBB246:
 591              		.loc 2 264 0
 592 0002 2023     		movs	r3, #32
 593              	@ 264 "../../../../../ChibiOS-RT/os/common/ext/CMSIS/include/cmsis_gcc.h" 1
 594 0004 83F31188 		MSR basepri, r3
 595              	@ 0 "" 2
 596              		.thumb
 597              	.LBE246:
 598              	.LBE245:
 599              	.LBE244:
 600              	.LBE243:
 601              		.loc 1 314 0
 602 0008 FFF7FEFF 		bl	chEvtBroadcastFlagsI
 603              	.LVL30:
 604              		.loc 1 315 0
 605 000c FFF7FEFF 		bl	chSchRescheduleS
 606              	.LVL31:
 607              	.LBB247:
 608              	.LBB248:
 609              	.LBB249:
 610              	.LBB250:
 611              	.LBB251:
 612              		.loc 2 264 0
 613 0010 0023     		movs	r3, #0
 614              	@ 264 "../../../../../ChibiOS-RT/os/common/ext/CMSIS/include/cmsis_gcc.h" 1
 615 0012 83F31188 		MSR basepri, r3
 616              	@ 0 "" 2
 617              		.thumb
 618 0016 08BD     		pop	{r3, pc}
 619              	.LBE251:
 620              	.LBE250:
ARM GAS  /tmp/ccXgczhK.s 			page 12


 621              	.LBE249:
 622              	.LBE248:
 623              	.LBE247:
 624              		.cfi_endproc
 625              	.LFE247:
 626              		.size	chEvtBroadcastFlags, .-chEvtBroadcastFlags
 627 0018 AFF30080 		.section	.text.chEvtGetAndClearFlagsI,"ax",%progbits
 627      AFF30080 
 628              		.align	2
 629              		.p2align 4,,15
 630              		.global	chEvtGetAndClearFlagsI
 631              		.thumb
 632              		.thumb_func
 633              		.type	chEvtGetAndClearFlagsI, %function
 634              	chEvtGetAndClearFlagsI:
 635              	.LFB248:
 636              		.loc 1 330 0
 637              		.cfi_startproc
 638              		@ args = 0, pretend = 0, frame = 0
 639              		@ frame_needed = 0, uses_anonymous_args = 0
 640              		@ link register save eliminated.
 641              	.LVL32:
 642              		.loc 1 330 0
 643 0000 0346     		mov	r3, r0
 644              		.loc 1 334 0
 645 0002 0022     		movs	r2, #0
 646              		.loc 1 333 0
 647 0004 C068     		ldr	r0, [r0, #12]
 648              	.LVL33:
 649              		.loc 1 334 0
 650 0006 DA60     		str	r2, [r3, #12]
 651              		.loc 1 337 0
 652 0008 7047     		bx	lr
 653              		.cfi_endproc
 654              	.LFE248:
 655              		.size	chEvtGetAndClearFlagsI, .-chEvtGetAndClearFlagsI
 656 000a 00BFAFF3 		.section	.text.chEvtDispatch,"ax",%progbits
 656      0080
 657              		.align	2
 658              		.p2align 4,,15
 659              		.global	chEvtDispatch
 660              		.thumb
 661              		.thumb_func
 662              		.type	chEvtDispatch, %function
 663              	chEvtDispatch:
 664              	.LFB249:
 665              		.loc 1 348 0
 666              		.cfi_startproc
 667              		@ args = 0, pretend = 0, frame = 0
 668              		@ frame_needed = 0, uses_anonymous_args = 0
 669              	.LVL34:
 670 0000 F8B5     		push	{r3, r4, r5, r6, r7, lr}
 671              		.cfi_def_cfa_offset 24
 672              		.cfi_offset 3, -24
 673              		.cfi_offset 4, -20
 674              		.cfi_offset 5, -16
 675              		.cfi_offset 6, -12
ARM GAS  /tmp/ccXgczhK.s 			page 13


 676              		.cfi_offset 7, -8
 677              		.cfi_offset 14, -4
 678              		.loc 1 354 0
 679 0002 0D46     		mov	r5, r1
 680              		.loc 1 348 0
 681 0004 0646     		mov	r6, r0
 682              		.loc 1 354 0
 683 0006 99B1     		cbz	r1, .L33
 684              		.loc 1 353 0
 685 0008 0024     		movs	r4, #0
 686              		.loc 1 357 0
 687 000a 0127     		movs	r7, #1
 688 000c 01E0     		b	.L37
 689              	.LVL35:
 690              	.L35:
 691              		.loc 1 360 0
 692 000e 0134     		adds	r4, r4, #1
 693              	.LVL36:
 694              		.loc 1 354 0
 695 0010 75B1     		cbz	r5, .L33
 696              	.LVL37:
 697              	.L37:
 698              		.loc 1 355 0
 699 0012 25FA04F3 		lsr	r3, r5, r4
 700 0016 DB07     		lsls	r3, r3, #31
 701 0018 F9D5     		bpl	.L35
 702              		.loc 1 357 0
 703 001a 07FA04F2 		lsl	r2, r7, r4
 704              		.loc 1 358 0
 705 001e 56F82430 		ldr	r3, [r6, r4, lsl #2]
 706 0022 2046     		mov	r0, r4
 707              		.loc 1 357 0
 708 0024 25EA0205 		bic	r5, r5, r2
 709              	.LVL38:
 710              		.loc 1 360 0
 711 0028 0134     		adds	r4, r4, #1
 712              	.LVL39:
 713              		.loc 1 358 0
 714 002a 9847     		blx	r3
 715              	.LVL40:
 716              		.loc 1 354 0
 717 002c 002D     		cmp	r5, #0
 718 002e F0D1     		bne	.L37
 719              	.LVL41:
 720              	.L33:
 721 0030 F8BD     		pop	{r3, r4, r5, r6, r7, pc}
 722              		.cfi_endproc
 723              	.LFE249:
 724              		.size	chEvtDispatch, .-chEvtDispatch
 725 0032 00BFAFF3 		.section	.text.chEvtWaitOne,"ax",%progbits
 725      0080AFF3 
 725      0080AFF3 
 725      0080
 726              		.align	2
 727              		.p2align 4,,15
 728              		.global	chEvtWaitOne
 729              		.thumb
ARM GAS  /tmp/ccXgczhK.s 			page 14


 730              		.thumb_func
 731              		.type	chEvtWaitOne, %function
 732              	chEvtWaitOne:
 733              	.LFB250:
 734              		.loc 1 383 0
 735              		.cfi_startproc
 736              		@ args = 0, pretend = 0, frame = 0
 737              		@ frame_needed = 0, uses_anonymous_args = 0
 738              	.LVL42:
 739 0000 38B5     		push	{r3, r4, r5, lr}
 740              		.cfi_def_cfa_offset 16
 741              		.cfi_offset 3, -16
 742              		.cfi_offset 4, -12
 743              		.cfi_offset 5, -8
 744              		.cfi_offset 14, -4
 745              		.loc 1 384 0
 746 0002 40F20003 		movw	r3, #:lower16:ch
 747 0006 C0F20003 		movt	r3, #:upper16:ch
 748              		.loc 1 383 0
 749 000a 0546     		mov	r5, r0
 750              		.loc 1 384 0
 751 000c 9C69     		ldr	r4, [r3, #24]
 752              	.LVL43:
 753              	.LBB252:
 754              	.LBB253:
 755              	.LBB254:
 756              	.LBB255:
 757              		.loc 2 264 0
 758 000e 2023     		movs	r3, #32
 759              	@ 264 "../../../../../ChibiOS-RT/os/common/ext/CMSIS/include/cmsis_gcc.h" 1
 760 0010 83F31188 		MSR basepri, r3
 761              	@ 0 "" 2
 762              		.thumb
 763              	.LBE255:
 764              	.LBE254:
 765              	.LBE253:
 766              	.LBE252:
 767              		.loc 1 388 0
 768 0014 636B     		ldr	r3, [r4, #52]
 769              	.LVL44:
 770              		.loc 1 389 0
 771 0016 10EA0302 		ands	r2, r0, r3
 772              	.LVL45:
 773 001a 06D1     		bne	.L45
 774              		.loc 1 390 0
 775 001c 6062     		str	r0, [r4, #36]
 776              		.loc 1 391 0
 777 001e 0A20     		movs	r0, #10
 778              	.LVL46:
 779 0020 FFF7FEFF 		bl	chSchGoSleepS
 780              	.LVL47:
 781              		.loc 1 392 0
 782 0024 636B     		ldr	r3, [r4, #52]
 783 0026 05EA0302 		and	r2, r5, r3
 784              	.LVL48:
 785              	.L45:
 786              		.loc 1 394 0
ARM GAS  /tmp/ccXgczhK.s 			page 15


 787 002a 5042     		negs	r0, r2
 788 002c 1040     		ands	r0, r0, r2
 789              	.LVL49:
 790              		.loc 1 395 0
 791 002e 23EA0003 		bic	r3, r3, r0
 792 0032 6363     		str	r3, [r4, #52]
 793              	.LVL50:
 794              	.LBB256:
 795              	.LBB257:
 796              	.LBB258:
 797              	.LBB259:
 798              	.LBB260:
 799              		.loc 2 264 0
 800 0034 0023     		movs	r3, #0
 801              	@ 264 "../../../../../ChibiOS-RT/os/common/ext/CMSIS/include/cmsis_gcc.h" 1
 802 0036 83F31188 		MSR basepri, r3
 803              	@ 0 "" 2
 804              		.thumb
 805              	.LBE260:
 806              	.LBE259:
 807              	.LBE258:
 808              	.LBE257:
 809              	.LBE256:
 810              		.loc 1 399 0
 811 003a 38BD     		pop	{r3, r4, r5, pc}
 812              		.cfi_endproc
 813              	.LFE250:
 814              		.size	chEvtWaitOne, .-chEvtWaitOne
 815 003c AFF30080 		.section	.text.chEvtWaitAny,"ax",%progbits
 816              		.align	2
 817              		.p2align 4,,15
 818              		.global	chEvtWaitAny
 819              		.thumb
 820              		.thumb_func
 821              		.type	chEvtWaitAny, %function
 822              	chEvtWaitAny:
 823              	.LFB251:
 824              		.loc 1 413 0
 825              		.cfi_startproc
 826              		@ args = 0, pretend = 0, frame = 0
 827              		@ frame_needed = 0, uses_anonymous_args = 0
 828              	.LVL51:
 829 0000 38B5     		push	{r3, r4, r5, lr}
 830              		.cfi_def_cfa_offset 16
 831              		.cfi_offset 3, -16
 832              		.cfi_offset 4, -12
 833              		.cfi_offset 5, -8
 834              		.cfi_offset 14, -4
 835              		.loc 1 414 0
 836 0002 40F20003 		movw	r3, #:lower16:ch
 837 0006 C0F20003 		movt	r3, #:upper16:ch
 838              		.loc 1 413 0
 839 000a 0546     		mov	r5, r0
 840              		.loc 1 414 0
 841 000c 9C69     		ldr	r4, [r3, #24]
 842              	.LVL52:
 843              	.LBB261:
ARM GAS  /tmp/ccXgczhK.s 			page 16


 844              	.LBB262:
 845              	.LBB263:
 846              	.LBB264:
 847              		.loc 2 264 0
 848 000e 2023     		movs	r3, #32
 849              	@ 264 "../../../../../ChibiOS-RT/os/common/ext/CMSIS/include/cmsis_gcc.h" 1
 850 0010 83F31188 		MSR basepri, r3
 851              	@ 0 "" 2
 852              		.thumb
 853              	.LBE264:
 854              	.LBE263:
 855              	.LBE262:
 856              	.LBE261:
 857              		.loc 1 418 0
 858 0014 636B     		ldr	r3, [r4, #52]
 859              	.LVL53:
 860              		.loc 1 419 0
 861 0016 1840     		ands	r0, r0, r3
 862              	.LVL54:
 863 0018 06D1     		bne	.L48
 864              		.loc 1 421 0
 865 001a 0A20     		movs	r0, #10
 866              	.LVL55:
 867              		.loc 1 420 0
 868 001c 6562     		str	r5, [r4, #36]
 869              		.loc 1 421 0
 870 001e FFF7FEFF 		bl	chSchGoSleepS
 871              	.LVL56:
 872              		.loc 1 422 0
 873 0022 636B     		ldr	r3, [r4, #52]
 874 0024 05EA0300 		and	r0, r5, r3
 875              	.LVL57:
 876              	.L48:
 877              		.loc 1 424 0
 878 0028 23EA0003 		bic	r3, r3, r0
 879 002c 6363     		str	r3, [r4, #52]
 880              	.LVL58:
 881              	.LBB265:
 882              	.LBB266:
 883              	.LBB267:
 884              	.LBB268:
 885              	.LBB269:
 886              		.loc 2 264 0
 887 002e 0023     		movs	r3, #0
 888              	@ 264 "../../../../../ChibiOS-RT/os/common/ext/CMSIS/include/cmsis_gcc.h" 1
 889 0030 83F31188 		MSR basepri, r3
 890              	@ 0 "" 2
 891              		.thumb
 892              	.LBE269:
 893              	.LBE268:
 894              	.LBE267:
 895              	.LBE266:
 896              	.LBE265:
 897              		.loc 1 428 0
 898 0034 38BD     		pop	{r3, r4, r5, pc}
 899              		.cfi_endproc
 900              	.LFE251:
ARM GAS  /tmp/ccXgczhK.s 			page 17


 901              		.size	chEvtWaitAny, .-chEvtWaitAny
 902 0036 00BFAFF3 		.section	.text.chEvtWaitAll,"ax",%progbits
 902      0080AFF3 
 902      0080
 903              		.align	2
 904              		.p2align 4,,15
 905              		.global	chEvtWaitAll
 906              		.thumb
 907              		.thumb_func
 908              		.type	chEvtWaitAll, %function
 909              	chEvtWaitAll:
 910              	.LFB252:
 911              		.loc 1 441 0
 912              		.cfi_startproc
 913              		@ args = 0, pretend = 0, frame = 0
 914              		@ frame_needed = 0, uses_anonymous_args = 0
 915              	.LVL59:
 916 0000 38B5     		push	{r3, r4, r5, lr}
 917              		.cfi_def_cfa_offset 16
 918              		.cfi_offset 3, -16
 919              		.cfi_offset 4, -12
 920              		.cfi_offset 5, -8
 921              		.cfi_offset 14, -4
 922              		.loc 1 442 0
 923 0002 40F20003 		movw	r3, #:lower16:ch
 924 0006 C0F20003 		movt	r3, #:upper16:ch
 925              		.loc 1 441 0
 926 000a 0446     		mov	r4, r0
 927              		.loc 1 442 0
 928 000c 9D69     		ldr	r5, [r3, #24]
 929              	.LVL60:
 930              	.LBB270:
 931              	.LBB271:
 932              	.LBB272:
 933              	.LBB273:
 934              		.loc 2 264 0
 935 000e 2023     		movs	r3, #32
 936              	@ 264 "../../../../../ChibiOS-RT/os/common/ext/CMSIS/include/cmsis_gcc.h" 1
 937 0010 83F31188 		MSR basepri, r3
 938              	@ 0 "" 2
 939              		.thumb
 940              	.LBE273:
 941              	.LBE272:
 942              	.LBE271:
 943              	.LBE270:
 944              		.loc 1 445 0
 945 0014 6B6B     		ldr	r3, [r5, #52]
 946 0016 00EA0302 		and	r2, r0, r3
 947 001a 8242     		cmp	r2, r0
 948 001c 04D0     		beq	.L51
 949              		.loc 1 446 0
 950 001e 6862     		str	r0, [r5, #36]
 951              		.loc 1 447 0
 952 0020 0B20     		movs	r0, #11
 953              	.LVL61:
 954 0022 FFF7FEFF 		bl	chSchGoSleepS
 955              	.LVL62:
ARM GAS  /tmp/ccXgczhK.s 			page 18


 956 0026 6B6B     		ldr	r3, [r5, #52]
 957              	.L51:
 958              		.loc 1 449 0
 959 0028 23EA0403 		bic	r3, r3, r4
 960 002c 6B63     		str	r3, [r5, #52]
 961              	.LVL63:
 962              	.LBB274:
 963              	.LBB275:
 964              	.LBB276:
 965              	.LBB277:
 966              	.LBB278:
 967              		.loc 2 264 0
 968 002e 0023     		movs	r3, #0
 969              	@ 264 "../../../../../ChibiOS-RT/os/common/ext/CMSIS/include/cmsis_gcc.h" 1
 970 0030 83F31188 		MSR basepri, r3
 971              	@ 0 "" 2
 972              		.thumb
 973              	.LBE278:
 974              	.LBE277:
 975              	.LBE276:
 976              	.LBE275:
 977              	.LBE274:
 978              		.loc 1 453 0
 979 0034 2046     		mov	r0, r4
 980 0036 38BD     		pop	{r3, r4, r5, pc}
 981              		.cfi_endproc
 982              	.LFE252:
 983              		.size	chEvtWaitAll, .-chEvtWaitAll
 984 0038 AFF30080 		.section	.text.chEvtWaitOneTimeout,"ax",%progbits
 984      AFF30080 
 985              		.align	2
 986              		.p2align 4,,15
 987              		.global	chEvtWaitOneTimeout
 988              		.thumb
 989              		.thumb_func
 990              		.type	chEvtWaitOneTimeout, %function
 991              	chEvtWaitOneTimeout:
 992              	.LFB253:
 993              		.loc 1 479 0
 994              		.cfi_startproc
 995              		@ args = 0, pretend = 0, frame = 0
 996              		@ frame_needed = 0, uses_anonymous_args = 0
 997              	.LVL64:
 998              		.loc 1 480 0
 999 0000 40F20003 		movw	r3, #:lower16:ch
 1000 0004 C0F20003 		movt	r3, #:upper16:ch
 1001              		.loc 1 479 0
 1002 0008 70B5     		push	{r4, r5, r6, lr}
 1003              		.cfi_def_cfa_offset 16
 1004              		.cfi_offset 4, -16
 1005              		.cfi_offset 5, -12
 1006              		.cfi_offset 6, -8
 1007              		.cfi_offset 14, -4
 1008              		.loc 1 480 0
 1009 000a 9D69     		ldr	r5, [r3, #24]
 1010              	.LVL65:
 1011              		.loc 1 479 0
ARM GAS  /tmp/ccXgczhK.s 			page 19


 1012 000c 0446     		mov	r4, r0
 1013              	.LBB279:
 1014              	.LBB280:
 1015              	.LBB281:
 1016              	.LBB282:
 1017              		.loc 2 264 0
 1018 000e 2023     		movs	r3, #32
 1019              	@ 264 "../../../../../ChibiOS-RT/os/common/ext/CMSIS/include/cmsis_gcc.h" 1
 1020 0010 83F31188 		MSR basepri, r3
 1021              	@ 0 "" 2
 1022              		.thumb
 1023              	.LBE282:
 1024              	.LBE281:
 1025              	.LBE280:
 1026              	.LBE279:
 1027              		.loc 1 484 0
 1028 0014 6B6B     		ldr	r3, [r5, #52]
 1029              	.LVL66:
 1030              		.loc 1 485 0
 1031 0016 10EA0306 		ands	r6, r0, r3
 1032              	.LVL67:
 1033 001a 0DD1     		bne	.L54
 1034              		.loc 1 486 0
 1035 001c 19B9     		cbnz	r1, .L55
 1036              	.LVL68:
 1037              	.LBB283:
 1038              	.LBB284:
 1039              	.LBB285:
 1040              	.LBB286:
 1041              	.LBB287:
 1042              		.loc 2 264 0
 1043              	@ 264 "../../../../../ChibiOS-RT/os/common/ext/CMSIS/include/cmsis_gcc.h" 1
 1044 001e 81F31188 		MSR basepri, r1
 1045              	@ 0 "" 2
 1046              		.thumb
 1047              	.LBE287:
 1048              	.LBE286:
 1049              	.LBE285:
 1050              	.LBE284:
 1051              	.LBE283:
 1052              		.loc 1 488 0
 1053 0022 0020     		movs	r0, #0
 1054              	.LVL69:
 1055 0024 70BD     		pop	{r4, r5, r6, pc}
 1056              	.LVL70:
 1057              	.L55:
 1058              		.loc 1 490 0
 1059 0026 6862     		str	r0, [r5, #36]
 1060              		.loc 1 491 0
 1061 0028 0A20     		movs	r0, #10
 1062              	.LVL71:
 1063 002a FFF7FEFF 		bl	chSchGoSleepTimeoutS
 1064              	.LVL72:
 1065 002e 0028     		cmp	r0, #0
 1066 0030 0BDB     		blt	.L59
 1067              		.loc 1 495 0
 1068 0032 6B6B     		ldr	r3, [r5, #52]
ARM GAS  /tmp/ccXgczhK.s 			page 20


 1069 0034 04EA0306 		and	r6, r4, r3
 1070              	.LVL73:
 1071              	.L54:
 1072              		.loc 1 497 0
 1073 0038 7042     		negs	r0, r6
 1074 003a 3040     		ands	r0, r0, r6
 1075              	.LVL74:
 1076              		.loc 1 498 0
 1077 003c 23EA0003 		bic	r3, r3, r0
 1078 0040 6B63     		str	r3, [r5, #52]
 1079              	.LVL75:
 1080              	.LBB288:
 1081              	.LBB289:
 1082              	.LBB290:
 1083              	.LBB291:
 1084              	.LBB292:
 1085              		.loc 2 264 0
 1086 0042 0023     		movs	r3, #0
 1087              	@ 264 "../../../../../ChibiOS-RT/os/common/ext/CMSIS/include/cmsis_gcc.h" 1
 1088 0044 83F31188 		MSR basepri, r3
 1089              	@ 0 "" 2
 1090              		.thumb
 1091              	.LBE292:
 1092              	.LBE291:
 1093              	.LBE290:
 1094              	.LBE289:
 1095              	.LBE288:
 1096              		.loc 1 502 0
 1097 0048 70BD     		pop	{r4, r5, r6, pc}
 1098              	.LVL76:
 1099              	.L59:
 1100              	.LBB293:
 1101              	.LBB294:
 1102              	.LBB295:
 1103              	.LBB296:
 1104              	.LBB297:
 1105              		.loc 2 264 0
 1106              	@ 264 "../../../../../ChibiOS-RT/os/common/ext/CMSIS/include/cmsis_gcc.h" 1
 1107 004a 86F31188 		MSR basepri, r6
 1108              	@ 0 "" 2
 1109              		.thumb
 1110              	.LBE297:
 1111              	.LBE296:
 1112              	.LBE295:
 1113              	.LBE294:
 1114              	.LBE293:
 1115              		.loc 1 493 0
 1116 004e 0020     		movs	r0, #0
 1117 0050 70BD     		pop	{r4, r5, r6, pc}
 1118              		.cfi_endproc
 1119              	.LFE253:
 1120              		.size	chEvtWaitOneTimeout, .-chEvtWaitOneTimeout
 1121 0052 00BFAFF3 		.section	.text.chEvtWaitAnyTimeout,"ax",%progbits
 1121      0080AFF3 
 1121      0080AFF3 
 1121      0080
 1122              		.align	2
ARM GAS  /tmp/ccXgczhK.s 			page 21


 1123              		.p2align 4,,15
 1124              		.global	chEvtWaitAnyTimeout
 1125              		.thumb
 1126              		.thumb_func
 1127              		.type	chEvtWaitAnyTimeout, %function
 1128              	chEvtWaitAnyTimeout:
 1129              	.LFB254:
 1130              		.loc 1 522 0
 1131              		.cfi_startproc
 1132              		@ args = 0, pretend = 0, frame = 0
 1133              		@ frame_needed = 0, uses_anonymous_args = 0
 1134              	.LVL77:
 1135              		.loc 1 523 0
 1136 0000 40F20003 		movw	r3, #:lower16:ch
 1137 0004 C0F20003 		movt	r3, #:upper16:ch
 1138              		.loc 1 522 0
 1139 0008 70B5     		push	{r4, r5, r6, lr}
 1140              		.cfi_def_cfa_offset 16
 1141              		.cfi_offset 4, -16
 1142              		.cfi_offset 5, -12
 1143              		.cfi_offset 6, -8
 1144              		.cfi_offset 14, -4
 1145              		.loc 1 523 0
 1146 000a 9D69     		ldr	r5, [r3, #24]
 1147              	.LVL78:
 1148              		.loc 1 522 0
 1149 000c 0446     		mov	r4, r0
 1150              	.LBB298:
 1151              	.LBB299:
 1152              	.LBB300:
 1153              	.LBB301:
 1154              		.loc 2 264 0
 1155 000e 2023     		movs	r3, #32
 1156              	@ 264 "../../../../../ChibiOS-RT/os/common/ext/CMSIS/include/cmsis_gcc.h" 1
 1157 0010 83F31188 		MSR basepri, r3
 1158              	@ 0 "" 2
 1159              		.thumb
 1160              	.LBE301:
 1161              	.LBE300:
 1162              	.LBE299:
 1163              	.LBE298:
 1164              		.loc 1 527 0
 1165 0014 6B6B     		ldr	r3, [r5, #52]
 1166              	.LVL79:
 1167              		.loc 1 528 0
 1168 0016 10EA0306 		ands	r6, r0, r3
 1169              	.LVL80:
 1170 001a 0DD1     		bne	.L61
 1171              		.loc 1 529 0
 1172 001c 19B9     		cbnz	r1, .L62
 1173              	.LVL81:
 1174              	.LBB302:
 1175              	.LBB303:
 1176              	.LBB304:
 1177              	.LBB305:
 1178              	.LBB306:
 1179              		.loc 2 264 0
ARM GAS  /tmp/ccXgczhK.s 			page 22


 1180              	@ 264 "../../../../../ChibiOS-RT/os/common/ext/CMSIS/include/cmsis_gcc.h" 1
 1181 001e 81F31188 		MSR basepri, r1
 1182              	@ 0 "" 2
 1183              		.thumb
 1184              	.LBE306:
 1185              	.LBE305:
 1186              	.LBE304:
 1187              	.LBE303:
 1188              	.LBE302:
 1189              		.loc 1 531 0
 1190 0022 0020     		movs	r0, #0
 1191              	.LVL82:
 1192 0024 70BD     		pop	{r4, r5, r6, pc}
 1193              	.LVL83:
 1194              	.L62:
 1195              		.loc 1 533 0
 1196 0026 6862     		str	r0, [r5, #36]
 1197              		.loc 1 534 0
 1198 0028 0A20     		movs	r0, #10
 1199              	.LVL84:
 1200 002a FFF7FEFF 		bl	chSchGoSleepTimeoutS
 1201              	.LVL85:
 1202 002e 0028     		cmp	r0, #0
 1203 0030 0ADB     		blt	.L66
 1204              		.loc 1 538 0
 1205 0032 6B6B     		ldr	r3, [r5, #52]
 1206 0034 04EA0306 		and	r6, r4, r3
 1207              	.LVL86:
 1208              	.L61:
 1209              		.loc 1 540 0
 1210 0038 23EA0603 		bic	r3, r3, r6
 1211 003c 6B63     		str	r3, [r5, #52]
 1212              	.LVL87:
 1213              	.LBB307:
 1214              	.LBB308:
 1215              	.LBB309:
 1216              	.LBB310:
 1217              	.LBB311:
 1218              		.loc 2 264 0
 1219 003e 0023     		movs	r3, #0
 1220              	@ 264 "../../../../../ChibiOS-RT/os/common/ext/CMSIS/include/cmsis_gcc.h" 1
 1221 0040 83F31188 		MSR basepri, r3
 1222              	@ 0 "" 2
 1223              		.thumb
 1224              	.LBE311:
 1225              	.LBE310:
 1226              	.LBE309:
 1227              	.LBE308:
 1228              	.LBE307:
 1229              		.loc 1 543 0
 1230 0044 3046     		mov	r0, r6
 1231              		.loc 1 544 0
 1232 0046 70BD     		pop	{r4, r5, r6, pc}
 1233              	.LVL88:
 1234              	.L66:
 1235              	.LBB312:
 1236              	.LBB313:
ARM GAS  /tmp/ccXgczhK.s 			page 23


 1237              	.LBB314:
 1238              	.LBB315:
 1239              	.LBB316:
 1240              		.loc 2 264 0
 1241              	@ 264 "../../../../../ChibiOS-RT/os/common/ext/CMSIS/include/cmsis_gcc.h" 1
 1242 0048 86F31188 		MSR basepri, r6
 1243              	@ 0 "" 2
 1244              		.thumb
 1245              	.LBE316:
 1246              	.LBE315:
 1247              	.LBE314:
 1248              	.LBE313:
 1249              	.LBE312:
 1250              		.loc 1 536 0
 1251 004c 0020     		movs	r0, #0
 1252 004e 70BD     		pop	{r4, r5, r6, pc}
 1253              		.cfi_endproc
 1254              	.LFE254:
 1255              		.size	chEvtWaitAnyTimeout, .-chEvtWaitAnyTimeout
 1256              		.section	.text.chEvtWaitAllTimeout,"ax",%progbits
 1257              		.align	2
 1258              		.p2align 4,,15
 1259              		.global	chEvtWaitAllTimeout
 1260              		.thumb
 1261              		.thumb_func
 1262              		.type	chEvtWaitAllTimeout, %function
 1263              	chEvtWaitAllTimeout:
 1264              	.LFB255:
 1265              		.loc 1 563 0
 1266              		.cfi_startproc
 1267              		@ args = 0, pretend = 0, frame = 0
 1268              		@ frame_needed = 0, uses_anonymous_args = 0
 1269              	.LVL89:
 1270 0000 38B5     		push	{r3, r4, r5, lr}
 1271              		.cfi_def_cfa_offset 16
 1272              		.cfi_offset 3, -16
 1273              		.cfi_offset 4, -12
 1274              		.cfi_offset 5, -8
 1275              		.cfi_offset 14, -4
 1276              		.loc 1 564 0
 1277 0002 40F20003 		movw	r3, #:lower16:ch
 1278 0006 C0F20003 		movt	r3, #:upper16:ch
 1279              		.loc 1 563 0
 1280 000a 0446     		mov	r4, r0
 1281              		.loc 1 564 0
 1282 000c 9D69     		ldr	r5, [r3, #24]
 1283              	.LVL90:
 1284              	.LBB317:
 1285              	.LBB318:
 1286              	.LBB319:
 1287              	.LBB320:
 1288              		.loc 2 264 0
 1289 000e 2023     		movs	r3, #32
 1290              	@ 264 "../../../../../ChibiOS-RT/os/common/ext/CMSIS/include/cmsis_gcc.h" 1
 1291 0010 83F31188 		MSR basepri, r3
 1292              	@ 0 "" 2
 1293              		.thumb
ARM GAS  /tmp/ccXgczhK.s 			page 24


 1294              	.LBE320:
 1295              	.LBE319:
 1296              	.LBE318:
 1297              	.LBE317:
 1298              		.loc 1 567 0
 1299 0014 6B6B     		ldr	r3, [r5, #52]
 1300 0016 00EA0302 		and	r2, r0, r3
 1301 001a 8242     		cmp	r2, r0
 1302 001c 0BD0     		beq	.L68
 1303              		.loc 1 568 0
 1304 001e 19B9     		cbnz	r1, .L69
 1305              	.LVL91:
 1306              	.LBB321:
 1307              	.LBB322:
 1308              	.LBB323:
 1309              	.LBB324:
 1310              	.LBB325:
 1311              		.loc 2 264 0
 1312              	@ 264 "../../../../../ChibiOS-RT/os/common/ext/CMSIS/include/cmsis_gcc.h" 1
 1313 0020 81F31188 		MSR basepri, r1
 1314              	@ 0 "" 2
 1315              		.thumb
 1316              	.LBE325:
 1317              	.LBE324:
 1318              	.LBE323:
 1319              	.LBE322:
 1320              	.LBE321:
 1321              		.loc 1 570 0
 1322 0024 0020     		movs	r0, #0
 1323              	.LVL92:
 1324 0026 38BD     		pop	{r3, r4, r5, pc}
 1325              	.LVL93:
 1326              	.L69:
 1327              		.loc 1 572 0
 1328 0028 6862     		str	r0, [r5, #36]
 1329              		.loc 1 573 0
 1330 002a 0B20     		movs	r0, #11
 1331              	.LVL94:
 1332 002c FFF7FEFF 		bl	chSchGoSleepTimeoutS
 1333              	.LVL95:
 1334 0030 0028     		cmp	r0, #0
 1335 0032 08DB     		blt	.L71
 1336 0034 6B6B     		ldr	r3, [r5, #52]
 1337              	.L68:
 1338              		.loc 1 578 0
 1339 0036 23EA0403 		bic	r3, r3, r4
 1340 003a 6B63     		str	r3, [r5, #52]
 1341              	.LVL96:
 1342              	.LBB326:
 1343              	.LBB327:
 1344              	.LBB328:
 1345              	.LBB329:
 1346              	.LBB330:
 1347              		.loc 2 264 0
 1348 003c 0023     		movs	r3, #0
 1349              	@ 264 "../../../../../ChibiOS-RT/os/common/ext/CMSIS/include/cmsis_gcc.h" 1
 1350 003e 83F31188 		MSR basepri, r3
ARM GAS  /tmp/ccXgczhK.s 			page 25


 1351              	@ 0 "" 2
 1352              		.thumb
 1353              	.LBE330:
 1354              	.LBE329:
 1355              	.LBE328:
 1356              	.LBE327:
 1357              	.LBE326:
 1358              		.loc 1 581 0
 1359 0042 2046     		mov	r0, r4
 1360              		.loc 1 582 0
 1361 0044 38BD     		pop	{r3, r4, r5, pc}
 1362              	.LVL97:
 1363              	.L71:
 1364              	.LBB331:
 1365              	.LBB332:
 1366              	.LBB333:
 1367              	.LBB334:
 1368              	.LBB335:
 1369              		.loc 2 264 0
 1370 0046 0023     		movs	r3, #0
 1371              	@ 264 "../../../../../ChibiOS-RT/os/common/ext/CMSIS/include/cmsis_gcc.h" 1
 1372 0048 83F31188 		MSR basepri, r3
 1373              	@ 0 "" 2
 1374              		.thumb
 1375              	.LBE335:
 1376              	.LBE334:
 1377              	.LBE333:
 1378              	.LBE332:
 1379              	.LBE331:
 1380              		.loc 1 575 0
 1381 004c 0020     		movs	r0, #0
 1382 004e 38BD     		pop	{r3, r4, r5, pc}
 1383              		.cfi_endproc
 1384              	.LFE255:
 1385              		.size	chEvtWaitAllTimeout, .-chEvtWaitAllTimeout
 1386              		.text
 1387              	.Letext0:
 1388              		.file 3 "/usr/include/newlib/machine/_default_types.h"
 1389              		.file 4 "/usr/include/newlib/stdint.h"
 1390              		.file 5 "../../../../../ChibiOS-RT/os/common/ports/ARMCMx/compilers/GCC/chtypes.h"
 1391              		.file 6 "../../../../../ChibiOS-RT/os/rt/include/chsystypes.h"
 1392              		.file 7 "../../../../../ChibiOS-RT/os/rt/include/chschd.h"
 1393              		.file 8 "../../../../../ChibiOS-RT/os/common/ports/ARMCMx/chcore.h"
 1394              		.file 9 "../../../../../ChibiOS-RT/os/common/ports/ARMCMx/chcore_v7m.h"
 1395              		.file 10 "../../../../../ChibiOS-RT/os/rt/include/chtrace.h"
 1396              		.file 11 "../../../../../ChibiOS-RT/os/rt/include/chtm.h"
 1397              		.file 12 "../../../../../ChibiOS-RT/os/rt/include/chsem.h"
 1398              		.file 13 "../../../../../ChibiOS-RT/os/rt/include/chmtx.h"
 1399              		.file 14 "../../../../../ChibiOS-RT/os/rt/include/chevents.h"
 1400              		.file 15 "../../../../../ChibiOS-RT/os/rt/include/chsys.h"
 1401              		.file 16 "../../../../../ChibiOS-RT/os/common/ext/CMSIS/include/core_cm4.h"