ARM GAS  /tmp/ccSCxM1i.s 			page 1


   1              		.syntax unified
   2              		.cpu cortex-m4
   3              		.fpu softvfp
   4              		.eabi_attribute 20, 1
   5              		.eabi_attribute 21, 1
   6              		.eabi_attribute 23, 3
   7              		.eabi_attribute 24, 1
   8              		.eabi_attribute 25, 1
   9              		.eabi_attribute 26, 1
  10              		.eabi_attribute 30, 2
  11              		.eabi_attribute 34, 1
  12              		.eabi_attribute 18, 4
  13              		.thumb
  14              		.file	"chheap.c"
  15              		.text
  16              	.Ltext0:
  17              		.cfi_sections	.debug_frame
  18              		.section	.text._heap_init,"ax",%progbits
  19              		.align	2
  20              		.p2align 4,,15
  21              		.global	_heap_init
  22              		.thumb
  23              		.thumb_func
  24              		.type	_heap_init, %function
  25              	_heap_init:
  26              	.LFB239:
  27              		.file 1 "../../../../../ChibiOS-RT/os/common/oslib/src/chheap.c"
  28              		.loc 1 107 0
  29              		.cfi_startproc
  30              		@ args = 0, pretend = 0, frame = 0
  31              		@ frame_needed = 0, uses_anonymous_args = 0
  32              		@ link register save eliminated.
  33              		.loc 1 109 0
  34 0000 40F20003 		movw	r3, #:lower16:.LANCHOR0
  35 0004 C0F20003 		movt	r3, #:upper16:.LANCHOR0
  36 0008 40F20002 		movw	r2, #:lower16:chCoreAllocAligned
  37              		.loc 1 110 0
  38 000c 0021     		movs	r1, #0
  39              		.loc 1 109 0
  40 000e C0F20002 		movt	r2, #:upper16:chCoreAllocAligned
  41              		.loc 1 113 0
  42 0012 03F11000 		add	r0, r3, #16
  43              		.loc 1 109 0
  44 0016 1A60     		str	r2, [r3]
  45              		.loc 1 110 0
  46 0018 9960     		str	r1, [r3, #8]
  47              		.loc 1 111 0
  48 001a D960     		str	r1, [r3, #12]
  49              		.loc 1 113 0
  50 001c FFF7FEBF 		b	chMtxObjectInit
  51              	.LVL0:
  52              		.cfi_endproc
  53              	.LFE239:
  54              		.size	_heap_init, .-_heap_init
  55              		.section	.text.chHeapObjectInit,"ax",%progbits
  56              		.align	2
  57              		.p2align 4,,15
ARM GAS  /tmp/ccSCxM1i.s 			page 2


  58              		.global	chHeapObjectInit
  59              		.thumb
  60              		.thumb_func
  61              		.type	chHeapObjectInit, %function
  62              	chHeapObjectInit:
  63              	.LFB240:
  64              		.loc 1 130 0
  65              		.cfi_startproc
  66              		@ args = 0, pretend = 0, frame = 0
  67              		@ frame_needed = 0, uses_anonymous_args = 0
  68              		@ link register save eliminated.
  69              	.LVL1:
  70              		.loc 1 141 0
  71 0000 083A     		subs	r2, r2, #8
  72              	.LVL2:
  73              		.loc 1 137 0
  74 0002 0023     		movs	r3, #0
  75              		.loc 1 141 0
  76 0004 D208     		lsrs	r2, r2, #3
  77              	.LVL3:
  78              		.loc 1 138 0
  79 0006 8160     		str	r1, [r0, #8]
  80              		.loc 1 137 0
  81 0008 0360     		str	r3, [r0]
  82              		.loc 1 139 0
  83 000a C360     		str	r3, [r0, #12]
  84              		.loc 1 143 0
  85 000c 1030     		adds	r0, r0, #16
  86              	.LVL4:
  87              		.loc 1 141 0
  88 000e 4A60     		str	r2, [r1, #4]
  89              		.loc 1 140 0
  90 0010 0B60     		str	r3, [r1]
  91              		.loc 1 143 0
  92 0012 FFF7FEBF 		b	chMtxObjectInit
  93              	.LVL5:
  94              		.cfi_endproc
  95              	.LFE240:
  96              		.size	chHeapObjectInit, .-chHeapObjectInit
  97 0016 00BFAFF3 		.section	.text.chHeapAllocAligned,"ax",%progbits
  97      0080AFF3 
  97      0080
  98              		.align	2
  99              		.p2align 4,,15
 100              		.global	chHeapAllocAligned
 101              		.thumb
 102              		.thumb_func
 103              		.type	chHeapAllocAligned, %function
 104              	chHeapAllocAligned:
 105              	.LFB241:
 106              		.loc 1 166 0
 107              		.cfi_startproc
 108              		@ args = 0, pretend = 0, frame = 8
 109              		@ frame_needed = 0, uses_anonymous_args = 0
 110              	.LVL6:
 111 0000 2DE9F04F 		push	{r4, r5, r6, r7, r8, r9, r10, fp, lr}
 112              		.cfi_def_cfa_offset 36
ARM GAS  /tmp/ccSCxM1i.s 			page 3


 113              		.cfi_offset 4, -36
 114              		.cfi_offset 5, -32
 115              		.cfi_offset 6, -28
 116              		.cfi_offset 7, -24
 117              		.cfi_offset 8, -20
 118              		.cfi_offset 9, -16
 119              		.cfi_offset 10, -12
 120              		.cfi_offset 11, -8
 121              		.cfi_offset 14, -4
 122              		.loc 1 174 0
 123 0004 40F20009 		movw	r9, #:lower16:.LANCHOR0
 124 0008 C0F20009 		movt	r9, #:upper16:.LANCHOR0
 125              		.loc 1 166 0
 126 000c 83B0     		sub	sp, sp, #12
 127              		.cfi_def_cfa_offset 48
 128              		.loc 1 174 0
 129 000e 0028     		cmp	r0, #0
 130 0010 18BF     		it	ne
 131 0012 8146     		movne	r9, r0
 132              	.LVL7:
 133              		.loc 1 186 0
 134 0014 09F11003 		add	r3, r9, #16
 135              		.loc 1 166 0
 136 0018 0191     		str	r1, [sp, #4]
 137              		.loc 1 179 0
 138 001a 072A     		cmp	r2, #7
 139 001c 8CBF     		ite	hi
 140 001e 9046     		movhi	r8, r2
 141 0020 4FF00808 		movls	r8, #8
 142              	.LVL8:
 143              		.loc 1 183 0
 144 0024 0731     		adds	r1, r1, #7
 145              	.LVL9:
 146              		.loc 1 186 0
 147 0026 1846     		mov	r0, r3
 148 0028 0093     		str	r3, [sp]
 149              		.loc 1 183 0
 150 002a 4FEAD10B 		lsr	fp, r1, #3
 151              	.LVL10:
 152              		.loc 1 189 0
 153 002e 09F10807 		add	r7, r9, #8
 154              		.loc 1 186 0
 155 0032 FFF7FEFF 		bl	chMtxLock
 156              	.LVL11:
 157              	.LBB2:
 158              		.loc 1 197 0
 159 0036 C8F1000C 		rsb	ip, r8, #0
 160              	.LBE2:
 161              		.loc 1 190 0
 162 003a 0DE0     		b	.L6
 163              	.LVL12:
 164              	.L13:
 165              	.LBB7:
 166              		.loc 1 199 0
 167 003c 5A68     		ldr	r2, [r3, #4]
 168 003e 511C     		adds	r1, r2, #1
 169 0040 C900     		lsls	r1, r1, #3
ARM GAS  /tmp/ccSCxM1i.s 			page 4


 170 0042 A1F10800 		sub	r0, r1, #8
 171 0046 1944     		add	r1, r1, r3
 172 0048 0544     		add	r5, r5, r0
 173 004a 8C42     		cmp	r4, r1
 174 004c 4FEAE505 		asr	r5, r5, #3
 175 0050 01D2     		bcs	.L7
 176              		.loc 1 199 0 is_stmt 0 discriminator 1
 177 0052 AB45     		cmp	fp, r5
 178 0054 22D9     		bls	.L22
 179              	.L7:
 180 0056 1F46     		mov	r7, r3
 181              	.LVL13:
 182              	.L6:
 183              	.LBE7:
 184              		.loc 1 190 0 is_stmt 1 discriminator 1
 185 0058 3B68     		ldr	r3, [r7]
 186              	.LVL14:
 187              	.LBB8:
 188              		.loc 1 197 0 discriminator 1
 189 005a DE1D     		adds	r6, r3, #7
 190 005c 4644     		add	r6, r6, r8
 191 005e 0CEA0606 		and	r6, ip, r6
 192 0062 A6F10804 		sub	r4, r6, #8
 193              	.LVL15:
 194              		.loc 1 199 0 discriminator 1
 195 0066 1D1B     		subs	r5, r3, r4
 196              		.loc 1 197 0 discriminator 1
 197 0068 03F1080A 		add	r10, r3, #8
 198              	.LBE8:
 199              		.loc 1 190 0 discriminator 1
 200 006c 002B     		cmp	r3, #0
 201 006e E5D1     		bne	.L13
 202              		.loc 1 259 0
 203 0070 0098     		ldr	r0, [sp]
 204 0072 FFF7FEFF 		bl	chMtxUnlock
 205              	.LVL16:
 206              		.loc 1 263 0
 207 0076 D9F80030 		ldr	r3, [r9]
 208 007a 002B     		cmp	r3, #0
 209 007c 48D0     		beq	.L15
 210              		.loc 1 264 0
 211 007e 0BF10100 		add	r0, fp, #1
 212 0082 C000     		lsls	r0, r0, #3
 213 0084 4146     		mov	r1, r8
 214 0086 9847     		blx	r3
 215              	.LVL17:
 216              		.loc 1 265 0
 217 0088 0028     		cmp	r0, #0
 218 008a 41D0     		beq	.L15
 219              		.loc 1 267 0
 220 008c 019B     		ldr	r3, [sp, #4]
 221              		.loc 1 266 0
 222 008e C0F80090 		str	r9, [r0]
 223              		.loc 1 267 0
 224 0092 4360     		str	r3, [r0, #4]
 225              		.loc 1 270 0
 226 0094 0830     		adds	r0, r0, #8
ARM GAS  /tmp/ccSCxM1i.s 			page 5


 227              	.LVL18:
 228              	.L12:
 229              		.loc 1 276 0
 230 0096 03B0     		add	sp, sp, #12
 231              		@ sp needed
 232 0098 BDE8F08F 		pop	{r4, r5, r6, r7, r8, r9, r10, fp, pc}
 233              	.LVL19:
 234              	.L22:
 235              	.LBB9:
 236              		.loc 1 203 0
 237 009c 9C42     		cmp	r4, r3
 238 009e AE46     		mov	lr, r5
 239 00a0 19D8     		bhi	.L23
 240              		.loc 1 227 0
 241 00a2 9345     		cmp	fp, r2
 242 00a4 30D0     		beq	.L24
 243              	.LBB3:
 244              		.loc 1 235 0
 245 00a6 0BF10101 		add	r1, fp, #1
 246              	.LVL20:
 247              		.loc 1 236 0
 248 00aa 1A68     		ldr	r2, [r3]
 249              		.loc 1 237 0
 250 00ac 03EBC105 		add	r5, r3, r1, lsl #3
 251              	.LVL21:
 252 00b0 A0EBC100 		sub	r0, r0, r1, lsl #3
 253 00b4 C010     		asrs	r0, r0, #3
 254              		.loc 1 236 0
 255 00b6 43F83120 		str	r2, [r3, r1, lsl #3]
 256              		.loc 1 238 0
 257 00ba 1C46     		mov	r4, r3
 258              	.LVL22:
 259              		.loc 1 237 0
 260 00bc 6860     		str	r0, [r5, #4]
 261              		.loc 1 238 0
 262 00be 3D60     		str	r5, [r7]
 263              	.LVL23:
 264              	.L10:
 265              	.LBE3:
 266              		.loc 1 243 0
 267 00c0 019B     		ldr	r3, [sp, #4]
 268              		.loc 1 247 0
 269 00c2 0098     		ldr	r0, [sp]
 270              		.loc 1 243 0
 271 00c4 6360     		str	r3, [r4, #4]
 272              		.loc 1 244 0
 273 00c6 C4F80090 		str	r9, [r4]
 274              		.loc 1 247 0
 275 00ca FFF7FEFF 		bl	chMtxUnlock
 276              	.LVL24:
 277              		.loc 1 250 0
 278 00ce 5046     		mov	r0, r10
 279              	.LBE9:
 280              		.loc 1 276 0
 281 00d0 03B0     		add	sp, sp, #12
 282              		@ sp needed
 283 00d2 BDE8F08F 		pop	{r4, r5, r6, r7, r8, r9, r10, fp, pc}
ARM GAS  /tmp/ccSCxM1i.s 			page 6


 284              	.LVL25:
 285              	.L23:
 286              	.LBB10:
 287              	.LBB4:
 288              		.loc 1 209 0
 289 00d6 AB45     		cmp	fp, r5
 290              		.loc 1 208 0
 291 00d8 CAEB0402 		rsb	r2, r10, r4
 292 00dc 4FEAE202 		asr	r2, r2, #3
 293              	.LBB5:
 294              		.loc 1 214 0
 295 00e0 38BF     		it	cc
 296 00e2 0BF10100 		addcc	r0, fp, #1
 297              	.LBE5:
 298              		.loc 1 208 0
 299 00e6 5A60     		str	r2, [r3, #4]
 300              	.LBB6:
 301              		.loc 1 218 0
 302 00e8 3FBF     		itttt	cc
 303 00ea 1D68     		ldrcc	r5, [r3]
 304              	.LVL26:
 305              		.loc 1 215 0
 306 00ec 6FEA0B01 		mvncc	r1, fp
 307              		.loc 1 214 0
 308 00f0 04EBC002 		addcc	r2, r4, r0, lsl #3
 309              	.LVL27:
 310              		.loc 1 215 0
 311 00f4 7144     		addcc	r1, r1, lr
 312 00f6 37BF     		itett	cc
 313 00f8 5160     		strcc	r1, [r2, #4]
 314 00fa B246     		movcs	r10, r6
 315              		.loc 1 218 0
 316 00fc 44F83050 		strcc	r5, [r4, r0, lsl #3]
 317 0100 B246     		movcc	r10, r6
 318              		.loc 1 219 0
 319 0102 38BF     		it	cc
 320 0104 1A60     		strcc	r2, [r3]
 321 0106 DBE7     		b	.L10
 322              	.LVL28:
 323              	.L24:
 324              	.LBE6:
 325              	.LBE4:
 326              		.loc 1 229 0
 327 0108 1A68     		ldr	r2, [r3]
 328 010a 1C46     		mov	r4, r3
 329              	.LVL29:
 330 010c 3A60     		str	r2, [r7]
 331 010e D7E7     		b	.L10
 332              	.LVL30:
 333              	.L15:
 334              	.LBE10:
 335              		.loc 1 275 0
 336 0110 0020     		movs	r0, #0
 337 0112 C0E7     		b	.L12
 338              		.cfi_endproc
 339              	.LFE241:
 340              		.size	chHeapAllocAligned, .-chHeapAllocAligned
ARM GAS  /tmp/ccSCxM1i.s 			page 7


 341              		.section	.text.chHeapFree,"ax",%progbits
 342              		.align	2
 343              		.p2align 4,,15
 344              		.global	chHeapFree
 345              		.thumb
 346              		.thumb_func
 347              		.type	chHeapFree, %function
 348              	chHeapFree:
 349              	.LFB242:
 350              		.loc 1 285 0
 351              		.cfi_startproc
 352              		@ args = 0, pretend = 0, frame = 0
 353              		@ frame_needed = 0, uses_anonymous_args = 0
 354              	.LVL31:
 355 0000 F8B5     		push	{r3, r4, r5, r6, r7, lr}
 356              		.cfi_def_cfa_offset 24
 357              		.cfi_offset 3, -24
 358              		.cfi_offset 4, -20
 359              		.cfi_offset 5, -16
 360              		.cfi_offset 6, -12
 361              		.cfi_offset 7, -8
 362              		.cfi_offset 14, -4
 363              		.loc 1 298 0
 364 0002 50F8043C 		ldr	r3, [r0, #-4]
 365              		.loc 1 294 0
 366 0006 50F8085C 		ldr	r5, [r0, #-8]
 367              		.loc 1 298 0
 368 000a 0733     		adds	r3, r3, #7
 369              		.loc 1 299 0
 370 000c DB08     		lsrs	r3, r3, #3
 371              		.loc 1 302 0
 372 000e 05F11007 		add	r7, r5, #16
 373              		.loc 1 298 0
 374 0012 40F8043C 		str	r3, [r0, #-4]
 375              		.loc 1 285 0
 376 0016 0646     		mov	r6, r0
 377              		.loc 1 292 0
 378 0018 A0F10804 		sub	r4, r0, #8
 379              	.LVL32:
 380              		.loc 1 295 0
 381 001c 0835     		adds	r5, r5, #8
 382              	.LVL33:
 383              		.loc 1 302 0
 384 001e 3846     		mov	r0, r7
 385              	.LVL34:
 386 0020 FFF7FEFF 		bl	chMtxLock
 387              	.LVL35:
 388              		.loc 1 295 0
 389 0024 2B46     		mov	r3, r5
 390              	.LVL36:
 391              	.L32:
 392              		.loc 1 307 0
 393 0026 AB42     		cmp	r3, r5
 394 0028 04D0     		beq	.L26
 395              	.L37:
 396              		.loc 1 307 0 is_stmt 0 discriminator 2
 397 002a A342     		cmp	r3, r4
ARM GAS  /tmp/ccSCxM1i.s 			page 8


 398 002c 02D3     		bcc	.L26
 399 002e 1B68     		ldr	r3, [r3]
 400              	.LVL37:
 401              		.loc 1 307 0
 402 0030 AB42     		cmp	r3, r5
 403 0032 FAD1     		bne	.L37
 404              	.L26:
 405              		.loc 1 308 0 is_stmt 1 discriminator 1
 406 0034 1A68     		ldr	r2, [r3]
 407              		.loc 1 307 0 discriminator 1
 408 0036 1AB1     		cbz	r2, .L28
 409              		.loc 1 308 0
 410 0038 9442     		cmp	r4, r2
 411 003a 01D3     		bcc	.L28
 412 003c 1346     		mov	r3, r2
 413              	.LVL38:
 414              		.loc 1 326 0
 415 003e F2E7     		b	.L32
 416              	.LVL39:
 417              	.L28:
 418              		.loc 1 313 0
 419 0040 56F8041C 		ldr	r1, [r6, #-4]
 420              		.loc 1 310 0
 421 0044 46F8082C 		str	r2, [r6, #-8]
 422              		.loc 1 311 0
 423 0048 1C60     		str	r4, [r3]
 424              		.loc 1 313 0
 425 004a 4A1C     		adds	r2, r1, #1
 426 004c 56F8085C 		ldr	r5, [r6, #-8]
 427              	.LVL40:
 428 0050 04EBC200 		add	r0, r4, r2, lsl #3
 429 0054 A842     		cmp	r0, r5
 430 0056 0AD0     		beq	.L38
 431              		.loc 1 318 0
 432 0058 5A68     		ldr	r2, [r3, #4]
 433 005a 511C     		adds	r1, r2, #1
 434 005c 03EBC101 		add	r1, r3, r1, lsl #3
 435 0060 8C42     		cmp	r4, r1
 436 0062 13D0     		beq	.L39
 437              	.L31:
 438              		.loc 1 329 0
 439 0064 3846     		mov	r0, r7
 440              		.loc 1 332 0
 441 0066 BDE8F840 		pop	{r3, r4, r5, r6, r7, lr}
 442              	.LVL41:
 443              		.loc 1 329 0
 444 006a FFF7FEBF 		b	chMtxUnlock
 445              	.LVL42:
 446              	.L38:
 447              		.loc 1 315 0
 448 006e 4068     		ldr	r0, [r0, #4]
 449              		.loc 1 316 0
 450 0070 54F83220 		ldr	r2, [r4, r2, lsl #3]
 451              		.loc 1 315 0
 452 0074 0144     		add	r1, r1, r0
 453 0076 0131     		adds	r1, r1, #1
 454 0078 46F8041C 		str	r1, [r6, #-4]
ARM GAS  /tmp/ccSCxM1i.s 			page 9


 455              		.loc 1 316 0
 456 007c 46F8082C 		str	r2, [r6, #-8]
 457              		.loc 1 318 0
 458 0080 5A68     		ldr	r2, [r3, #4]
 459 0082 511C     		adds	r1, r2, #1
 460 0084 03EBC101 		add	r1, r3, r1, lsl #3
 461 0088 8C42     		cmp	r4, r1
 462 008a EBD1     		bne	.L31
 463              	.L39:
 464              		.loc 1 320 0
 465 008c 56F8040C 		ldr	r0, [r6, #-4]
 466              		.loc 1 321 0
 467 0090 56F8081C 		ldr	r1, [r6, #-8]
 468              		.loc 1 320 0
 469 0094 0244     		add	r2, r2, r0
 470 0096 0132     		adds	r2, r2, #1
 471              		.loc 1 321 0
 472 0098 83E80600 		stmia	r3, {r1, r2}
 473              		.loc 1 329 0
 474 009c 3846     		mov	r0, r7
 475              		.loc 1 332 0
 476 009e BDE8F840 		pop	{r3, r4, r5, r6, r7, lr}
 477              	.LVL43:
 478              		.loc 1 329 0
 479 00a2 FFF7FEBF 		b	chMtxUnlock
 480              	.LVL44:
 481              		.cfi_endproc
 482              	.LFE242:
 483              		.size	chHeapFree, .-chHeapFree
 484 00a6 00BFAFF3 		.section	.text.chHeapStatus,"ax",%progbits
 484      0080AFF3 
 484      0080
 485              		.align	2
 486              		.p2align 4,,15
 487              		.global	chHeapStatus
 488              		.thumb
 489              		.thumb_func
 490              		.type	chHeapStatus, %function
 491              	chHeapStatus:
 492              	.LFB243:
 493              		.loc 1 349 0
 494              		.cfi_startproc
 495              		@ args = 0, pretend = 0, frame = 0
 496              		@ frame_needed = 0, uses_anonymous_args = 0
 497              	.LVL45:
 498              		.loc 1 354 0
 499 0000 40F20003 		movw	r3, #:lower16:.LANCHOR0
 500 0004 C0F20003 		movt	r3, #:upper16:.LANCHOR0
 501              		.loc 1 349 0
 502 0008 2DE9F047 		push	{r4, r5, r6, r7, r8, r9, r10, lr}
 503              		.cfi_def_cfa_offset 32
 504              		.cfi_offset 4, -32
 505              		.cfi_offset 5, -28
 506              		.cfi_offset 6, -24
 507              		.cfi_offset 7, -20
 508              		.cfi_offset 8, -16
 509              		.cfi_offset 9, -12
ARM GAS  /tmp/ccSCxM1i.s 			page 10


 510              		.cfi_offset 10, -8
 511              		.cfi_offset 14, -4
 512              		.loc 1 354 0
 513 000c 0028     		cmp	r0, #0
 514 000e 14BF     		ite	ne
 515 0010 0446     		movne	r4, r0
 516 0012 1C46     		moveq	r4, r3
 517              	.LVL46:
 518              		.loc 1 357 0
 519 0014 04F11008 		add	r8, r4, #16
 520 0018 4046     		mov	r0, r8
 521              		.loc 1 349 0
 522 001a 8A46     		mov	r10, r1
 523 001c 9146     		mov	r9, r2
 524              		.loc 1 357 0
 525 001e FFF7FEFF 		bl	chMtxLock
 526              	.LVL47:
 527              		.loc 1 362 0
 528 0022 A368     		ldr	r3, [r4, #8]
 529 0024 E3B1     		cbz	r3, .L47
 530              		.loc 1 359 0
 531 0026 0025     		movs	r5, #0
 532              		.loc 1 358 0
 533 0028 2F46     		mov	r7, r5
 534              		.loc 1 360 0
 535 002a 2E46     		mov	r6, r5
 536              	.LVL48:
 537              	.L43:
 538              		.loc 1 362 0
 539 002c 18CB     		ldmia	r3, {r3, r4}
 540              	.LBB11:
 541              		.loc 1 366 0
 542 002e 0136     		adds	r6, r6, #1
 543              	.LVL49:
 544              		.loc 1 367 0
 545 0030 2744     		add	r7, r7, r4
 546              	.LVL50:
 547 0032 A542     		cmp	r5, r4
 548 0034 38BF     		it	cc
 549 0036 2546     		movcc	r5, r4
 550              	.LVL51:
 551              	.LBE11:
 552              		.loc 1 362 0
 553 0038 002B     		cmp	r3, #0
 554 003a F7D1     		bne	.L43
 555              	.LVL52:
 556              	.L42:
 557              		.loc 1 376 0
 558 003c BAF1000F 		cmp	r10, #0
 559 0040 02D0     		beq	.L44
 560              		.loc 1 377 0
 561 0042 FF00     		lsls	r7, r7, #3
 562 0044 CAF80070 		str	r7, [r10]
 563              	.L44:
 564              		.loc 1 381 0
 565 0048 B9F1000F 		cmp	r9, #0
 566 004c 02D0     		beq	.L45
ARM GAS  /tmp/ccSCxM1i.s 			page 11


 567              		.loc 1 382 0
 568 004e ED00     		lsls	r5, r5, #3
 569 0050 C9F80050 		str	r5, [r9]
 570              	.L45:
 571              		.loc 1 384 0
 572 0054 4046     		mov	r0, r8
 573 0056 FFF7FEFF 		bl	chMtxUnlock
 574              	.LVL53:
 575              		.loc 1 387 0
 576 005a 3046     		mov	r0, r6
 577 005c BDE8F087 		pop	{r4, r5, r6, r7, r8, r9, r10, pc}
 578              	.LVL54:
 579              	.L47:
 580              		.loc 1 359 0
 581 0060 1D46     		mov	r5, r3
 582              		.loc 1 358 0
 583 0062 1F46     		mov	r7, r3
 584              		.loc 1 360 0
 585 0064 1E46     		mov	r6, r3
 586 0066 E9E7     		b	.L42
 587              		.cfi_endproc
 588              	.LFE243:
 589              		.size	chHeapStatus, .-chHeapStatus
 590 0068 AFF30080 		.section	.bss.default_heap,"aw",%nobits
 590      AFF30080 
 591              		.align	3
 592              		.set	.LANCHOR0,. + 0
 593              		.type	default_heap, %object
 594              		.size	default_heap, 32
 595              	default_heap:
 596 0000 00000000 		.space	32
 596      00000000 
 596      00000000 
 596      00000000 
 596      00000000 
 597              		.text
 598              	.Letext0:
 599              		.file 2 "/usr/lib/gcc/arm-none-eabi/4.8.2/include/stddef.h"
 600              		.file 3 "/usr/include/newlib/machine/_default_types.h"
 601              		.file 4 "/usr/include/newlib/stdint.h"
 602              		.file 5 "../../../../../ChibiOS-RT/os/common/ports/ARMCMx/compilers/GCC/chtypes.h"
 603              		.file 6 "../../../../../ChibiOS-RT/os/rt/include/chsystypes.h"
 604              		.file 7 "../../../../../ChibiOS-RT/os/rt/include/chschd.h"
 605              		.file 8 "../../../../../ChibiOS-RT/os/common/ports/ARMCMx/chcore.h"
 606              		.file 9 "../../../../../ChibiOS-RT/os/common/ports/ARMCMx/chcore_v7m.h"
 607              		.file 10 "../../../../../ChibiOS-RT/os/rt/include/chtrace.h"
 608              		.file 11 "../../../../../ChibiOS-RT/os/rt/include/chtm.h"
 609              		.file 12 "../../../../../ChibiOS-RT/os/rt/include/chsem.h"
 610              		.file 13 "../../../../../ChibiOS-RT/os/rt/include/chmtx.h"
 611              		.file 14 "../../../../../ChibiOS-RT/os/common/oslib/include/chmemcore.h"
 612              		.file 15 "../../../../../ChibiOS-RT/os/common/oslib/include/chheap.h"
 613              		.file 16 "../../../../../ChibiOS-RT/os/common/ext/CMSIS/include/core_cm4.h"