ARM GAS  /tmp/ccGaovx1.s 			page 1


   1              		.syntax unified
   2              		.cpu cortex-m4
   3              		.fpu softvfp
   4              		.eabi_attribute 20, 1
   5              		.eabi_attribute 21, 1
   6              		.eabi_attribute 23, 3
   7              		.eabi_attribute 24, 1
   8              		.eabi_attribute 25, 1
   9              		.eabi_attribute 26, 1
  10              		.eabi_attribute 30, 2
  11              		.eabi_attribute 34, 1
  12              		.eabi_attribute 18, 4
  13              		.thumb
  14              		.file	"chmboxes.c"
  15              		.text
  16              	.Ltext0:
  17              		.cfi_sections	.debug_frame
  18              		.section	.text.chMBObjectInit,"ax",%progbits
  19              		.align	2
  20              		.p2align 4,,15
  21              		.global	chMBObjectInit
  22              		.thumb
  23              		.thumb_func
  24              		.type	chMBObjectInit, %function
  25              	chMBObjectInit:
  26              	.LFB239:
  27              		.file 1 "../../../../../ChibiOS-RT/os/common/oslib/src/chmboxes.c"
  28              		.loc 1 87 0
  29              		.cfi_startproc
  30              		@ args = 0, pretend = 0, frame = 0
  31              		@ frame_needed = 0, uses_anonymous_args = 0
  32              	.LVL0:
  33 0000 10B5     		push	{r4, lr}
  34              		.cfi_def_cfa_offset 8
  35              		.cfi_offset 4, -8
  36              		.cfi_offset 14, -4
  37              		.loc 1 87 0
  38 0002 0B46     		mov	r3, r1
  39              		.loc 1 94 0
  40 0004 01EB8201 		add	r1, r1, r2, lsl #2
  41              	.LVL1:
  42 0008 4160     		str	r1, [r0, #4]
  43              		.loc 1 87 0
  44 000a 0446     		mov	r4, r0
  45              		.loc 1 91 0
  46 000c 0360     		str	r3, [r0]
  47              		.loc 1 92 0
  48 000e C360     		str	r3, [r0, #12]
  49              		.loc 1 93 0
  50 0010 8360     		str	r3, [r0, #8]
  51              		.loc 1 95 0
  52 0012 1146     		mov	r1, r2
  53 0014 1C30     		adds	r0, r0, #28
  54              	.LVL2:
  55 0016 FFF7FEFF 		bl	chSemObjectInit
  56              	.LVL3:
  57              		.loc 1 96 0
ARM GAS  /tmp/ccGaovx1.s 			page 2


  58 001a 04F11000 		add	r0, r4, #16
  59 001e 0021     		movs	r1, #0
  60              		.loc 1 97 0
  61 0020 BDE81040 		pop	{r4, lr}
  62              	.LVL4:
  63              		.loc 1 96 0
  64 0024 FFF7FEBF 		b	chSemObjectInit
  65              	.LVL5:
  66              		.cfi_endproc
  67              	.LFE239:
  68              		.size	chMBObjectInit, .-chMBObjectInit
  69 0028 AFF30080 		.section	.text.chMBResetI,"ax",%progbits
  69      AFF30080 
  70              		.align	2
  71              		.p2align 4,,15
  72              		.global	chMBResetI
  73              		.thumb
  74              		.thumb_func
  75              		.type	chMBResetI, %function
  76              	chMBResetI:
  77              	.LFB241:
  78              		.loc 1 125 0
  79              		.cfi_startproc
  80              		@ args = 0, pretend = 0, frame = 0
  81              		@ frame_needed = 0, uses_anonymous_args = 0
  82              	.LVL6:
  83 0000 10B5     		push	{r4, lr}
  84              		.cfi_def_cfa_offset 8
  85              		.cfi_offset 4, -8
  86              		.cfi_offset 14, -4
  87              		.loc 1 125 0
  88 0002 0446     		mov	r4, r0
  89              		.loc 1 132 0
  90 0004 1C30     		adds	r0, r0, #28
  91              	.LVL7:
  92              		.loc 1 130 0
  93 0006 2368     		ldr	r3, [r4]
  94              		.loc 1 132 0
  95 0008 6168     		ldr	r1, [r4, #4]
  96              		.loc 1 130 0
  97 000a A360     		str	r3, [r4, #8]
  98              		.loc 1 132 0
  99 000c C91A     		subs	r1, r1, r3
 100              		.loc 1 131 0
 101 000e E360     		str	r3, [r4, #12]
 102              		.loc 1 132 0
 103 0010 8910     		asrs	r1, r1, #2
 104 0012 FFF7FEFF 		bl	chSemResetI
 105              	.LVL8:
 106              		.loc 1 133 0
 107 0016 04F11000 		add	r0, r4, #16
 108 001a 0021     		movs	r1, #0
 109              		.loc 1 134 0
 110 001c BDE81040 		pop	{r4, lr}
 111              	.LVL9:
 112              		.loc 1 133 0
 113 0020 FFF7FEBF 		b	chSemResetI
ARM GAS  /tmp/ccGaovx1.s 			page 3


 114              	.LVL10:
 115              		.cfi_endproc
 116              	.LFE241:
 117              		.size	chMBResetI, .-chMBResetI
 118 0024 AFF30080 		.section	.text.chMBReset,"ax",%progbits
 118      AFF30080 
 118      AFF30080 
 119              		.align	2
 120              		.p2align 4,,15
 121              		.global	chMBReset
 122              		.thumb
 123              		.thumb_func
 124              		.type	chMBReset, %function
 125              	chMBReset:
 126              	.LFB240:
 127              		.loc 1 108 0
 128              		.cfi_startproc
 129              		@ args = 0, pretend = 0, frame = 0
 130              		@ frame_needed = 0, uses_anonymous_args = 0
 131              	.LVL11:
 132 0000 08B5     		push	{r3, lr}
 133              		.cfi_def_cfa_offset 8
 134              		.cfi_offset 3, -8
 135              		.cfi_offset 14, -4
 136              	.LBB66:
 137              	.LBB67:
 138              	.LBB68:
 139              	.LBB69:
 140              		.file 2 "../../../../../ChibiOS-RT/os/common/ext/CMSIS/include/cmsis_gcc.h"
 141              		.loc 2 264 0
 142 0002 2023     		movs	r3, #32
 143              	@ 264 "../../../../../ChibiOS-RT/os/common/ext/CMSIS/include/cmsis_gcc.h" 1
 144 0004 83F31188 		MSR basepri, r3
 145              	@ 0 "" 2
 146              		.thumb
 147              	.LBE69:
 148              	.LBE68:
 149              	.LBE67:
 150              	.LBE66:
 151              		.loc 1 111 0
 152 0008 FFF7FEFF 		bl	chMBResetI
 153              	.LVL12:
 154              		.loc 1 112 0
 155 000c FFF7FEFF 		bl	chSchRescheduleS
 156              	.LVL13:
 157              	.LBB70:
 158              	.LBB71:
 159              	.LBB72:
 160              	.LBB73:
 161              	.LBB74:
 162              		.loc 2 264 0
 163 0010 0023     		movs	r3, #0
 164              	@ 264 "../../../../../ChibiOS-RT/os/common/ext/CMSIS/include/cmsis_gcc.h" 1
 165 0012 83F31188 		MSR basepri, r3
 166              	@ 0 "" 2
 167              		.thumb
 168 0016 08BD     		pop	{r3, pc}
ARM GAS  /tmp/ccGaovx1.s 			page 4


 169              	.LBE74:
 170              	.LBE73:
 171              	.LBE72:
 172              	.LBE71:
 173              	.LBE70:
 174              		.cfi_endproc
 175              	.LFE240:
 176              		.size	chMBReset, .-chMBReset
 177 0018 AFF30080 		.section	.text.chMBPostS,"ax",%progbits
 177      AFF30080 
 178              		.align	2
 179              		.p2align 4,,15
 180              		.global	chMBPostS
 181              		.thumb
 182              		.thumb_func
 183              		.type	chMBPostS, %function
 184              	chMBPostS:
 185              	.LFB243:
 186              		.loc 1 184 0
 187              		.cfi_startproc
 188              		@ args = 0, pretend = 0, frame = 0
 189              		@ frame_needed = 0, uses_anonymous_args = 0
 190              	.LVL14:
 191 0000 70B5     		push	{r4, r5, r6, lr}
 192              		.cfi_def_cfa_offset 16
 193              		.cfi_offset 4, -16
 194              		.cfi_offset 5, -12
 195              		.cfi_offset 6, -8
 196              		.cfi_offset 14, -4
 197              		.loc 1 184 0
 198 0002 0446     		mov	r4, r0
 199 0004 0E46     		mov	r6, r1
 200              		.loc 1 190 0
 201 0006 1C30     		adds	r0, r0, #28
 202              	.LVL15:
 203 0008 1146     		mov	r1, r2
 204              	.LVL16:
 205 000a FFF7FEFF 		bl	chSemWaitTimeoutS
 206              	.LVL17:
 207              		.loc 1 191 0
 208 000e 0546     		mov	r5, r0
 209 0010 78B9     		cbnz	r0, .L5
 210              		.loc 1 192 0
 211 0012 A268     		ldr	r2, [r4, #8]
 212              		.loc 1 193 0
 213 0014 6168     		ldr	r1, [r4, #4]
 214              		.loc 1 192 0
 215 0016 131D     		adds	r3, r2, #4
 216              		.loc 1 193 0
 217 0018 8B42     		cmp	r3, r1
 218              		.loc 1 192 0
 219 001a A360     		str	r3, [r4, #8]
 220              		.loc 1 194 0
 221 001c 28BF     		it	cs
 222 001e 2368     		ldrcs	r3, [r4]
 223              		.loc 1 192 0
 224 0020 1660     		str	r6, [r2]
ARM GAS  /tmp/ccGaovx1.s 			page 5


 225              		.loc 1 196 0
 226 0022 04F11000 		add	r0, r4, #16
 227              	.LVL18:
 228              		.loc 1 194 0
 229 0026 28BF     		it	cs
 230 0028 A360     		strcs	r3, [r4, #8]
 231              		.loc 1 196 0
 232 002a FFF7FEFF 		bl	chSemSignalI
 233              	.LVL19:
 234              		.loc 1 197 0
 235 002e FFF7FEFF 		bl	chSchRescheduleS
 236              	.LVL20:
 237              	.L5:
 238              		.loc 1 201 0
 239 0032 2846     		mov	r0, r5
 240 0034 70BD     		pop	{r4, r5, r6, pc}
 241              		.cfi_endproc
 242              	.LFE243:
 243              		.size	chMBPostS, .-chMBPostS
 244 0036 00BFAFF3 		.section	.text.chMBPost,"ax",%progbits
 244      0080AFF3 
 244      0080
 245              		.align	2
 246              		.p2align 4,,15
 247              		.global	chMBPost
 248              		.thumb
 249              		.thumb_func
 250              		.type	chMBPost, %function
 251              	chMBPost:
 252              	.LFB242:
 253              		.loc 1 155 0
 254              		.cfi_startproc
 255              		@ args = 0, pretend = 0, frame = 0
 256              		@ frame_needed = 0, uses_anonymous_args = 0
 257              	.LVL21:
 258 0000 08B5     		push	{r3, lr}
 259              		.cfi_def_cfa_offset 8
 260              		.cfi_offset 3, -8
 261              		.cfi_offset 14, -4
 262              	.LBB75:
 263              	.LBB76:
 264              	.LBB77:
 265              	.LBB78:
 266              		.loc 2 264 0
 267 0002 2023     		movs	r3, #32
 268              	@ 264 "../../../../../ChibiOS-RT/os/common/ext/CMSIS/include/cmsis_gcc.h" 1
 269 0004 83F31188 		MSR basepri, r3
 270              	@ 0 "" 2
 271              		.thumb
 272              	.LBE78:
 273              	.LBE77:
 274              	.LBE76:
 275              	.LBE75:
 276              		.loc 1 159 0
 277 0008 FFF7FEFF 		bl	chMBPostS
 278              	.LVL22:
 279              	.LBB79:
ARM GAS  /tmp/ccGaovx1.s 			page 6


 280              	.LBB80:
 281              	.LBB81:
 282              	.LBB82:
 283              	.LBB83:
 284              		.loc 2 264 0
 285 000c 0023     		movs	r3, #0
 286              	@ 264 "../../../../../ChibiOS-RT/os/common/ext/CMSIS/include/cmsis_gcc.h" 1
 287 000e 83F31188 		MSR basepri, r3
 288              	@ 0 "" 2
 289              		.thumb
 290              	.LBE83:
 291              	.LBE82:
 292              	.LBE81:
 293              	.LBE80:
 294              	.LBE79:
 295              		.loc 1 163 0
 296 0012 08BD     		pop	{r3, pc}
 297              		.cfi_endproc
 298              	.LFE242:
 299              		.size	chMBPost, .-chMBPost
 300 0014 AFF30080 		.section	.text.chMBPostI,"ax",%progbits
 300      AFF30080 
 300      AFF30080 
 301              		.align	2
 302              		.p2align 4,,15
 303              		.global	chMBPostI
 304              		.thumb
 305              		.thumb_func
 306              		.type	chMBPostI, %function
 307              	chMBPostI:
 308              	.LFB244:
 309              		.loc 1 217 0
 310              		.cfi_startproc
 311              		@ args = 0, pretend = 0, frame = 0
 312              		@ frame_needed = 0, uses_anonymous_args = 0
 313              	.LVL23:
 314 0000 38B5     		push	{r3, r4, r5, lr}
 315              		.cfi_def_cfa_offset 16
 316              		.cfi_offset 3, -16
 317              		.cfi_offset 4, -12
 318              		.cfi_offset 5, -8
 319              		.cfi_offset 14, -4
 320              		.loc 1 222 0
 321 0002 436A     		ldr	r3, [r0, #36]
 322              	.LVL24:
 323 0004 002B     		cmp	r3, #0
 324 0006 12DD     		ble	.L12
 325              	.LVL25:
 326              		.loc 1 227 0
 327 0008 8468     		ldr	r4, [r0, #8]
 328              		.loc 1 228 0
 329 000a 4568     		ldr	r5, [r0, #4]
 330              		.loc 1 227 0
 331 000c 221D     		adds	r2, r4, #4
 332              	.LBB84:
 333              	.LBB85:
 334              		.file 3 "../../../../../ChibiOS-RT/os/rt/include/chsem.h"
ARM GAS  /tmp/ccGaovx1.s 			page 7


 335              		.loc 3 122 0
 336 000e 013B     		subs	r3, r3, #1
 337              	.LBE85:
 338              	.LBE84:
 339              		.loc 1 228 0
 340 0010 AA42     		cmp	r2, r5
 341              	.LBB87:
 342              	.LBB86:
 343              		.loc 3 122 0
 344 0012 4362     		str	r3, [r0, #36]
 345              	.LBE86:
 346              	.LBE87:
 347              		.loc 1 229 0
 348 0014 28BF     		it	cs
 349 0016 0368     		ldrcs	r3, [r0]
 350              		.loc 1 227 0
 351 0018 8260     		str	r2, [r0, #8]
 352 001a 2160     		str	r1, [r4]
 353              		.loc 1 231 0
 354 001c 00F11000 		add	r0, r0, #16
 355              	.LVL26:
 356              		.loc 1 229 0
 357 0020 28BF     		it	cs
 358 0022 40F8083C 		strcs	r3, [r0, #-8]
 359              		.loc 1 231 0
 360 0026 FFF7FEFF 		bl	chSemSignalI
 361              	.LVL27:
 362              		.loc 1 233 0
 363 002a 0020     		movs	r0, #0
 364 002c 38BD     		pop	{r3, r4, r5, pc}
 365              	.LVL28:
 366              	.L12:
 367              		.loc 1 223 0
 368 002e 4FF0FF30 		mov	r0, #-1
 369              	.LVL29:
 370              		.loc 1 234 0
 371 0032 38BD     		pop	{r3, r4, r5, pc}
 372              		.cfi_endproc
 373              	.LFE244:
 374              		.size	chMBPostI, .-chMBPostI
 375 0034 AFF30080 		.section	.text.chMBPostAheadS,"ax",%progbits
 375      AFF30080 
 375      AFF30080 
 376              		.align	2
 377              		.p2align 4,,15
 378              		.global	chMBPostAheadS
 379              		.thumb
 380              		.thumb_func
 381              		.type	chMBPostAheadS, %function
 382              	chMBPostAheadS:
 383              	.LFB246:
 384              		.loc 1 284 0
 385              		.cfi_startproc
 386              		@ args = 0, pretend = 0, frame = 0
 387              		@ frame_needed = 0, uses_anonymous_args = 0
 388              	.LVL30:
 389 0000 70B5     		push	{r4, r5, r6, lr}
ARM GAS  /tmp/ccGaovx1.s 			page 8


 390              		.cfi_def_cfa_offset 16
 391              		.cfi_offset 4, -16
 392              		.cfi_offset 5, -12
 393              		.cfi_offset 6, -8
 394              		.cfi_offset 14, -4
 395              		.loc 1 284 0
 396 0002 0446     		mov	r4, r0
 397 0004 0E46     		mov	r6, r1
 398              		.loc 1 290 0
 399 0006 1C30     		adds	r0, r0, #28
 400              	.LVL31:
 401 0008 1146     		mov	r1, r2
 402              	.LVL32:
 403 000a FFF7FEFF 		bl	chSemWaitTimeoutS
 404              	.LVL33:
 405              		.loc 1 291 0
 406 000e 0546     		mov	r5, r0
 407 0010 78B9     		cbnz	r0, .L14
 408              		.loc 1 292 0
 409 0012 E368     		ldr	r3, [r4, #12]
 410 0014 2268     		ldr	r2, [r4]
 411 0016 043B     		subs	r3, r3, #4
 412 0018 9342     		cmp	r3, r2
 413 001a E360     		str	r3, [r4, #12]
 414              		.loc 1 293 0
 415 001c 3EBF     		ittt	cc
 416 001e 6368     		ldrcc	r3, [r4, #4]
 417 0020 043B     		subcc	r3, r3, #4
 418 0022 E360     		strcc	r3, [r4, #12]
 419              		.loc 1 296 0
 420 0024 04F11000 		add	r0, r4, #16
 421              	.LVL34:
 422              		.loc 1 295 0
 423 0028 1E60     		str	r6, [r3]
 424              		.loc 1 296 0
 425 002a FFF7FEFF 		bl	chSemSignalI
 426              	.LVL35:
 427              		.loc 1 297 0
 428 002e FFF7FEFF 		bl	chSchRescheduleS
 429              	.LVL36:
 430              	.L14:
 431              		.loc 1 301 0
 432 0032 2846     		mov	r0, r5
 433 0034 70BD     		pop	{r4, r5, r6, pc}
 434              		.cfi_endproc
 435              	.LFE246:
 436              		.size	chMBPostAheadS, .-chMBPostAheadS
 437 0036 00BFAFF3 		.section	.text.chMBPostAhead,"ax",%progbits
 437      0080AFF3 
 437      0080
 438              		.align	2
 439              		.p2align 4,,15
 440              		.global	chMBPostAhead
 441              		.thumb
 442              		.thumb_func
 443              		.type	chMBPostAhead, %function
 444              	chMBPostAhead:
ARM GAS  /tmp/ccGaovx1.s 			page 9


 445              	.LFB245:
 446              		.loc 1 255 0
 447              		.cfi_startproc
 448              		@ args = 0, pretend = 0, frame = 0
 449              		@ frame_needed = 0, uses_anonymous_args = 0
 450              	.LVL37:
 451 0000 08B5     		push	{r3, lr}
 452              		.cfi_def_cfa_offset 8
 453              		.cfi_offset 3, -8
 454              		.cfi_offset 14, -4
 455              	.LBB88:
 456              	.LBB89:
 457              	.LBB90:
 458              	.LBB91:
 459              		.loc 2 264 0
 460 0002 2023     		movs	r3, #32
 461              	@ 264 "../../../../../ChibiOS-RT/os/common/ext/CMSIS/include/cmsis_gcc.h" 1
 462 0004 83F31188 		MSR basepri, r3
 463              	@ 0 "" 2
 464              		.thumb
 465              	.LBE91:
 466              	.LBE90:
 467              	.LBE89:
 468              	.LBE88:
 469              		.loc 1 259 0
 470 0008 FFF7FEFF 		bl	chMBPostAheadS
 471              	.LVL38:
 472              	.LBB92:
 473              	.LBB93:
 474              	.LBB94:
 475              	.LBB95:
 476              	.LBB96:
 477              		.loc 2 264 0
 478 000c 0023     		movs	r3, #0
 479              	@ 264 "../../../../../ChibiOS-RT/os/common/ext/CMSIS/include/cmsis_gcc.h" 1
 480 000e 83F31188 		MSR basepri, r3
 481              	@ 0 "" 2
 482              		.thumb
 483              	.LBE96:
 484              	.LBE95:
 485              	.LBE94:
 486              	.LBE93:
 487              	.LBE92:
 488              		.loc 1 263 0
 489 0012 08BD     		pop	{r3, pc}
 490              		.cfi_endproc
 491              	.LFE245:
 492              		.size	chMBPostAhead, .-chMBPostAhead
 493 0014 AFF30080 		.section	.text.chMBPostAheadI,"ax",%progbits
 493      AFF30080 
 493      AFF30080 
 494              		.align	2
 495              		.p2align 4,,15
 496              		.global	chMBPostAheadI
 497              		.thumb
 498              		.thumb_func
 499              		.type	chMBPostAheadI, %function
ARM GAS  /tmp/ccGaovx1.s 			page 10


 500              	chMBPostAheadI:
 501              	.LFB247:
 502              		.loc 1 317 0
 503              		.cfi_startproc
 504              		@ args = 0, pretend = 0, frame = 0
 505              		@ frame_needed = 0, uses_anonymous_args = 0
 506              	.LVL39:
 507              		.loc 1 322 0
 508 0000 426A     		ldr	r2, [r0, #36]
 509              	.LVL40:
 510 0002 002A     		cmp	r2, #0
 511              		.loc 1 317 0
 512 0004 10B5     		push	{r4, lr}
 513              		.cfi_def_cfa_offset 8
 514              		.cfi_offset 4, -8
 515              		.cfi_offset 14, -4
 516              		.loc 1 322 0
 517 0006 12DD     		ble	.L20
 518              	.LVL41:
 519              		.loc 1 326 0
 520 0008 C368     		ldr	r3, [r0, #12]
 521 000a 0468     		ldr	r4, [r0]
 522 000c 043B     		subs	r3, r3, #4
 523 000e A342     		cmp	r3, r4
 524 0010 C360     		str	r3, [r0, #12]
 525              		.loc 1 327 0
 526 0012 3CBF     		itt	cc
 527 0014 4368     		ldrcc	r3, [r0, #4]
 528 0016 043B     		subcc	r3, r3, #4
 529              	.LBB97:
 530              	.LBB98:
 531              		.loc 3 122 0
 532 0018 02F1FF32 		add	r2, r2, #-1
 533 001c 4262     		str	r2, [r0, #36]
 534              	.LBE98:
 535              	.LBE97:
 536              		.loc 1 327 0
 537 001e 38BF     		it	cc
 538 0020 C360     		strcc	r3, [r0, #12]
 539              		.loc 1 329 0
 540 0022 1960     		str	r1, [r3]
 541              		.loc 1 330 0
 542 0024 1030     		adds	r0, r0, #16
 543              	.LVL42:
 544 0026 FFF7FEFF 		bl	chSemSignalI
 545              	.LVL43:
 546              		.loc 1 332 0
 547 002a 0020     		movs	r0, #0
 548 002c 10BD     		pop	{r4, pc}
 549              	.LVL44:
 550              	.L20:
 551              		.loc 1 323 0
 552 002e 4FF0FF30 		mov	r0, #-1
 553              	.LVL45:
 554              		.loc 1 333 0
 555 0032 10BD     		pop	{r4, pc}
 556              		.cfi_endproc
ARM GAS  /tmp/ccGaovx1.s 			page 11


 557              	.LFE247:
 558              		.size	chMBPostAheadI, .-chMBPostAheadI
 559 0034 AFF30080 		.section	.text.chMBFetchS,"ax",%progbits
 559      AFF30080 
 559      AFF30080 
 560              		.align	2
 561              		.p2align 4,,15
 562              		.global	chMBFetchS
 563              		.thumb
 564              		.thumb_func
 565              		.type	chMBFetchS, %function
 566              	chMBFetchS:
 567              	.LFB249:
 568              		.loc 1 383 0
 569              		.cfi_startproc
 570              		@ args = 0, pretend = 0, frame = 0
 571              		@ frame_needed = 0, uses_anonymous_args = 0
 572              	.LVL46:
 573 0000 70B5     		push	{r4, r5, r6, lr}
 574              		.cfi_def_cfa_offset 16
 575              		.cfi_offset 4, -16
 576              		.cfi_offset 5, -12
 577              		.cfi_offset 6, -8
 578              		.cfi_offset 14, -4
 579              		.loc 1 383 0
 580 0002 0446     		mov	r4, r0
 581 0004 0E46     		mov	r6, r1
 582              		.loc 1 389 0
 583 0006 1030     		adds	r0, r0, #16
 584              	.LVL47:
 585 0008 1146     		mov	r1, r2
 586              	.LVL48:
 587 000a FFF7FEFF 		bl	chSemWaitTimeoutS
 588              	.LVL49:
 589              		.loc 1 390 0
 590 000e 0546     		mov	r5, r0
 591 0010 80B9     		cbnz	r0, .L22
 592              		.loc 1 391 0
 593 0012 E368     		ldr	r3, [r4, #12]
 594              		.loc 1 392 0
 595 0014 6268     		ldr	r2, [r4, #4]
 596              		.loc 1 391 0
 597 0016 1968     		ldr	r1, [r3]
 598 0018 0433     		adds	r3, r3, #4
 599              		.loc 1 392 0
 600 001a 9342     		cmp	r3, r2
 601              		.loc 1 391 0
 602 001c E360     		str	r3, [r4, #12]
 603              		.loc 1 393 0
 604 001e 28BF     		it	cs
 605 0020 2368     		ldrcs	r3, [r4]
 606              		.loc 1 391 0
 607 0022 3160     		str	r1, [r6]
 608              		.loc 1 395 0
 609 0024 04F11C00 		add	r0, r4, #28
 610              	.LVL50:
 611              		.loc 1 393 0
ARM GAS  /tmp/ccGaovx1.s 			page 12


 612 0028 28BF     		it	cs
 613 002a E360     		strcs	r3, [r4, #12]
 614              		.loc 1 395 0
 615 002c FFF7FEFF 		bl	chSemSignalI
 616              	.LVL51:
 617              		.loc 1 396 0
 618 0030 FFF7FEFF 		bl	chSchRescheduleS
 619              	.LVL52:
 620              	.L22:
 621              		.loc 1 400 0
 622 0034 2846     		mov	r0, r5
 623 0036 70BD     		pop	{r4, r5, r6, pc}
 624              		.cfi_endproc
 625              	.LFE249:
 626              		.size	chMBFetchS, .-chMBFetchS
 627 0038 AFF30080 		.section	.text.chMBFetch,"ax",%progbits
 627      AFF30080 
 628              		.align	2
 629              		.p2align 4,,15
 630              		.global	chMBFetch
 631              		.thumb
 632              		.thumb_func
 633              		.type	chMBFetch, %function
 634              	chMBFetch:
 635              	.LFB248:
 636              		.loc 1 354 0
 637              		.cfi_startproc
 638              		@ args = 0, pretend = 0, frame = 0
 639              		@ frame_needed = 0, uses_anonymous_args = 0
 640              	.LVL53:
 641 0000 08B5     		push	{r3, lr}
 642              		.cfi_def_cfa_offset 8
 643              		.cfi_offset 3, -8
 644              		.cfi_offset 14, -4
 645              	.LBB99:
 646              	.LBB100:
 647              	.LBB101:
 648              	.LBB102:
 649              		.loc 2 264 0
 650 0002 2023     		movs	r3, #32
 651              	@ 264 "../../../../../ChibiOS-RT/os/common/ext/CMSIS/include/cmsis_gcc.h" 1
 652 0004 83F31188 		MSR basepri, r3
 653              	@ 0 "" 2
 654              		.thumb
 655              	.LBE102:
 656              	.LBE101:
 657              	.LBE100:
 658              	.LBE99:
 659              		.loc 1 358 0
 660 0008 FFF7FEFF 		bl	chMBFetchS
 661              	.LVL54:
 662              	.LBB103:
 663              	.LBB104:
 664              	.LBB105:
 665              	.LBB106:
 666              	.LBB107:
 667              		.loc 2 264 0
ARM GAS  /tmp/ccGaovx1.s 			page 13


 668 000c 0023     		movs	r3, #0
 669              	@ 264 "../../../../../ChibiOS-RT/os/common/ext/CMSIS/include/cmsis_gcc.h" 1
 670 000e 83F31188 		MSR basepri, r3
 671              	@ 0 "" 2
 672              		.thumb
 673              	.LBE107:
 674              	.LBE106:
 675              	.LBE105:
 676              	.LBE104:
 677              	.LBE103:
 678              		.loc 1 362 0
 679 0012 08BD     		pop	{r3, pc}
 680              		.cfi_endproc
 681              	.LFE248:
 682              		.size	chMBFetch, .-chMBFetch
 683 0014 AFF30080 		.section	.text.chMBFetchI,"ax",%progbits
 683      AFF30080 
 683      AFF30080 
 684              		.align	2
 685              		.p2align 4,,15
 686              		.global	chMBFetchI
 687              		.thumb
 688              		.thumb_func
 689              		.type	chMBFetchI, %function
 690              	chMBFetchI:
 691              	.LFB250:
 692              		.loc 1 416 0
 693              		.cfi_startproc
 694              		@ args = 0, pretend = 0, frame = 0
 695              		@ frame_needed = 0, uses_anonymous_args = 0
 696              	.LVL55:
 697              		.loc 1 421 0
 698 0000 8369     		ldr	r3, [r0, #24]
 699              	.LVL56:
 700 0002 002B     		cmp	r3, #0
 701              		.loc 1 416 0
 702 0004 10B5     		push	{r4, lr}
 703              		.cfi_def_cfa_offset 8
 704              		.cfi_offset 4, -8
 705              		.cfi_offset 14, -4
 706              		.loc 1 421 0
 707 0006 13DD     		ble	.L28
 708              	.LVL57:
 709              	.LBB108:
 710              	.LBB109:
 711              		.loc 3 122 0
 712 0008 5A1E     		subs	r2, r3, #1
 713              	.LBE109:
 714              	.LBE108:
 715              		.loc 1 425 0
 716 000a C368     		ldr	r3, [r0, #12]
 717              	.LBB111:
 718              	.LBB110:
 719              		.loc 3 122 0
 720 000c 8261     		str	r2, [r0, #24]
 721              	.LBE110:
 722              	.LBE111:
ARM GAS  /tmp/ccGaovx1.s 			page 14


 723              		.loc 1 426 0
 724 000e 4268     		ldr	r2, [r0, #4]
 725              		.loc 1 425 0
 726 0010 1C68     		ldr	r4, [r3]
 727 0012 0433     		adds	r3, r3, #4
 728              		.loc 1 426 0
 729 0014 9342     		cmp	r3, r2
 730              		.loc 1 425 0
 731 0016 C360     		str	r3, [r0, #12]
 732              		.loc 1 427 0
 733 0018 28BF     		it	cs
 734 001a 0368     		ldrcs	r3, [r0]
 735              		.loc 1 425 0
 736 001c 0C60     		str	r4, [r1]
 737              		.loc 1 429 0
 738 001e 00F11C00 		add	r0, r0, #28
 739              	.LVL58:
 740              		.loc 1 427 0
 741 0022 28BF     		it	cs
 742 0024 40F8103C 		strcs	r3, [r0, #-16]
 743              		.loc 1 429 0
 744 0028 FFF7FEFF 		bl	chSemSignalI
 745              	.LVL59:
 746              		.loc 1 431 0
 747 002c 0020     		movs	r0, #0
 748 002e 10BD     		pop	{r4, pc}
 749              	.LVL60:
 750              	.L28:
 751              		.loc 1 422 0
 752 0030 4FF0FF30 		mov	r0, #-1
 753              	.LVL61:
 754              		.loc 1 432 0
 755 0034 10BD     		pop	{r4, pc}
 756              		.cfi_endproc
 757              	.LFE250:
 758              		.size	chMBFetchI, .-chMBFetchI
 759 0036 00BFAFF3 		.text
 759      0080AFF3 
 759      0080
 760              	.Letext0:
 761              		.file 4 "/usr/include/newlib/machine/_default_types.h"
 762              		.file 5 "/usr/include/newlib/stdint.h"
 763              		.file 6 "../../../../../ChibiOS-RT/os/common/ports/ARMCMx/compilers/GCC/chtypes.h"
 764              		.file 7 "../../../../../ChibiOS-RT/os/rt/include/chsystypes.h"
 765              		.file 8 "../../../../../ChibiOS-RT/os/rt/include/chschd.h"
 766              		.file 9 "../../../../../ChibiOS-RT/os/common/ports/ARMCMx/chcore.h"
 767              		.file 10 "../../../../../ChibiOS-RT/os/common/ports/ARMCMx/chcore_v7m.h"
 768              		.file 11 "../../../../../ChibiOS-RT/os/rt/include/chtrace.h"
 769              		.file 12 "../../../../../ChibiOS-RT/os/rt/include/chtm.h"
 770              		.file 13 "../../../../../ChibiOS-RT/os/rt/include/chmtx.h"
 771              		.file 14 "../../../../../ChibiOS-RT/os/common/oslib/include/chmboxes.h"
 772              		.file 15 "../../../../../ChibiOS-RT/os/rt/include/chsys.h"
 773              		.file 16 "../../../../../ChibiOS-RT/os/common/ext/CMSIS/include/core_cm4.h"