ARM GAS  /tmp/ccw9r8gd.s 			page 1


   1              		.syntax unified
   2              		.cpu cortex-m4
   3              		.fpu softvfp
   4              		.eabi_attribute 20, 1
   5              		.eabi_attribute 21, 1
   6              		.eabi_attribute 23, 3
   7              		.eabi_attribute 24, 1
   8              		.eabi_attribute 25, 1
   9              		.eabi_attribute 26, 1
  10              		.eabi_attribute 30, 2
  11              		.eabi_attribute 34, 1
  12              		.eabi_attribute 18, 4
  13              		.thumb
  14              		.file	"chmemcore.c"
  15              		.text
  16              	.Ltext0:
  17              		.cfi_sections	.debug_frame
  18              		.section	.text._core_init,"ax",%progbits
  19              		.align	2
  20              		.p2align 4,,15
  21              		.global	_core_init
  22              		.thumb
  23              		.thumb_func
  24              		.type	_core_init, %function
  25              	_core_init:
  26              	.LFB239:
  27              		.file 1 "../../../../../ChibiOS-RT/os/common/oslib/src/chmemcore.c"
  28              		.loc 1 79 0
  29              		.cfi_startproc
  30              		@ args = 0, pretend = 0, frame = 0
  31              		@ frame_needed = 0, uses_anonymous_args = 0
  32              		@ link register save eliminated.
  33              		.loc 1 85 0
  34 0000 40F20001 		movw	r1, #:lower16:.LANCHOR0
  35              		.loc 1 86 0
  36 0004 40F20003 		movw	r3, #:lower16:.LANCHOR1
  37              		.loc 1 85 0
  38 0008 C0F20001 		movt	r1, #:upper16:.LANCHOR0
  39 000c 40F20000 		movw	r0, #:lower16:__heap_base__
  40              		.loc 1 86 0
  41 0010 C0F20003 		movt	r3, #:upper16:.LANCHOR1
  42 0014 40F20002 		movw	r2, #:lower16:__heap_end__
  43              		.loc 1 85 0
  44 0018 C0F20000 		movt	r0, #:upper16:__heap_base__
  45              		.loc 1 86 0
  46 001c C0F20002 		movt	r2, #:upper16:__heap_end__
  47              		.loc 1 85 0
  48 0020 0860     		str	r0, [r1]
  49              		.loc 1 86 0
  50 0022 1A60     		str	r2, [r3]
  51 0024 7047     		bx	lr
  52              		.cfi_endproc
  53              	.LFE239:
  54              		.size	_core_init, .-_core_init
  55 0026 00BFAFF3 		.section	.text.chCoreAllocAlignedI,"ax",%progbits
  55      0080AFF3 
  55      0080
ARM GAS  /tmp/ccw9r8gd.s 			page 2


  56              		.align	2
  57              		.p2align 4,,15
  58              		.global	chCoreAllocAlignedI
  59              		.thumb
  60              		.thumb_func
  61              		.type	chCoreAllocAlignedI, %function
  62              	chCoreAllocAlignedI:
  63              	.LFB240:
  64              		.loc 1 108 0
  65              		.cfi_startproc
  66              		@ args = 0, pretend = 0, frame = 0
  67              		@ frame_needed = 0, uses_anonymous_args = 0
  68              		@ link register save eliminated.
  69              	.LVL0:
  70              		.loc 1 115 0
  71 0000 40F20003 		movw	r3, #:lower16:.LANCHOR0
  72 0004 C0F20003 		movt	r3, #:upper16:.LANCHOR0
  73              		.loc 1 108 0
  74 0008 30B4     		push	{r4, r5}
  75              		.cfi_def_cfa_offset 8
  76              		.cfi_offset 4, -8
  77              		.cfi_offset 5, -4
  78              		.loc 1 117 0
  79 000a 40F20002 		movw	r2, #:lower16:.LANCHOR1
  80              		.loc 1 115 0
  81 000e 1C68     		ldr	r4, [r3]
  82              		.loc 1 117 0
  83 0010 C0F20002 		movt	r2, #:upper16:.LANCHOR1
  84              		.loc 1 115 0
  85 0014 013C     		subs	r4, r4, #1
  86              		.loc 1 114 0
  87 0016 451E     		subs	r5, r0, #1
  88              		.loc 1 117 0
  89 0018 1268     		ldr	r2, [r2]
  90              		.loc 1 115 0
  91 001a 6018     		adds	r0, r4, r1
  92              	.LVL1:
  93              		.loc 1 114 0
  94 001c 4C42     		negs	r4, r1
  95              		.loc 1 115 0
  96 001e 2040     		ands	r0, r0, r4
  97              		.loc 1 114 0
  98 0020 2944     		add	r1, r1, r5
  99              	.LVL2:
 100 0022 0C40     		ands	r4, r4, r1
 101              	.LVL3:
 102              		.loc 1 117 0
 103 0024 121A     		subs	r2, r2, r0
 104 0026 9442     		cmp	r4, r2
 105              		.loc 1 120 0
 106 0028 9ABF     		itte	ls
 107 002a 2418     		addls	r4, r4, r0
 108              	.LVL4:
 109 002c 1C60     		strls	r4, [r3]
 110              		.loc 1 118 0
 111 002e 0020     		movhi	r0, #0
 112              	.LVL5:
ARM GAS  /tmp/ccw9r8gd.s 			page 3


 113              		.loc 1 123 0
 114 0030 30BC     		pop	{r4, r5}
 115 0032 7047     		bx	lr
 116              		.cfi_endproc
 117              	.LFE240:
 118              		.size	chCoreAllocAlignedI, .-chCoreAllocAlignedI
 119 0034 AFF30080 		.section	.text.chCoreAllocAligned,"ax",%progbits
 119      AFF30080 
 119      AFF30080 
 120              		.align	2
 121              		.p2align 4,,15
 122              		.global	chCoreAllocAligned
 123              		.thumb
 124              		.thumb_func
 125              		.type	chCoreAllocAligned, %function
 126              	chCoreAllocAligned:
 127              	.LFB241:
 128              		.loc 1 137 0
 129              		.cfi_startproc
 130              		@ args = 0, pretend = 0, frame = 0
 131              		@ frame_needed = 0, uses_anonymous_args = 0
 132              		@ link register save eliminated.
 133              	.LVL6:
 134 0000 30B4     		push	{r4, r5}
 135              		.cfi_def_cfa_offset 8
 136              		.cfi_offset 4, -8
 137              		.cfi_offset 5, -4
 138              	.LBB26:
 139              	.LBB27:
 140              	.LBB28:
 141              	.LBB29:
 142              		.file 2 "../../../../../ChibiOS-RT/os/common/ext/CMSIS/include/cmsis_gcc.h"
 143              		.loc 2 264 0
 144 0002 2023     		movs	r3, #32
 145              	@ 264 "../../../../../ChibiOS-RT/os/common/ext/CMSIS/include/cmsis_gcc.h" 1
 146 0004 83F31188 		MSR basepri, r3
 147              	@ 0 "" 2
 148              	.LVL7:
 149              		.thumb
 150              	.LBE29:
 151              	.LBE28:
 152              	.LBE27:
 153              	.LBE26:
 154              	.LBB30:
 155              	.LBB31:
 156              		.loc 1 115 0
 157 0008 40F20003 		movw	r3, #:lower16:.LANCHOR0
 158 000c C0F20003 		movt	r3, #:upper16:.LANCHOR0
 159              		.loc 1 117 0
 160 0010 40F20002 		movw	r2, #:lower16:.LANCHOR1
 161              		.loc 1 115 0
 162 0014 1C68     		ldr	r4, [r3]
 163              		.loc 1 117 0
 164 0016 C0F20002 		movt	r2, #:upper16:.LANCHOR1
 165              		.loc 1 115 0
 166 001a 013C     		subs	r4, r4, #1
 167 001c 0C44     		add	r4, r4, r1
ARM GAS  /tmp/ccw9r8gd.s 			page 4


 168              		.loc 1 114 0
 169 001e 4D1E     		subs	r5, r1, #1
 170              		.loc 1 117 0
 171 0020 1268     		ldr	r2, [r2]
 172              		.loc 1 114 0
 173 0022 4942     		negs	r1, r1
 174              	.LVL8:
 175 0024 0544     		add	r5, r5, r0
 176              		.loc 1 115 0
 177 0026 04EA0100 		and	r0, r4, r1
 178              	.LVL9:
 179              		.loc 1 117 0
 180 002a 121A     		subs	r2, r2, r0
 181              		.loc 1 114 0
 182 002c 2940     		ands	r1, r1, r5
 183              	.LVL10:
 184              		.loc 1 117 0
 185 002e 9142     		cmp	r1, r2
 186              		.loc 1 120 0
 187 0030 9ABF     		itte	ls
 188 0032 0918     		addls	r1, r1, r0
 189              	.LVL11:
 190 0034 1960     		strls	r1, [r3]
 191              		.loc 1 118 0
 192 0036 0020     		movhi	r0, #0
 193              	.LVL12:
 194              	.LBE31:
 195              	.LBE30:
 196              	.LBB32:
 197              	.LBB33:
 198              	.LBB34:
 199              	.LBB35:
 200              	.LBB36:
 201              		.loc 2 264 0
 202 0038 0023     		movs	r3, #0
 203              	@ 264 "../../../../../ChibiOS-RT/os/common/ext/CMSIS/include/cmsis_gcc.h" 1
 204 003a 83F31188 		MSR basepri, r3
 205              	@ 0 "" 2
 206              		.thumb
 207              	.LBE36:
 208              	.LBE35:
 209              	.LBE34:
 210              	.LBE33:
 211              	.LBE32:
 212              		.loc 1 145 0
 213 003e 30BC     		pop	{r4, r5}
 214              	.LVL13:
 215 0040 7047     		bx	lr
 216              		.cfi_endproc
 217              	.LFE241:
 218              		.size	chCoreAllocAligned, .-chCoreAllocAligned
 219 0042 00BFAFF3 		.section	.text.chCoreGetStatusX,"ax",%progbits
 219      0080AFF3 
 219      0080AFF3 
 219      0080
 220              		.align	2
 221              		.p2align 4,,15
ARM GAS  /tmp/ccw9r8gd.s 			page 5


 222              		.global	chCoreGetStatusX
 223              		.thumb
 224              		.thumb_func
 225              		.type	chCoreGetStatusX, %function
 226              	chCoreGetStatusX:
 227              	.LFB242:
 228              		.loc 1 154 0
 229              		.cfi_startproc
 230              		@ args = 0, pretend = 0, frame = 0
 231              		@ frame_needed = 0, uses_anonymous_args = 0
 232              		@ link register save eliminated.
 233              		.loc 1 157 0
 234 0000 40F20002 		movw	r2, #:lower16:.LANCHOR1
 235 0004 40F20003 		movw	r3, #:lower16:.LANCHOR0
 236 0008 C0F20002 		movt	r2, #:upper16:.LANCHOR1
 237 000c C0F20003 		movt	r3, #:upper16:.LANCHOR0
 238 0010 1068     		ldr	r0, [r2]
 239 0012 1B68     		ldr	r3, [r3]
 240              		.loc 1 159 0
 241 0014 C01A     		subs	r0, r0, r3
 242 0016 7047     		bx	lr
 243              		.cfi_endproc
 244              	.LFE242:
 245              		.size	chCoreGetStatusX, .-chCoreGetStatusX
 246 0018 AFF30080 		.section	.bss.endmem,"aw",%nobits
 246      AFF30080 
 247              		.align	2
 248              		.set	.LANCHOR1,. + 0
 249              		.type	endmem, %object
 250              		.size	endmem, 4
 251              	endmem:
 252 0000 00000000 		.space	4
 253              		.section	.bss.nextmem,"aw",%nobits
 254              		.align	2
 255              		.set	.LANCHOR0,. + 0
 256              		.type	nextmem, %object
 257              		.size	nextmem, 4
 258              	nextmem:
 259 0000 00000000 		.space	4
 260              		.text
 261              	.Letext0:
 262              		.file 3 "/usr/lib/gcc/arm-none-eabi/4.8.2/include/stddef.h"
 263              		.file 4 "/usr/include/newlib/machine/_default_types.h"
 264              		.file 5 "/usr/include/newlib/stdint.h"
 265              		.file 6 "../../../../../ChibiOS-RT/os/common/ports/ARMCMx/compilers/GCC/chtypes.h"
 266              		.file 7 "../../../../../ChibiOS-RT/os/rt/include/chsystypes.h"
 267              		.file 8 "../../../../../ChibiOS-RT/os/rt/include/chschd.h"
 268              		.file 9 "../../../../../ChibiOS-RT/os/common/ports/ARMCMx/chcore.h"
 269              		.file 10 "../../../../../ChibiOS-RT/os/common/ports/ARMCMx/chcore_v7m.h"
 270              		.file 11 "../../../../../ChibiOS-RT/os/rt/include/chtrace.h"
 271              		.file 12 "../../../../../ChibiOS-RT/os/rt/include/chtm.h"
 272              		.file 13 "../../../../../ChibiOS-RT/os/rt/include/chsem.h"
 273              		.file 14 "../../../../../ChibiOS-RT/os/rt/include/chmtx.h"
 274              		.file 15 "../../../../../ChibiOS-RT/os/rt/include/chsys.h"
 275              		.file 16 "../../../../../ChibiOS-RT/os/common/ext/CMSIS/include/core_cm4.h"