ARM GAS  /tmp/ccXcQhOY.s 			page 1


   1              		.syntax unified
   2              		.cpu cortex-m4
   3              		.fpu softvfp
   4              		.eabi_attribute 20, 1
   5              		.eabi_attribute 21, 1
   6              		.eabi_attribute 23, 3
   7              		.eabi_attribute 24, 1
   8              		.eabi_attribute 25, 1
   9              		.eabi_attribute 26, 1
  10              		.eabi_attribute 30, 2
  11              		.eabi_attribute 34, 1
  12              		.eabi_attribute 18, 4
  13              		.thumb
  14              		.file	"chmsg.c"
  15              		.text
  16              	.Ltext0:
  17              		.cfi_sections	.debug_frame
  18              		.section	.text.chMsgSend,"ax",%progbits
  19              		.align	2
  20              		.p2align 4,,15
  21              		.global	chMsgSend
  22              		.thumb
  23              		.thumb_func
  24              		.type	chMsgSend, %function
  25              	chMsgSend:
  26              	.LFB239:
  27              		.file 1 "../../../../../ChibiOS-RT/os/rt/src/chmsg.c"
  28              		.loc 1 87 0
  29              		.cfi_startproc
  30              		@ args = 0, pretend = 0, frame = 0
  31              		@ frame_needed = 0, uses_anonymous_args = 0
  32              	.LVL0:
  33              		.loc 1 88 0
  34 0000 40F20003 		movw	r3, #:lower16:ch
  35 0004 C0F20003 		movt	r3, #:upper16:ch
  36              		.loc 1 87 0
  37 0008 10B5     		push	{r4, lr}
  38              		.cfi_def_cfa_offset 8
  39              		.cfi_offset 4, -8
  40              		.cfi_offset 14, -4
  41              		.loc 1 88 0
  42 000a 9C69     		ldr	r4, [r3, #24]
  43              	.LVL1:
  44              	.LBB52:
  45              	.LBB53:
  46              	.LBB54:
  47              	.LBB55:
  48              		.file 2 "../../../../../ChibiOS-RT/os/common/ext/CMSIS/include/cmsis_gcc.h"
  49              		.loc 2 264 0
  50 000c 2023     		movs	r3, #32
  51              	@ 264 "../../../../../ChibiOS-RT/os/common/ext/CMSIS/include/cmsis_gcc.h" 1
  52 000e 83F31188 		MSR basepri, r3
  53              	@ 0 "" 2
  54              		.thumb
  55              	.LBE55:
  56              	.LBE54:
  57              	.LBE53:
ARM GAS  /tmp/ccXcQhOY.s 			page 2


  58              	.LBE52:
  59              		.loc 1 93 0
  60 0012 6162     		str	r1, [r4, #36]
  61              	.LVL2:
  62              		.loc 1 95 0
  63 0014 90F82020 		ldrb	r2, [r0, #32]	@ zero_extendqisi2
  64              	.LBB56:
  65              	.LBB57:
  66              		.file 3 "../../../../../ChibiOS-RT/os/rt/include/chschd.h"
  67              		.loc 3 612 0
  68 0018 036B     		ldr	r3, [r0, #48]
  69              	.LBE57:
  70              	.LBE56:
  71              		.loc 1 94 0
  72 001a 00F12C01 		add	r1, r0, #44
  73              	.LVL3:
  74              		.loc 1 95 0
  75 001e 0E2A     		cmp	r2, #14
  76              	.LBB59:
  77              	.LBB58:
  78              		.loc 3 612 0
  79 0020 6360     		str	r3, [r4, #4]
  80              		.loc 3 611 0
  81 0022 2160     		str	r1, [r4]
  82              		.loc 3 613 0
  83 0024 1C60     		str	r4, [r3]
  84              		.loc 3 614 0
  85 0026 0463     		str	r4, [r0, #48]
  86              	.LVL4:
  87              	.LBE58:
  88              	.LBE59:
  89              		.loc 1 95 0
  90 0028 07D0     		beq	.L4
  91              	.LVL5:
  92              	.L2:
  93              		.loc 1 98 0
  94 002a 0C20     		movs	r0, #12
  95 002c FFF7FEFF 		bl	chSchGoSleepS
  96              	.LVL6:
  97              		.loc 1 99 0
  98 0030 606A     		ldr	r0, [r4, #36]
  99              	.LVL7:
 100              	.LBB60:
 101              	.LBB61:
 102              	.LBB62:
 103              	.LBB63:
 104              	.LBB64:
 105              		.loc 2 264 0
 106 0032 0023     		movs	r3, #0
 107              	@ 264 "../../../../../ChibiOS-RT/os/common/ext/CMSIS/include/cmsis_gcc.h" 1
 108 0034 83F31188 		MSR basepri, r3
 109              	@ 0 "" 2
 110              		.thumb
 111              	.LBE64:
 112              	.LBE63:
 113              	.LBE62:
 114              	.LBE61:
ARM GAS  /tmp/ccXcQhOY.s 			page 3


 115              	.LBE60:
 116              		.loc 1 103 0
 117 0038 10BD     		pop	{r4, pc}
 118              	.LVL8:
 119              	.L4:
 120              		.loc 1 96 0
 121 003a FFF7FEFF 		bl	chSchReadyI
 122              	.LVL9:
 123 003e F4E7     		b	.L2
 124              		.cfi_endproc
 125              	.LFE239:
 126              		.size	chMsgSend, .-chMsgSend
 127              		.section	.text.chMsgWait,"ax",%progbits
 128              		.align	2
 129              		.p2align 4,,15
 130              		.global	chMsgWait
 131              		.thumb
 132              		.thumb_func
 133              		.type	chMsgWait, %function
 134              	chMsgWait:
 135              	.LFB240:
 136              		.loc 1 119 0
 137              		.cfi_startproc
 138              		@ args = 0, pretend = 0, frame = 0
 139              		@ frame_needed = 0, uses_anonymous_args = 0
 140              	.LVL10:
 141 0000 10B5     		push	{r4, lr}
 142              		.cfi_def_cfa_offset 8
 143              		.cfi_offset 4, -8
 144              		.cfi_offset 14, -4
 145              	.LBB65:
 146              	.LBB66:
 147              	.LBB67:
 148              	.LBB68:
 149              		.loc 2 264 0
 150 0002 2023     		movs	r3, #32
 151              	@ 264 "../../../../../ChibiOS-RT/os/common/ext/CMSIS/include/cmsis_gcc.h" 1
 152 0004 83F31188 		MSR basepri, r3
 153              	@ 0 "" 2
 154              		.thumb
 155              	.LBE68:
 156              	.LBE67:
 157              	.LBE66:
 158              	.LBE65:
 159              		.loc 1 123 0
 160 0008 40F20004 		movw	r4, #:lower16:ch
 161 000c C0F20004 		movt	r4, #:upper16:ch
 162 0010 A269     		ldr	r2, [r4, #24]
 163              	.LVL11:
 164              	.LBB69:
 165              	.LBB70:
 166              		.file 4 "../../../../../ChibiOS-RT/os/rt/include/chmsg.h"
 167              		.loc 4 83 0
 168 0012 1346     		mov	r3, r2
 169 0014 53F82C0F 		ldr	r0, [r3, #44]!
 170              	.LBE70:
 171              	.LBE69:
ARM GAS  /tmp/ccXcQhOY.s 			page 4


 172              		.loc 1 123 0
 173 0018 9842     		cmp	r0, r3
 174 001a 09D0     		beq	.L7
 175              	.LVL12:
 176              	.L6:
 177              	.LBB71:
 178              	.LBB72:
 179              		.loc 3 620 0
 180 001c 0168     		ldr	r1, [r0]
 181              	.LBE72:
 182              	.LBE71:
 183              		.loc 1 127 0
 184 001e 0D24     		movs	r4, #13
 185              	.LBB74:
 186              	.LBB73:
 187              		.loc 3 620 0
 188 0020 D162     		str	r1, [r2, #44]
 189              		.loc 3 621 0
 190 0022 4B60     		str	r3, [r1, #4]
 191              	.LBE73:
 192              	.LBE74:
 193              	.LBB75:
 194              	.LBB76:
 195              	.LBB77:
 196              	.LBB78:
 197              	.LBB79:
 198              		.loc 2 264 0
 199 0024 0022     		movs	r2, #0
 200              	.LBE79:
 201              	.LBE78:
 202              	.LBE77:
 203              	.LBE76:
 204              	.LBE75:
 205              		.loc 1 127 0
 206 0026 80F82040 		strb	r4, [r0, #32]
 207              	.LVL13:
 208              	.LBB84:
 209              	.LBB83:
 210              	.LBB82:
 211              	.LBB81:
 212              	.LBB80:
 213              		.loc 2 264 0
 214              	@ 264 "../../../../../ChibiOS-RT/os/common/ext/CMSIS/include/cmsis_gcc.h" 1
 215 002a 82F31188 		MSR basepri, r2
 216              	@ 0 "" 2
 217              		.thumb
 218              	.LBE80:
 219              	.LBE81:
 220              	.LBE82:
 221              	.LBE83:
 222              	.LBE84:
 223              		.loc 1 131 0
 224 002e 10BD     		pop	{r4, pc}
 225              	.LVL14:
 226              	.L7:
 227              		.loc 1 124 0
 228 0030 0E20     		movs	r0, #14
ARM GAS  /tmp/ccXcQhOY.s 			page 5


 229 0032 FFF7FEFF 		bl	chSchGoSleepS
 230              	.LVL15:
 231 0036 A269     		ldr	r2, [r4, #24]
 232 0038 D06A     		ldr	r0, [r2, #44]
 233 003a 02F12C03 		add	r3, r2, #44
 234 003e EDE7     		b	.L6
 235              		.cfi_endproc
 236              	.LFE240:
 237              		.size	chMsgWait, .-chMsgWait
 238              		.section	.text.chMsgRelease,"ax",%progbits
 239              		.align	2
 240              		.p2align 4,,15
 241              		.global	chMsgRelease
 242              		.thumb
 243              		.thumb_func
 244              		.type	chMsgRelease, %function
 245              	chMsgRelease:
 246              	.LFB241:
 247              		.loc 1 143 0
 248              		.cfi_startproc
 249              		@ args = 0, pretend = 0, frame = 0
 250              		@ frame_needed = 0, uses_anonymous_args = 0
 251              	.LVL16:
 252 0000 08B5     		push	{r3, lr}
 253              		.cfi_def_cfa_offset 8
 254              		.cfi_offset 3, -8
 255              		.cfi_offset 14, -4
 256              	.LBB85:
 257              	.LBB86:
 258              	.LBB87:
 259              	.LBB88:
 260              		.loc 2 264 0
 261 0002 2023     		movs	r3, #32
 262              	@ 264 "../../../../../ChibiOS-RT/os/common/ext/CMSIS/include/cmsis_gcc.h" 1
 263 0004 83F31188 		MSR basepri, r3
 264              	@ 0 "" 2
 265              	.LVL17:
 266              		.thumb
 267              	.LBE88:
 268              	.LBE87:
 269              	.LBE86:
 270              	.LBE85:
 271              	.LBB89:
 272              	.LBB90:
 273              		.loc 4 117 0
 274 0008 FFF7FEFF 		bl	chSchWakeupS
 275              	.LVL18:
 276              	.LBE90:
 277              	.LBE89:
 278              	.LBB91:
 279              	.LBB92:
 280              	.LBB93:
 281              	.LBB94:
 282              	.LBB95:
 283              		.loc 2 264 0
 284 000c 0023     		movs	r3, #0
 285              	@ 264 "../../../../../ChibiOS-RT/os/common/ext/CMSIS/include/cmsis_gcc.h" 1
ARM GAS  /tmp/ccXcQhOY.s 			page 6


 286 000e 83F31188 		MSR basepri, r3
 287              	@ 0 "" 2
 288              		.thumb
 289 0012 08BD     		pop	{r3, pc}
 290              	.LBE95:
 291              	.LBE94:
 292              	.LBE93:
 293              	.LBE92:
 294              	.LBE91:
 295              		.cfi_endproc
 296              	.LFE241:
 297              		.size	chMsgRelease, .-chMsgRelease
 298 0014 AFF30080 		.text
 298      AFF30080 
 298      AFF30080 
 299              	.Letext0:
 300              		.file 5 "/usr/include/newlib/machine/_default_types.h"
 301              		.file 6 "/usr/include/newlib/stdint.h"
 302              		.file 7 "../../../../../ChibiOS-RT/os/common/ports/ARMCMx/compilers/GCC/chtypes.h"
 303              		.file 8 "../../../../../ChibiOS-RT/os/rt/include/chsystypes.h"
 304              		.file 9 "../../../../../ChibiOS-RT/os/common/ports/ARMCMx/chcore.h"
 305              		.file 10 "../../../../../ChibiOS-RT/os/common/ports/ARMCMx/chcore_v7m.h"
 306              		.file 11 "../../../../../ChibiOS-RT/os/rt/include/chtrace.h"
 307              		.file 12 "../../../../../ChibiOS-RT/os/rt/include/chtm.h"
 308              		.file 13 "../../../../../ChibiOS-RT/os/rt/include/chsem.h"
 309              		.file 14 "../../../../../ChibiOS-RT/os/rt/include/chmtx.h"
 310              		.file 15 "../../../../../ChibiOS-RT/os/rt/include/chsys.h"
 311              		.file 16 "../../../../../ChibiOS-RT/os/common/ext/CMSIS/include/core_cm4.h"