ARM GAS  /tmp/ccXcQhOY.s 			page 1


   1              		.syntax unified
   2              		.cpu cortex-m4
   3              		.fpu softvfp
   4              		.eabi_attribute 20, 1
   5              		.eabi_attribute 21, 1
   6              		.eabi_attribute 23, 3
   7              		.eabi_attribute 24, 1
   8              		.eabi_attribute 25, 1
   9              		.eabi_attribute 26, 1
  10              		.eabi_attribute 30, 2
  11              		.eabi_attribute 34, 1
  12              		.eabi_attribute 18, 4
  13              		.thumb
  14              		.file	"chmsg.c"
  15              		.text
  16              	.Ltext0:
  17              		.cfi_sections	.debug_frame
  18              		.section	.text.chMsgSend,"ax",%progbits
  19              		.align	2
  20              		.p2align 4,,15
  21              		.global	chMsgSend
  22              		.thumb
  23              		.thumb_func
  24              		.type	chMsgSend, %function
  25              	chMsgSend:
  26              	.LFB239:
  27              		.file 1 "../../../../../ChibiOS-RT/os/rt/src/chmsg.c"
  28              		.loc 1 87 0
  29              		.cfi_startproc
  30              		@ args = 0, pretend = 0, frame = 0
  31              		@ frame_needed = 0, uses_anonymous_args = 0
  32              	.LVL0:
  33              		.loc 1 88 0
  34 0000 40F20003 		movw	r3, #:lower16:ch
  35 0004 C0F20003 		movt	r3, #:upper16:ch
  36              		.loc 1 87 0
  37 0008 10B5     		push	{r4, lr}
  38              		.cfi_def_cfa_offset 8
  39              		.cfi_offset 4, -8
  40              		.cfi_offset 14, -4
  41              		.loc 1 88 0
  42 000a 9C69     		ldr	r4, [r3, #24]
  43              	.LVL1:
  44              	.LBB52:
  45              	.LBB53:
  46              	.LBB54:
  47              	.LBB55:
  48              		.file 2 "../../../../../ChibiOS-RT/os/common/ext/CMSIS/include/cmsis_gcc.h"
  49              		.loc 2 264 0
  50 000c 2023     		movs	r3, #32
  51              	@ 264 "../../../../../ChibiOS-RT/os/common/ext/CMSIS/include/cmsis_gcc.h" 1
  52 000e 83F31188 		MSR basepri, r3
  53              	@ 0 "" 2
  54              		.thumb
  55              	.LBE55:
  56              	.LBE54:
  57              	.LBE53:
ARM GAS  /tmp/ccXcQhOY.s 			page 2


  58              	.LBE52:
  59              		.loc 1 93 0
  60 0012 6162     		str	r1, [r4, #36]
  61              	.LVL2:
  62              		.loc 1 95 0
  63 0014 90F82020 		ldrb	r2, [r0, #32]	@ zero_extendqisi2
  64              	.LBB56:
  65              	.LBB57:
  66              		.file 3 "../../../../../ChibiOS-RT/os/rt/include/chschd.h"
  67              		.loc 3 612 0
  68 0018 036B     		ldr	r3, [r0, #48]
  69              	.LBE57:
  70              	.LBE56:
  71              		.loc 1 94 0
  72 001a 00F12C01 		add	r1, r0, #44
  73              	.LVL3:
  74              		.loc 1 95 0
  75 001e 0E2A     		cmp	r2, #14
  76              	.LBB59:
  77              	.LBB58:
  78              		.loc 3 612 0
  79 0020 6360     		str	r3, [r4, #4]
  80              		.loc 3 611 0
  81 0022 2160     		str	r1, [r4]
  82              		.loc 3 613 0
  83 0024 1C60     		str	r4, [r3]
  84              		.loc 3 614 0
  85 0026 0463     		str	r4, [r0, #48]
  86              	.LVL4:
  87              	.LBE58:
  88              	.LBE59:
  89              		.loc 1 95 0
  90 0028 07D0     		beq	.L4
  91              	.LVL5:
  92              	.L2:
  93              		.loc 1 98 0
  94 002a 0C20     		movs	r0, #12
  95 002c FFF7FEFF 		bl	chSchGoSleepS
  96              	.LVL6:
  97              		.loc 1 99 0
  98 0030 606A     		ldr	r0, [r4, #36]
  99              	.LVL7:
 100              	.LBB60:
 101              	.LBB61:
 102              	.LBB62:
 103              	.LBB63:
 104              	.LBB64:
 105              		.loc 2 264 0
 106 0032 0023     		movs	r3, #0
 107              	@ 264 "../../../../../ChibiOS-RT/os/common/ext/CMSIS/include/cmsis_gcc.h" 1
 108 0034 83F31188 		MSR basepri, r3
 109              	@ 0 "" 2
 110              		.thumb
 111              	.LBE64:
 112              	.LBE63:
 113              	.LBE62:
 114              	.LBE61:
ARM GAS  /tmp/ccXcQhOY.s 			page 3


 115              	.LBE60:
 116              		.loc 1 103 0
 117 0038 10BD     		pop	{r4, pc}
 118              	.LVL8:
 119              	.L4:
 120              		.loc 1 96 0
 121 003a FFF7FEFF 		bl	chSchReadyI
 122              	.LVL9:
 123 003e F4E7     		b	.L2
 124              		.cfi_endproc
 125              	.LFE239:
 126              		.size	chMsgSend, .-chMsgSend
 127              		.section	.text.chMsgWait,"ax",%progbits
 128              		.align	2
 129              		.p2align 4,,15
 130              		.global	chMsgWait
 131              		.thumb
 132              		.thumb_func
 133              		.type	chMsgWait, %function
 134              	chMsgWait:
 135              	.LFB240:
 136              		.loc 1 119 0
 137              		.cfi_startproc
 138              		@ args = 0, pretend = 0, frame = 0
 139              		@ frame_needed = 0, uses_anonymous_args = 0
 140              	.LVL10:
 141 0000 10B5     		push	{r4, lr}
 142              		.cfi_def_cfa_offset 8
 143              		.cfi_offset 4, -8
 144              		.cfi_offset 14, -4
 145              	.LBB65:
 146              	.LBB66:
 147              	.LBB67:
 148              	.LBB68:
 149              		.loc 2 264 0
 150 0002 2023     		movs	r3, #32
 151              	@ 264 "../../../../../ChibiOS-RT/os/common/ext/CMSIS/include/cmsis_gcc.h" 1
 152 0004 83F31188 		MSR basepri, r3
 153              	@ 0 "" 2
 154              		.thumb
 155              	.LBE68:
 156              	.LBE67:
 157              	.LBE66:
 158              	.LBE65:
 159              		.loc 1 123 0
 160 0008 40F20004 		movw	r4, #:lower16:ch
 161 000c C0F20004 		movt	r4, #:upper16:ch
 162 0010 A269     		ldr	r2, [r4, #24]
 163              	.LVL11:
 164              	.LBB69:
 165              	.LBB70:
 166              		.file 4 "../../../../../ChibiOS-RT/os/rt/include/chmsg.h"
 167              		.loc 4 83 0
 168 0012 1346     		mov	r3, r2
 169 0014 53F82C0F 		ldr	r0, [r3, #44]!
 170              	.LBE70:
 171              	.LBE69:
ARM GAS  /tmp/ccXcQhOY.s 			page 4


 172              		.loc 1 123 0
 173 0018 9842     		cmp	r0, r3
 174 001a 09D0     		beq	.L7
 175              	.LVL12:
 176              	.L6:
 177              	.LBB71:
 178              	.LBB72:
 179              		.loc 3 620 0
 180 001c 0168     		ldr	r1, [r0]
 181              	.LBE72:
 182              	.LBE71:
 183              		.loc 1 127 0
 184 001e 0D24     		movs	r4, #13
 185              	.LBB74:
 186              	.LBB73:
 187              		.loc 3 620 0
 188 0020 D162     		str	r1, [r2, #44]
 189              		.loc 3 621 0
 190 0022 4B60     		str	r3, [r1, #4]
 191              	.LBE73:
 192              	.LBE74:
 193              	.LBB75:
 194              	.LBB76:
 195              	.LBB77:
 196              	.LBB78:
 197              	.LBB79:
 198              		.loc 2 264 0
 199 0024 0022     		movs	r2, #0
 200              	.LBE79:
 201              	.LBE78:
 202              	.LBE77:
 203              	.LBE76:
 204              	.LBE75:
 205              		.loc 1 127 0
 206 0026 80F82040 		strb	r4, [r0, #32]
 207              	.LVL13:
 208              	.LBB84:
 209              	.LBB83:
 210              	.LBB82:
 211              	.LBB81:
 212              	.LBB80:
 213              		.loc 2 264 0
 214              	@ 264 "../../../../../ChibiOS-RT/os/common/ext/CMSIS/include/cmsis_gcc.h" 1
 215 002a 82F31188 		MSR basepri, r2
 216              	@ 0 "" 2
 217              		.thumb
 218              	.LBE80:
 219              	.LBE81:
 220              	.LBE82:
 221              	.LBE83:
 222              	.LBE84:
 223              		.loc 1 131 0
 224 002e 10BD     		pop	{r4, pc}
 225              	.LVL14:
 226              	.L7:
 227              		.loc 1 124 0
 228 0030 0E20     		movs	r0, #14
ARM GAS  /tmp/ccXcQhOY.s 			page 5


 229 0032 FFF7FEFF 		bl	chSchGoSleepS
 230              	.LVL15:
 231 0036 A269     		ldr	r2, [r4, #24]
 232 0038 D06A     		ldr	r0, [r2, #44]
 233 003a 02F12C03 		add	r3, r2, #44
 234 003e EDE7     		b	.L6
 235              		.cfi_endproc
 236              	.LFE240:
 237              		.size	chMsgWait, .-chMsgWait
 238              		.section	.text.chMsgRelease,"ax",%progbits
 239              		.align	2
 240              		.p2align 4,,15
 241              		.global	chMsgRelease
 242              		.thumb
 243              		.thumb_func
 244              		.type	chMsgRelease, %function
 245              	chMsgRelease:
 246              	.LFB241:
 247              		.loc 1 143 0
 248              		.cfi_startproc
 249              		@ args = 0, pretend = 0, frame = 0
 250              		@ frame_needed = 0, uses_anonymous_args = 0
 251              	.LVL16:
 252 0000 08B5     		push	{r3, lr}
 253              		.cfi_def_cfa_offset 8
 254              		.cfi_offset 3, -8
 255              		.cfi_offset 14, -4
 256              	.LBB85:
 257              	.LBB86:
 258              	.LBB87:
 259              	.LBB88:
 260              		.loc 2 264 0
 261 0002 2023     		movs	r3, #32
 262              	@ 264 "../../../../../ChibiOS-RT/os/common/ext/CMSIS/include/cmsis_gcc.h" 1
 263 0004 83F31188 		MSR basepri, r3
 264              	@ 0 "" 2
 265              	.LVL17:
 266              		.thumb
 267              	.LBE88:
 268              	.LBE87:
 269              	.LBE86:
 270              	.LBE85:
 271              	.LBB89:
 272              	.LBB90:
 273              		.loc 4 117 0
 274 0008 FFF7FEFF 		bl	chSchWakeupS
 275              	.LVL18:
 276              	.LBE90:
 277              	.LBE89:
 278              	.LBB91:
 279              	.LBB92:
 280              	.LBB93:
 281              	.LBB94:
 282              	.LBB95:
 283              		.loc 2 264 0
 284 000c 0023     		movs	r3, #0
 285              	@ 264 "../../../../../ChibiOS-RT/os/common/ext/CMSIS/include/cmsis_gcc.h" 1
ARM GAS  /tmp/ccXcQhOY.s 			page 6


 286 000e 83F31188 		MSR basepri, r3
 287              	@ 0 "" 2
 288              		.thumb
 289 0012 08BD     		pop	{r3, pc}
 290              	.LBE95:
 291              	.LBE94:
 292              	.LBE93:
 293              	.LBE92:
 294              	.LBE91:
 295              		.cfi_endproc
 296              	.LFE241:
 297              		.size	chMsgRelease, .-chMsgRelease
 298 0014 AFF30080 		.text
 298      AFF30080 
 298      AFF30080 
 299              	.Letext0:
 300              		.file 5 "/usr/include/newlib/machine/_default_types.h"
 301              		.file 6 "/usr/include/newlib/stdint.h"
 302              		.file 7 "../../../../../ChibiOS-RT/os/common/ports/ARMCMx/compilers/GCC/chtypes.h"
 303              		.file 8 "../../../../../ChibiOS-RT/os/rt/include/chsystypes.h"
 304              		.file 9 "../../../../../ChibiOS-RT/os/common/ports/ARMCMx/chcore.h"
 305              		.file 10 "../../../../../ChibiOS-RT/os/common/ports/ARMCMx/chcore_v7m.h"
 306              		.file 11 "../../../../../ChibiOS-RT/os/rt/include/chtrace.h"
 307              		.file 12 "../../../../../ChibiOS-RT/os/rt/include/chtm.h"
 308              		.file 13 "../../../../../ChibiOS-RT/os/rt/include/chsem.h"
 309              		.file 14 "../../../../../ChibiOS-RT/os/rt/include/chmtx.h"
 310              		.file 15 "../../../../../ChibiOS-RT/os/rt/include/chsys.h"
 311              		.file 16 "../../../../../ChibiOS-RT/os/common/ext/CMSIS/include/core_cm4.h"
 312              		.section	.debug_info,"",%progbits
 313              	.Ldebug_info0:
 314 0000 FF0B0000 		.4byte	0xbff
 315 0004 0400     		.2byte	0x4
 316 0006 00000000 		.4byte	.Ldebug_abbrev0
 317 000a 04       		.byte	0x4
 318 000b 01       		.uleb128 0x1
 319 000c 63030000 		.4byte	.LASF118
 320 0010 01       		.byte	0x1
 321 0011 2E040000 		.4byte	.LASF119
 322 0015 FC000000 		.4byte	.LASF120
 323 0019 48000000 		.4byte	.Ldebug_ranges0+0x48
 324 001d 00000000 		.4byte	0
 325 0021 00000000 		.4byte	.Ldebug_line0
 326 0025 02       		.uleb128 0x2
 327 0026 04       		.byte	0x4
 328 0027 05       		.byte	0x5
 329 0028 696E7400 		.ascii	"int\000"
 330 002c 03       		.uleb128 0x3
 331 002d 04       		.byte	0x4
 332 002e 07       		.byte	0x7
 333 002f 64000000 		.4byte	.LASF0
 334 0033 03       		.uleb128 0x3
 335 0034 01       		.byte	0x1
 336 0035 06       		.byte	0x6
 337 0036 BC050000 		.4byte	.LASF1
 338 003a 04       		.uleb128 0x4
 339 003b B6040000 		.4byte	.LASF4
 340 003f 05       		.byte	0x5
ARM GAS  /tmp/ccXcQhOY.s 			page 7


 341 0040 1C       		.byte	0x1c
 342 0041 45000000 		.4byte	0x45
 343 0045 03       		.uleb128 0x3
 344 0046 01       		.byte	0x1
 345 0047 08       		.byte	0x8
 346 0048 40050000 		.4byte	.LASF2
 347 004c 03       		.uleb128 0x3
 348 004d 02       		.byte	0x2
 349 004e 05       		.byte	0x5
 350 004f 5A040000 		.4byte	.LASF3
 351 0053 04       		.uleb128 0x4
 352 0054 09020000 		.4byte	.LASF5
 353 0058 05       		.byte	0x5
 354 0059 26       		.byte	0x26
 355 005a 5E000000 		.4byte	0x5e
 356 005e 03       		.uleb128 0x3
 357 005f 02       		.byte	0x2
 358 0060 07       		.byte	0x7
 359 0061 CE050000 		.4byte	.LASF6
 360 0065 04       		.uleb128 0x4
 361 0066 85000000 		.4byte	.LASF7
 362 006a 05       		.byte	0x5
 363 006b 37       		.byte	0x37
 364 006c 70000000 		.4byte	0x70
 365 0070 03       		.uleb128 0x3
 366 0071 04       		.byte	0x4
 367 0072 05       		.byte	0x5
 368 0073 64040000 		.4byte	.LASF8
 369 0077 04       		.uleb128 0x4
 370 0078 4E050000 		.4byte	.LASF9
 371 007c 05       		.byte	0x5
 372 007d 38       		.byte	0x38
 373 007e 82000000 		.4byte	0x82
 374 0082 03       		.uleb128 0x3
 375 0083 04       		.byte	0x4
 376 0084 07       		.byte	0x7
 377 0085 E4040000 		.4byte	.LASF10
 378 0089 03       		.uleb128 0x3
 379 008a 08       		.byte	0x8
 380 008b 05       		.byte	0x5
 381 008c 0D030000 		.4byte	.LASF11
 382 0090 04       		.uleb128 0x4
 383 0091 91020000 		.4byte	.LASF12
 384 0095 05       		.byte	0x5
 385 0096 4E       		.byte	0x4e
 386 0097 9B000000 		.4byte	0x9b
 387 009b 03       		.uleb128 0x3
 388 009c 08       		.byte	0x8
 389 009d 07       		.byte	0x7
 390 009e EB010000 		.4byte	.LASF13
 391 00a2 04       		.uleb128 0x4
 392 00a3 E3020000 		.4byte	.LASF14
 393 00a7 06       		.byte	0x6
 394 00a8 2A       		.byte	0x2a
 395 00a9 3A000000 		.4byte	0x3a
 396 00ad 04       		.uleb128 0x4
 397 00ae 1D040000 		.4byte	.LASF15
ARM GAS  /tmp/ccXcQhOY.s 			page 8


 398 00b2 06       		.byte	0x6
 399 00b3 36       		.byte	0x36
 400 00b4 53000000 		.4byte	0x53
 401 00b8 04       		.uleb128 0x4
 402 00b9 11050000 		.4byte	.LASF16
 403 00bd 06       		.byte	0x6
 404 00be 41       		.byte	0x41
 405 00bf 65000000 		.4byte	0x65
 406 00c3 04       		.uleb128 0x4
 407 00c4 A3010000 		.4byte	.LASF17
 408 00c8 06       		.byte	0x6
 409 00c9 42       		.byte	0x42
 410 00ca 77000000 		.4byte	0x77
 411 00ce 04       		.uleb128 0x4
 412 00cf A7040000 		.4byte	.LASF18
 413 00d3 06       		.byte	0x6
 414 00d4 4E       		.byte	0x4e
 415 00d5 90000000 		.4byte	0x90
 416 00d9 04       		.uleb128 0x4
 417 00da 26040000 		.4byte	.LASF19
 418 00de 07       		.byte	0x7
 419 00df 39       		.byte	0x39
 420 00e0 C3000000 		.4byte	0xc3
 421 00e4 04       		.uleb128 0x4
 422 00e5 0A040000 		.4byte	.LASF20
 423 00e9 07       		.byte	0x7
 424 00ea 3C       		.byte	0x3c
 425 00eb A2000000 		.4byte	0xa2
 426 00ef 04       		.uleb128 0x4
 427 00f0 DA020000 		.4byte	.LASF21
 428 00f4 07       		.byte	0x7
 429 00f5 3D       		.byte	0x3d
 430 00f6 A2000000 		.4byte	0xa2
 431 00fa 04       		.uleb128 0x4
 432 00fb DC040000 		.4byte	.LASF22
 433 00ff 07       		.byte	0x7
 434 0100 3E       		.byte	0x3e
 435 0101 A2000000 		.4byte	0xa2
 436 0105 04       		.uleb128 0x4
 437 0106 CD010000 		.4byte	.LASF23
 438 010a 07       		.byte	0x7
 439 010b 40       		.byte	0x40
 440 010c C3000000 		.4byte	0xc3
 441 0110 04       		.uleb128 0x4
 442 0111 1B030000 		.4byte	.LASF24
 443 0115 07       		.byte	0x7
 444 0116 41       		.byte	0x41
 445 0117 B8000000 		.4byte	0xb8
 446 011b 04       		.uleb128 0x4
 447 011c B4010000 		.4byte	.LASF25
 448 0120 07       		.byte	0x7
 449 0121 43       		.byte	0x43
 450 0122 C3000000 		.4byte	0xc3
 451 0126 04       		.uleb128 0x4
 452 0127 14020000 		.4byte	.LASF26
 453 012b 07       		.byte	0x7
 454 012c 45       		.byte	0x45
ARM GAS  /tmp/ccXcQhOY.s 			page 9


 455 012d B8000000 		.4byte	0xb8
 456 0131 04       		.uleb128 0x4
 457 0132 37000000 		.4byte	.LASF27
 458 0136 08       		.byte	0x8
 459 0137 33       		.byte	0x33
 460 0138 C3000000 		.4byte	0xc3
 461 013c 04       		.uleb128 0x4
 462 013d 66020000 		.4byte	.LASF28
 463 0141 08       		.byte	0x8
 464 0142 3F       		.byte	0x3f
 465 0143 47010000 		.4byte	0x147
 466 0147 05       		.uleb128 0x5
 467 0148 F4020000 		.4byte	.LASF46
 468 014c 44       		.byte	0x44
 469 014d 03       		.byte	0x3
 470 014e 9A       		.byte	0x9a
 471 014f 25020000 		.4byte	0x225
 472 0153 06       		.uleb128 0x6
 473 0154 0B050000 		.4byte	.LASF29
 474 0158 03       		.byte	0x3
 475 0159 9B       		.byte	0x9b
 476 015a 5A020000 		.4byte	0x25a
 477 015e 00       		.byte	0
 478 015f 06       		.uleb128 0x6
 479 0160 B6020000 		.4byte	.LASF30
 480 0164 03       		.byte	0x3
 481 0165 9C       		.byte	0x9c
 482 0166 05010000 		.4byte	0x105
 483 016a 08       		.byte	0x8
 484 016b 07       		.uleb128 0x7
 485 016c 63747800 		.ascii	"ctx\000"
 486 0170 03       		.byte	0x3
 487 0171 9D       		.byte	0x9d
 488 0172 63040000 		.4byte	0x463
 489 0176 0C       		.byte	0xc
 490 0177 06       		.uleb128 0x6
 491 0178 35050000 		.4byte	.LASF31
 492 017c 03       		.byte	0x3
 493 017d 9F       		.byte	0x9f
 494 017e 30020000 		.4byte	0x230
 495 0182 10       		.byte	0x10
 496 0183 06       		.uleb128 0x6
 497 0184 16060000 		.4byte	.LASF32
 498 0188 03       		.byte	0x3
 499 0189 A0       		.byte	0xa0
 500 018a 30020000 		.4byte	0x230
 501 018e 14       		.byte	0x14
 502 018f 06       		.uleb128 0x6
 503 0190 C0040000 		.4byte	.LASF33
 504 0194 03       		.byte	0x3
 505 0195 A7       		.byte	0xa7
 506 0196 33050000 		.4byte	0x533
 507 019a 18       		.byte	0x18
 508 019b 06       		.uleb128 0x6
 509 019c D3020000 		.4byte	.LASF34
 510 01a0 03       		.byte	0x3
 511 01a1 B0       		.byte	0xb0
ARM GAS  /tmp/ccXcQhOY.s 			page 10


 512 01a2 4C070000 		.4byte	0x74c
 513 01a6 1C       		.byte	0x1c
 514 01a7 06       		.uleb128 0x6
 515 01a8 92050000 		.4byte	.LASF35
 516 01ac 03       		.byte	0x3
 517 01ad B5       		.byte	0xb5
 518 01ae EF000000 		.4byte	0xef
 519 01b2 20       		.byte	0x20
 520 01b3 06       		.uleb128 0x6
 521 01b4 31000000 		.4byte	.LASF36
 522 01b8 03       		.byte	0x3
 523 01b9 B9       		.byte	0xb9
 524 01ba E4000000 		.4byte	0xe4
 525 01be 21       		.byte	0x21
 526 01bf 06       		.uleb128 0x6
 527 01c0 8F000000 		.4byte	.LASF37
 528 01c4 03       		.byte	0x3
 529 01c5 BE       		.byte	0xbe
 530 01c6 FA000000 		.4byte	0xfa
 531 01ca 22       		.byte	0x22
 532 01cb 08       		.uleb128 0x8
 533 01cc 7500     		.ascii	"u\000"
 534 01ce 03       		.byte	0x3
 535 01cf 0F01     		.2byte	0x10f
 536 01d1 81060000 		.4byte	0x681
 537 01d5 24       		.byte	0x24
 538 01d6 09       		.uleb128 0x9
 539 01d7 59050000 		.4byte	.LASF38
 540 01db 03       		.byte	0x3
 541 01dc 1401     		.2byte	0x114
 542 01de 36020000 		.4byte	0x236
 543 01e2 28       		.byte	0x28
 544 01e3 09       		.uleb128 0x9
 545 01e4 EB020000 		.4byte	.LASF39
 546 01e8 03       		.byte	0x3
 547 01e9 1A01     		.2byte	0x11a
 548 01eb 5A020000 		.4byte	0x25a
 549 01ef 2C       		.byte	0x2c
 550 01f0 09       		.uleb128 0x9
 551 01f1 5B000000 		.4byte	.LASF40
 552 01f5 03       		.byte	0x3
 553 01f6 2001     		.2byte	0x120
 554 01f8 1B010000 		.4byte	0x11b
 555 01fc 34       		.byte	0x34
 556 01fd 09       		.uleb128 0x9
 557 01fe 47020000 		.4byte	.LASF41
 558 0202 03       		.byte	0x3
 559 0203 2701     		.2byte	0x127
 560 0205 46070000 		.4byte	0x746
 561 0209 38       		.byte	0x38
 562 020a 09       		.uleb128 0x9
 563 020b 41000000 		.4byte	.LASF42
 564 020f 03       		.byte	0x3
 565 0210 2B01     		.2byte	0x12b
 566 0212 05010000 		.4byte	0x105
 567 0216 3C       		.byte	0x3c
 568 0217 09       		.uleb128 0x9
ARM GAS  /tmp/ccXcQhOY.s 			page 11


 569 0218 25060000 		.4byte	.LASF43
 570 021c 03       		.byte	0x3
 571 021d 3201     		.2byte	0x132
 572 021f 0D030000 		.4byte	0x30d
 573 0223 40       		.byte	0x40
 574 0224 00       		.byte	0
 575 0225 04       		.uleb128 0x4
 576 0226 C0020000 		.4byte	.LASF44
 577 022a 08       		.byte	0x8
 578 022b 44       		.byte	0x44
 579 022c 30020000 		.4byte	0x230
 580 0230 0A       		.uleb128 0xa
 581 0231 04       		.byte	0x4
 582 0232 3C010000 		.4byte	0x13c
 583 0236 04       		.uleb128 0x4
 584 0237 76000000 		.4byte	.LASF45
 585 023b 08       		.byte	0x8
 586 023c 49       		.byte	0x49
 587 023d 41020000 		.4byte	0x241
 588 0241 05       		.uleb128 0x5
 589 0242 00000000 		.4byte	.LASF47
 590 0246 04       		.byte	0x4
 591 0247 03       		.byte	0x3
 592 0248 88       		.byte	0x88
 593 0249 5A020000 		.4byte	0x25a
 594 024d 06       		.uleb128 0x6
 595 024e 71000000 		.4byte	.LASF48
 596 0252 03       		.byte	0x3
 597 0253 89       		.byte	0x89
 598 0254 30020000 		.4byte	0x230
 599 0258 00       		.byte	0
 600 0259 00       		.byte	0
 601 025a 04       		.uleb128 0x4
 602 025b 31020000 		.4byte	.LASF49
 603 025f 08       		.byte	0x8
 604 0260 50       		.byte	0x50
 605 0261 65020000 		.4byte	0x265
 606 0265 05       		.uleb128 0x5
 607 0266 E2000000 		.4byte	.LASF50
 608 026a 08       		.byte	0x8
 609 026b 03       		.byte	0x3
 610 026c 8F       		.byte	0x8f
 611 026d 8A020000 		.4byte	0x28a
 612 0271 06       		.uleb128 0x6
 613 0272 71000000 		.4byte	.LASF48
 614 0276 03       		.byte	0x3
 615 0277 90       		.byte	0x90
 616 0278 30020000 		.4byte	0x230
 617 027c 00       		.byte	0
 618 027d 06       		.uleb128 0x6
 619 027e DD000000 		.4byte	.LASF51
 620 0282 03       		.byte	0x3
 621 0283 91       		.byte	0x91
 622 0284 30020000 		.4byte	0x230
 623 0288 04       		.byte	0x4
 624 0289 00       		.byte	0
 625 028a 04       		.uleb128 0x4
ARM GAS  /tmp/ccXcQhOY.s 			page 12


 626 028b F6040000 		.4byte	.LASF52
 627 028f 08       		.byte	0x8
 628 0290 57       		.byte	0x57
 629 0291 95020000 		.4byte	0x295
 630 0295 0B       		.uleb128 0xb
 631 0296 C3000000 		.4byte	.LASF53
 632 029a 1C       		.byte	0x1c
 633 029b 03       		.byte	0x3
 634 029c 6A01     		.2byte	0x16a
 635 029e F1020000 		.4byte	0x2f1
 636 02a2 09       		.uleb128 0x9
 637 02a3 0B050000 		.4byte	.LASF29
 638 02a7 03       		.byte	0x3
 639 02a8 6B01     		.2byte	0x16b
 640 02aa 5A020000 		.4byte	0x25a
 641 02ae 00       		.byte	0
 642 02af 09       		.uleb128 0x9
 643 02b0 B6020000 		.4byte	.LASF30
 644 02b4 03       		.byte	0x3
 645 02b5 6C01     		.2byte	0x16c
 646 02b7 05010000 		.4byte	0x105
 647 02bb 08       		.byte	0x8
 648 02bc 08       		.uleb128 0x8
 649 02bd 63747800 		.ascii	"ctx\000"
 650 02c1 03       		.byte	0x3
 651 02c2 6E01     		.2byte	0x16e
 652 02c4 63040000 		.4byte	0x463
 653 02c8 0C       		.byte	0xc
 654 02c9 09       		.uleb128 0x9
 655 02ca 35050000 		.4byte	.LASF31
 656 02ce 03       		.byte	0x3
 657 02cf 7101     		.2byte	0x171
 658 02d1 30020000 		.4byte	0x230
 659 02d5 10       		.byte	0x10
 660 02d6 09       		.uleb128 0x9
 661 02d7 16060000 		.4byte	.LASF32
 662 02db 03       		.byte	0x3
 663 02dc 7201     		.2byte	0x172
 664 02de 30020000 		.4byte	0x230
 665 02e2 14       		.byte	0x14
 666 02e3 09       		.uleb128 0x9
 667 02e4 F9050000 		.4byte	.LASF54
 668 02e8 03       		.byte	0x3
 669 02e9 7501     		.2byte	0x175
 670 02eb 30020000 		.4byte	0x230
 671 02ef 18       		.byte	0x18
 672 02f0 00       		.byte	0
 673 02f1 04       		.uleb128 0x4
 674 02f2 F3000000 		.4byte	.LASF55
 675 02f6 08       		.byte	0x8
 676 02f7 5C       		.byte	0x5c
 677 02f8 FC020000 		.4byte	0x2fc
 678 02fc 0A       		.uleb128 0xa
 679 02fd 04       		.byte	0x4
 680 02fe 02030000 		.4byte	0x302
 681 0302 0C       		.uleb128 0xc
 682 0303 0D030000 		.4byte	0x30d
ARM GAS  /tmp/ccXcQhOY.s 			page 13


 683 0307 0D       		.uleb128 0xd
 684 0308 0D030000 		.4byte	0x30d
 685 030c 00       		.byte	0
 686 030d 0E       		.uleb128 0xe
 687 030e 04       		.byte	0x4
 688 030f 04       		.uleb128 0x4
 689 0310 2B030000 		.4byte	.LASF56
 690 0314 08       		.byte	0x8
 691 0315 61       		.byte	0x61
 692 0316 1A030000 		.4byte	0x31a
 693 031a 0B       		.uleb128 0xb
 694 031b D5010000 		.4byte	.LASF57
 695 031f 14       		.byte	0x14
 696 0320 03       		.byte	0x3
 697 0321 4501     		.2byte	0x145
 698 0323 69030000 		.4byte	0x369
 699 0327 09       		.uleb128 0x9
 700 0328 71000000 		.4byte	.LASF48
 701 032c 03       		.byte	0x3
 702 032d 4601     		.2byte	0x146
 703 032f 52070000 		.4byte	0x752
 704 0333 00       		.byte	0
 705 0334 09       		.uleb128 0x9
 706 0335 DD000000 		.4byte	.LASF51
 707 0339 03       		.byte	0x3
 708 033a 4701     		.2byte	0x147
 709 033c 52070000 		.4byte	0x752
 710 0340 04       		.byte	0x4
 711 0341 09       		.uleb128 0x9
 712 0342 C8050000 		.4byte	.LASF58
 713 0346 03       		.byte	0x3
 714 0347 4801     		.2byte	0x148
 715 0349 31010000 		.4byte	0x131
 716 034d 08       		.byte	0x8
 717 034e 09       		.uleb128 0x9
 718 034f D1000000 		.4byte	.LASF59
 719 0353 03       		.byte	0x3
 720 0354 4901     		.2byte	0x149
 721 0356 F1020000 		.4byte	0x2f1
 722 035a 0C       		.byte	0xc
 723 035b 08       		.uleb128 0x8
 724 035c 70617200 		.ascii	"par\000"
 725 0360 03       		.byte	0x3
 726 0361 4B01     		.2byte	0x14b
 727 0363 0D030000 		.4byte	0x30d
 728 0367 10       		.byte	0x10
 729 0368 00       		.byte	0
 730 0369 04       		.uleb128 0x4
 731 036a 61050000 		.4byte	.LASF60
 732 036e 08       		.byte	0x8
 733 036f 66       		.byte	0x66
 734 0370 74030000 		.4byte	0x374
 735 0374 0B       		.uleb128 0xb
 736 0375 4F020000 		.4byte	.LASF61
 737 0379 10       		.byte	0x10
 738 037a 03       		.byte	0x3
 739 037b 5501     		.2byte	0x155
ARM GAS  /tmp/ccXcQhOY.s 			page 14


 740 037d B6030000 		.4byte	0x3b6
 741 0381 09       		.uleb128 0x9
 742 0382 71000000 		.4byte	.LASF48
 743 0386 03       		.byte	0x3
 744 0387 5601     		.2byte	0x156
 745 0389 52070000 		.4byte	0x752
 746 038d 00       		.byte	0
 747 038e 09       		.uleb128 0x9
 748 038f DD000000 		.4byte	.LASF51
 749 0393 03       		.byte	0x3
 750 0394 5801     		.2byte	0x158
 751 0396 52070000 		.4byte	0x752
 752 039a 04       		.byte	0x4
 753 039b 09       		.uleb128 0x9
 754 039c C8050000 		.4byte	.LASF58
 755 03a0 03       		.byte	0x3
 756 03a1 5A01     		.2byte	0x15a
 757 03a3 31010000 		.4byte	0x131
 758 03a7 08       		.byte	0x8
 759 03a8 09       		.uleb128 0x9
 760 03a9 9E040000 		.4byte	.LASF62
 761 03ad 03       		.byte	0x3
 762 03ae 6201     		.2byte	0x162
 763 03b0 31010000 		.4byte	0x131
 764 03b4 0C       		.byte	0xc
 765 03b5 00       		.byte	0
 766 03b6 04       		.uleb128 0x4
 767 03b7 FE020000 		.4byte	.LASF63
 768 03bb 08       		.byte	0x8
 769 03bc 6B       		.byte	0x6b
 770 03bd C1030000 		.4byte	0x3c1
 771 03c1 0F       		.uleb128 0xf
 772 03c2 93010000 		.4byte	.LASF64
 773 03c6 0C08     		.2byte	0x80c
 774 03c8 03       		.byte	0x3
 775 03c9 7C01     		.2byte	0x17c
 776 03cb EA030000 		.4byte	0x3ea
 777 03cf 09       		.uleb128 0x9
 778 03d0 00040000 		.4byte	.LASF65
 779 03d4 03       		.byte	0x3
 780 03d5 8401     		.2byte	0x184
 781 03d7 58070000 		.4byte	0x758
 782 03db 00       		.byte	0
 783 03dc 09       		.uleb128 0x9
 784 03dd 19050000 		.4byte	.LASF66
 785 03e1 03       		.byte	0x3
 786 03e2 9301     		.2byte	0x193
 787 03e4 56060000 		.4byte	0x656
 788 03e8 04       		.byte	0x4
 789 03e9 00       		.byte	0
 790 03ea 04       		.uleb128 0x4
 791 03eb 98050000 		.4byte	.LASF67
 792 03ef 08       		.byte	0x8
 793 03f0 70       		.byte	0x70
 794 03f1 F5030000 		.4byte	0x3f5
 795 03f5 0F       		.uleb128 0xf
 796 03f6 86040000 		.4byte	.LASF68
ARM GAS  /tmp/ccXcQhOY.s 			page 15


 797 03fa 8008     		.2byte	0x880
 798 03fc 03       		.byte	0x3
 799 03fd 9C01     		.2byte	0x19c
 800 03ff 46040000 		.4byte	0x446
 801 0403 09       		.uleb128 0x9
 802 0404 B0040000 		.4byte	.LASF69
 803 0408 03       		.byte	0x3
 804 0409 A001     		.2byte	0x1a0
 805 040b 8A020000 		.4byte	0x28a
 806 040f 00       		.byte	0
 807 0410 09       		.uleb128 0x9
 808 0411 AF000000 		.4byte	.LASF70
 809 0415 03       		.byte	0x3
 810 0416 A401     		.2byte	0x1a4
 811 0418 69030000 		.4byte	0x369
 812 041c 1C       		.byte	0x1c
 813 041d 08       		.uleb128 0x8
 814 041e 64626700 		.ascii	"dbg\000"
 815 0422 03       		.byte	0x3
 816 0423 A801     		.2byte	0x1a8
 817 0425 B6030000 		.4byte	0x3b6
 818 0429 2C       		.byte	0x2c
 819 042a 10       		.uleb128 0x10
 820 042b 12040000 		.4byte	.LASF71
 821 042f 03       		.byte	0x3
 822 0430 AC01     		.2byte	0x1ac
 823 0432 3C010000 		.4byte	0x13c
 824 0436 3808     		.2byte	0x838
 825 0438 11       		.uleb128 0x11
 826 0439 746D00   		.ascii	"tm\000"
 827 043c 03       		.byte	0x3
 828 043d B101     		.2byte	0x1b1
 829 043f 76060000 		.4byte	0x676
 830 0443 7C08     		.2byte	0x87c
 831 0445 00       		.byte	0
 832 0446 03       		.uleb128 0x3
 833 0447 04       		.byte	0x4
 834 0448 07       		.byte	0x7
 835 0449 D3040000 		.4byte	.LASF72
 836 044d 04       		.uleb128 0x4
 837 044e 28000000 		.4byte	.LASF73
 838 0452 09       		.byte	0x9
 839 0453 65       		.byte	0x65
 840 0454 0D030000 		.4byte	0x30d
 841 0458 04       		.uleb128 0x4
 842 0459 EE050000 		.4byte	.LASF74
 843 045d 09       		.byte	0x9
 844 045e 6D       		.byte	0x6d
 845 045f CE000000 		.4byte	0xce
 846 0463 05       		.uleb128 0x5
 847 0464 B6000000 		.4byte	.LASF75
 848 0468 04       		.byte	0x4
 849 0469 09       		.byte	0x9
 850 046a 89       		.byte	0x89
 851 046b 7B040000 		.4byte	0x47b
 852 046f 07       		.uleb128 0x7
 853 0470 737000   		.ascii	"sp\000"
ARM GAS  /tmp/ccXcQhOY.s 			page 16


 854 0473 09       		.byte	0x9
 855 0474 8A       		.byte	0x8a
 856 0475 F7040000 		.4byte	0x4f7
 857 0479 00       		.byte	0
 858 047a 00       		.byte	0
 859 047b 0B       		.uleb128 0xb
 860 047c 6D040000 		.4byte	.LASF76
 861 0480 24       		.byte	0x24
 862 0481 0A       		.byte	0xa
 863 0482 5901     		.2byte	0x159
 864 0484 F7040000 		.4byte	0x4f7
 865 0488 08       		.uleb128 0x8
 866 0489 723400   		.ascii	"r4\000"
 867 048c 0A       		.byte	0xa
 868 048d 6C01     		.2byte	0x16c
 869 048f 4D040000 		.4byte	0x44d
 870 0493 00       		.byte	0
 871 0494 08       		.uleb128 0x8
 872 0495 723500   		.ascii	"r5\000"
 873 0498 0A       		.byte	0xa
 874 0499 6D01     		.2byte	0x16d
 875 049b 4D040000 		.4byte	0x44d
 876 049f 04       		.byte	0x4
 877 04a0 08       		.uleb128 0x8
 878 04a1 723600   		.ascii	"r6\000"
 879 04a4 0A       		.byte	0xa
 880 04a5 6E01     		.2byte	0x16e
 881 04a7 4D040000 		.4byte	0x44d
 882 04ab 08       		.byte	0x8
 883 04ac 08       		.uleb128 0x8
 884 04ad 723700   		.ascii	"r7\000"
 885 04b0 0A       		.byte	0xa
 886 04b1 6F01     		.2byte	0x16f
 887 04b3 4D040000 		.4byte	0x44d
 888 04b7 0C       		.byte	0xc
 889 04b8 08       		.uleb128 0x8
 890 04b9 723800   		.ascii	"r8\000"
 891 04bc 0A       		.byte	0xa
 892 04bd 7001     		.2byte	0x170
 893 04bf 4D040000 		.4byte	0x44d
 894 04c3 10       		.byte	0x10
 895 04c4 08       		.uleb128 0x8
 896 04c5 723900   		.ascii	"r9\000"
 897 04c8 0A       		.byte	0xa
 898 04c9 7101     		.2byte	0x171
 899 04cb 4D040000 		.4byte	0x44d
 900 04cf 14       		.byte	0x14
 901 04d0 08       		.uleb128 0x8
 902 04d1 72313000 		.ascii	"r10\000"
 903 04d5 0A       		.byte	0xa
 904 04d6 7201     		.2byte	0x172
 905 04d8 4D040000 		.4byte	0x44d
 906 04dc 18       		.byte	0x18
 907 04dd 08       		.uleb128 0x8
 908 04de 72313100 		.ascii	"r11\000"
 909 04e2 0A       		.byte	0xa
 910 04e3 7301     		.2byte	0x173
ARM GAS  /tmp/ccXcQhOY.s 			page 17


 911 04e5 4D040000 		.4byte	0x44d
 912 04e9 1C       		.byte	0x1c
 913 04ea 08       		.uleb128 0x8
 914 04eb 6C7200   		.ascii	"lr\000"
 915 04ee 0A       		.byte	0xa
 916 04ef 7401     		.2byte	0x174
 917 04f1 4D040000 		.4byte	0x44d
 918 04f5 20       		.byte	0x20
 919 04f6 00       		.byte	0
 920 04f7 0A       		.uleb128 0xa
 921 04f8 04       		.byte	0x4
 922 04f9 7B040000 		.4byte	0x47b
 923 04fd 12       		.uleb128 0x12
 924 04fe 08       		.byte	0x8
 925 04ff 0B       		.byte	0xb
 926 0500 80       		.byte	0x80
 927 0501 1E050000 		.4byte	0x51e
 928 0505 07       		.uleb128 0x7
 929 0506 6E747000 		.ascii	"ntp\000"
 930 050a 0B       		.byte	0xb
 931 050b 84       		.byte	0x84
 932 050c 30020000 		.4byte	0x230
 933 0510 00       		.byte	0
 934 0511 06       		.uleb128 0x6
 935 0512 9E000000 		.4byte	.LASF77
 936 0516 0B       		.byte	0xb
 937 0517 88       		.byte	0x88
 938 0518 0D030000 		.4byte	0x30d
 939 051c 04       		.byte	0x4
 940 051d 00       		.byte	0
 941 051e 12       		.uleb128 0x12
 942 051f 04       		.byte	0x4
 943 0520 0B       		.byte	0xb
 944 0521 8D       		.byte	0x8d
 945 0522 33050000 		.4byte	0x533
 946 0526 06       		.uleb128 0x6
 947 0527 C0040000 		.4byte	.LASF33
 948 052b 0B       		.byte	0xb
 949 052c 91       		.byte	0x91
 950 052d 33050000 		.4byte	0x533
 951 0531 00       		.byte	0
 952 0532 00       		.byte	0
 953 0533 0A       		.uleb128 0xa
 954 0534 04       		.byte	0x4
 955 0535 39050000 		.4byte	0x539
 956 0539 13       		.uleb128 0x13
 957 053a 3E050000 		.4byte	0x53e
 958 053e 03       		.uleb128 0x3
 959 053f 01       		.byte	0x1
 960 0540 08       		.byte	0x8
 961 0541 BB020000 		.4byte	.LASF78
 962 0545 12       		.uleb128 0x12
 963 0546 04       		.byte	0x4
 964 0547 0B       		.byte	0xb
 965 0548 96       		.byte	0x96
 966 0549 5A050000 		.4byte	0x55a
 967 054d 06       		.uleb128 0x6
ARM GAS  /tmp/ccXcQhOY.s 			page 18


 968 054e 02020000 		.4byte	.LASF79
 969 0552 0B       		.byte	0xb
 970 0553 9A       		.byte	0x9a
 971 0554 33050000 		.4byte	0x533
 972 0558 00       		.byte	0
 973 0559 00       		.byte	0
 974 055a 12       		.uleb128 0x12
 975 055b 08       		.byte	0x8
 976 055c 0B       		.byte	0xb
 977 055d 9F       		.byte	0x9f
 978 055e 7B050000 		.4byte	0x57b
 979 0562 07       		.uleb128 0x7
 980 0563 75703100 		.ascii	"up1\000"
 981 0567 0B       		.byte	0xb
 982 0568 A3       		.byte	0xa3
 983 0569 0D030000 		.4byte	0x30d
 984 056d 00       		.byte	0
 985 056e 07       		.uleb128 0x7
 986 056f 75703200 		.ascii	"up2\000"
 987 0573 0B       		.byte	0xb
 988 0574 A7       		.byte	0xa7
 989 0575 0D030000 		.4byte	0x30d
 990 0579 04       		.byte	0x4
 991 057a 00       		.byte	0
 992 057b 14       		.uleb128 0x14
 993 057c 08       		.byte	0x8
 994 057d 0B       		.byte	0xb
 995 057e 7C       		.byte	0x7c
 996 057f AF050000 		.4byte	0x5af
 997 0583 15       		.uleb128 0x15
 998 0584 737700   		.ascii	"sw\000"
 999 0587 0B       		.byte	0xb
 1000 0588 89       		.byte	0x89
 1001 0589 FD040000 		.4byte	0x4fd
 1002 058d 15       		.uleb128 0x15
 1003 058e 69737200 		.ascii	"isr\000"
 1004 0592 0B       		.byte	0xb
 1005 0593 92       		.byte	0x92
 1006 0594 1E050000 		.4byte	0x51e
 1007 0598 16       		.uleb128 0x16
 1008 0599 E6010000 		.4byte	.LASF80
 1009 059d 0B       		.byte	0xb
 1010 059e 9B       		.byte	0x9b
 1011 059f 45050000 		.4byte	0x545
 1012 05a3 16       		.uleb128 0x16
 1013 05a4 6F020000 		.4byte	.LASF81
 1014 05a8 0B       		.byte	0xb
 1015 05a9 A8       		.byte	0xa8
 1016 05aa 5A050000 		.4byte	0x55a
 1017 05ae 00       		.byte	0
 1018 05af 12       		.uleb128 0x12
 1019 05b0 10       		.byte	0x10
 1020 05b1 0B       		.byte	0xb
 1021 05b2 69       		.byte	0x69
 1022 05b3 FB050000 		.4byte	0x5fb
 1023 05b7 17       		.uleb128 0x17
 1024 05b8 3B050000 		.4byte	.LASF82
ARM GAS  /tmp/ccXcQhOY.s 			page 19


 1025 05bc 0B       		.byte	0xb
 1026 05bd 6D       		.byte	0x6d
 1027 05be C3000000 		.4byte	0xc3
 1028 05c2 04       		.byte	0x4
 1029 05c3 03       		.byte	0x3
 1030 05c4 1D       		.byte	0x1d
 1031 05c5 00       		.byte	0
 1032 05c6 17       		.uleb128 0x17
 1033 05c7 92050000 		.4byte	.LASF35
 1034 05cb 0B       		.byte	0xb
 1035 05cc 71       		.byte	0x71
 1036 05cd C3000000 		.4byte	0xc3
 1037 05d1 04       		.byte	0x4
 1038 05d2 05       		.byte	0x5
 1039 05d3 18       		.byte	0x18
 1040 05d4 00       		.byte	0
 1041 05d5 17       		.uleb128 0x17
 1042 05d6 03050000 		.4byte	.LASF83
 1043 05da 0B       		.byte	0xb
 1044 05db 77       		.byte	0x77
 1045 05dc C3000000 		.4byte	0xc3
 1046 05e0 04       		.byte	0x4
 1047 05e1 18       		.byte	0x18
 1048 05e2 00       		.byte	0
 1049 05e3 00       		.byte	0
 1050 05e4 06       		.uleb128 0x6
 1051 05e5 26020000 		.4byte	.LASF84
 1052 05e9 0B       		.byte	0xb
 1053 05ea 7B       		.byte	0x7b
 1054 05eb 31010000 		.4byte	0x131
 1055 05ef 04       		.byte	0x4
 1056 05f0 07       		.uleb128 0x7
 1057 05f1 7500     		.ascii	"u\000"
 1058 05f3 0B       		.byte	0xb
 1059 05f4 A9       		.byte	0xa9
 1060 05f5 7B050000 		.4byte	0x57b
 1061 05f9 08       		.byte	0x8
 1062 05fa 00       		.byte	0
 1063 05fb 04       		.uleb128 0x4
 1064 05fc 52030000 		.4byte	.LASF85
 1065 0600 0B       		.byte	0xb
 1066 0601 AA       		.byte	0xaa
 1067 0602 AF050000 		.4byte	0x5af
 1068 0606 18       		.uleb128 0x18
 1069 0607 0808     		.2byte	0x808
 1070 0609 0B       		.byte	0xb
 1071 060a B0       		.byte	0xb0
 1072 060b 40060000 		.4byte	0x640
 1073 060f 06       		.uleb128 0x6
 1074 0610 51000000 		.4byte	.LASF86
 1075 0614 0B       		.byte	0xb
 1076 0615 B4       		.byte	0xb4
 1077 0616 AD000000 		.4byte	0xad
 1078 061a 00       		.byte	0
 1079 061b 06       		.uleb128 0x6
 1080 061c 4D030000 		.4byte	.LASF87
 1081 0620 0B       		.byte	0xb
ARM GAS  /tmp/ccXcQhOY.s 			page 20


 1082 0621 B8       		.byte	0xb8
 1083 0622 AD000000 		.4byte	0xad
 1084 0626 02       		.byte	0x2
 1085 0627 07       		.uleb128 0x7
 1086 0628 70747200 		.ascii	"ptr\000"
 1087 062c 0B       		.byte	0xb
 1088 062d BC       		.byte	0xbc
 1089 062e 40060000 		.4byte	0x640
 1090 0632 04       		.byte	0x4
 1091 0633 06       		.uleb128 0x6
 1092 0634 4A000000 		.4byte	.LASF88
 1093 0638 0B       		.byte	0xb
 1094 0639 C0       		.byte	0xc0
 1095 063a 46060000 		.4byte	0x646
 1096 063e 08       		.byte	0x8
 1097 063f 00       		.byte	0
 1098 0640 0A       		.uleb128 0xa
 1099 0641 04       		.byte	0x4
 1100 0642 FB050000 		.4byte	0x5fb
 1101 0646 19       		.uleb128 0x19
 1102 0647 FB050000 		.4byte	0x5fb
 1103 064b 56060000 		.4byte	0x656
 1104 064f 1A       		.uleb128 0x1a
 1105 0650 46040000 		.4byte	0x446
 1106 0654 7F       		.byte	0x7f
 1107 0655 00       		.byte	0
 1108 0656 04       		.uleb128 0x4
 1109 0657 AA050000 		.4byte	.LASF89
 1110 065b 0B       		.byte	0xb
 1111 065c C1       		.byte	0xc1
 1112 065d 06060000 		.4byte	0x606
 1113 0661 12       		.uleb128 0x12
 1114 0662 04       		.byte	0x4
 1115 0663 0C       		.byte	0xc
 1116 0664 38       		.byte	0x38
 1117 0665 76060000 		.4byte	0x676
 1118 0669 06       		.uleb128 0x6
 1119 066a 7B020000 		.4byte	.LASF90
 1120 066e 0C       		.byte	0xc
 1121 066f 3C       		.byte	0x3c
 1122 0670 D9000000 		.4byte	0xd9
 1123 0674 00       		.byte	0
 1124 0675 00       		.byte	0
 1125 0676 04       		.uleb128 0x4
 1126 0677 17000000 		.4byte	.LASF91
 1127 067b 0C       		.byte	0xc
 1128 067c 3D       		.byte	0x3d
 1129 067d 61060000 		.4byte	0x661
 1130 0681 14       		.uleb128 0x14
 1131 0682 04       		.byte	0x4
 1132 0683 03       		.byte	0x3
 1133 0684 D2       		.byte	0xd2
 1134 0685 E4060000 		.4byte	0x6e4
 1135 0689 16       		.uleb128 0x16
 1136 068a 74020000 		.4byte	.LASF92
 1137 068e 03       		.byte	0x3
 1138 068f D9       		.byte	0xd9
ARM GAS  /tmp/ccXcQhOY.s 			page 21


 1139 0690 10010000 		.4byte	0x110
 1140 0694 16       		.uleb128 0x16
 1141 0695 1C060000 		.4byte	.LASF93
 1142 0699 03       		.byte	0x3
 1143 069a E0       		.byte	0xe0
 1144 069b 10010000 		.4byte	0x110
 1145 069f 16       		.uleb128 0x16
 1146 06a0 9E000000 		.4byte	.LASF77
 1147 06a4 03       		.byte	0x3
 1148 06a5 E7       		.byte	0xe7
 1149 06a6 0D030000 		.4byte	0x30d
 1150 06aa 16       		.uleb128 0x16
 1151 06ab A4050000 		.4byte	.LASF94
 1152 06af 03       		.byte	0x3
 1153 06b0 EE       		.byte	0xee
 1154 06b1 E4060000 		.4byte	0x6e4
 1155 06b5 16       		.uleb128 0x16
 1156 06b6 AC010000 		.4byte	.LASF95
 1157 06ba 03       		.byte	0x3
 1158 06bb F3       		.byte	0xf3
 1159 06bc 10010000 		.4byte	0x110
 1160 06c0 16       		.uleb128 0x16
 1161 06c1 26050000 		.4byte	.LASF96
 1162 06c5 03       		.byte	0x3
 1163 06c6 FC       		.byte	0xfc
 1164 06c7 0F070000 		.4byte	0x70f
 1165 06cb 1B       		.uleb128 0x1b
 1166 06cc 10000000 		.4byte	.LASF97
 1167 06d0 03       		.byte	0x3
 1168 06d1 0501     		.2byte	0x105
 1169 06d3 46070000 		.4byte	0x746
 1170 06d7 1B       		.uleb128 0x1b
 1171 06d8 D6000000 		.4byte	.LASF98
 1172 06dc 03       		.byte	0x3
 1173 06dd 0D01     		.2byte	0x10d
 1174 06df 1B010000 		.4byte	0x11b
 1175 06e3 00       		.byte	0
 1176 06e4 0A       		.uleb128 0xa
 1177 06e5 04       		.byte	0x4
 1178 06e6 25020000 		.4byte	0x225
 1179 06ea 05       		.uleb128 0x5
 1180 06eb C0010000 		.4byte	.LASF99
 1181 06ef 0C       		.byte	0xc
 1182 06f0 0D       		.byte	0xd
 1183 06f1 34       		.byte	0x34
 1184 06f2 0F070000 		.4byte	0x70f
 1185 06f6 06       		.uleb128 0x6
 1186 06f7 0B050000 		.4byte	.LASF29
 1187 06fb 0D       		.byte	0xd
 1188 06fc 35       		.byte	0x35
 1189 06fd 5A020000 		.4byte	0x25a
 1190 0701 00       		.byte	0
 1191 0702 07       		.uleb128 0x7
 1192 0703 636E7400 		.ascii	"cnt\000"
 1193 0707 0D       		.byte	0xd
 1194 0708 37       		.byte	0x37
 1195 0709 26010000 		.4byte	0x126
ARM GAS  /tmp/ccXcQhOY.s 			page 22


 1196 070d 08       		.byte	0x8
 1197 070e 00       		.byte	0
 1198 070f 0A       		.uleb128 0xa
 1199 0710 04       		.byte	0x4
 1200 0711 EA060000 		.4byte	0x6ea
 1201 0715 05       		.uleb128 0x5
 1202 0716 88020000 		.4byte	.LASF100
 1203 071a 10       		.byte	0x10
 1204 071b 0E       		.byte	0xe
 1205 071c 39       		.byte	0x39
 1206 071d 46070000 		.4byte	0x746
 1207 0721 06       		.uleb128 0x6
 1208 0722 0B050000 		.4byte	.LASF29
 1209 0726 0E       		.byte	0xe
 1210 0727 3A       		.byte	0x3a
 1211 0728 5A020000 		.4byte	0x25a
 1212 072c 00       		.byte	0
 1213 072d 06       		.uleb128 0x6
 1214 072e 2B020000 		.4byte	.LASF101
 1215 0732 0E       		.byte	0xe
 1216 0733 3C       		.byte	0x3c
 1217 0734 30020000 		.4byte	0x230
 1218 0738 08       		.byte	0x8
 1219 0739 06       		.uleb128 0x6
 1220 073a 71000000 		.4byte	.LASF48
 1221 073e 0E       		.byte	0xe
 1222 073f 3E       		.byte	0x3e
 1223 0740 68070000 		.4byte	0x768
 1224 0744 0C       		.byte	0xc
 1225 0745 00       		.byte	0
 1226 0746 0A       		.uleb128 0xa
 1227 0747 04       		.byte	0x4
 1228 0748 15070000 		.4byte	0x715
 1229 074c 0A       		.uleb128 0xa
 1230 074d 04       		.byte	0x4
 1231 074e 58040000 		.4byte	0x458
 1232 0752 0A       		.uleb128 0xa
 1233 0753 04       		.byte	0x4
 1234 0754 0F030000 		.4byte	0x30f
 1235 0758 1C       		.uleb128 0x1c
 1236 0759 33050000 		.4byte	0x533
 1237 075d 04       		.uleb128 0x4
 1238 075e 2D050000 		.4byte	.LASF102
 1239 0762 0E       		.byte	0xe
 1240 0763 34       		.byte	0x34
 1241 0764 15070000 		.4byte	0x715
 1242 0768 0A       		.uleb128 0xa
 1243 0769 04       		.byte	0x4
 1244 076a 5D070000 		.4byte	0x75d
 1245 076e 1D       		.uleb128 0x1d
 1246 076f 90040000 		.4byte	.LASF106
 1247 0773 02       		.byte	0x2
 1248 0774 0601     		.2byte	0x106
 1249 0776 03       		.byte	0x3
 1250 0777 88070000 		.4byte	0x788
 1251 077b 1E       		.uleb128 0x1e
 1252 077c 41020000 		.4byte	.LASF108
ARM GAS  /tmp/ccXcQhOY.s 			page 23


 1253 0780 02       		.byte	0x2
 1254 0781 0601     		.2byte	0x106
 1255 0783 C3000000 		.4byte	0xc3
 1256 0787 00       		.byte	0
 1257 0788 1F       		.uleb128 0x1f
 1258 0789 A5000000 		.4byte	.LASF103
 1259 078d 0A       		.byte	0xa
 1260 078e 5202     		.2byte	0x252
 1261 0790 03       		.byte	0x3
 1262 0791 1F       		.uleb128 0x1f
 1263 0792 0A060000 		.4byte	.LASF104
 1264 0796 0A       		.byte	0xa
 1265 0797 6A02     		.2byte	0x26a
 1266 0799 03       		.byte	0x3
 1267 079a 1F       		.uleb128 0x1f
 1268 079b 9C020000 		.4byte	.LASF105
 1269 079f 0F       		.byte	0xf
 1270 07a0 7601     		.2byte	0x176
 1271 07a2 03       		.byte	0x3
 1272 07a3 1D       		.uleb128 0x1d
 1273 07a4 E1050000 		.4byte	.LASF107
 1274 07a8 03       		.byte	0x3
 1275 07a9 6102     		.2byte	0x261
 1276 07ab 03       		.byte	0x3
 1277 07ac C8070000 		.4byte	0x7c8
 1278 07b0 20       		.uleb128 0x20
 1279 07b1 747000   		.ascii	"tp\000"
 1280 07b4 03       		.byte	0x3
 1281 07b5 6102     		.2byte	0x261
 1282 07b7 30020000 		.4byte	0x230
 1283 07bb 20       		.uleb128 0x20
 1284 07bc 74717000 		.ascii	"tqp\000"
 1285 07c0 03       		.byte	0x3
 1286 07c1 6102     		.2byte	0x261
 1287 07c3 C8070000 		.4byte	0x7c8
 1288 07c7 00       		.byte	0
 1289 07c8 0A       		.uleb128 0xa
 1290 07c9 04       		.byte	0x4
 1291 07ca 5A020000 		.4byte	0x25a
 1292 07ce 1D       		.uleb128 0x1d
 1293 07cf 1A020000 		.4byte	.LASF109
 1294 07d3 0F       		.byte	0xf
 1295 07d4 8201     		.2byte	0x182
 1296 07d6 03       		.byte	0x3
 1297 07d7 E9070000 		.4byte	0x7e9
 1298 07db 21       		.uleb128 0x21
 1299 07dc 01060000 		.4byte	.LASF113
 1300 07e0 F9070000 		.4byte	0x7f9
 1301 07e4 1A020000 		.4byte	.LASF109
 1302 07e8 00       		.byte	0
 1303 07e9 19       		.uleb128 0x19
 1304 07ea 3E050000 		.4byte	0x53e
 1305 07ee F9070000 		.4byte	0x7f9
 1306 07f2 1A       		.uleb128 0x1a
 1307 07f3 46040000 		.4byte	0x446
 1308 07f7 0B       		.byte	0xb
 1309 07f8 00       		.byte	0
ARM GAS  /tmp/ccXcQhOY.s 			page 24


 1310 07f9 13       		.uleb128 0x13
 1311 07fa E9070000 		.4byte	0x7e9
 1312 07fe 22       		.uleb128 0x22
 1313 07ff A6020000 		.4byte	.LASF111
 1314 0803 04       		.byte	0x4
 1315 0804 4F       		.byte	0x4f
 1316 0805 19080000 		.4byte	0x819
 1317 0809 03       		.byte	0x3
 1318 080a 19080000 		.4byte	0x819
 1319 080e 23       		.uleb128 0x23
 1320 080f 747000   		.ascii	"tp\000"
 1321 0812 04       		.byte	0x4
 1322 0813 4F       		.byte	0x4f
 1323 0814 30020000 		.4byte	0x230
 1324 0818 00       		.byte	0
 1325 0819 03       		.uleb128 0x3
 1326 081a 01       		.byte	0x1
 1327 081b 02       		.byte	0x2
 1328 081c 82020000 		.4byte	.LASF110
 1329 0820 24       		.uleb128 0x24
 1330 0821 3B030000 		.4byte	.LASF112
 1331 0825 03       		.byte	0x3
 1332 0826 6902     		.2byte	0x269
 1333 0828 30020000 		.4byte	0x230
 1334 082c 03       		.byte	0x3
 1335 082d 49080000 		.4byte	0x849
 1336 0831 20       		.uleb128 0x20
 1337 0832 74717000 		.ascii	"tqp\000"
 1338 0836 03       		.byte	0x3
 1339 0837 6902     		.2byte	0x269
 1340 0839 C8070000 		.4byte	0x7c8
 1341 083d 25       		.uleb128 0x25
 1342 083e 747000   		.ascii	"tp\000"
 1343 0841 03       		.byte	0x3
 1344 0842 6A02     		.2byte	0x26a
 1345 0844 30020000 		.4byte	0x230
 1346 0848 00       		.byte	0
 1347 0849 26       		.uleb128 0x26
 1348 084a 77050000 		.4byte	.LASF114
 1349 084e 04       		.byte	0x4
 1350 084f 71       		.byte	0x71
 1351 0850 03       		.byte	0x3
 1352 0851 6B080000 		.4byte	0x86b
 1353 0855 23       		.uleb128 0x23
 1354 0856 747000   		.ascii	"tp\000"
 1355 0859 04       		.byte	0x4
 1356 085a 71       		.byte	0x71
 1357 085b 30020000 		.4byte	0x230
 1358 085f 23       		.uleb128 0x23
 1359 0860 6D736700 		.ascii	"msg\000"
 1360 0864 04       		.byte	0x4
 1361 0865 71       		.byte	0x71
 1362 0866 10010000 		.4byte	0x110
 1363 086a 00       		.byte	0
 1364 086b 27       		.uleb128 0x27
 1365 086c 94000000 		.4byte	.LASF115
 1366 0870 01       		.byte	0x1
ARM GAS  /tmp/ccXcQhOY.s 			page 25


 1367 0871 57       		.byte	0x57
 1368 0872 10010000 		.4byte	0x110
 1369 0876 00000000 		.4byte	.LFB239
 1370 087a 40000000 		.4byte	.LFE239-.LFB239
 1371 087e 01       		.uleb128 0x1
 1372 087f 9C       		.byte	0x9c
 1373 0880 82090000 		.4byte	0x982
 1374 0884 28       		.uleb128 0x28
 1375 0885 747000   		.ascii	"tp\000"
 1376 0888 01       		.byte	0x1
 1377 0889 57       		.byte	0x57
 1378 088a 30020000 		.4byte	0x230
 1379 088e 00000000 		.4byte	.LLST0
 1380 0892 28       		.uleb128 0x28
 1381 0893 6D736700 		.ascii	"msg\000"
 1382 0897 01       		.byte	0x1
 1383 0898 57       		.byte	0x57
 1384 0899 10010000 		.4byte	0x110
 1385 089d 3A000000 		.4byte	.LLST1
 1386 08a1 29       		.uleb128 0x29
 1387 08a2 63747000 		.ascii	"ctp\000"
 1388 08a6 01       		.byte	0x1
 1389 08a7 58       		.byte	0x58
 1390 08a8 30020000 		.4byte	0x230
 1391 08ac 01       		.uleb128 0x1
 1392 08ad 54       		.byte	0x54
 1393 08ae 2A       		.uleb128 0x2a
 1394 08af 01060000 		.4byte	.LASF113
 1395 08b3 92090000 		.4byte	0x992
 1396 08b7 2B       		.uleb128 0x2b
 1397 08b8 9A070000 		.4byte	0x79a
 1398 08bc 0C000000 		.4byte	.LBB52
 1399 08c0 06000000 		.4byte	.LBE52-.LBB52
 1400 08c4 01       		.byte	0x1
 1401 08c5 5C       		.byte	0x5c
 1402 08c6 F3080000 		.4byte	0x8f3
 1403 08ca 2C       		.uleb128 0x2c
 1404 08cb 88070000 		.4byte	0x788
 1405 08cf 0C000000 		.4byte	.LBB53
 1406 08d3 06000000 		.4byte	.LBE53-.LBB53
 1407 08d7 0F       		.byte	0xf
 1408 08d8 7801     		.2byte	0x178
 1409 08da 2C       		.uleb128 0x2c
 1410 08db 6E070000 		.4byte	0x76e
 1411 08df 0C000000 		.4byte	.LBB54
 1412 08e3 06000000 		.4byte	.LBE54-.LBB54
 1413 08e7 0A       		.byte	0xa
 1414 08e8 5A02     		.2byte	0x25a
 1415 08ea 2D       		.uleb128 0x2d
 1416 08eb 7B070000 		.4byte	0x77b
 1417 08ef 20       		.byte	0x20
 1418 08f0 00       		.byte	0
 1419 08f1 00       		.byte	0
 1420 08f2 00       		.byte	0
 1421 08f3 2E       		.uleb128 0x2e
 1422 08f4 A3070000 		.4byte	0x7a3
 1423 08f8 18000000 		.4byte	.LBB56
ARM GAS  /tmp/ccXcQhOY.s 			page 26


 1424 08fc 00000000 		.4byte	.Ldebug_ranges0+0
 1425 0900 01       		.byte	0x1
 1426 0901 5E       		.byte	0x5e
 1427 0902 17090000 		.4byte	0x917
 1428 0906 2F       		.uleb128 0x2f
 1429 0907 BB070000 		.4byte	0x7bb
 1430 090b 80000000 		.4byte	.LLST2
 1431 090f 30       		.uleb128 0x30
 1432 0910 B0070000 		.4byte	0x7b0
 1433 0914 01       		.uleb128 0x1
 1434 0915 54       		.byte	0x54
 1435 0916 00       		.byte	0
 1436 0917 2B       		.uleb128 0x2b
 1437 0918 CE070000 		.4byte	0x7ce
 1438 091c 32000000 		.4byte	.LBB60
 1439 0920 06000000 		.4byte	.LBE60-.LBB60
 1440 0924 01       		.byte	0x1
 1441 0925 64       		.byte	0x64
 1442 0926 65090000 		.4byte	0x965
 1443 092a 31       		.uleb128 0x31
 1444 092b 32000000 		.4byte	.LBB61
 1445 092f 06000000 		.4byte	.LBE61-.LBB61
 1446 0933 32       		.uleb128 0x32
 1447 0934 DB070000 		.4byte	0x7db
 1448 0938 2C       		.uleb128 0x2c
 1449 0939 91070000 		.4byte	0x791
 1450 093d 32000000 		.4byte	.LBB62
 1451 0941 06000000 		.4byte	.LBE62-.LBB62
 1452 0945 0F       		.byte	0xf
 1453 0946 8F01     		.2byte	0x18f
 1454 0948 2C       		.uleb128 0x2c
 1455 0949 6E070000 		.4byte	0x76e
 1456 094d 32000000 		.4byte	.LBB63
 1457 0951 06000000 		.4byte	.LBE63-.LBB63
 1458 0955 0A       		.byte	0xa
 1459 0956 6D02     		.2byte	0x26d
 1460 0958 2F       		.uleb128 0x2f
 1461 0959 7B070000 		.4byte	0x77b
 1462 095d CB000000 		.4byte	.LLST3
 1463 0961 00       		.byte	0
 1464 0962 00       		.byte	0
 1465 0963 00       		.byte	0
 1466 0964 00       		.byte	0
 1467 0965 33       		.uleb128 0x33
 1468 0966 30000000 		.4byte	.LVL6
 1469 096a C70B0000 		.4byte	0xbc7
 1470 096e 78090000 		.4byte	0x978
 1471 0972 34       		.uleb128 0x34
 1472 0973 01       		.uleb128 0x1
 1473 0974 50       		.byte	0x50
 1474 0975 01       		.uleb128 0x1
 1475 0976 3C       		.byte	0x3c
 1476 0977 00       		.byte	0
 1477 0978 35       		.uleb128 0x35
 1478 0979 3E000000 		.4byte	.LVL9
 1479 097d D90B0000 		.4byte	0xbd9
 1480 0981 00       		.byte	0
ARM GAS  /tmp/ccXcQhOY.s 			page 27


 1481 0982 19       		.uleb128 0x19
 1482 0983 3E050000 		.4byte	0x53e
 1483 0987 92090000 		.4byte	0x992
 1484 098b 1A       		.uleb128 0x1a
 1485 098c 46040000 		.4byte	0x446
 1486 0990 09       		.byte	0x9
 1487 0991 00       		.byte	0
 1488 0992 13       		.uleb128 0x13
 1489 0993 82090000 		.4byte	0x982
 1490 0997 27       		.uleb128 0x27
 1491 0998 21030000 		.4byte	.LASF116
 1492 099c 01       		.byte	0x1
 1493 099d 77       		.byte	0x77
 1494 099e 30020000 		.4byte	0x230
 1495 09a2 00000000 		.4byte	.LFB240
 1496 09a6 40000000 		.4byte	.LFE240-.LFB240
 1497 09aa 01       		.uleb128 0x1
 1498 09ab 9C       		.byte	0x9c
 1499 09ac 990A0000 		.4byte	0xa99
 1500 09b0 36       		.uleb128 0x36
 1501 09b1 747000   		.ascii	"tp\000"
 1502 09b4 01       		.byte	0x1
 1503 09b5 78       		.byte	0x78
 1504 09b6 30020000 		.4byte	0x230
 1505 09ba 2B       		.uleb128 0x2b
 1506 09bb 9A070000 		.4byte	0x79a
 1507 09bf 02000000 		.4byte	.LBB65
 1508 09c3 06000000 		.4byte	.LBE65-.LBB65
 1509 09c7 01       		.byte	0x1
 1510 09c8 7A       		.byte	0x7a
 1511 09c9 F6090000 		.4byte	0x9f6
 1512 09cd 2C       		.uleb128 0x2c
 1513 09ce 88070000 		.4byte	0x788
 1514 09d2 02000000 		.4byte	.LBB66
 1515 09d6 06000000 		.4byte	.LBE66-.LBB66
 1516 09da 0F       		.byte	0xf
 1517 09db 7801     		.2byte	0x178
 1518 09dd 2C       		.uleb128 0x2c
 1519 09de 6E070000 		.4byte	0x76e
 1520 09e2 02000000 		.4byte	.LBB67
 1521 09e6 06000000 		.4byte	.LBE67-.LBB67
 1522 09ea 0A       		.byte	0xa
 1523 09eb 5A02     		.2byte	0x25a
 1524 09ed 2D       		.uleb128 0x2d
 1525 09ee 7B070000 		.4byte	0x77b
 1526 09f2 20       		.byte	0x20
 1527 09f3 00       		.byte	0
 1528 09f4 00       		.byte	0
 1529 09f5 00       		.byte	0
 1530 09f6 2B       		.uleb128 0x2b
 1531 09f7 FE070000 		.4byte	0x7fe
 1532 09fb 12000000 		.4byte	.LBB69
 1533 09ff 06000000 		.4byte	.LBE69-.LBB69
 1534 0a03 01       		.byte	0x1
 1535 0a04 7B       		.byte	0x7b
 1536 0a05 130A0000 		.4byte	0xa13
 1537 0a09 2F       		.uleb128 0x2f
ARM GAS  /tmp/ccXcQhOY.s 			page 28


 1538 0a0a 0E080000 		.4byte	0x80e
 1539 0a0e DF000000 		.4byte	.LLST4
 1540 0a12 00       		.byte	0
 1541 0a13 2E       		.uleb128 0x2e
 1542 0a14 20080000 		.4byte	0x820
 1543 0a18 1C000000 		.4byte	.LBB71
 1544 0a1c 18000000 		.4byte	.Ldebug_ranges0+0x18
 1545 0a20 01       		.byte	0x1
 1546 0a21 7E       		.byte	0x7e
 1547 0a22 3F0A0000 		.4byte	0xa3f
 1548 0a26 2F       		.uleb128 0x2f
 1549 0a27 31080000 		.4byte	0x831
 1550 0a2b FD000000 		.4byte	.LLST5
 1551 0a2f 37       		.uleb128 0x37
 1552 0a30 18000000 		.4byte	.Ldebug_ranges0+0x18
 1553 0a34 38       		.uleb128 0x38
 1554 0a35 3D080000 		.4byte	0x83d
 1555 0a39 10010000 		.4byte	.LLST6
 1556 0a3d 00       		.byte	0
 1557 0a3e 00       		.byte	0
 1558 0a3f 2E       		.uleb128 0x2e
 1559 0a40 CE070000 		.4byte	0x7ce
 1560 0a44 24000000 		.4byte	.LBB75
 1561 0a48 30000000 		.4byte	.Ldebug_ranges0+0x30
 1562 0a4c 01       		.byte	0x1
 1563 0a4d 80       		.byte	0x80
 1564 0a4e 890A0000 		.4byte	0xa89
 1565 0a52 37       		.uleb128 0x37
 1566 0a53 30000000 		.4byte	.Ldebug_ranges0+0x30
 1567 0a57 32       		.uleb128 0x32
 1568 0a58 DB070000 		.4byte	0x7db
 1569 0a5c 39       		.uleb128 0x39
 1570 0a5d 91070000 		.4byte	0x791
 1571 0a61 24000000 		.4byte	.LBB77
 1572 0a65 30000000 		.4byte	.Ldebug_ranges0+0x30
 1573 0a69 0F       		.byte	0xf
 1574 0a6a 8F01     		.2byte	0x18f
 1575 0a6c 39       		.uleb128 0x39
 1576 0a6d 6E070000 		.4byte	0x76e
 1577 0a71 24000000 		.4byte	.LBB78
 1578 0a75 30000000 		.4byte	.Ldebug_ranges0+0x30
 1579 0a79 0A       		.byte	0xa
 1580 0a7a 6D02     		.2byte	0x26d
 1581 0a7c 2F       		.uleb128 0x2f
 1582 0a7d 7B070000 		.4byte	0x77b
 1583 0a81 23010000 		.4byte	.LLST7
 1584 0a85 00       		.byte	0
 1585 0a86 00       		.byte	0
 1586 0a87 00       		.byte	0
 1587 0a88 00       		.byte	0
 1588 0a89 3A       		.uleb128 0x3a
 1589 0a8a 36000000 		.4byte	.LVL15
 1590 0a8e C70B0000 		.4byte	0xbc7
 1591 0a92 34       		.uleb128 0x34
 1592 0a93 01       		.uleb128 0x1
 1593 0a94 50       		.byte	0x50
 1594 0a95 01       		.uleb128 0x1
ARM GAS  /tmp/ccXcQhOY.s 			page 29


 1595 0a96 3E       		.byte	0x3e
 1596 0a97 00       		.byte	0
 1597 0a98 00       		.byte	0
 1598 0a99 3B       		.uleb128 0x3b
 1599 0a9a 7A010000 		.4byte	.LASF121
 1600 0a9e 01       		.byte	0x1
 1601 0a9f 8F       		.byte	0x8f
 1602 0aa0 00000000 		.4byte	.LFB241
 1603 0aa4 14000000 		.4byte	.LFE241-.LFB241
 1604 0aa8 01       		.uleb128 0x1
 1605 0aa9 9C       		.byte	0x9c
 1606 0aaa 960B0000 		.4byte	0xb96
 1607 0aae 28       		.uleb128 0x28
 1608 0aaf 747000   		.ascii	"tp\000"
 1609 0ab2 01       		.byte	0x1
 1610 0ab3 8F       		.byte	0x8f
 1611 0ab4 30020000 		.4byte	0x230
 1612 0ab8 37010000 		.4byte	.LLST8
 1613 0abc 28       		.uleb128 0x28
 1614 0abd 6D736700 		.ascii	"msg\000"
 1615 0ac1 01       		.byte	0x1
 1616 0ac2 8F       		.byte	0x8f
 1617 0ac3 10010000 		.4byte	0x110
 1618 0ac7 58010000 		.4byte	.LLST9
 1619 0acb 2A       		.uleb128 0x2a
 1620 0acc 01060000 		.4byte	.LASF113
 1621 0ad0 A60B0000 		.4byte	0xba6
 1622 0ad4 2B       		.uleb128 0x2b
 1623 0ad5 9A070000 		.4byte	0x79a
 1624 0ad9 02000000 		.4byte	.LBB85
 1625 0add 06000000 		.4byte	.LBE85-.LBB85
 1626 0ae1 01       		.byte	0x1
 1627 0ae2 91       		.byte	0x91
 1628 0ae3 100B0000 		.4byte	0xb10
 1629 0ae7 2C       		.uleb128 0x2c
 1630 0ae8 88070000 		.4byte	0x788
 1631 0aec 02000000 		.4byte	.LBB86
 1632 0af0 06000000 		.4byte	.LBE86-.LBB86
 1633 0af4 0F       		.byte	0xf
 1634 0af5 7801     		.2byte	0x178
 1635 0af7 2C       		.uleb128 0x2c
 1636 0af8 6E070000 		.4byte	0x76e
 1637 0afc 02000000 		.4byte	.LBB87
 1638 0b00 06000000 		.4byte	.LBE87-.LBB87
 1639 0b04 0A       		.byte	0xa
 1640 0b05 5A02     		.2byte	0x25a
 1641 0b07 2D       		.uleb128 0x2d
 1642 0b08 7B070000 		.4byte	0x77b
 1643 0b0c 20       		.byte	0x20
 1644 0b0d 00       		.byte	0
 1645 0b0e 00       		.byte	0
 1646 0b0f 00       		.byte	0
 1647 0b10 2B       		.uleb128 0x2b
 1648 0b11 49080000 		.4byte	0x849
 1649 0b15 08000000 		.4byte	.LBB89
 1650 0b19 04000000 		.4byte	.LBE89-.LBB89
 1651 0b1d 01       		.byte	0x1
ARM GAS  /tmp/ccXcQhOY.s 			page 30


 1652 0b1e 93       		.byte	0x93
 1653 0b1f 4E0B0000 		.4byte	0xb4e
 1654 0b23 2F       		.uleb128 0x2f
 1655 0b24 5F080000 		.4byte	0x85f
 1656 0b28 79010000 		.4byte	.LLST10
 1657 0b2c 2F       		.uleb128 0x2f
 1658 0b2d 55080000 		.4byte	0x855
 1659 0b31 9A010000 		.4byte	.LLST11
 1660 0b35 3A       		.uleb128 0x3a
 1661 0b36 0C000000 		.4byte	.LVL18
 1662 0b3a EF0B0000 		.4byte	0xbef
 1663 0b3e 34       		.uleb128 0x34
 1664 0b3f 01       		.uleb128 0x1
 1665 0b40 51       		.byte	0x51
 1666 0b41 03       		.uleb128 0x3
 1667 0b42 F3       		.byte	0xf3
 1668 0b43 01       		.uleb128 0x1
 1669 0b44 51       		.byte	0x51
 1670 0b45 34       		.uleb128 0x34
 1671 0b46 01       		.uleb128 0x1
 1672 0b47 50       		.byte	0x50
 1673 0b48 03       		.uleb128 0x3
 1674 0b49 F3       		.byte	0xf3
 1675 0b4a 01       		.uleb128 0x1
 1676 0b4b 50       		.byte	0x50
 1677 0b4c 00       		.byte	0
 1678 0b4d 00       		.byte	0
 1679 0b4e 3C       		.uleb128 0x3c
 1680 0b4f CE070000 		.4byte	0x7ce
 1681 0b53 0C000000 		.4byte	.LBB91
 1682 0b57 08000000 		.4byte	.LBE91-.LBB91
 1683 0b5b 01       		.byte	0x1
 1684 0b5c 94       		.byte	0x94
 1685 0b5d 31       		.uleb128 0x31
 1686 0b5e 0C000000 		.4byte	.LBB92
 1687 0b62 08000000 		.4byte	.LBE92-.LBB92
 1688 0b66 32       		.uleb128 0x32
 1689 0b67 DB070000 		.4byte	0x7db
 1690 0b6b 2C       		.uleb128 0x2c
 1691 0b6c 91070000 		.4byte	0x791
 1692 0b70 0C000000 		.4byte	.LBB93
 1693 0b74 08000000 		.4byte	.LBE93-.LBB93
 1694 0b78 0F       		.byte	0xf
 1695 0b79 8F01     		.2byte	0x18f
 1696 0b7b 2C       		.uleb128 0x2c
 1697 0b7c 6E070000 		.4byte	0x76e
 1698 0b80 0C000000 		.4byte	.LBB94
 1699 0b84 08000000 		.4byte	.LBE94-.LBB94
 1700 0b88 0A       		.byte	0xa
 1701 0b89 6D02     		.2byte	0x26d
 1702 0b8b 2D       		.uleb128 0x2d
 1703 0b8c 7B070000 		.4byte	0x77b
 1704 0b90 00       		.byte	0
 1705 0b91 00       		.byte	0
 1706 0b92 00       		.byte	0
 1707 0b93 00       		.byte	0
 1708 0b94 00       		.byte	0
ARM GAS  /tmp/ccXcQhOY.s 			page 31


 1709 0b95 00       		.byte	0
 1710 0b96 19       		.uleb128 0x19
 1711 0b97 3E050000 		.4byte	0x53e
 1712 0b9b A60B0000 		.4byte	0xba6
 1713 0b9f 1A       		.uleb128 0x1a
 1714 0ba0 46040000 		.4byte	0x446
 1715 0ba4 0C       		.byte	0xc
 1716 0ba5 00       		.byte	0
 1717 0ba6 13       		.uleb128 0x13
 1718 0ba7 960B0000 		.4byte	0xb96
 1719 0bab 3D       		.uleb128 0x3d
 1720 0bac 79040000 		.4byte	.LASF117
 1721 0bb0 10       		.byte	0x10
 1722 0bb1 4407     		.2byte	0x744
 1723 0bb3 B70B0000 		.4byte	0xbb7
 1724 0bb7 1C       		.uleb128 0x1c
 1725 0bb8 B8000000 		.4byte	0xb8
 1726 0bbc 3E       		.uleb128 0x3e
 1727 0bbd 636800   		.ascii	"ch\000"
 1728 0bc0 03       		.byte	0x3
 1729 0bc1 D201     		.2byte	0x1d2
 1730 0bc3 EA030000 		.4byte	0x3ea
 1731 0bc7 3F       		.uleb128 0x3f
 1732 0bc8 C5040000 		.4byte	.LASF122
 1733 0bcc 03       		.byte	0x3
 1734 0bcd DE01     		.2byte	0x1de
 1735 0bcf D90B0000 		.4byte	0xbd9
 1736 0bd3 0D       		.uleb128 0xd
 1737 0bd4 EF000000 		.4byte	0xef
 1738 0bd8 00       		.byte	0
 1739 0bd9 40       		.uleb128 0x40
 1740 0bda 87010000 		.4byte	.LASF123
 1741 0bde 03       		.byte	0x3
 1742 0bdf DC01     		.2byte	0x1dc
 1743 0be1 30020000 		.4byte	0x230
 1744 0be5 EF0B0000 		.4byte	0xbef
 1745 0be9 0D       		.uleb128 0xd
 1746 0bea 30020000 		.4byte	0x230
 1747 0bee 00       		.byte	0
 1748 0bef 41       		.uleb128 0x41
 1749 0bf0 85050000 		.4byte	.LASF124
 1750 0bf4 03       		.byte	0x3
 1751 0bf5 E001     		.2byte	0x1e0
 1752 0bf7 0D       		.uleb128 0xd
 1753 0bf8 30020000 		.4byte	0x230
 1754 0bfc 0D       		.uleb128 0xd
 1755 0bfd 10010000 		.4byte	0x110
 1756 0c01 00       		.byte	0
 1757 0c02 00       		.byte	0
 1758              		.section	.debug_abbrev,"",%progbits
 1759              	.Ldebug_abbrev0:
 1760 0000 01       		.uleb128 0x1
 1761 0001 11       		.uleb128 0x11
 1762 0002 01       		.byte	0x1
 1763 0003 25       		.uleb128 0x25
 1764 0004 0E       		.uleb128 0xe
 1765 0005 13       		.uleb128 0x13
ARM GAS  /tmp/ccXcQhOY.s 			page 32


 1766 0006 0B       		.uleb128 0xb
 1767 0007 03       		.uleb128 0x3
 1768 0008 0E       		.uleb128 0xe
 1769 0009 1B       		.uleb128 0x1b
 1770 000a 0E       		.uleb128 0xe
 1771 000b 55       		.uleb128 0x55
 1772 000c 17       		.uleb128 0x17
 1773 000d 11       		.uleb128 0x11
 1774 000e 01       		.uleb128 0x1
 1775 000f 10       		.uleb128 0x10
 1776 0010 17       		.uleb128 0x17
 1777 0011 00       		.byte	0
 1778 0012 00       		.byte	0
 1779 0013 02       		.uleb128 0x2
 1780 0014 24       		.uleb128 0x24
 1781 0015 00       		.byte	0
 1782 0016 0B       		.uleb128 0xb
 1783 0017 0B       		.uleb128 0xb
 1784 0018 3E       		.uleb128 0x3e
 1785 0019 0B       		.uleb128 0xb
 1786 001a 03       		.uleb128 0x3
 1787 001b 08       		.uleb128 0x8
 1788 001c 00       		.byte	0
 1789 001d 00       		.byte	0
 1790 001e 03       		.uleb128 0x3
 1791 001f 24       		.uleb128 0x24
 1792 0020 00       		.byte	0
 1793 0021 0B       		.uleb128 0xb
 1794 0022 0B       		.uleb128 0xb
 1795 0023 3E       		.uleb128 0x3e
 1796 0024 0B       		.uleb128 0xb
 1797 0025 03       		.uleb128 0x3
 1798 0026 0E       		.uleb128 0xe
 1799 0027 00       		.byte	0
 1800 0028 00       		.byte	0
 1801 0029 04       		.uleb128 0x4
 1802 002a 16       		.uleb128 0x16
 1803 002b 00       		.byte	0
 1804 002c 03       		.uleb128 0x3
 1805 002d 0E       		.uleb128 0xe
 1806 002e 3A       		.uleb128 0x3a
 1807 002f 0B       		.uleb128 0xb
 1808 0030 3B       		.uleb128 0x3b
 1809 0031 0B       		.uleb128 0xb
 1810 0032 49       		.uleb128 0x49
 1811 0033 13       		.uleb128 0x13
 1812 0034 00       		.byte	0
 1813 0035 00       		.byte	0
 1814 0036 05       		.uleb128 0x5
 1815 0037 13       		.uleb128 0x13
 1816 0038 01       		.byte	0x1
 1817 0039 03       		.uleb128 0x3
 1818 003a 0E       		.uleb128 0xe
 1819 003b 0B       		.uleb128 0xb
 1820 003c 0B       		.uleb128 0xb
 1821 003d 3A       		.uleb128 0x3a
 1822 003e 0B       		.uleb128 0xb
ARM GAS  /tmp/ccXcQhOY.s 			page 33


 1823 003f 3B       		.uleb128 0x3b
 1824 0040 0B       		.uleb128 0xb
 1825 0041 01       		.uleb128 0x1
 1826 0042 13       		.uleb128 0x13
 1827 0043 00       		.byte	0
 1828 0044 00       		.byte	0
 1829 0045 06       		.uleb128 0x6
 1830 0046 0D       		.uleb128 0xd
 1831 0047 00       		.byte	0
 1832 0048 03       		.uleb128 0x3
 1833 0049 0E       		.uleb128 0xe
 1834 004a 3A       		.uleb128 0x3a
 1835 004b 0B       		.uleb128 0xb
 1836 004c 3B       		.uleb128 0x3b
 1837 004d 0B       		.uleb128 0xb
 1838 004e 49       		.uleb128 0x49
 1839 004f 13       		.uleb128 0x13
 1840 0050 38       		.uleb128 0x38
 1841 0051 0B       		.uleb128 0xb
 1842 0052 00       		.byte	0
 1843 0053 00       		.byte	0
 1844 0054 07       		.uleb128 0x7
 1845 0055 0D       		.uleb128 0xd
 1846 0056 00       		.byte	0
 1847 0057 03       		.uleb128 0x3
 1848 0058 08       		.uleb128 0x8
 1849 0059 3A       		.uleb128 0x3a
 1850 005a 0B       		.uleb128 0xb
 1851 005b 3B       		.uleb128 0x3b
 1852 005c 0B       		.uleb128 0xb
 1853 005d 49       		.uleb128 0x49
 1854 005e 13       		.uleb128 0x13
 1855 005f 38       		.uleb128 0x38
 1856 0060 0B       		.uleb128 0xb
 1857 0061 00       		.byte	0
 1858 0062 00       		.byte	0
 1859 0063 08       		.uleb128 0x8
 1860 0064 0D       		.uleb128 0xd
 1861 0065 00       		.byte	0
 1862 0066 03       		.uleb128 0x3
 1863 0067 08       		.uleb128 0x8
 1864 0068 3A       		.uleb128 0x3a
 1865 0069 0B       		.uleb128 0xb
 1866 006a 3B       		.uleb128 0x3b
 1867 006b 05       		.uleb128 0x5
 1868 006c 49       		.uleb128 0x49
 1869 006d 13       		.uleb128 0x13
 1870 006e 38       		.uleb128 0x38
 1871 006f 0B       		.uleb128 0xb
 1872 0070 00       		.byte	0
 1873 0071 00       		.byte	0
 1874 0072 09       		.uleb128 0x9
 1875 0073 0D       		.uleb128 0xd
 1876 0074 00       		.byte	0
 1877 0075 03       		.uleb128 0x3
 1878 0076 0E       		.uleb128 0xe
 1879 0077 3A       		.uleb128 0x3a
ARM GAS  /tmp/ccXcQhOY.s 			page 34


 1880 0078 0B       		.uleb128 0xb
 1881 0079 3B       		.uleb128 0x3b
 1882 007a 05       		.uleb128 0x5
 1883 007b 49       		.uleb128 0x49
 1884 007c 13       		.uleb128 0x13
 1885 007d 38       		.uleb128 0x38
 1886 007e 0B       		.uleb128 0xb
 1887 007f 00       		.byte	0
 1888 0080 00       		.byte	0
 1889 0081 0A       		.uleb128 0xa
 1890 0082 0F       		.uleb128 0xf
 1891 0083 00       		.byte	0
 1892 0084 0B       		.uleb128 0xb
 1893 0085 0B       		.uleb128 0xb
 1894 0086 49       		.uleb128 0x49
 1895 0087 13       		.uleb128 0x13
 1896 0088 00       		.byte	0
 1897 0089 00       		.byte	0
 1898 008a 0B       		.uleb128 0xb
 1899 008b 13       		.uleb128 0x13
 1900 008c 01       		.byte	0x1
 1901 008d 03       		.uleb128 0x3
 1902 008e 0E       		.uleb128 0xe
 1903 008f 0B       		.uleb128 0xb
 1904 0090 0B       		.uleb128 0xb
 1905 0091 3A       		.uleb128 0x3a
 1906 0092 0B       		.uleb128 0xb
 1907 0093 3B       		.uleb128 0x3b
 1908 0094 05       		.uleb128 0x5
 1909 0095 01       		.uleb128 0x1
 1910 0096 13       		.uleb128 0x13
 1911 0097 00       		.byte	0
 1912 0098 00       		.byte	0
 1913 0099 0C       		.uleb128 0xc
 1914 009a 15       		.uleb128 0x15
 1915 009b 01       		.byte	0x1
 1916 009c 27       		.uleb128 0x27
 1917 009d 19       		.uleb128 0x19
 1918 009e 01       		.uleb128 0x1
 1919 009f 13       		.uleb128 0x13
 1920 00a0 00       		.byte	0
 1921 00a1 00       		.byte	0
 1922 00a2 0D       		.uleb128 0xd
 1923 00a3 05       		.uleb128 0x5
 1924 00a4 00       		.byte	0
 1925 00a5 49       		.uleb128 0x49
 1926 00a6 13       		.uleb128 0x13
 1927 00a7 00       		.byte	0
 1928 00a8 00       		.byte	0
 1929 00a9 0E       		.uleb128 0xe
 1930 00aa 0F       		.uleb128 0xf
 1931 00ab 00       		.byte	0
 1932 00ac 0B       		.uleb128 0xb
 1933 00ad 0B       		.uleb128 0xb
 1934 00ae 00       		.byte	0
 1935 00af 00       		.byte	0
 1936 00b0 0F       		.uleb128 0xf
ARM GAS  /tmp/ccXcQhOY.s 			page 35


 1937 00b1 13       		.uleb128 0x13
 1938 00b2 01       		.byte	0x1
 1939 00b3 03       		.uleb128 0x3
 1940 00b4 0E       		.uleb128 0xe
 1941 00b5 0B       		.uleb128 0xb
 1942 00b6 05       		.uleb128 0x5
 1943 00b7 3A       		.uleb128 0x3a
 1944 00b8 0B       		.uleb128 0xb
 1945 00b9 3B       		.uleb128 0x3b
 1946 00ba 05       		.uleb128 0x5
 1947 00bb 01       		.uleb128 0x1
 1948 00bc 13       		.uleb128 0x13
 1949 00bd 00       		.byte	0
 1950 00be 00       		.byte	0
 1951 00bf 10       		.uleb128 0x10
 1952 00c0 0D       		.uleb128 0xd
 1953 00c1 00       		.byte	0
 1954 00c2 03       		.uleb128 0x3
 1955 00c3 0E       		.uleb128 0xe
 1956 00c4 3A       		.uleb128 0x3a
 1957 00c5 0B       		.uleb128 0xb
 1958 00c6 3B       		.uleb128 0x3b
 1959 00c7 05       		.uleb128 0x5
 1960 00c8 49       		.uleb128 0x49
 1961 00c9 13       		.uleb128 0x13
 1962 00ca 38       		.uleb128 0x38
 1963 00cb 05       		.uleb128 0x5
 1964 00cc 00       		.byte	0
 1965 00cd 00       		.byte	0
 1966 00ce 11       		.uleb128 0x11
 1967 00cf 0D       		.uleb128 0xd
 1968 00d0 00       		.byte	0
 1969 00d1 03       		.uleb128 0x3
 1970 00d2 08       		.uleb128 0x8
 1971 00d3 3A       		.uleb128 0x3a
 1972 00d4 0B       		.uleb128 0xb
 1973 00d5 3B       		.uleb128 0x3b
 1974 00d6 05       		.uleb128 0x5
 1975 00d7 49       		.uleb128 0x49
 1976 00d8 13       		.uleb128 0x13
 1977 00d9 38       		.uleb128 0x38
 1978 00da 05       		.uleb128 0x5
 1979 00db 00       		.byte	0
 1980 00dc 00       		.byte	0
 1981 00dd 12       		.uleb128 0x12
 1982 00de 13       		.uleb128 0x13
 1983 00df 01       		.byte	0x1
 1984 00e0 0B       		.uleb128 0xb
 1985 00e1 0B       		.uleb128 0xb
 1986 00e2 3A       		.uleb128 0x3a
 1987 00e3 0B       		.uleb128 0xb
 1988 00e4 3B       		.uleb128 0x3b
 1989 00e5 0B       		.uleb128 0xb
 1990 00e6 01       		.uleb128 0x1
 1991 00e7 13       		.uleb128 0x13
 1992 00e8 00       		.byte	0
 1993 00e9 00       		.byte	0
ARM GAS  /tmp/ccXcQhOY.s 			page 36


 1994 00ea 13       		.uleb128 0x13
 1995 00eb 26       		.uleb128 0x26
 1996 00ec 00       		.byte	0
 1997 00ed 49       		.uleb128 0x49
 1998 00ee 13       		.uleb128 0x13
 1999 00ef 00       		.byte	0
 2000 00f0 00       		.byte	0
 2001 00f1 14       		.uleb128 0x14
 2002 00f2 17       		.uleb128 0x17
 2003 00f3 01       		.byte	0x1
 2004 00f4 0B       		.uleb128 0xb
 2005 00f5 0B       		.uleb128 0xb
 2006 00f6 3A       		.uleb128 0x3a
 2007 00f7 0B       		.uleb128 0xb
 2008 00f8 3B       		.uleb128 0x3b
 2009 00f9 0B       		.uleb128 0xb
 2010 00fa 01       		.uleb128 0x1
 2011 00fb 13       		.uleb128 0x13
 2012 00fc 00       		.byte	0
 2013 00fd 00       		.byte	0
 2014 00fe 15       		.uleb128 0x15
 2015 00ff 0D       		.uleb128 0xd
 2016 0100 00       		.byte	0
 2017 0101 03       		.uleb128 0x3
 2018 0102 08       		.uleb128 0x8
 2019 0103 3A       		.uleb128 0x3a
 2020 0104 0B       		.uleb128 0xb
 2021 0105 3B       		.uleb128 0x3b
 2022 0106 0B       		.uleb128 0xb
 2023 0107 49       		.uleb128 0x49
 2024 0108 13       		.uleb128 0x13
 2025 0109 00       		.byte	0
 2026 010a 00       		.byte	0
 2027 010b 16       		.uleb128 0x16
 2028 010c 0D       		.uleb128 0xd
 2029 010d 00       		.byte	0
 2030 010e 03       		.uleb128 0x3
 2031 010f 0E       		.uleb128 0xe
 2032 0110 3A       		.uleb128 0x3a
 2033 0111 0B       		.uleb128 0xb
 2034 0112 3B       		.uleb128 0x3b
 2035 0113 0B       		.uleb128 0xb
 2036 0114 49       		.uleb128 0x49
 2037 0115 13       		.uleb128 0x13
 2038 0116 00       		.byte	0
 2039 0117 00       		.byte	0
 2040 0118 17       		.uleb128 0x17
 2041 0119 0D       		.uleb128 0xd
 2042 011a 00       		.byte	0
 2043 011b 03       		.uleb128 0x3
 2044 011c 0E       		.uleb128 0xe
 2045 011d 3A       		.uleb128 0x3a
 2046 011e 0B       		.uleb128 0xb
 2047 011f 3B       		.uleb128 0x3b
 2048 0120 0B       		.uleb128 0xb
 2049 0121 49       		.uleb128 0x49
 2050 0122 13       		.uleb128 0x13
ARM GAS  /tmp/ccXcQhOY.s 			page 37


 2051 0123 0B       		.uleb128 0xb
 2052 0124 0B       		.uleb128 0xb
 2053 0125 0D       		.uleb128 0xd
 2054 0126 0B       		.uleb128 0xb
 2055 0127 0C       		.uleb128 0xc
 2056 0128 0B       		.uleb128 0xb
 2057 0129 38       		.uleb128 0x38
 2058 012a 0B       		.uleb128 0xb
 2059 012b 00       		.byte	0
 2060 012c 00       		.byte	0
 2061 012d 18       		.uleb128 0x18
 2062 012e 13       		.uleb128 0x13
 2063 012f 01       		.byte	0x1
 2064 0130 0B       		.uleb128 0xb
 2065 0131 05       		.uleb128 0x5
 2066 0132 3A       		.uleb128 0x3a
 2067 0133 0B       		.uleb128 0xb
 2068 0134 3B       		.uleb128 0x3b
 2069 0135 0B       		.uleb128 0xb
 2070 0136 01       		.uleb128 0x1
 2071 0137 13       		.uleb128 0x13
 2072 0138 00       		.byte	0
 2073 0139 00       		.byte	0
 2074 013a 19       		.uleb128 0x19
 2075 013b 01       		.uleb128 0x1
 2076 013c 01       		.byte	0x1
 2077 013d 49       		.uleb128 0x49
 2078 013e 13       		.uleb128 0x13
 2079 013f 01       		.uleb128 0x1
 2080 0140 13       		.uleb128 0x13
 2081 0141 00       		.byte	0
 2082 0142 00       		.byte	0
 2083 0143 1A       		.uleb128 0x1a
 2084 0144 21       		.uleb128 0x21
 2085 0145 00       		.byte	0
 2086 0146 49       		.uleb128 0x49
 2087 0147 13       		.uleb128 0x13
 2088 0148 2F       		.uleb128 0x2f
 2089 0149 0B       		.uleb128 0xb
 2090 014a 00       		.byte	0
 2091 014b 00       		.byte	0
 2092 014c 1B       		.uleb128 0x1b
 2093 014d 0D       		.uleb128 0xd
 2094 014e 00       		.byte	0
 2095 014f 03       		.uleb128 0x3
 2096 0150 0E       		.uleb128 0xe
 2097 0151 3A       		.uleb128 0x3a
 2098 0152 0B       		.uleb128 0xb
 2099 0153 3B       		.uleb128 0x3b
 2100 0154 05       		.uleb128 0x5
 2101 0155 49       		.uleb128 0x49
 2102 0156 13       		.uleb128 0x13
 2103 0157 00       		.byte	0
 2104 0158 00       		.byte	0
 2105 0159 1C       		.uleb128 0x1c
 2106 015a 35       		.uleb128 0x35
 2107 015b 00       		.byte	0
ARM GAS  /tmp/ccXcQhOY.s 			page 38


 2108 015c 49       		.uleb128 0x49
 2109 015d 13       		.uleb128 0x13
 2110 015e 00       		.byte	0
 2111 015f 00       		.byte	0
 2112 0160 1D       		.uleb128 0x1d
 2113 0161 2E       		.uleb128 0x2e
 2114 0162 01       		.byte	0x1
 2115 0163 03       		.uleb128 0x3
 2116 0164 0E       		.uleb128 0xe
 2117 0165 3A       		.uleb128 0x3a
 2118 0166 0B       		.uleb128 0xb
 2119 0167 3B       		.uleb128 0x3b
 2120 0168 05       		.uleb128 0x5
 2121 0169 27       		.uleb128 0x27
 2122 016a 19       		.uleb128 0x19
 2123 016b 20       		.uleb128 0x20
 2124 016c 0B       		.uleb128 0xb
 2125 016d 01       		.uleb128 0x1
 2126 016e 13       		.uleb128 0x13
 2127 016f 00       		.byte	0
 2128 0170 00       		.byte	0
 2129 0171 1E       		.uleb128 0x1e
 2130 0172 05       		.uleb128 0x5
 2131 0173 00       		.byte	0
 2132 0174 03       		.uleb128 0x3
 2133 0175 0E       		.uleb128 0xe
 2134 0176 3A       		.uleb128 0x3a
 2135 0177 0B       		.uleb128 0xb
 2136 0178 3B       		.uleb128 0x3b
 2137 0179 05       		.uleb128 0x5
 2138 017a 49       		.uleb128 0x49
 2139 017b 13       		.uleb128 0x13
 2140 017c 00       		.byte	0
 2141 017d 00       		.byte	0
 2142 017e 1F       		.uleb128 0x1f
 2143 017f 2E       		.uleb128 0x2e
 2144 0180 00       		.byte	0
 2145 0181 03       		.uleb128 0x3
 2146 0182 0E       		.uleb128 0xe
 2147 0183 3A       		.uleb128 0x3a
 2148 0184 0B       		.uleb128 0xb
 2149 0185 3B       		.uleb128 0x3b
 2150 0186 05       		.uleb128 0x5
 2151 0187 27       		.uleb128 0x27
 2152 0188 19       		.uleb128 0x19
 2153 0189 20       		.uleb128 0x20
 2154 018a 0B       		.uleb128 0xb
 2155 018b 00       		.byte	0
 2156 018c 00       		.byte	0
 2157 018d 20       		.uleb128 0x20
 2158 018e 05       		.uleb128 0x5
 2159 018f 00       		.byte	0
 2160 0190 03       		.uleb128 0x3
 2161 0191 08       		.uleb128 0x8
 2162 0192 3A       		.uleb128 0x3a
 2163 0193 0B       		.uleb128 0xb
 2164 0194 3B       		.uleb128 0x3b
ARM GAS  /tmp/ccXcQhOY.s 			page 39


 2165 0195 05       		.uleb128 0x5
 2166 0196 49       		.uleb128 0x49
 2167 0197 13       		.uleb128 0x13
 2168 0198 00       		.byte	0
 2169 0199 00       		.byte	0
 2170 019a 21       		.uleb128 0x21
 2171 019b 34       		.uleb128 0x34
 2172 019c 00       		.byte	0
 2173 019d 03       		.uleb128 0x3
 2174 019e 0E       		.uleb128 0xe
 2175 019f 49       		.uleb128 0x49
 2176 01a0 13       		.uleb128 0x13
 2177 01a1 34       		.uleb128 0x34
 2178 01a2 19       		.uleb128 0x19
 2179 01a3 1C       		.uleb128 0x1c
 2180 01a4 0E       		.uleb128 0xe
 2181 01a5 00       		.byte	0
 2182 01a6 00       		.byte	0
 2183 01a7 22       		.uleb128 0x22
 2184 01a8 2E       		.uleb128 0x2e
 2185 01a9 01       		.byte	0x1
 2186 01aa 03       		.uleb128 0x3
 2187 01ab 0E       		.uleb128 0xe
 2188 01ac 3A       		.uleb128 0x3a
 2189 01ad 0B       		.uleb128 0xb
 2190 01ae 3B       		.uleb128 0x3b
 2191 01af 0B       		.uleb128 0xb
 2192 01b0 27       		.uleb128 0x27
 2193 01b1 19       		.uleb128 0x19
 2194 01b2 49       		.uleb128 0x49
 2195 01b3 13       		.uleb128 0x13
 2196 01b4 20       		.uleb128 0x20
 2197 01b5 0B       		.uleb128 0xb
 2198 01b6 01       		.uleb128 0x1
 2199 01b7 13       		.uleb128 0x13
 2200 01b8 00       		.byte	0
 2201 01b9 00       		.byte	0
 2202 01ba 23       		.uleb128 0x23
 2203 01bb 05       		.uleb128 0x5
 2204 01bc 00       		.byte	0
 2205 01bd 03       		.uleb128 0x3
 2206 01be 08       		.uleb128 0x8
 2207 01bf 3A       		.uleb128 0x3a
 2208 01c0 0B       		.uleb128 0xb
 2209 01c1 3B       		.uleb128 0x3b
 2210 01c2 0B       		.uleb128 0xb
 2211 01c3 49       		.uleb128 0x49
 2212 01c4 13       		.uleb128 0x13
 2213 01c5 00       		.byte	0
 2214 01c6 00       		.byte	0
 2215 01c7 24       		.uleb128 0x24
 2216 01c8 2E       		.uleb128 0x2e
 2217 01c9 01       		.byte	0x1
 2218 01ca 03       		.uleb128 0x3
 2219 01cb 0E       		.uleb128 0xe
 2220 01cc 3A       		.uleb128 0x3a
 2221 01cd 0B       		.uleb128 0xb
ARM GAS  /tmp/ccXcQhOY.s 			page 40


 2222 01ce 3B       		.uleb128 0x3b
 2223 01cf 05       		.uleb128 0x5
 2224 01d0 27       		.uleb128 0x27
 2225 01d1 19       		.uleb128 0x19
 2226 01d2 49       		.uleb128 0x49
 2227 01d3 13       		.uleb128 0x13
 2228 01d4 20       		.uleb128 0x20
 2229 01d5 0B       		.uleb128 0xb
 2230 01d6 01       		.uleb128 0x1
 2231 01d7 13       		.uleb128 0x13
 2232 01d8 00       		.byte	0
 2233 01d9 00       		.byte	0
 2234 01da 25       		.uleb128 0x25
 2235 01db 34       		.uleb128 0x34
 2236 01dc 00       		.byte	0
 2237 01dd 03       		.uleb128 0x3
 2238 01de 08       		.uleb128 0x8
 2239 01df 3A       		.uleb128 0x3a
 2240 01e0 0B       		.uleb128 0xb
 2241 01e1 3B       		.uleb128 0x3b
 2242 01e2 05       		.uleb128 0x5
 2243 01e3 49       		.uleb128 0x49
 2244 01e4 13       		.uleb128 0x13
 2245 01e5 00       		.byte	0
 2246 01e6 00       		.byte	0
 2247 01e7 26       		.uleb128 0x26
 2248 01e8 2E       		.uleb128 0x2e
 2249 01e9 01       		.byte	0x1
 2250 01ea 03       		.uleb128 0x3
 2251 01eb 0E       		.uleb128 0xe
 2252 01ec 3A       		.uleb128 0x3a
 2253 01ed 0B       		.uleb128 0xb
 2254 01ee 3B       		.uleb128 0x3b
 2255 01ef 0B       		.uleb128 0xb
 2256 01f0 27       		.uleb128 0x27
 2257 01f1 19       		.uleb128 0x19
 2258 01f2 20       		.uleb128 0x20
 2259 01f3 0B       		.uleb128 0xb
 2260 01f4 01       		.uleb128 0x1
 2261 01f5 13       		.uleb128 0x13
 2262 01f6 00       		.byte	0
 2263 01f7 00       		.byte	0
 2264 01f8 27       		.uleb128 0x27
 2265 01f9 2E       		.uleb128 0x2e
 2266 01fa 01       		.byte	0x1
 2267 01fb 3F       		.uleb128 0x3f
 2268 01fc 19       		.uleb128 0x19
 2269 01fd 03       		.uleb128 0x3
 2270 01fe 0E       		.uleb128 0xe
 2271 01ff 3A       		.uleb128 0x3a
 2272 0200 0B       		.uleb128 0xb
 2273 0201 3B       		.uleb128 0x3b
 2274 0202 0B       		.uleb128 0xb
 2275 0203 27       		.uleb128 0x27
 2276 0204 19       		.uleb128 0x19
 2277 0205 49       		.uleb128 0x49
 2278 0206 13       		.uleb128 0x13
ARM GAS  /tmp/ccXcQhOY.s 			page 41


 2279 0207 11       		.uleb128 0x11
 2280 0208 01       		.uleb128 0x1
 2281 0209 12       		.uleb128 0x12
 2282 020a 06       		.uleb128 0x6
 2283 020b 40       		.uleb128 0x40
 2284 020c 18       		.uleb128 0x18
 2285 020d 9742     		.uleb128 0x2117
 2286 020f 19       		.uleb128 0x19
 2287 0210 01       		.uleb128 0x1
 2288 0211 13       		.uleb128 0x13
 2289 0212 00       		.byte	0
 2290 0213 00       		.byte	0
 2291 0214 28       		.uleb128 0x28
 2292 0215 05       		.uleb128 0x5
 2293 0216 00       		.byte	0
 2294 0217 03       		.uleb128 0x3
 2295 0218 08       		.uleb128 0x8
 2296 0219 3A       		.uleb128 0x3a
 2297 021a 0B       		.uleb128 0xb
 2298 021b 3B       		.uleb128 0x3b
 2299 021c 0B       		.uleb128 0xb
 2300 021d 49       		.uleb128 0x49
 2301 021e 13       		.uleb128 0x13
 2302 021f 02       		.uleb128 0x2
 2303 0220 17       		.uleb128 0x17
 2304 0221 00       		.byte	0
 2305 0222 00       		.byte	0
 2306 0223 29       		.uleb128 0x29
 2307 0224 34       		.uleb128 0x34
 2308 0225 00       		.byte	0
 2309 0226 03       		.uleb128 0x3
 2310 0227 08       		.uleb128 0x8
 2311 0228 3A       		.uleb128 0x3a
 2312 0229 0B       		.uleb128 0xb
 2313 022a 3B       		.uleb128 0x3b
 2314 022b 0B       		.uleb128 0xb
 2315 022c 49       		.uleb128 0x49
 2316 022d 13       		.uleb128 0x13
 2317 022e 02       		.uleb128 0x2
 2318 022f 18       		.uleb128 0x18
 2319 0230 00       		.byte	0
 2320 0231 00       		.byte	0
 2321 0232 2A       		.uleb128 0x2a
 2322 0233 34       		.uleb128 0x34
 2323 0234 00       		.byte	0
 2324 0235 03       		.uleb128 0x3
 2325 0236 0E       		.uleb128 0xe
 2326 0237 49       		.uleb128 0x49
 2327 0238 13       		.uleb128 0x13
 2328 0239 34       		.uleb128 0x34
 2329 023a 19       		.uleb128 0x19
 2330 023b 00       		.byte	0
 2331 023c 00       		.byte	0
 2332 023d 2B       		.uleb128 0x2b
 2333 023e 1D       		.uleb128 0x1d
 2334 023f 01       		.byte	0x1
 2335 0240 31       		.uleb128 0x31
ARM GAS  /tmp/ccXcQhOY.s 			page 42


 2336 0241 13       		.uleb128 0x13
 2337 0242 11       		.uleb128 0x11
 2338 0243 01       		.uleb128 0x1
 2339 0244 12       		.uleb128 0x12
 2340 0245 06       		.uleb128 0x6
 2341 0246 58       		.uleb128 0x58
 2342 0247 0B       		.uleb128 0xb
 2343 0248 59       		.uleb128 0x59
 2344 0249 0B       		.uleb128 0xb
 2345 024a 01       		.uleb128 0x1
 2346 024b 13       		.uleb128 0x13
 2347 024c 00       		.byte	0
 2348 024d 00       		.byte	0
 2349 024e 2C       		.uleb128 0x2c
 2350 024f 1D       		.uleb128 0x1d
 2351 0250 01       		.byte	0x1
 2352 0251 31       		.uleb128 0x31
 2353 0252 13       		.uleb128 0x13
 2354 0253 11       		.uleb128 0x11
 2355 0254 01       		.uleb128 0x1
 2356 0255 12       		.uleb128 0x12
 2357 0256 06       		.uleb128 0x6
 2358 0257 58       		.uleb128 0x58
 2359 0258 0B       		.uleb128 0xb
 2360 0259 59       		.uleb128 0x59
 2361 025a 05       		.uleb128 0x5
 2362 025b 00       		.byte	0
 2363 025c 00       		.byte	0
 2364 025d 2D       		.uleb128 0x2d
 2365 025e 05       		.uleb128 0x5
 2366 025f 00       		.byte	0
 2367 0260 31       		.uleb128 0x31
 2368 0261 13       		.uleb128 0x13
 2369 0262 1C       		.uleb128 0x1c
 2370 0263 0B       		.uleb128 0xb
 2371 0264 00       		.byte	0
 2372 0265 00       		.byte	0
 2373 0266 2E       		.uleb128 0x2e
 2374 0267 1D       		.uleb128 0x1d
 2375 0268 01       		.byte	0x1
 2376 0269 31       		.uleb128 0x31
 2377 026a 13       		.uleb128 0x13
 2378 026b 52       		.uleb128 0x52
 2379 026c 01       		.uleb128 0x1
 2380 026d 55       		.uleb128 0x55
 2381 026e 17       		.uleb128 0x17
 2382 026f 58       		.uleb128 0x58
 2383 0270 0B       		.uleb128 0xb
 2384 0271 59       		.uleb128 0x59
 2385 0272 0B       		.uleb128 0xb
 2386 0273 01       		.uleb128 0x1
 2387 0274 13       		.uleb128 0x13
 2388 0275 00       		.byte	0
 2389 0276 00       		.byte	0
 2390 0277 2F       		.uleb128 0x2f
 2391 0278 05       		.uleb128 0x5
 2392 0279 00       		.byte	0
ARM GAS  /tmp/ccXcQhOY.s 			page 43


 2393 027a 31       		.uleb128 0x31
 2394 027b 13       		.uleb128 0x13
 2395 027c 02       		.uleb128 0x2
 2396 027d 17       		.uleb128 0x17
 2397 027e 00       		.byte	0
 2398 027f 00       		.byte	0
 2399 0280 30       		.uleb128 0x30
 2400 0281 05       		.uleb128 0x5
 2401 0282 00       		.byte	0
 2402 0283 31       		.uleb128 0x31
 2403 0284 13       		.uleb128 0x13
 2404 0285 02       		.uleb128 0x2
 2405 0286 18       		.uleb128 0x18
 2406 0287 00       		.byte	0
 2407 0288 00       		.byte	0
 2408 0289 31       		.uleb128 0x31
 2409 028a 0B       		.uleb128 0xb
 2410 028b 01       		.byte	0x1
 2411 028c 11       		.uleb128 0x11
 2412 028d 01       		.uleb128 0x1
 2413 028e 12       		.uleb128 0x12
 2414 028f 06       		.uleb128 0x6
 2415 0290 00       		.byte	0
 2416 0291 00       		.byte	0
 2417 0292 32       		.uleb128 0x32
 2418 0293 34       		.uleb128 0x34
 2419 0294 00       		.byte	0
 2420 0295 31       		.uleb128 0x31
 2421 0296 13       		.uleb128 0x13
 2422 0297 00       		.byte	0
 2423 0298 00       		.byte	0
 2424 0299 33       		.uleb128 0x33
 2425 029a 898201   		.uleb128 0x4109
 2426 029d 01       		.byte	0x1
 2427 029e 11       		.uleb128 0x11
 2428 029f 01       		.uleb128 0x1
 2429 02a0 31       		.uleb128 0x31
 2430 02a1 13       		.uleb128 0x13
 2431 02a2 01       		.uleb128 0x1
 2432 02a3 13       		.uleb128 0x13
 2433 02a4 00       		.byte	0
 2434 02a5 00       		.byte	0
 2435 02a6 34       		.uleb128 0x34
 2436 02a7 8A8201   		.uleb128 0x410a
 2437 02aa 00       		.byte	0
 2438 02ab 02       		.uleb128 0x2
 2439 02ac 18       		.uleb128 0x18
 2440 02ad 9142     		.uleb128 0x2111
 2441 02af 18       		.uleb128 0x18
 2442 02b0 00       		.byte	0
 2443 02b1 00       		.byte	0
 2444 02b2 35       		.uleb128 0x35
 2445 02b3 898201   		.uleb128 0x4109
 2446 02b6 00       		.byte	0
 2447 02b7 11       		.uleb128 0x11
 2448 02b8 01       		.uleb128 0x1
 2449 02b9 31       		.uleb128 0x31
ARM GAS  /tmp/ccXcQhOY.s 			page 44


 2450 02ba 13       		.uleb128 0x13
 2451 02bb 00       		.byte	0
 2452 02bc 00       		.byte	0
 2453 02bd 36       		.uleb128 0x36
 2454 02be 34       		.uleb128 0x34
 2455 02bf 00       		.byte	0
 2456 02c0 03       		.uleb128 0x3
 2457 02c1 08       		.uleb128 0x8
 2458 02c2 3A       		.uleb128 0x3a
 2459 02c3 0B       		.uleb128 0xb
 2460 02c4 3B       		.uleb128 0x3b
 2461 02c5 0B       		.uleb128 0xb
 2462 02c6 49       		.uleb128 0x49
 2463 02c7 13       		.uleb128 0x13
 2464 02c8 00       		.byte	0
 2465 02c9 00       		.byte	0
 2466 02ca 37       		.uleb128 0x37
 2467 02cb 0B       		.uleb128 0xb
 2468 02cc 01       		.byte	0x1
 2469 02cd 55       		.uleb128 0x55
 2470 02ce 17       		.uleb128 0x17
 2471 02cf 00       		.byte	0
 2472 02d0 00       		.byte	0
 2473 02d1 38       		.uleb128 0x38
 2474 02d2 34       		.uleb128 0x34
 2475 02d3 00       		.byte	0
 2476 02d4 31       		.uleb128 0x31
 2477 02d5 13       		.uleb128 0x13
 2478 02d6 02       		.uleb128 0x2
 2479 02d7 17       		.uleb128 0x17
 2480 02d8 00       		.byte	0
 2481 02d9 00       		.byte	0
 2482 02da 39       		.uleb128 0x39
 2483 02db 1D       		.uleb128 0x1d
 2484 02dc 01       		.byte	0x1
 2485 02dd 31       		.uleb128 0x31
 2486 02de 13       		.uleb128 0x13
 2487 02df 52       		.uleb128 0x52
 2488 02e0 01       		.uleb128 0x1
 2489 02e1 55       		.uleb128 0x55
 2490 02e2 17       		.uleb128 0x17
 2491 02e3 58       		.uleb128 0x58
 2492 02e4 0B       		.uleb128 0xb
 2493 02e5 59       		.uleb128 0x59
 2494 02e6 05       		.uleb128 0x5
 2495 02e7 00       		.byte	0
 2496 02e8 00       		.byte	0
 2497 02e9 3A       		.uleb128 0x3a
 2498 02ea 898201   		.uleb128 0x4109
 2499 02ed 01       		.byte	0x1
 2500 02ee 11       		.uleb128 0x11
 2501 02ef 01       		.uleb128 0x1
 2502 02f0 31       		.uleb128 0x31
 2503 02f1 13       		.uleb128 0x13
 2504 02f2 00       		.byte	0
 2505 02f3 00       		.byte	0
 2506 02f4 3B       		.uleb128 0x3b
ARM GAS  /tmp/ccXcQhOY.s 			page 45


 2507 02f5 2E       		.uleb128 0x2e
 2508 02f6 01       		.byte	0x1
 2509 02f7 3F       		.uleb128 0x3f
 2510 02f8 19       		.uleb128 0x19
 2511 02f9 03       		.uleb128 0x3
 2512 02fa 0E       		.uleb128 0xe
 2513 02fb 3A       		.uleb128 0x3a
 2514 02fc 0B       		.uleb128 0xb
 2515 02fd 3B       		.uleb128 0x3b
 2516 02fe 0B       		.uleb128 0xb
 2517 02ff 27       		.uleb128 0x27
 2518 0300 19       		.uleb128 0x19
 2519 0301 11       		.uleb128 0x11
 2520 0302 01       		.uleb128 0x1
 2521 0303 12       		.uleb128 0x12
 2522 0304 06       		.uleb128 0x6
 2523 0305 40       		.uleb128 0x40
 2524 0306 18       		.uleb128 0x18
 2525 0307 9742     		.uleb128 0x2117
 2526 0309 19       		.uleb128 0x19
 2527 030a 01       		.uleb128 0x1
 2528 030b 13       		.uleb128 0x13
 2529 030c 00       		.byte	0
 2530 030d 00       		.byte	0
 2531 030e 3C       		.uleb128 0x3c
 2532 030f 1D       		.uleb128 0x1d
 2533 0310 01       		.byte	0x1
 2534 0311 31       		.uleb128 0x31
 2535 0312 13       		.uleb128 0x13
 2536 0313 11       		.uleb128 0x11
 2537 0314 01       		.uleb128 0x1
 2538 0315 12       		.uleb128 0x12
 2539 0316 06       		.uleb128 0x6
 2540 0317 58       		.uleb128 0x58
 2541 0318 0B       		.uleb128 0xb
 2542 0319 59       		.uleb128 0x59
 2543 031a 0B       		.uleb128 0xb
 2544 031b 00       		.byte	0
 2545 031c 00       		.byte	0
 2546 031d 3D       		.uleb128 0x3d
 2547 031e 34       		.uleb128 0x34
 2548 031f 00       		.byte	0
 2549 0320 03       		.uleb128 0x3
 2550 0321 0E       		.uleb128 0xe
 2551 0322 3A       		.uleb128 0x3a
 2552 0323 0B       		.uleb128 0xb
 2553 0324 3B       		.uleb128 0x3b
 2554 0325 05       		.uleb128 0x5
 2555 0326 49       		.uleb128 0x49
 2556 0327 13       		.uleb128 0x13
 2557 0328 3F       		.uleb128 0x3f
 2558 0329 19       		.uleb128 0x19
 2559 032a 3C       		.uleb128 0x3c
 2560 032b 19       		.uleb128 0x19
 2561 032c 00       		.byte	0
 2562 032d 00       		.byte	0
 2563 032e 3E       		.uleb128 0x3e
ARM GAS  /tmp/ccXcQhOY.s 			page 46


 2564 032f 34       		.uleb128 0x34
 2565 0330 00       		.byte	0
 2566 0331 03       		.uleb128 0x3
 2567 0332 08       		.uleb128 0x8
 2568 0333 3A       		.uleb128 0x3a
 2569 0334 0B       		.uleb128 0xb
 2570 0335 3B       		.uleb128 0x3b
 2571 0336 05       		.uleb128 0x5
 2572 0337 49       		.uleb128 0x49
 2573 0338 13       		.uleb128 0x13
 2574 0339 3F       		.uleb128 0x3f
 2575 033a 19       		.uleb128 0x19
 2576 033b 3C       		.uleb128 0x3c
 2577 033c 19       		.uleb128 0x19
 2578 033d 00       		.byte	0
 2579 033e 00       		.byte	0
 2580 033f 3F       		.uleb128 0x3f
 2581 0340 2E       		.uleb128 0x2e
 2582 0341 01       		.byte	0x1
 2583 0342 3F       		.uleb128 0x3f
 2584 0343 19       		.uleb128 0x19
 2585 0344 03       		.uleb128 0x3
 2586 0345 0E       		.uleb128 0xe
 2587 0346 3A       		.uleb128 0x3a
 2588 0347 0B       		.uleb128 0xb
 2589 0348 3B       		.uleb128 0x3b
 2590 0349 05       		.uleb128 0x5
 2591 034a 27       		.uleb128 0x27
 2592 034b 19       		.uleb128 0x19
 2593 034c 3C       		.uleb128 0x3c
 2594 034d 19       		.uleb128 0x19
 2595 034e 01       		.uleb128 0x1
 2596 034f 13       		.uleb128 0x13
 2597 0350 00       		.byte	0
 2598 0351 00       		.byte	0
 2599 0352 40       		.uleb128 0x40
 2600 0353 2E       		.uleb128 0x2e
 2601 0354 01       		.byte	0x1
 2602 0355 3F       		.uleb128 0x3f
 2603 0356 19       		.uleb128 0x19
 2604 0357 03       		.uleb128 0x3
 2605 0358 0E       		.uleb128 0xe
 2606 0359 3A       		.uleb128 0x3a
 2607 035a 0B       		.uleb128 0xb
 2608 035b 3B       		.uleb128 0x3b
 2609 035c 05       		.uleb128 0x5
 2610 035d 27       		.uleb128 0x27
 2611 035e 19       		.uleb128 0x19
 2612 035f 49       		.uleb128 0x49
 2613 0360 13       		.uleb128 0x13
 2614 0361 3C       		.uleb128 0x3c
 2615 0362 19       		.uleb128 0x19
 2616 0363 01       		.uleb128 0x1
 2617 0364 13       		.uleb128 0x13
 2618 0365 00       		.byte	0
 2619 0366 00       		.byte	0
 2620 0367 41       		.uleb128 0x41
ARM GAS  /tmp/ccXcQhOY.s 			page 47


 2621 0368 2E       		.uleb128 0x2e
 2622 0369 01       		.byte	0x1
 2623 036a 3F       		.uleb128 0x3f
 2624 036b 19       		.uleb128 0x19
 2625 036c 03       		.uleb128 0x3
 2626 036d 0E       		.uleb128 0xe
 2627 036e 3A       		.uleb128 0x3a
 2628 036f 0B       		.uleb128 0xb
 2629 0370 3B       		.uleb128 0x3b
 2630 0371 05       		.uleb128 0x5
 2631 0372 27       		.uleb128 0x27
 2632 0373 19       		.uleb128 0x19
 2633 0374 3C       		.uleb128 0x3c
 2634 0375 19       		.uleb128 0x19
 2635 0376 00       		.byte	0
 2636 0377 00       		.byte	0
 2637 0378 00       		.byte	0
 2638              		.section	.debug_loc,"",%progbits
 2639              	.Ldebug_loc0:
 2640              	.LLST0:
 2641 0000 00000000 		.4byte	.LVL0
 2642 0004 2A000000 		.4byte	.LVL5
 2643 0008 0100     		.2byte	0x1
 2644 000a 50       		.byte	0x50
 2645 000b 2A000000 		.4byte	.LVL5
 2646 000f 3A000000 		.4byte	.LVL8
 2647 0013 0400     		.2byte	0x4
 2648 0015 F3       		.byte	0xf3
 2649 0016 01       		.uleb128 0x1
 2650 0017 50       		.byte	0x50
 2651 0018 9F       		.byte	0x9f
 2652 0019 3A000000 		.4byte	.LVL8
 2653 001d 3D000000 		.4byte	.LVL9-1
 2654 0021 0100     		.2byte	0x1
 2655 0023 50       		.byte	0x50
 2656 0024 3D000000 		.4byte	.LVL9-1
 2657 0028 40000000 		.4byte	.LFE239
 2658 002c 0400     		.2byte	0x4
 2659 002e F3       		.byte	0xf3
 2660 002f 01       		.uleb128 0x1
 2661 0030 50       		.byte	0x50
 2662 0031 9F       		.byte	0x9f
 2663 0032 00000000 		.4byte	0
 2664 0036 00000000 		.4byte	0
 2665              	.LLST1:
 2666 003a 00000000 		.4byte	.LVL0
 2667 003e 1E000000 		.4byte	.LVL3
 2668 0042 0100     		.2byte	0x1
 2669 0044 51       		.byte	0x51
 2670 0045 1E000000 		.4byte	.LVL3
 2671 0049 28000000 		.4byte	.LVL4
 2672 004d 0200     		.2byte	0x2
 2673 004f 74       		.byte	0x74
 2674 0050 24       		.sleb128 36
 2675 0051 28000000 		.4byte	.LVL4
 2676 0055 32000000 		.4byte	.LVL7
 2677 0059 0400     		.2byte	0x4
ARM GAS  /tmp/ccXcQhOY.s 			page 48


 2678 005b F3       		.byte	0xf3
 2679 005c 01       		.uleb128 0x1
 2680 005d 51       		.byte	0x51
 2681 005e 9F       		.byte	0x9f
 2682 005f 32000000 		.4byte	.LVL7
 2683 0063 3A000000 		.4byte	.LVL8
 2684 0067 0100     		.2byte	0x1
 2685 0069 50       		.byte	0x50
 2686 006a 3A000000 		.4byte	.LVL8
 2687 006e 40000000 		.4byte	.LFE239
 2688 0072 0400     		.2byte	0x4
 2689 0074 F3       		.byte	0xf3
 2690 0075 01       		.uleb128 0x1
 2691 0076 51       		.byte	0x51
 2692 0077 9F       		.byte	0x9f
 2693 0078 00000000 		.4byte	0
 2694 007c 00000000 		.4byte	0
 2695              	.LLST2:
 2696 0080 14000000 		.4byte	.LVL2
 2697 0084 1E000000 		.4byte	.LVL3
 2698 0088 0300     		.2byte	0x3
 2699 008a 70       		.byte	0x70
 2700 008b 2C       		.sleb128 44
 2701 008c 9F       		.byte	0x9f
 2702 008d 1E000000 		.4byte	.LVL3
 2703 0091 2A000000 		.4byte	.LVL5
 2704 0095 0100     		.2byte	0x1
 2705 0097 51       		.byte	0x51
 2706 0098 2A000000 		.4byte	.LVL5
 2707 009c 3A000000 		.4byte	.LVL8
 2708 00a0 0600     		.2byte	0x6
 2709 00a2 F3       		.byte	0xf3
 2710 00a3 01       		.uleb128 0x1
 2711 00a4 50       		.byte	0x50
 2712 00a5 23       		.byte	0x23
 2713 00a6 2C       		.uleb128 0x2c
 2714 00a7 9F       		.byte	0x9f
 2715 00a8 3A000000 		.4byte	.LVL8
 2716 00ac 3D000000 		.4byte	.LVL9-1
 2717 00b0 0100     		.2byte	0x1
 2718 00b2 51       		.byte	0x51
 2719 00b3 3D000000 		.4byte	.LVL9-1
 2720 00b7 40000000 		.4byte	.LFE239
 2721 00bb 0600     		.2byte	0x6
 2722 00bd F3       		.byte	0xf3
 2723 00be 01       		.uleb128 0x1
 2724 00bf 50       		.byte	0x50
 2725 00c0 23       		.byte	0x23
 2726 00c1 2C       		.uleb128 0x2c
 2727 00c2 9F       		.byte	0x9f
 2728 00c3 00000000 		.4byte	0
 2729 00c7 00000000 		.4byte	0
 2730              	.LLST3:
 2731 00cb 32000000 		.4byte	.LVL7
 2732 00cf 3A000000 		.4byte	.LVL8
 2733 00d3 0200     		.2byte	0x2
 2734 00d5 30       		.byte	0x30
ARM GAS  /tmp/ccXcQhOY.s 			page 49


 2735 00d6 9F       		.byte	0x9f
 2736 00d7 00000000 		.4byte	0
 2737 00db 00000000 		.4byte	0
 2738              	.LLST4:
 2739 00df 12000000 		.4byte	.LVL11
 2740 00e3 1C000000 		.4byte	.LVL12
 2741 00e7 0100     		.2byte	0x1
 2742 00e9 52       		.byte	0x52
 2743 00ea 30000000 		.4byte	.LVL14
 2744 00ee 35000000 		.4byte	.LVL15-1
 2745 00f2 0100     		.2byte	0x1
 2746 00f4 52       		.byte	0x52
 2747 00f5 00000000 		.4byte	0
 2748 00f9 00000000 		.4byte	0
 2749              	.LLST5:
 2750 00fd 1C000000 		.4byte	.LVL12
 2751 0101 30000000 		.4byte	.LVL14
 2752 0105 0100     		.2byte	0x1
 2753 0107 53       		.byte	0x53
 2754 0108 00000000 		.4byte	0
 2755 010c 00000000 		.4byte	0
 2756              	.LLST6:
 2757 0110 1C000000 		.4byte	.LVL12
 2758 0114 30000000 		.4byte	.LVL14
 2759 0118 0100     		.2byte	0x1
 2760 011a 50       		.byte	0x50
 2761 011b 00000000 		.4byte	0
 2762 011f 00000000 		.4byte	0
 2763              	.LLST7:
 2764 0123 2A000000 		.4byte	.LVL13
 2765 0127 30000000 		.4byte	.LVL14
 2766 012b 0200     		.2byte	0x2
 2767 012d 30       		.byte	0x30
 2768 012e 9F       		.byte	0x9f
 2769 012f 00000000 		.4byte	0
 2770 0133 00000000 		.4byte	0
 2771              	.LLST8:
 2772 0137 00000000 		.4byte	.LVL16
 2773 013b 0B000000 		.4byte	.LVL18-1
 2774 013f 0100     		.2byte	0x1
 2775 0141 50       		.byte	0x50
 2776 0142 0B000000 		.4byte	.LVL18-1
 2777 0146 14000000 		.4byte	.LFE241
 2778 014a 0400     		.2byte	0x4
 2779 014c F3       		.byte	0xf3
 2780 014d 01       		.uleb128 0x1
 2781 014e 50       		.byte	0x50
 2782 014f 9F       		.byte	0x9f
 2783 0150 00000000 		.4byte	0
 2784 0154 00000000 		.4byte	0
 2785              	.LLST9:
 2786 0158 00000000 		.4byte	.LVL16
 2787 015c 0B000000 		.4byte	.LVL18-1
 2788 0160 0100     		.2byte	0x1
 2789 0162 51       		.byte	0x51
 2790 0163 0B000000 		.4byte	.LVL18-1
 2791 0167 14000000 		.4byte	.LFE241
ARM GAS  /tmp/ccXcQhOY.s 			page 50


 2792 016b 0400     		.2byte	0x4
 2793 016d F3       		.byte	0xf3
 2794 016e 01       		.uleb128 0x1
 2795 016f 51       		.byte	0x51
 2796 0170 9F       		.byte	0x9f
 2797 0171 00000000 		.4byte	0
 2798 0175 00000000 		.4byte	0
 2799              	.LLST10:
 2800 0179 08000000 		.4byte	.LVL17
 2801 017d 0B000000 		.4byte	.LVL18-1
 2802 0181 0100     		.2byte	0x1
 2803 0183 51       		.byte	0x51
 2804 0184 0B000000 		.4byte	.LVL18-1
 2805 0188 14000000 		.4byte	.LFE241
 2806 018c 0400     		.2byte	0x4
 2807 018e F3       		.byte	0xf3
 2808 018f 01       		.uleb128 0x1
 2809 0190 51       		.byte	0x51
 2810 0191 9F       		.byte	0x9f
 2811 0192 00000000 		.4byte	0
 2812 0196 00000000 		.4byte	0
 2813              	.LLST11:
 2814 019a 08000000 		.4byte	.LVL17
 2815 019e 0B000000 		.4byte	.LVL18-1
 2816 01a2 0100     		.2byte	0x1
 2817 01a4 50       		.byte	0x50
 2818 01a5 0B000000 		.4byte	.LVL18-1
 2819 01a9 14000000 		.4byte	.LFE241
 2820 01ad 0400     		.2byte	0x4
 2821 01af F3       		.byte	0xf3
 2822 01b0 01       		.uleb128 0x1
 2823 01b1 50       		.byte	0x50
 2824 01b2 9F       		.byte	0x9f
 2825 01b3 00000000 		.4byte	0
 2826 01b7 00000000 		.4byte	0
 2827              		.section	.debug_aranges,"",%progbits
 2828 0000 2C000000 		.4byte	0x2c
 2829 0004 0200     		.2byte	0x2
 2830 0006 00000000 		.4byte	.Ldebug_info0
 2831 000a 04       		.byte	0x4
 2832 000b 00       		.byte	0
 2833 000c 0000     		.2byte	0
 2834 000e 0000     		.2byte	0
 2835 0010 00000000 		.4byte	.LFB239
 2836 0014 40000000 		.4byte	.LFE239-.LFB239
 2837 0018 00000000 		.4byte	.LFB240
 2838 001c 40000000 		.4byte	.LFE240-.LFB240
 2839 0020 00000000 		.4byte	.LFB241
 2840 0024 14000000 		.4byte	.LFE241-.LFB241
 2841 0028 00000000 		.4byte	0
 2842 002c 00000000 		.4byte	0
 2843              		.section	.debug_ranges,"",%progbits
 2844              	.Ldebug_ranges0:
 2845 0000 18000000 		.4byte	.LBB56
 2846 0004 1A000000 		.4byte	.LBE56
 2847 0008 20000000 		.4byte	.LBB59
 2848 000c 28000000 		.4byte	.LBE59
ARM GAS  /tmp/ccXcQhOY.s 			page 51


 2849 0010 00000000 		.4byte	0
 2850 0014 00000000 		.4byte	0
 2851 0018 1C000000 		.4byte	.LBB71
 2852 001c 1E000000 		.4byte	.LBE71
 2853 0020 20000000 		.4byte	.LBB74
 2854 0024 24000000 		.4byte	.LBE74
 2855 0028 00000000 		.4byte	0
 2856 002c 00000000 		.4byte	0
 2857 0030 24000000 		.4byte	.LBB75
 2858 0034 26000000 		.4byte	.LBE75
 2859 0038 2A000000 		.4byte	.LBB84
 2860 003c 2E000000 		.4byte	.LBE84
 2861 0040 00000000 		.4byte	0
 2862 0044 00000000 		.4byte	0
 2863 0048 00000000 		.4byte	.LFB239
 2864 004c 40000000 		.4byte	.LFE239
 2865 0050 00000000 		.4byte	.LFB240
 2866 0054 40000000 		.4byte	.LFE240
 2867 0058 00000000 		.4byte	.LFB241
 2868 005c 14000000 		.4byte	.LFE241
 2869 0060 00000000 		.4byte	0
 2870 0064 00000000 		.4byte	0
 2871              		.section	.debug_line,"",%progbits
 2872              	.Ldebug_line0:
 2873 0000 CE020000 		.section	.debug_str,"MS",%progbits,1
 2873      02000502 
 2873      00000201 
 2873      FB0E0D00 
 2873      01010101 
 2874              	.LASF47:
 2875 0000 63685F74 		.ascii	"ch_threads_list\000"
 2875      68726561 
 2875      64735F6C 
 2875      69737400 
 2876              	.LASF97:
 2877 0010 77746D74 		.ascii	"wtmtxp\000"
 2877      787000
 2878              	.LASF91:
 2879 0017 746D5F63 		.ascii	"tm_calibration_t\000"
 2879      616C6962 
 2879      72617469 
 2879      6F6E5F74 
 2879      00
 2880              	.LASF73:
 2881 0028 72656761 		.ascii	"regarm_t\000"
 2881      726D5F74 
 2881      00
 2882              	.LASF36:
 2883 0031 666C6167 		.ascii	"flags\000"
 2883      7300
 2884              	.LASF27:
 2885 0037 73797374 		.ascii	"systime_t\000"
 2885      696D655F 
 2885      7400
 2886              	.LASF42:
 2887 0041 7265616C 		.ascii	"realprio\000"
 2887      7072696F 
ARM GAS  /tmp/ccXcQhOY.s 			page 52


 2887      00
 2888              	.LASF88:
 2889 004a 62756666 		.ascii	"buffer\000"
 2889      657200
 2890              	.LASF86:
 2891 0051 73757370 		.ascii	"suspended\000"
 2891      656E6465 
 2891      6400
 2892              	.LASF40:
 2893 005b 6570656E 		.ascii	"epending\000"
 2893      64696E67 
 2893      00
 2894              	.LASF0:
 2895 0064 756E7369 		.ascii	"unsigned int\000"
 2895      676E6564 
 2895      20696E74 
 2895      00
 2896              	.LASF48:
 2897 0071 6E657874 		.ascii	"next\000"
 2897      00
 2898              	.LASF45:
 2899 0076 74687265 		.ascii	"threads_list_t\000"
 2899      6164735F 
 2899      6C697374 
 2899      5F7400
 2900              	.LASF7:
 2901 0085 5F5F696E 		.ascii	"__int32_t\000"
 2901      7433325F 
 2901      7400
 2902              	.LASF37:
 2903 008f 72656673 		.ascii	"refs\000"
 2903      00
 2904              	.LASF115:
 2905 0094 63684D73 		.ascii	"chMsgSend\000"
 2905      6753656E 
 2905      6400
 2906              	.LASF77:
 2907 009e 77746F62 		.ascii	"wtobjp\000"
 2907      6A7000
 2908              	.LASF103:
 2909 00a5 706F7274 		.ascii	"port_lock\000"
 2909      5F6C6F63 
 2909      6B00
 2910              	.LASF70:
 2911 00af 76746C69 		.ascii	"vtlist\000"
 2911      737400
 2912              	.LASF75:
 2913 00b6 706F7274 		.ascii	"port_context\000"
 2913      5F636F6E 
 2913      74657874 
 2913      00
 2914              	.LASF53:
 2915 00c3 63685F72 		.ascii	"ch_ready_list\000"
 2915      65616479 
 2915      5F6C6973 
 2915      7400
 2916              	.LASF59:
ARM GAS  /tmp/ccXcQhOY.s 			page 53


 2917 00d1 66756E63 		.ascii	"func\000"
 2917      00
 2918              	.LASF98:
 2919 00d6 65776D61 		.ascii	"ewmask\000"
 2919      736B00
 2920              	.LASF51:
 2921 00dd 70726576 		.ascii	"prev\000"
 2921      00
 2922              	.LASF50:
 2923 00e2 63685F74 		.ascii	"ch_threads_queue\000"
 2923      68726561 
 2923      64735F71 
 2923      75657565 
 2923      00
 2924              	.LASF55:
 2925 00f3 76746675 		.ascii	"vtfunc_t\000"
 2925      6E635F74 
 2925      00
 2926              	.LASF120:
 2927 00fc 2F686F6D 		.ascii	"/home/johnnyco/Documentos/Embebidos/Chibios Johnny/"
 2927      652F6A6F 
 2927      686E6E79 
 2927      636F2F44 
 2927      6F63756D 
 2928 012f 43686962 		.ascii	"ChibiOS-Contrib/testhal/STM32/STM32F4xx/1WIRE + RTC"
 2928      694F532D 
 2928      436F6E74 
 2928      7269622F 
 2928      74657374 
 2929 0162 202B2055 		.ascii	" + UART + PWM + ADC 1.0\000"
 2929      41525420 
 2929      2B205057 
 2929      4D202B20 
 2929      41444320 
 2930              	.LASF121:
 2931 017a 63684D73 		.ascii	"chMsgRelease\000"
 2931      6752656C 
 2931      65617365 
 2931      00
 2932              	.LASF123:
 2933 0187 63685363 		.ascii	"chSchReadyI\000"
 2933      68526561 
 2933      64794900 
 2934              	.LASF64:
 2935 0193 63685F73 		.ascii	"ch_system_debug\000"
 2935      79737465 
 2935      6D5F6465 
 2935      62756700 
 2936              	.LASF17:
 2937 01a3 75696E74 		.ascii	"uint32_t\000"
 2937      33325F74 
 2937      00
 2938              	.LASF95:
 2939 01ac 73656E74 		.ascii	"sentmsg\000"
 2939      6D736700 
 2940              	.LASF25:
 2941 01b4 6576656E 		.ascii	"eventmask_t\000"
ARM GAS  /tmp/ccXcQhOY.s 			page 54


 2941      746D6173 
 2941      6B5F7400 
 2942              	.LASF99:
 2943 01c0 63685F73 		.ascii	"ch_semaphore\000"
 2943      656D6170 
 2943      686F7265 
 2943      00
 2944              	.LASF23:
 2945 01cd 74707269 		.ascii	"tprio_t\000"
 2945      6F5F7400 
 2946              	.LASF57:
 2947 01d5 63685F76 		.ascii	"ch_virtual_timer\000"
 2947      69727475 
 2947      616C5F74 
 2947      696D6572 
 2947      00
 2948              	.LASF80:
 2949 01e6 68616C74 		.ascii	"halt\000"
 2949      00
 2950              	.LASF13:
 2951 01eb 6C6F6E67 		.ascii	"long long unsigned int\000"
 2951      206C6F6E 
 2951      6720756E 
 2951      7369676E 
 2951      65642069 
 2952              	.LASF79:
 2953 0202 72656173 		.ascii	"reason\000"
 2953      6F6E00
 2954              	.LASF5:
 2955 0209 5F5F7569 		.ascii	"__uint16_t\000"
 2955      6E743136 
 2955      5F7400
 2956              	.LASF26:
 2957 0214 636E745F 		.ascii	"cnt_t\000"
 2957      7400
 2958              	.LASF109:
 2959 021a 63685379 		.ascii	"chSysUnlock\000"
 2959      73556E6C 
 2959      6F636B00 
 2960              	.LASF84:
 2961 0226 74696D65 		.ascii	"time\000"
 2961      00
 2962              	.LASF101:
 2963 022b 6F776E65 		.ascii	"owner\000"
 2963      7200
 2964              	.LASF49:
 2965 0231 74687265 		.ascii	"threads_queue_t\000"
 2965      6164735F 
 2965      71756575 
 2965      655F7400 
 2966              	.LASF108:
 2967 0241 76616C75 		.ascii	"value\000"
 2967      6500
 2968              	.LASF41:
 2969 0247 6D74786C 		.ascii	"mtxlist\000"
 2969      69737400 
 2970              	.LASF61:
ARM GAS  /tmp/ccXcQhOY.s 			page 55


 2971 024f 63685F76 		.ascii	"ch_virtual_timers_list\000"
 2971      69727475 
 2971      616C5F74 
 2971      696D6572 
 2971      735F6C69 
 2972              	.LASF28:
 2973 0266 74687265 		.ascii	"thread_t\000"
 2973      61645F74 
 2973      00
 2974              	.LASF81:
 2975 026f 75736572 		.ascii	"user\000"
 2975      00
 2976              	.LASF92:
 2977 0274 7264796D 		.ascii	"rdymsg\000"
 2977      736700
 2978              	.LASF90:
 2979 027b 6F666673 		.ascii	"offset\000"
 2979      657400
 2980              	.LASF110:
 2981 0282 5F426F6F 		.ascii	"_Bool\000"
 2981      6C00
 2982              	.LASF100:
 2983 0288 63685F6D 		.ascii	"ch_mutex\000"
 2983      75746578 
 2983      00
 2984              	.LASF12:
 2985 0291 5F5F7569 		.ascii	"__uint64_t\000"
 2985      6E743634 
 2985      5F7400
 2986              	.LASF105:
 2987 029c 63685379 		.ascii	"chSysLock\000"
 2987      734C6F63 
 2987      6B00
 2988              	.LASF111:
 2989 02a6 63684D73 		.ascii	"chMsgIsPendingI\000"
 2989      67497350 
 2989      656E6469 
 2989      6E674900 
 2990              	.LASF30:
 2991 02b6 7072696F 		.ascii	"prio\000"
 2991      00
 2992              	.LASF78:
 2993 02bb 63686172 		.ascii	"char\000"
 2993      00
 2994              	.LASF44:
 2995 02c0 74687265 		.ascii	"thread_reference_t\000"
 2995      61645F72 
 2995      65666572 
 2995      656E6365 
 2995      5F7400
 2996              	.LASF34:
 2997 02d3 77616261 		.ascii	"wabase\000"
 2997      736500
 2998              	.LASF21:
 2999 02da 74737461 		.ascii	"tstate_t\000"
 2999      74655F74 
 2999      00
ARM GAS  /tmp/ccXcQhOY.s 			page 56


 3000              	.LASF14:
 3001 02e3 75696E74 		.ascii	"uint8_t\000"
 3001      385F7400 
 3002              	.LASF39:
 3003 02eb 6D736771 		.ascii	"msgqueue\000"
 3003      75657565 
 3003      00
 3004              	.LASF46:
 3005 02f4 63685F74 		.ascii	"ch_thread\000"
 3005      68726561 
 3005      6400
 3006              	.LASF63:
 3007 02fe 73797374 		.ascii	"system_debug_t\000"
 3007      656D5F64 
 3007      65627567 
 3007      5F7400
 3008              	.LASF11:
 3009 030d 6C6F6E67 		.ascii	"long long int\000"
 3009      206C6F6E 
 3009      6720696E 
 3009      7400
 3010              	.LASF24:
 3011 031b 6D73675F 		.ascii	"msg_t\000"
 3011      7400
 3012              	.LASF116:
 3013 0321 63684D73 		.ascii	"chMsgWait\000"
 3013      67576169 
 3013      7400
 3014              	.LASF56:
 3015 032b 76697274 		.ascii	"virtual_timer_t\000"
 3015      75616C5F 
 3015      74696D65 
 3015      725F7400 
 3016              	.LASF112:
 3017 033b 71756575 		.ascii	"queue_fifo_remove\000"
 3017      655F6669 
 3017      666F5F72 
 3017      656D6F76 
 3017      6500
 3018              	.LASF87:
 3019 034d 73697A65 		.ascii	"size\000"
 3019      00
 3020              	.LASF85:
 3021 0352 63685F74 		.ascii	"ch_trace_event_t\000"
 3021      72616365 
 3021      5F657665 
 3021      6E745F74 
 3021      00
 3022              	.LASF118:
 3023 0363 474E5520 		.ascii	"GNU C 4.8.2 -mcpu=cortex-m4 -mno-thumb-interwork -m"
 3023      4320342E 
 3023      382E3220 
 3023      2D6D6370 
 3023      753D636F 
 3024 0396 7468756D 		.ascii	"thumb -ggdb -O2 -fomit-frame-pointer -falign-functi"
 3024      62202D67 
 3024      67646220 
ARM GAS  /tmp/ccXcQhOY.s 			page 57


 3024      2D4F3220 
 3024      2D666F6D 
 3025 03c9 6F6E733D 		.ascii	"ons=16 -ffunction-sections -fdata-sections -fno-com"
 3025      3136202D 
 3025      6666756E 
 3025      6374696F 
 3025      6E2D7365 
 3026 03fc 6D6F6E00 		.ascii	"mon\000"
 3027              	.LASF65:
 3028 0400 70616E69 		.ascii	"panic_msg\000"
 3028      635F6D73 
 3028      6700
 3029              	.LASF20:
 3030 040a 746D6F64 		.ascii	"tmode_t\000"
 3030      655F7400 
 3031              	.LASF71:
 3032 0412 6D61696E 		.ascii	"mainthread\000"
 3032      74687265 
 3032      616400
 3033              	.LASF15:
 3034 041d 75696E74 		.ascii	"uint16_t\000"
 3034      31365F74 
 3034      00
 3035              	.LASF19:
 3036 0426 7274636E 		.ascii	"rtcnt_t\000"
 3036      745F7400 
 3037              	.LASF119:
 3038 042e 2E2E2F2E 		.ascii	"../../../../../ChibiOS-RT/os/rt/src/chmsg.c\000"
 3038      2E2F2E2E 
 3038      2F2E2E2F 
 3038      2E2E2F43 
 3038      68696269 
 3039              	.LASF3:
 3040 045a 73686F72 		.ascii	"short int\000"
 3040      7420696E 
 3040      7400
 3041              	.LASF8:
 3042 0464 6C6F6E67 		.ascii	"long int\000"
 3042      20696E74 
 3042      00
 3043              	.LASF76:
 3044 046d 706F7274 		.ascii	"port_intctx\000"
 3044      5F696E74 
 3044      63747800 
 3045              	.LASF117:
 3046 0479 49544D5F 		.ascii	"ITM_RxBuffer\000"
 3046      52784275 
 3046      66666572 
 3046      00
 3047              	.LASF68:
 3048 0486 63685F73 		.ascii	"ch_system\000"
 3048      79737465 
 3048      6D00
 3049              	.LASF106:
 3050 0490 5F5F7365 		.ascii	"__set_BASEPRI\000"
 3050      745F4241 
 3050      53455052 
ARM GAS  /tmp/ccXcQhOY.s 			page 58


 3050      4900
 3051              	.LASF62:
 3052 049e 6C617374 		.ascii	"lasttime\000"
 3052      74696D65 
 3052      00
 3053              	.LASF18:
 3054 04a7 75696E74 		.ascii	"uint64_t\000"
 3054      36345F74 
 3054      00
 3055              	.LASF69:
 3056 04b0 726C6973 		.ascii	"rlist\000"
 3056      7400
 3057              	.LASF4:
 3058 04b6 5F5F7569 		.ascii	"__uint8_t\000"
 3058      6E74385F 
 3058      7400
 3059              	.LASF33:
 3060 04c0 6E616D65 		.ascii	"name\000"
 3060      00
 3061              	.LASF122:
 3062 04c5 63685363 		.ascii	"chSchGoSleepS\000"
 3062      68476F53 
 3062      6C656570 
 3062      5300
 3063              	.LASF72:
 3064 04d3 73697A65 		.ascii	"sizetype\000"
 3064      74797065 
 3064      00
 3065              	.LASF22:
 3066 04dc 74726566 		.ascii	"trefs_t\000"
 3066      735F7400 
 3067              	.LASF10:
 3068 04e4 6C6F6E67 		.ascii	"long unsigned int\000"
 3068      20756E73 
 3068      69676E65 
 3068      6420696E 
 3068      7400
 3069              	.LASF52:
 3070 04f6 72656164 		.ascii	"ready_list_t\000"
 3070      795F6C69 
 3070      73745F74 
 3070      00
 3071              	.LASF83:
 3072 0503 72747374 		.ascii	"rtstamp\000"
 3072      616D7000 
 3073              	.LASF29:
 3074 050b 71756575 		.ascii	"queue\000"
 3074      6500
 3075              	.LASF16:
 3076 0511 696E7433 		.ascii	"int32_t\000"
 3076      325F7400 
 3077              	.LASF66:
 3078 0519 74726163 		.ascii	"trace_buffer\000"
 3078      655F6275 
 3078      66666572 
 3078      00
 3079              	.LASF96:
ARM GAS  /tmp/ccXcQhOY.s 			page 59


 3080 0526 77747365 		.ascii	"wtsemp\000"
 3080      6D7000
 3081              	.LASF102:
 3082 052d 6D757465 		.ascii	"mutex_t\000"
 3082      785F7400 
 3083              	.LASF31:
 3084 0535 6E657765 		.ascii	"newer\000"
 3084      7200
 3085              	.LASF82:
 3086 053b 74797065 		.ascii	"type\000"
 3086      00
 3087              	.LASF2:
 3088 0540 756E7369 		.ascii	"unsigned char\000"
 3088      676E6564 
 3088      20636861 
 3088      7200
 3089              	.LASF9:
 3090 054e 5F5F7569 		.ascii	"__uint32_t\000"
 3090      6E743332 
 3090      5F7400
 3091              	.LASF38:
 3092 0559 77616974 		.ascii	"waiting\000"
 3092      696E6700 
 3093              	.LASF60:
 3094 0561 76697274 		.ascii	"virtual_timers_list_t\000"
 3094      75616C5F 
 3094      74696D65 
 3094      72735F6C 
 3094      6973745F 
 3095              	.LASF114:
 3096 0577 63684D73 		.ascii	"chMsgReleaseS\000"
 3096      6752656C 
 3096      65617365 
 3096      5300
 3097              	.LASF124:
 3098 0585 63685363 		.ascii	"chSchWakeupS\000"
 3098      6857616B 
 3098      65757053 
 3098      00
 3099              	.LASF35:
 3100 0592 73746174 		.ascii	"state\000"
 3100      6500
 3101              	.LASF67:
 3102 0598 63685F73 		.ascii	"ch_system_t\000"
 3102      79737465 
 3102      6D5F7400 
 3103              	.LASF94:
 3104 05a4 77747472 		.ascii	"wttrp\000"
 3104      7000
 3105              	.LASF89:
 3106 05aa 63685F74 		.ascii	"ch_trace_buffer_t\000"
 3106      72616365 
 3106      5F627566 
 3106      6665725F 
 3106      7400
 3107              	.LASF1:
 3108 05bc 7369676E 		.ascii	"signed char\000"
ARM GAS  /tmp/ccXcQhOY.s 			page 60


 3108      65642063 
 3108      68617200 
 3109              	.LASF58:
 3110 05c8 64656C74 		.ascii	"delta\000"
 3110      6100
 3111              	.LASF6:
 3112 05ce 73686F72 		.ascii	"short unsigned int\000"
 3112      7420756E 
 3112      7369676E 
 3112      65642069 
 3112      6E7400
 3113              	.LASF107:
 3114 05e1 71756575 		.ascii	"queue_insert\000"
 3114      655F696E 
 3114      73657274 
 3114      00
 3115              	.LASF74:
 3116 05ee 73746B61 		.ascii	"stkalign_t\000"
 3116      6C69676E 
 3116      5F7400
 3117              	.LASF54:
 3118 05f9 63757272 		.ascii	"current\000"
 3118      656E7400 
 3119              	.LASF113:
 3120 0601 5F5F6675 		.ascii	"__func__\000"
 3120      6E635F5F 
 3120      00
 3121              	.LASF104:
 3122 060a 706F7274 		.ascii	"port_unlock\000"
 3122      5F756E6C 
 3122      6F636B00 
 3123              	.LASF32:
 3124 0616 6F6C6465 		.ascii	"older\000"
 3124      7200
 3125              	.LASF93:
 3126 061c 65786974 		.ascii	"exitcode\000"
 3126      636F6465 
 3126      00
 3127              	.LASF43:
 3128 0625 6D706F6F 		.ascii	"mpool\000"
 3128      6C00
 3129              		.ident	"GCC: (4.8.2-14ubuntu1+6) 4.8.2"
ARM GAS  /tmp/ccXcQhOY.s 			page 61


DEFINED SYMBOLS
                            *ABS*:0000000000000000 chmsg.c
     /tmp/ccXcQhOY.s:19     .text.chMsgSend:0000000000000000 $t
     /tmp/ccXcQhOY.s:25     .text.chMsgSend:0000000000000000 chMsgSend
     /tmp/ccXcQhOY.s:128    .text.chMsgWait:0000000000000000 $t
     /tmp/ccXcQhOY.s:134    .text.chMsgWait:0000000000000000 chMsgWait
     /tmp/ccXcQhOY.s:239    .text.chMsgRelease:0000000000000000 $t
     /tmp/ccXcQhOY.s:245    .text.chMsgRelease:0000000000000000 chMsgRelease
                     .debug_frame:0000000000000010 $d

UNDEFINED SYMBOLS
ch
chSchGoSleepS
chSchReadyI
chSchWakeupS
