ARM GAS  /tmp/ccIUkKRb.s 			page 1


   1              		.syntax unified
   2              		.cpu cortex-m4
   3              		.fpu softvfp
   4              		.eabi_attribute 20, 1
   5              		.eabi_attribute 21, 1
   6              		.eabi_attribute 23, 3
   7              		.eabi_attribute 24, 1
   8              		.eabi_attribute 25, 1
   9              		.eabi_attribute 26, 1
  10              		.eabi_attribute 30, 2
  11              		.eabi_attribute 34, 1
  12              		.eabi_attribute 18, 4
  13              		.thumb
  14              		.file	"chprintf.c"
  15              		.text
  16              	.Ltext0:
  17              		.cfi_sections	.debug_frame
  18              		.section	.text.long_to_string_with_divisor.constprop.0,"ax",%progbits
  19              		.align	2
  20              		.p2align 4,,15
  21              		.thumb
  22              		.thumb_func
  23              		.type	long_to_string_with_divisor.constprop.0, %function
  24              	long_to_string_with_divisor.constprop.0:
  25              	.LFB275:
  26              		.file 1 "../../../../../ChibiOS-RT/os/hal/lib/streams/chprintf.c"
  27              		.loc 1 37 0
  28              		.cfi_startproc
  29              		@ args = 0, pretend = 0, frame = 0
  30              		@ frame_needed = 0, uses_anonymous_args = 0
  31              		@ link register save eliminated.
  32              	.LVL0:
  33 0000 F0B4     		push	{r4, r5, r6, r7}
  34              		.cfi_def_cfa_offset 16
  35              		.cfi_offset 4, -16
  36              		.cfi_offset 5, -12
  37              		.cfi_offset 6, -8
  38              		.cfi_offset 7, -4
  39              		.loc 1 52 0
  40 0002 00F10B07 		add	r7, r0, #11
  41              	.LVL1:
  42 0006 00F10A05 		add	r5, r0, #10
  43 000a 0C46     		mov	r4, r1
  44              	.LVL2:
  45              	.L4:
  46              		.loc 1 54 0
  47 000c B1FBF2F6 		udiv	r6, r1, r2
  48 0010 02FB1611 		mls	r1, r2, r6, r1
  49              	.LVL3:
  50              		.loc 1 55 0
  51 0014 01F13003 		add	r3, r1, #48
  52              	.LVL4:
  53              		.loc 1 56 0
  54 0018 392B     		cmp	r3, #57
  55              		.loc 1 57 0
  56 001a C8BF     		it	gt
  57 001c 01F13703 		addgt	r3, r1, #55
ARM GAS  /tmp/ccIUkKRb.s 			page 2


  58              	.LVL5:
  59              		.loc 1 58 0
  60 0020 DBB2     		uxtb	r3, r3
  61              	.LVL6:
  62              		.loc 1 60 0
  63 0022 B4FBF2F4 		udiv	r4, r4, r2
  64              	.LVL7:
  65              		.loc 1 59 0
  66 0026 3146     		mov	r1, r6
  67              	.LVL8:
  68              		.loc 1 58 0
  69 0028 2E46     		mov	r6, r5
  70              	.LVL9:
  71 002a 05F80139 		strb	r3, [r5], #-1
  72              	.LVL10:
  73              		.loc 1 60 0
  74 002e 002C     		cmp	r4, #0
  75 0030 ECD1     		bne	.L4
  76              	.LVL11:
  77              		.loc 1 62 0
  78 0032 B91B     		subs	r1, r7, r6
  79              	.LVL12:
  80 0034 3246     		mov	r2, r6
  81              	.LVL13:
  82 0036 0144     		add	r1, r1, r0
  83 0038 01E0     		b	.L6
  84              	.LVL14:
  85              	.L9:
  86 003a 12F8013F 		ldrb	r3, [r2, #1]!	@ zero_extendqisi2
  87              	.LVL15:
  88              	.L6:
  89              		.loc 1 64 0
  90 003e 00F8013B 		strb	r3, [r0], #1
  91              	.LVL16:
  92              		.loc 1 65 0
  93 0042 8842     		cmp	r0, r1
  94 0044 F9D1     		bne	.L9
  95              		.loc 1 68 0
  96 0046 F0BC     		pop	{r4, r5, r6, r7}
  97              	.LVL17:
  98 0048 7047     		bx	lr
  99              		.cfi_endproc
 100              	.LFE275:
 101              		.size	long_to_string_with_divisor.constprop.0, .-long_to_string_with_divisor.constprop.0
 102 004a 00BFAFF3 		.section	.text.chvprintf,"ax",%progbits
 102      0080
 103              		.align	2
 104              		.p2align 4,,15
 105              		.global	chvprintf
 106              		.thumb
 107              		.thumb_func
 108              		.type	chvprintf, %function
 109              	chvprintf:
 110              	.LFB272:
 111              		.loc 1 121 0
 112              		.cfi_startproc
 113              		@ args = 0, pretend = 0, frame = 40
ARM GAS  /tmp/ccIUkKRb.s 			page 3


 114              		@ frame_needed = 0, uses_anonymous_args = 0
 115              	.LVL18:
 116 0000 2DE9F04F 		push	{r4, r5, r6, r7, r8, r9, r10, fp, lr}
 117              		.cfi_def_cfa_offset 36
 118              		.cfi_offset 4, -36
 119              		.cfi_offset 5, -32
 120              		.cfi_offset 6, -28
 121              		.cfi_offset 7, -24
 122              		.cfi_offset 8, -20
 123              		.cfi_offset 9, -16
 124              		.cfi_offset 10, -12
 125              		.cfi_offset 11, -8
 126              		.cfi_offset 14, -4
 127 0004 8BB0     		sub	sp, sp, #44
 128              		.cfi_def_cfa_offset 80
 129 0006 07AB     		add	r3, sp, #28
 130 0008 0293     		str	r3, [sp, #8]
 131 000a 029B     		ldr	r3, [sp, #8]
 132 000c 0DF11D0C 		add	ip, sp, #29
 133 0010 CDF804C0 		str	ip, [sp, #4]
 134 0014 C3EB0C0C 		rsb	ip, r3, ip
 135 0018 CDF810C0 		str	ip, [sp, #16]
 136              		.loc 1 198 0
 137 001c 40F2000C 		movw	ip, #:lower16:.LC0
 138 0020 C0F2000C 		movt	ip, #:upper16:.LC0
 139              		.loc 1 121 0
 140 0024 8346     		mov	fp, r0
 141 0026 0C46     		mov	r4, r1
 142 0028 1546     		mov	r5, r2
 143              	.LVL19:
 144              		.loc 1 198 0
 145 002a CDF814C0 		str	ip, [sp, #20]
 146              		.loc 1 124 0
 147 002e 4FF00008 		mov	r8, #0
 148              	.LVL20:
 149              	.L11:
 150              		.loc 1 135 0
 151 0032 2178     		ldrb	r1, [r4]	@ zero_extendqisi2
 152 0034 631C     		adds	r3, r4, #1
 153              	.LVL21:
 154              		.loc 1 136 0
 155 0036 69B1     		cbz	r1, .L68
 156              	.LVL22:
 157              	.L71:
 158              		.loc 1 138 0
 159 0038 2529     		cmp	r1, #37
 160 003a 0FD0     		beq	.L13
 161              		.loc 1 139 0
 162 003c DBF80020 		ldr	r2, [fp]
 163              	.LVL23:
 164              		.loc 1 135 0
 165 0040 1C46     		mov	r4, r3
 166              		.loc 1 139 0
 167 0042 9268     		ldr	r2, [r2, #8]
 168 0044 5846     		mov	r0, fp
 169 0046 9047     		blx	r2
 170              	.LVL24:
ARM GAS  /tmp/ccIUkKRb.s 			page 4


 171              		.loc 1 135 0
 172 0048 2178     		ldrb	r1, [r4]	@ zero_extendqisi2
 173              		.loc 1 140 0
 174 004a 08F10108 		add	r8, r8, #1
 175              	.LVL25:
 176              		.loc 1 135 0
 177 004e 631C     		adds	r3, r4, #1
 178              	.LVL26:
 179              		.loc 1 136 0
 180 0050 0029     		cmp	r1, #0
 181 0052 F1D1     		bne	.L71
 182              	.LVL27:
 183              	.L68:
 184              		.loc 1 277 0
 185 0054 4046     		mov	r0, r8
 186 0056 0BB0     		add	sp, sp, #44
 187              		@ sp needed
 188 0058 BDE8F08F 		pop	{r4, r5, r6, r7, r8, r9, r10, fp, pc}
 189              	.LVL28:
 190              	.L13:
 191              		.loc 1 146 0
 192 005c 6278     		ldrb	r2, [r4, #1]	@ zero_extendqisi2
 193              	.LVL29:
 194 005e 2D2A     		cmp	r2, #45
 195 0060 03BF     		ittte	eq
 196 0062 A278     		ldrbeq	r2, [r4, #2]	@ zero_extendqisi2
 197              		.loc 1 147 0
 198 0064 A31C     		addeq	r3, r4, #2
 199              	.LVL30:
 200              		.loc 1 148 0
 201 0066 4FF0010A 		moveq	r10, #1
 202              		.loc 1 145 0
 203 006a 4FF0000A 		movne	r10, #0
 204              	.LVL31:
 205              		.loc 1 151 0
 206 006e 302A     		cmp	r2, #48
 207 0070 03BF     		ittte	eq
 208 0072 5A78     		ldrbeq	r2, [r3, #1]	@ zero_extendqisi2
 209              		.loc 1 152 0
 210 0074 0133     		addeq	r3, r3, #1
 211              	.LVL32:
 212              		.loc 1 153 0
 213 0076 3026     		moveq	r6, #48
 214              		.loc 1 150 0
 215 0078 2026     		movne	r6, #32
 216              	.LVL33:
 217              		.loc 1 153 0
 218 007a 1C46     		mov	r4, r3
 219              		.loc 1 155 0
 220 007c 0027     		movs	r7, #0
 221 007e 06E0     		b	.L19
 222              	.LVL34:
 223              	.L72:
 224              		.loc 1 161 0
 225 0080 2B78     		ldrb	r3, [r5]	@ zero_extendqisi2
 226              	.LVL35:
 227 0082 0435     		adds	r5, r5, #4
ARM GAS  /tmp/ccIUkKRb.s 			page 5


 228              	.LVL36:
 229              	.L17:
 230              		.loc 1 164 0
 231 0084 07EB8707 		add	r7, r7, r7, lsl #2
 232              	.LVL37:
 233 0088 2278     		ldrb	r2, [r4]	@ zero_extendqisi2
 234 008a 03EB4707 		add	r7, r3, r7, lsl #1
 235              	.LVL38:
 236              	.L19:
 237              		.loc 1 158 0
 238 008e A2F13003 		sub	r3, r2, #48
 239 0092 DBB2     		uxtb	r3, r3
 240 0094 092B     		cmp	r3, #9
 241              		.loc 1 157 0
 242 0096 04F10104 		add	r4, r4, #1
 243              	.LVL39:
 244              		.loc 1 158 0
 245 009a F3D9     		bls	.L17
 246              		.loc 1 160 0
 247 009c 2A2A     		cmp	r2, #42
 248 009e EFD0     		beq	.L72
 249              	.LVL40:
 250              		.loc 1 167 0
 251 00a0 2E2A     		cmp	r2, #46
 252 00a2 4FF00001 		mov	r1, #0
 253 00a6 31D0     		beq	.L22
 254              	.LVL41:
 255              		.loc 1 181 0
 256 00a8 02F0DF03 		and	r3, r2, #223
 257 00ac 4C2B     		cmp	r3, #76
 258 00ae 3AD1     		bne	.L23
 259              	.LVL42:
 260              	.L74:
 261              		.loc 1 183 0
 262 00b0 2378     		ldrb	r3, [r4]	@ zero_extendqisi2
 263              		.loc 1 182 0
 264 00b2 0120     		movs	r0, #1
 265              		.loc 1 183 0
 266 00b4 13B1     		cbz	r3, .L24
 267              		.loc 1 184 0
 268 00b6 0134     		adds	r4, r4, #1
 269              	.LVL43:
 270 00b8 1A46     		mov	r2, r3
 271              		.loc 1 182 0
 272 00ba 0120     		movs	r0, #1
 273              	.LVL44:
 274              	.L24:
 275              		.loc 1 190 0
 276 00bc A2F14403 		sub	r3, r2, #68
 277 00c0 342B     		cmp	r3, #52
 278 00c2 00F2CC80 		bhi	.L25
 279 00c6 DFE803F0 		tbb	[pc, r3]
 280              	.L27:
 281 00ca 82       		.byte	(.L26-.L27)/2
 282 00cb CA       		.byte	(.L25-.L27)/2
 283 00cc CA       		.byte	(.L25-.L27)/2
 284 00cd CA       		.byte	(.L25-.L27)/2
ARM GAS  /tmp/ccIUkKRb.s 			page 6


 285 00ce CA       		.byte	(.L25-.L27)/2
 286 00cf 82       		.byte	(.L26-.L27)/2
 287 00d0 CA       		.byte	(.L25-.L27)/2
 288 00d1 CA       		.byte	(.L25-.L27)/2
 289 00d2 CA       		.byte	(.L25-.L27)/2
 290 00d3 CA       		.byte	(.L25-.L27)/2
 291 00d4 CA       		.byte	(.L25-.L27)/2
 292 00d5 80       		.byte	(.L28-.L27)/2
 293 00d6 CA       		.byte	(.L25-.L27)/2
 294 00d7 CA       		.byte	(.L25-.L27)/2
 295 00d8 CA       		.byte	(.L25-.L27)/2
 296 00d9 CA       		.byte	(.L25-.L27)/2
 297 00da CA       		.byte	(.L25-.L27)/2
 298 00db 36       		.byte	(.L57-.L27)/2
 299 00dc CA       		.byte	(.L25-.L27)/2
 300 00dd CA       		.byte	(.L25-.L27)/2
 301 00de C8       		.byte	(.L30-.L27)/2
 302 00df CA       		.byte	(.L25-.L27)/2
 303 00e0 CA       		.byte	(.L25-.L27)/2
 304 00e1 CA       		.byte	(.L25-.L27)/2
 305 00e2 CA       		.byte	(.L25-.L27)/2
 306 00e3 CA       		.byte	(.L25-.L27)/2
 307 00e4 CA       		.byte	(.L25-.L27)/2
 308 00e5 CA       		.byte	(.L25-.L27)/2
 309 00e6 CA       		.byte	(.L25-.L27)/2
 310 00e7 CA       		.byte	(.L25-.L27)/2
 311 00e8 CA       		.byte	(.L25-.L27)/2
 312 00e9 BD       		.byte	(.L31-.L27)/2
 313 00ea 82       		.byte	(.L26-.L27)/2
 314 00eb CA       		.byte	(.L25-.L27)/2
 315 00ec CA       		.byte	(.L25-.L27)/2
 316 00ed CA       		.byte	(.L25-.L27)/2
 317 00ee CA       		.byte	(.L25-.L27)/2
 318 00ef 82       		.byte	(.L26-.L27)/2
 319 00f0 CA       		.byte	(.L25-.L27)/2
 320 00f1 CA       		.byte	(.L25-.L27)/2
 321 00f2 CA       		.byte	(.L25-.L27)/2
 322 00f3 CA       		.byte	(.L25-.L27)/2
 323 00f4 CA       		.byte	(.L25-.L27)/2
 324 00f5 80       		.byte	(.L28-.L27)/2
 325 00f6 CA       		.byte	(.L25-.L27)/2
 326 00f7 CA       		.byte	(.L25-.L27)/2
 327 00f8 CA       		.byte	(.L25-.L27)/2
 328 00f9 9B       		.byte	(.L32-.L27)/2
 329 00fa CA       		.byte	(.L25-.L27)/2
 330 00fb 36       		.byte	(.L57-.L27)/2
 331 00fc CA       		.byte	(.L25-.L27)/2
 332 00fd CA       		.byte	(.L25-.L27)/2
 333 00fe C8       		.byte	(.L30-.L27)/2
 334 00ff 00       		.align	1
 335              	.LVL45:
 336              	.L73:
 337              		.loc 1 173 0
 338 0100 2B78     		ldrb	r3, [r5]	@ zero_extendqisi2
 339              	.LVL46:
 340 0102 0435     		adds	r5, r5, #4
 341              	.LVL47:
ARM GAS  /tmp/ccIUkKRb.s 			page 7


 342              	.L21:
 343              		.loc 1 176 0
 344 0104 01EB8101 		add	r1, r1, r1, lsl #2
 345              	.LVL48:
 346              		.loc 1 177 0
 347 0108 03EB4101 		add	r1, r3, r1, lsl #1
 348              	.LVL49:
 349              	.L22:
 350              		.loc 1 169 0
 351 010c 14F8012B 		ldrb	r2, [r4], #1	@ zero_extendqisi2
 352              	.LVL50:
 353              		.loc 1 170 0
 354 0110 A2F13003 		sub	r3, r2, #48
 355 0114 DBB2     		uxtb	r3, r3
 356 0116 092B     		cmp	r3, #9
 357 0118 F4D9     		bls	.L21
 358              		.loc 1 172 0
 359 011a 2A2A     		cmp	r2, #42
 360 011c F0D0     		beq	.L73
 361              	.LVL51:
 362              		.loc 1 181 0
 363 011e 02F0DF03 		and	r3, r2, #223
 364 0122 4C2B     		cmp	r3, #76
 365 0124 C4D0     		beq	.L74
 366              	.LVL52:
 367              	.L23:
 368              		.loc 1 187 0
 369 0126 A2F14100 		sub	r0, r2, #65
 370 012a C0B2     		uxtb	r0, r0
 371 012c 1928     		cmp	r0, #25
 372 012e 8CBF     		ite	hi
 373 0130 0020     		movhi	r0, #0
 374 0132 0120     		movls	r0, #1
 375              	.LVL53:
 376 0134 C2E7     		b	.L24
 377              	.LVL54:
 378              	.L57:
 379              		.loc 1 190 0
 380 0136 0A22     		movs	r2, #10
 381              	.LVL55:
 382              	.L29:
 383              		.loc 1 241 0
 384 0138 2968     		ldr	r1, [r5]
 385              	.LVL56:
 386              	.LBB6:
 387              	.LBB7:
 388              		.loc 1 72 0
 389 013a 07A8     		add	r0, sp, #28
 390 013c FFF7FEFF 		bl	long_to_string_with_divisor.constprop.0
 391              	.LVL57:
 392 0140 029B     		ldr	r3, [sp, #8]
 393 0142 C01A     		subs	r0, r0, r3
 394 0144 00F1FF3C 		add	ip, r0, #-1
 395              	.LBE7:
 396              	.LBE6:
 397              		.loc 1 241 0
 398 0148 0435     		adds	r5, r5, #4
ARM GAS  /tmp/ccIUkKRb.s 			page 8


 399              	.LVL58:
 400 014a CDF80CC0 		str	ip, [sp, #12]
 401              		.loc 1 144 0
 402 014e 0DF11C09 		add	r9, sp, #28
 403              	.LVL59:
 404              	.L33:
 405              		.loc 1 251 0
 406 0152 3F1A     		subs	r7, r7, r0
 407              	.LVL60:
 408 0154 27EAE777 		bic	r7, r7, r7, asr #31
 409              	.LVL61:
 410              		.loc 1 253 0
 411 0158 BAF1000F 		cmp	r10, #0
 412 015c 13D1     		bne	.L44
 413              		.loc 1 254 0
 414 015e 7F42     		negs	r7, r7
 415              	.LVL62:
 416              		.loc 1 255 0
 417 0160 8FB1     		cbz	r7, .L44
 418              		.loc 1 256 0
 419 0162 99F80010 		ldrb	r1, [r9]	@ zero_extendqisi2
 420 0166 2D29     		cmp	r1, #45
 421 0168 00F08180 		beq	.L75
 422              	.LVL63:
 423              	.L45:
 424              		.loc 1 196 0 discriminator 1
 425 016c BA46     		mov	r10, r7
 426              	.LVL64:
 427              	.L47:
 428              		.loc 1 262 0 discriminator 1
 429 016e DBF80030 		ldr	r3, [fp]
 430 0172 5846     		mov	r0, fp
 431 0174 9B68     		ldr	r3, [r3, #8]
 432 0176 3146     		mov	r1, r6
 433 0178 9847     		blx	r3
 434              	.LVL65:
 435              		.loc 1 264 0 discriminator 1
 436 017a 1AF1010A 		adds	r10, r10, #1
 437              	.LVL66:
 438 017e F6D1     		bne	.L47
 439 0180 C7EB0808 		rsb	r8, r7, r8
 440              		.loc 1 264 0 is_stmt 0
 441 0184 5746     		mov	r7, r10
 442              	.LVL67:
 443              	.L44:
 444              		.loc 1 266 0 is_stmt 1 discriminator 1
 445 0186 039A     		ldr	r2, [sp, #12]
 446 0188 002A     		cmp	r2, #0
 447 018a 0FDB     		blt	.L48
 448 018c 09F1FF3A 		add	r10, r9, #-1
 449 0190 9144     		add	r9, r9, r2
 450              	.LVL68:
 451              	.L50:
 452              		.loc 1 267 0
 453 0192 DBF80030 		ldr	r3, [fp]
 454 0196 1AF8011F 		ldrb	r1, [r10, #1]!	@ zero_extendqisi2
 455              	.LVL69:
ARM GAS  /tmp/ccIUkKRb.s 			page 9


 456 019a 9B68     		ldr	r3, [r3, #8]
 457 019c 5846     		mov	r0, fp
 458 019e 9847     		blx	r3
 459              	.LVL70:
 460              		.loc 1 266 0
 461 01a0 CA45     		cmp	r10, r9
 462 01a2 F6D1     		bne	.L50
 463 01a4 039B     		ldr	r3, [sp, #12]
 464 01a6 08F10108 		add	r8, r8, #1
 465 01aa 9844     		add	r8, r8, r3
 466              	.LVL71:
 467              	.L48:
 468              		.loc 1 271 0 discriminator 1
 469 01ac 002F     		cmp	r7, #0
 470 01ae 3FF440AF 		beq	.L11
 471              		.loc 1 271 0 is_stmt 0
 472 01b2 B946     		mov	r9, r7
 473              	.LVL72:
 474              	.L52:
 475              		.loc 1 272 0 is_stmt 1
 476 01b4 DBF80030 		ldr	r3, [fp]
 477 01b8 5846     		mov	r0, fp
 478 01ba 9B68     		ldr	r3, [r3, #8]
 479 01bc 3146     		mov	r1, r6
 480 01be 9847     		blx	r3
 481              	.LVL73:
 482              		.loc 1 271 0
 483 01c0 B9F10109 		subs	r9, r9, #1
 484              	.LVL74:
 485 01c4 F6D1     		bne	.L52
 486 01c6 B844     		add	r8, r8, r7
 487 01c8 33E7     		b	.L11
 488              	.LVL75:
 489              	.L28:
 490 01ca 0822     		movs	r2, #8
 491 01cc B4E7     		b	.L29
 492              	.LVL76:
 493              	.L26:
 494              		.loc 1 209 0
 495 01ce 2968     		ldr	r1, [r5]
 496              	.LVL77:
 497              		.loc 1 212 0
 498 01d0 0029     		cmp	r1, #0
 499              		.loc 1 213 0
 500 01d2 B8BF     		it	lt
 501 01d4 2D23     		movlt	r3, #45
 502              	.LBB8:
 503              	.LBB9:
 504              		.loc 1 72 0
 505 01d6 4FF00A02 		mov	r2, #10
 506              	.LVL78:
 507              	.LBE9:
 508              	.LBE8:
 509              		.loc 1 214 0
 510 01da BBBF     		ittet	lt
 511 01dc 4942     		rsblt	r1, r1, #0
 512              	.LVL79:
ARM GAS  /tmp/ccIUkKRb.s 			page 10


 513              		.loc 1 213 0
 514 01de 0DF11D00 		addlt	r0, sp, #29
 515              		.loc 1 143 0
 516 01e2 07A8     		addge	r0, sp, #28
 517              		.loc 1 213 0
 518 01e4 8DF81C30 		strblt	r3, [sp, #28]
 519              	.LVL80:
 520              	.LBB11:
 521              	.LBB10:
 522              		.loc 1 72 0
 523 01e8 FFF7FEFF 		bl	long_to_string_with_divisor.constprop.0
 524              	.LVL81:
 525 01ec DDF808C0 		ldr	ip, [sp, #8]
 526 01f0 CCEB0000 		rsb	r0, ip, r0
 527 01f4 421E     		subs	r2, r0, #1
 528              	.LBE10:
 529              	.LBE11:
 530              		.loc 1 209 0
 531 01f6 0435     		adds	r5, r5, #4
 532              	.LVL82:
 533 01f8 0392     		str	r2, [sp, #12]
 534              		.loc 1 144 0
 535 01fa 0DF11C09 		add	r9, sp, #28
 536              		.loc 1 217 0
 537 01fe A8E7     		b	.L33
 538              	.LVL83:
 539              	.L32:
 540              		.loc 1 197 0
 541 0200 D5F80090 		ldr	r9, [r5]
 542              		.loc 1 198 0
 543 0204 059B     		ldr	r3, [sp, #20]
 544 0206 B9F1000F 		cmp	r9, #0
 545 020a 08BF     		it	eq
 546 020c 9946     		moveq	r9, r3
 547              		.loc 1 200 0
 548 020e 47F6FF73 		movw	r3, #32767
 549              		.loc 1 201 0
 550 0212 99F80000 		ldrb	r0, [r9]	@ zero_extendqisi2
 551              		.loc 1 197 0
 552 0216 0435     		adds	r5, r5, #4
 553              	.LVL84:
 554              		.loc 1 200 0
 555 0218 0029     		cmp	r1, #0
 556 021a 08BF     		it	eq
 557 021c 1946     		moveq	r1, r3
 558              	.LVL85:
 559              		.loc 1 201 0
 560 021e 0028     		cmp	r0, #0
 561 0220 3ED0     		beq	.L60
 562 0222 4944     		add	r1, r1, r9
 563 0224 4B46     		mov	r3, r9
 564 0226 01E0     		b	.L38
 565              	.LVL86:
 566              	.L36:
 567              		.loc 1 201 0 is_stmt 0 discriminator 2
 568 0228 9942     		cmp	r1, r3
 569 022a 33D0     		beq	.L76
ARM GAS  /tmp/ccIUkKRb.s 			page 11


 570              	.LVL87:
 571              	.L38:
 572              		.loc 1 201 0 discriminator 1
 573 022c 5A78     		ldrb	r2, [r3, #1]	@ zero_extendqisi2
 574 022e 0133     		adds	r3, r3, #1
 575              	.LVL88:
 576 0230 002A     		cmp	r2, #0
 577 0232 F9D1     		bne	.L36
 578 0234 C9EB0300 		rsb	r0, r9, r3
 579 0238 00F1FF3C 		add	ip, r0, #-1
 580 023c CDF80CC0 		str	ip, [sp, #12]
 581              		.loc 1 196 0 is_stmt 1
 582 0240 2026     		movs	r6, #32
 583 0242 86E7     		b	.L33
 584              	.LVL89:
 585              	.L31:
 586 0244 0498     		ldr	r0, [sp, #16]
 587              		.loc 1 193 0
 588 0246 2B68     		ldr	r3, [r5]
 589 0248 421E     		subs	r2, r0, #1
 590              	.LVL90:
 591 024a 8DF81C30 		strb	r3, [sp, #28]
 592 024e 0435     		adds	r5, r5, #4
 593              	.LVL91:
 594 0250 0392     		str	r2, [sp, #12]
 595              		.loc 1 192 0
 596 0252 2026     		movs	r6, #32
 597              		.loc 1 144 0
 598 0254 0DF11C09 		add	r9, sp, #28
 599              		.loc 1 194 0
 600 0258 7BE7     		b	.L33
 601              	.LVL92:
 602              	.L30:
 603              		.loc 1 190 0
 604 025a 1022     		movs	r2, #16
 605              	.LVL93:
 606 025c 6CE7     		b	.L29
 607              	.LVL94:
 608              	.L25:
 609 025e 0498     		ldr	r0, [sp, #16]
 610              		.loc 1 247 0
 611 0260 8DF81C20 		strb	r2, [sp, #28]
 612 0264 421E     		subs	r2, r0, #1
 613              	.LVL95:
 614 0266 0392     		str	r2, [sp, #12]
 615              		.loc 1 144 0
 616 0268 0DF11C09 		add	r9, sp, #28
 617              		.loc 1 248 0
 618 026c 71E7     		b	.L33
 619              	.LVL96:
 620              	.L75:
 621              		.loc 1 256 0 discriminator 1
 622 026e 302E     		cmp	r6, #48
 623 0270 7FF47CAF 		bne	.L45
 624              	.LVL97:
 625              		.loc 1 257 0
 626 0274 DBF80030 		ldr	r3, [fp]
ARM GAS  /tmp/ccIUkKRb.s 			page 12


 627 0278 5846     		mov	r0, fp
 628              	.LVL98:
 629 027a 9B68     		ldr	r3, [r3, #8]
 630 027c 9847     		blx	r3
 631              	.LVL99:
 632 027e DDF80CC0 		ldr	ip, [sp, #12]
 633 0282 0CF1FF3C 		add	ip, ip, #-1
 634 0286 09F10109 		add	r9, r9, #1
 635              	.LVL100:
 636              		.loc 1 258 0
 637 028a 08F10108 		add	r8, r8, #1
 638              	.LVL101:
 639 028e CDF80CC0 		str	ip, [sp, #12]
 640              	.LVL102:
 641 0292 6BE7     		b	.L45
 642              	.LVL103:
 643              	.L76:
 644 0294 C9EB0100 		rsb	r0, r9, r1
 645 0298 421E     		subs	r2, r0, #1
 646 029a 0392     		str	r2, [sp, #12]
 647              		.loc 1 196 0
 648 029c 2026     		movs	r6, #32
 649 029e 58E7     		b	.L33
 650              	.LVL104:
 651              	.L60:
 652              		.loc 1 201 0
 653 02a0 4FF0FF33 		mov	r3, #-1
 654 02a4 0393     		str	r3, [sp, #12]
 655              		.loc 1 196 0
 656 02a6 2026     		movs	r6, #32
 657 02a8 53E7     		b	.L33
 658              		.cfi_endproc
 659              	.LFE272:
 660              		.size	chvprintf, .-chvprintf
 661 02aa 00BFAFF3 		.section	.text.chprintf,"ax",%progbits
 661      0080
 662              		.align	2
 663              		.p2align 4,,15
 664              		.global	chprintf
 665              		.thumb
 666              		.thumb_func
 667              		.type	chprintf, %function
 668              	chprintf:
 669              	.LFB273:
 670              		.loc 1 302 0
 671              		.cfi_startproc
 672              		@ args = 4, pretend = 12, frame = 8
 673              		@ frame_needed = 0, uses_anonymous_args = 1
 674              	.LVL105:
 675 0000 0EB4     		push	{r1, r2, r3}
 676              		.cfi_def_cfa_offset 12
 677              		.cfi_offset 1, -12
 678              		.cfi_offset 2, -8
 679              		.cfi_offset 3, -4
 680 0002 00B5     		push	{lr}
 681              		.cfi_def_cfa_offset 16
 682              		.cfi_offset 14, -16
ARM GAS  /tmp/ccIUkKRb.s 			page 13


 683 0004 82B0     		sub	sp, sp, #8
 684              		.cfi_def_cfa_offset 24
 685              		.loc 1 302 0
 686 0006 03AB     		add	r3, sp, #12
 687 0008 53F8041B 		ldr	r1, [r3], #4
 688              		.loc 1 307 0
 689 000c 1A46     		mov	r2, r3
 690              		.loc 1 306 0
 691 000e 0193     		str	r3, [sp, #4]
 692              		.loc 1 307 0
 693 0010 FFF7FEFF 		bl	chvprintf
 694              	.LVL106:
 695              		.loc 1 311 0
 696 0014 02B0     		add	sp, sp, #8
 697              		@ sp needed
 698 0016 5DF804EB 		ldr	lr, [sp], #4
 699 001a 03B0     		add	sp, sp, #12
 700 001c 7047     		bx	lr
 701              		.cfi_endproc
 702              	.LFE273:
 703              		.size	chprintf, .-chprintf
 704 001e 00BF     		.section	.text.chsnprintf,"ax",%progbits
 705              		.align	2
 706              		.p2align 4,,15
 707              		.global	chsnprintf
 708              		.thumb
 709              		.thumb_func
 710              		.type	chsnprintf, %function
 711              	chsnprintf:
 712              	.LFB274:
 713              		.loc 1 341 0
 714              		.cfi_startproc
 715              		@ args = 4, pretend = 8, frame = 24
 716              		@ frame_needed = 0, uses_anonymous_args = 1
 717              	.LVL107:
 718 0000 0CB4     		push	{r2, r3}
 719              		.cfi_def_cfa_offset 8
 720              		.cfi_offset 2, -8
 721              		.cfi_offset 3, -4
 722 0002 70B5     		push	{r4, r5, r6, lr}
 723              		.cfi_def_cfa_offset 24
 724              		.cfi_offset 4, -24
 725              		.cfi_offset 5, -20
 726              		.cfi_offset 6, -16
 727              		.cfi_offset 14, -12
 728 0004 86B0     		sub	sp, sp, #24
 729              		.cfi_def_cfa_offset 48
 730              		.loc 1 348 0
 731 0006 0C46     		mov	r4, r1
 732              		.loc 1 341 0
 733 0008 0546     		mov	r5, r0
 734 000a 0A9E     		ldr	r6, [sp, #40]
 735              		.loc 1 348 0
 736 000c B1B1     		cbz	r1, .L79
 737              	.LVL108:
 738              		.loc 1 355 0
 739 000e 01A8     		add	r0, sp, #4
ARM GAS  /tmp/ccIUkKRb.s 			page 14


 740              	.LVL109:
 741 0010 2946     		mov	r1, r5
 742              	.LVL110:
 743 0012 621E     		subs	r2, r4, #1
 744              	.LVL111:
 745 0014 0023     		movs	r3, #0
 746 0016 FFF7FEFF 		bl	msObjectInit
 747              	.LVL112:
 748              		.loc 1 359 0
 749 001a 0BAB     		add	r3, sp, #44
 750              		.loc 1 360 0
 751 001c 1A46     		mov	r2, r3
 752 001e 01A8     		add	r0, sp, #4
 753              	.LVL113:
 754 0020 3146     		mov	r1, r6
 755              		.loc 1 359 0
 756 0022 0093     		str	r3, [sp]
 757              		.loc 1 360 0
 758 0024 FFF7FEFF 		bl	chvprintf
 759              	.LVL114:
 760              		.loc 1 364 0
 761 0028 049B     		ldr	r3, [sp, #16]
 762 002a 9C42     		cmp	r4, r3
 763 002c 01D9     		bls	.L81
 764              		.loc 1 365 0
 765 002e 0022     		movs	r2, #0
 766 0030 EA54     		strb	r2, [r5, r3]
 767              	.L81:
 768              		.loc 1 369 0
 769 0032 06B0     		add	sp, sp, #24
 770              		@ sp needed
 771 0034 BDE87040 		pop	{r4, r5, r6, lr}
 772              	.LVL115:
 773 0038 02B0     		add	sp, sp, #8
 774 003a 7047     		bx	lr
 775              	.LVL116:
 776              	.L79:
 777              		.loc 1 355 0
 778 003c 0A46     		mov	r2, r1
 779 003e 2346     		mov	r3, r4
 780 0040 0146     		mov	r1, r0
 781              	.LVL117:
 782 0042 01A8     		add	r0, sp, #4
 783              	.LVL118:
 784 0044 FFF7FEFF 		bl	msObjectInit
 785              	.LVL119:
 786              		.loc 1 359 0
 787 0048 0BAB     		add	r3, sp, #44
 788              		.loc 1 360 0
 789 004a 01A8     		add	r0, sp, #4
 790              	.LVL120:
 791 004c 3146     		mov	r1, r6
 792 004e 1A46     		mov	r2, r3
 793              		.loc 1 359 0
 794 0050 0093     		str	r3, [sp]
 795              		.loc 1 360 0
 796 0052 FFF7FEFF 		bl	chvprintf
ARM GAS  /tmp/ccIUkKRb.s 			page 15


 797              	.LVL121:
 798              		.loc 1 369 0
 799 0056 06B0     		add	sp, sp, #24
 800              		@ sp needed
 801 0058 BDE87040 		pop	{r4, r5, r6, lr}
 802              	.LVL122:
 803 005c 02B0     		add	sp, sp, #8
 804 005e 7047     		bx	lr
 805              		.cfi_endproc
 806              	.LFE274:
 807              		.size	chsnprintf, .-chsnprintf
 808              		.section	.rodata.str1.4,"aMS",%progbits,1
 809              		.align	2
 810              	.LC0:
 811 0000 286E756C 		.ascii	"(null)\000"
 811      6C2900
 812 0007 00       		.text
 813              	.Letext0:
 814              		.file 2 "/usr/lib/gcc/arm-none-eabi/4.8.2/include/stddef.h"
 815              		.file 3 "/usr/include/newlib/machine/_default_types.h"
 816              		.file 4 "/usr/include/newlib/stdint.h"
 817              		.file 5 "../../../../../ChibiOS-RT/os/common/ports/ARMCMx/compilers/GCC/chtypes.h"
 818              		.file 6 "../../../../../ChibiOS-RT/os/rt/include/chsystypes.h"
 819              		.file 7 "../../../../../ChibiOS-RT/os/rt/include/chschd.h"
 820              		.file 8 "../../../../../ChibiOS-RT/os/common/ports/ARMCMx/chcore.h"
 821              		.file 9 "../../../../../ChibiOS-RT/os/common/ports/ARMCMx/chcore_v7m.h"
 822              		.file 10 "../../../../../ChibiOS-RT/os/rt/include/chtrace.h"
 823              		.file 11 "../../../../../ChibiOS-RT/os/rt/include/chtm.h"
 824              		.file 12 "../../../../../ChibiOS-RT/os/rt/include/chsem.h"
 825              		.file 13 "../../../../../ChibiOS-RT/os/rt/include/chmtx.h"
 826              		.file 14 "../../../../../ChibiOS-RT/os/hal/include/hal_streams.h"
 827              		.file 15 "/usr/lib/gcc/arm-none-eabi/4.8.2/include/stdarg.h"
 828              		.file 16 "<built-in>"
 829              		.file 17 "../../../../../ChibiOS-RT/os/hal/lib/streams/memstreams.h"
 830              		.file 18 "../../../../../ChibiOS-RT/os/common/ext/CMSIS/include/core_cm4.h"
 831              		.section	.debug_info,"",%progbits
 832              	.Ldebug_info0:
 833 0000 C10D0000 		.4byte	0xdc1
 834 0004 0400     		.2byte	0x4
 835 0006 00000000 		.4byte	.Ldebug_abbrev0
 836 000a 04       		.byte	0x4
 837 000b 01       		.uleb128 0x1
 838 000c 5A000000 		.4byte	.LASF132
 839 0010 01       		.byte	0x1
 840 0011 14040000 		.4byte	.LASF133
 841 0015 7B020000 		.4byte	.LASF134
 842 0019 18000000 		.4byte	.Ldebug_ranges0+0x18
 843 001d 00000000 		.4byte	0
 844 0021 00000000 		.4byte	.Ldebug_line0
 845 0025 02       		.uleb128 0x2
 846 0026 04       		.byte	0x4
 847 0027 05       		.byte	0x5
 848 0028 696E7400 		.ascii	"int\000"
 849 002c 03       		.uleb128 0x3
 850 002d 0D000000 		.4byte	.LASF2
 851 0031 02       		.byte	0x2
 852 0032 D4       		.byte	0xd4
ARM GAS  /tmp/ccIUkKRb.s 			page 16


 853 0033 37000000 		.4byte	0x37
 854 0037 04       		.uleb128 0x4
 855 0038 04       		.byte	0x4
 856 0039 07       		.byte	0x7
 857 003a 6E020000 		.4byte	.LASF0
 858 003e 04       		.uleb128 0x4
 859 003f 01       		.byte	0x1
 860 0040 06       		.byte	0x6
 861 0041 9C010000 		.4byte	.LASF1
 862 0045 03       		.uleb128 0x3
 863 0046 23000000 		.4byte	.LASF3
 864 004a 03       		.byte	0x3
 865 004b 1C       		.byte	0x1c
 866 004c 50000000 		.4byte	0x50
 867 0050 04       		.uleb128 0x4
 868 0051 01       		.byte	0x1
 869 0052 08       		.byte	0x8
 870 0053 FA040000 		.4byte	.LASF4
 871 0057 04       		.uleb128 0x4
 872 0058 02       		.byte	0x2
 873 0059 05       		.byte	0x5
 874 005a 08050000 		.4byte	.LASF5
 875 005e 03       		.uleb128 0x3
 876 005f BF050000 		.4byte	.LASF6
 877 0063 03       		.byte	0x3
 878 0064 26       		.byte	0x26
 879 0065 69000000 		.4byte	0x69
 880 0069 04       		.uleb128 0x4
 881 006a 02       		.byte	0x2
 882 006b 07       		.byte	0x7
 883 006c 28030000 		.4byte	.LASF7
 884 0070 03       		.uleb128 0x3
 885 0071 7B030000 		.4byte	.LASF8
 886 0075 03       		.byte	0x3
 887 0076 37       		.byte	0x37
 888 0077 7B000000 		.4byte	0x7b
 889 007b 04       		.uleb128 0x4
 890 007c 04       		.byte	0x4
 891 007d 05       		.byte	0x5
 892 007e CC010000 		.4byte	.LASF9
 893 0082 03       		.uleb128 0x3
 894 0083 10020000 		.4byte	.LASF10
 895 0087 03       		.byte	0x3
 896 0088 38       		.byte	0x38
 897 0089 8D000000 		.4byte	0x8d
 898 008d 04       		.uleb128 0x4
 899 008e 04       		.byte	0x4
 900 008f 07       		.byte	0x7
 901 0090 A8010000 		.4byte	.LASF11
 902 0094 04       		.uleb128 0x4
 903 0095 08       		.byte	0x8
 904 0096 05       		.byte	0x5
 905 0097 8E010000 		.4byte	.LASF12
 906 009b 03       		.uleb128 0x3
 907 009c A2040000 		.4byte	.LASF13
 908 00a0 03       		.byte	0x3
 909 00a1 4E       		.byte	0x4e
ARM GAS  /tmp/ccIUkKRb.s 			page 17


 910 00a2 A6000000 		.4byte	0xa6
 911 00a6 04       		.uleb128 0x4
 912 00a7 08       		.byte	0x8
 913 00a8 07       		.byte	0x7
 914 00a9 0D010000 		.4byte	.LASF14
 915 00ad 03       		.uleb128 0x3
 916 00ae 41060000 		.4byte	.LASF15
 917 00b2 04       		.byte	0x4
 918 00b3 2A       		.byte	0x2a
 919 00b4 45000000 		.4byte	0x45
 920 00b8 03       		.uleb128 0x3
 921 00b9 00020000 		.4byte	.LASF16
 922 00bd 04       		.byte	0x4
 923 00be 36       		.byte	0x36
 924 00bf 5E000000 		.4byte	0x5e
 925 00c3 03       		.uleb128 0x3
 926 00c4 F2040000 		.4byte	.LASF17
 927 00c8 04       		.byte	0x4
 928 00c9 41       		.byte	0x41
 929 00ca 70000000 		.4byte	0x70
 930 00ce 03       		.uleb128 0x3
 931 00cf 74050000 		.4byte	.LASF18
 932 00d3 04       		.byte	0x4
 933 00d4 42       		.byte	0x42
 934 00d5 82000000 		.4byte	0x82
 935 00d9 03       		.uleb128 0x3
 936 00da 1A000000 		.4byte	.LASF19
 937 00de 04       		.byte	0x4
 938 00df 4E       		.byte	0x4e
 939 00e0 9B000000 		.4byte	0x9b
 940 00e4 03       		.uleb128 0x3
 941 00e5 12060000 		.4byte	.LASF20
 942 00e9 05       		.byte	0x5
 943 00ea 39       		.byte	0x39
 944 00eb CE000000 		.4byte	0xce
 945 00ef 03       		.uleb128 0x3
 946 00f0 59030000 		.4byte	.LASF21
 947 00f4 05       		.byte	0x5
 948 00f5 3C       		.byte	0x3c
 949 00f6 AD000000 		.4byte	0xad
 950 00fa 03       		.uleb128 0x3
 951 00fb D5010000 		.4byte	.LASF22
 952 00ff 05       		.byte	0x5
 953 0100 3D       		.byte	0x3d
 954 0101 AD000000 		.4byte	0xad
 955 0105 03       		.uleb128 0x3
 956 0106 84050000 		.4byte	.LASF23
 957 010a 05       		.byte	0x5
 958 010b 3E       		.byte	0x3e
 959 010c AD000000 		.4byte	0xad
 960 0110 03       		.uleb128 0x3
 961 0111 C7040000 		.4byte	.LASF24
 962 0115 05       		.byte	0x5
 963 0116 40       		.byte	0x40
 964 0117 CE000000 		.4byte	0xce
 965 011b 03       		.uleb128 0x3
 966 011c 45030000 		.4byte	.LASF25
ARM GAS  /tmp/ccIUkKRb.s 			page 18


 967 0120 05       		.byte	0x5
 968 0121 41       		.byte	0x41
 969 0122 C3000000 		.4byte	0xc3
 970 0126 03       		.uleb128 0x3
 971 0127 6F030000 		.4byte	.LASF26
 972 012b 05       		.byte	0x5
 973 012c 43       		.byte	0x43
 974 012d CE000000 		.4byte	0xce
 975 0131 03       		.uleb128 0x3
 976 0132 5F020000 		.4byte	.LASF27
 977 0136 05       		.byte	0x5
 978 0137 45       		.byte	0x45
 979 0138 C3000000 		.4byte	0xc3
 980 013c 03       		.uleb128 0x3
 981 013d DD050000 		.4byte	.LASF28
 982 0141 06       		.byte	0x6
 983 0142 33       		.byte	0x33
 984 0143 CE000000 		.4byte	0xce
 985 0147 03       		.uleb128 0x3
 986 0148 D4050000 		.4byte	.LASF29
 987 014c 06       		.byte	0x6
 988 014d 3F       		.byte	0x3f
 989 014e 52010000 		.4byte	0x152
 990 0152 05       		.uleb128 0x5
 991 0153 3B030000 		.4byte	.LASF47
 992 0157 44       		.byte	0x44
 993 0158 07       		.byte	0x7
 994 0159 9A       		.byte	0x9a
 995 015a 30020000 		.4byte	0x230
 996 015e 06       		.uleb128 0x6
 997 015f 16030000 		.4byte	.LASF30
 998 0163 07       		.byte	0x7
 999 0164 9B       		.byte	0x9b
 1000 0165 65020000 		.4byte	0x265
 1001 0169 00       		.byte	0
 1002 016a 06       		.uleb128 0x6
 1003 016b 88040000 		.4byte	.LASF31
 1004 016f 07       		.byte	0x7
 1005 0170 9C       		.byte	0x9c
 1006 0171 10010000 		.4byte	0x110
 1007 0175 08       		.byte	0x8
 1008 0176 07       		.uleb128 0x7
 1009 0177 63747800 		.ascii	"ctx\000"
 1010 017b 07       		.byte	0x7
 1011 017c 9D       		.byte	0x9d
 1012 017d 6E040000 		.4byte	0x46e
 1013 0181 0C       		.byte	0xc
 1014 0182 06       		.uleb128 0x6
 1015 0183 90030000 		.4byte	.LASF32
 1016 0187 07       		.byte	0x7
 1017 0188 9F       		.byte	0x9f
 1018 0189 3B020000 		.4byte	0x23b
 1019 018d 10       		.byte	0x10
 1020 018e 06       		.uleb128 0x6
 1021 018f B9050000 		.4byte	.LASF33
 1022 0193 07       		.byte	0x7
 1023 0194 A0       		.byte	0xa0
ARM GAS  /tmp/ccIUkKRb.s 			page 19


 1024 0195 3B020000 		.4byte	0x23b
 1025 0199 14       		.byte	0x14
 1026 019a 06       		.uleb128 0x6
 1027 019b 11030000 		.4byte	.LASF34
 1028 019f 07       		.byte	0x7
 1029 01a0 A7       		.byte	0xa7
 1030 01a1 3E050000 		.4byte	0x53e
 1031 01a5 18       		.byte	0x18
 1032 01a6 06       		.uleb128 0x6
 1033 01a7 AD050000 		.4byte	.LASF35
 1034 01ab 07       		.byte	0x7
 1035 01ac B0       		.byte	0xb0
 1036 01ad 57070000 		.4byte	0x757
 1037 01b1 1C       		.byte	0x1c
 1038 01b2 06       		.uleb128 0x6
 1039 01b3 C6010000 		.4byte	.LASF36
 1040 01b7 07       		.byte	0x7
 1041 01b8 B5       		.byte	0xb5
 1042 01b9 FA000000 		.4byte	0xfa
 1043 01bd 20       		.byte	0x20
 1044 01be 06       		.uleb128 0x6
 1045 01bf 53060000 		.4byte	.LASF37
 1046 01c3 07       		.byte	0x7
 1047 01c4 B9       		.byte	0xb9
 1048 01c5 EF000000 		.4byte	0xef
 1049 01c9 21       		.byte	0x21
 1050 01ca 06       		.uleb128 0x6
 1051 01cb AD040000 		.4byte	.LASF38
 1052 01cf 07       		.byte	0x7
 1053 01d0 BE       		.byte	0xbe
 1054 01d1 05010000 		.4byte	0x105
 1055 01d5 22       		.byte	0x22
 1056 01d6 08       		.uleb128 0x8
 1057 01d7 7500     		.ascii	"u\000"
 1058 01d9 07       		.byte	0x7
 1059 01da 0F01     		.2byte	0x10f
 1060 01dc 8C060000 		.4byte	0x68c
 1061 01e0 24       		.byte	0x24
 1062 01e1 09       		.uleb128 0x9
 1063 01e2 32020000 		.4byte	.LASF39
 1064 01e6 07       		.byte	0x7
 1065 01e7 1401     		.2byte	0x114
 1066 01e9 41020000 		.4byte	0x241
 1067 01ed 28       		.byte	0x28
 1068 01ee 09       		.uleb128 0x9
 1069 01ef 65020000 		.4byte	.LASF40
 1070 01f3 07       		.byte	0x7
 1071 01f4 1A01     		.2byte	0x11a
 1072 01f6 65020000 		.4byte	0x265
 1073 01fa 2C       		.byte	0x2c
 1074 01fb 09       		.uleb128 0x9
 1075 01fc 4B030000 		.4byte	.LASF41
 1076 0200 07       		.byte	0x7
 1077 0201 2001     		.2byte	0x120
 1078 0203 26010000 		.4byte	0x126
 1079 0207 34       		.byte	0x34
 1080 0208 09       		.uleb128 0x9
ARM GAS  /tmp/ccIUkKRb.s 			page 20


 1081 0209 98060000 		.4byte	.LASF42
 1082 020d 07       		.byte	0x7
 1083 020e 2701     		.2byte	0x127
 1084 0210 51070000 		.4byte	0x751
 1085 0214 38       		.byte	0x38
 1086 0215 09       		.uleb128 0x9
 1087 0216 A4030000 		.4byte	.LASF43
 1088 021a 07       		.byte	0x7
 1089 021b 2B01     		.2byte	0x12b
 1090 021d 10010000 		.4byte	0x110
 1091 0221 3C       		.byte	0x3c
 1092 0222 09       		.uleb128 0x9
 1093 0223 22030000 		.4byte	.LASF44
 1094 0227 07       		.byte	0x7
 1095 0228 3201     		.2byte	0x132
 1096 022a 18030000 		.4byte	0x318
 1097 022e 40       		.byte	0x40
 1098 022f 00       		.byte	0
 1099 0230 03       		.uleb128 0x3
 1100 0231 B6030000 		.4byte	.LASF45
 1101 0235 06       		.byte	0x6
 1102 0236 44       		.byte	0x44
 1103 0237 3B020000 		.4byte	0x23b
 1104 023b 0A       		.uleb128 0xa
 1105 023c 04       		.byte	0x4
 1106 023d 47010000 		.4byte	0x147
 1107 0241 03       		.uleb128 0x3
 1108 0242 7C060000 		.4byte	.LASF46
 1109 0246 06       		.byte	0x6
 1110 0247 49       		.byte	0x49
 1111 0248 4C020000 		.4byte	0x24c
 1112 024c 05       		.uleb128 0x5
 1113 024d 8C050000 		.4byte	.LASF48
 1114 0251 04       		.byte	0x4
 1115 0252 07       		.byte	0x7
 1116 0253 88       		.byte	0x88
 1117 0254 65020000 		.4byte	0x265
 1118 0258 06       		.uleb128 0x6
 1119 0259 78010000 		.4byte	.LASF49
 1120 025d 07       		.byte	0x7
 1121 025e 89       		.byte	0x89
 1122 025f 3B020000 		.4byte	0x23b
 1123 0263 00       		.byte	0
 1124 0264 00       		.byte	0
 1125 0265 03       		.uleb128 0x3
 1126 0266 1A060000 		.4byte	.LASF50
 1127 026a 06       		.byte	0x6
 1128 026b 50       		.byte	0x50
 1129 026c 70020000 		.4byte	0x270
 1130 0270 05       		.uleb128 0x5
 1131 0271 7D010000 		.4byte	.LASF51
 1132 0275 08       		.byte	0x8
 1133 0276 07       		.byte	0x7
 1134 0277 8F       		.byte	0x8f
 1135 0278 95020000 		.4byte	0x295
 1136 027c 06       		.uleb128 0x6
 1137 027d 78010000 		.4byte	.LASF49
ARM GAS  /tmp/ccIUkKRb.s 			page 21


 1138 0281 07       		.byte	0x7
 1139 0282 90       		.byte	0x90
 1140 0283 3B020000 		.4byte	0x23b
 1141 0287 00       		.byte	0
 1142 0288 06       		.uleb128 0x6
 1143 0289 2D000000 		.4byte	.LASF52
 1144 028d 07       		.byte	0x7
 1145 028e 91       		.byte	0x91
 1146 028f 3B020000 		.4byte	0x23b
 1147 0293 04       		.byte	0x4
 1148 0294 00       		.byte	0
 1149 0295 03       		.uleb128 0x3
 1150 0296 00000000 		.4byte	.LASF53
 1151 029a 06       		.byte	0x6
 1152 029b 57       		.byte	0x57
 1153 029c A0020000 		.4byte	0x2a0
 1154 02a0 0B       		.uleb128 0xb
 1155 02a1 61030000 		.4byte	.LASF54
 1156 02a5 1C       		.byte	0x1c
 1157 02a6 07       		.byte	0x7
 1158 02a7 6A01     		.2byte	0x16a
 1159 02a9 FC020000 		.4byte	0x2fc
 1160 02ad 09       		.uleb128 0x9
 1161 02ae 16030000 		.4byte	.LASF30
 1162 02b2 07       		.byte	0x7
 1163 02b3 6B01     		.2byte	0x16b
 1164 02b5 65020000 		.4byte	0x265
 1165 02b9 00       		.byte	0
 1166 02ba 09       		.uleb128 0x9
 1167 02bb 88040000 		.4byte	.LASF31
 1168 02bf 07       		.byte	0x7
 1169 02c0 6C01     		.2byte	0x16c
 1170 02c2 10010000 		.4byte	0x110
 1171 02c6 08       		.byte	0x8
 1172 02c7 08       		.uleb128 0x8
 1173 02c8 63747800 		.ascii	"ctx\000"
 1174 02cc 07       		.byte	0x7
 1175 02cd 6E01     		.2byte	0x16e
 1176 02cf 6E040000 		.4byte	0x46e
 1177 02d3 0C       		.byte	0xc
 1178 02d4 09       		.uleb128 0x9
 1179 02d5 90030000 		.4byte	.LASF32
 1180 02d9 07       		.byte	0x7
 1181 02da 7101     		.2byte	0x171
 1182 02dc 3B020000 		.4byte	0x23b
 1183 02e0 10       		.byte	0x10
 1184 02e1 09       		.uleb128 0x9
 1185 02e2 B9050000 		.4byte	.LASF33
 1186 02e6 07       		.byte	0x7
 1187 02e7 7201     		.2byte	0x172
 1188 02e9 3B020000 		.4byte	0x23b
 1189 02ed 14       		.byte	0x14
 1190 02ee 09       		.uleb128 0x9
 1191 02ef 8D040000 		.4byte	.LASF55
 1192 02f3 07       		.byte	0x7
 1193 02f4 7501     		.2byte	0x175
 1194 02f6 3B020000 		.4byte	0x23b
ARM GAS  /tmp/ccIUkKRb.s 			page 22


 1195 02fa 18       		.byte	0x18
 1196 02fb 00       		.byte	0
 1197 02fc 03       		.uleb128 0x3
 1198 02fd E7050000 		.4byte	.LASF56
 1199 0301 06       		.byte	0x6
 1200 0302 5C       		.byte	0x5c
 1201 0303 07030000 		.4byte	0x307
 1202 0307 0A       		.uleb128 0xa
 1203 0308 04       		.byte	0x4
 1204 0309 0D030000 		.4byte	0x30d
 1205 030d 0C       		.uleb128 0xc
 1206 030e 18030000 		.4byte	0x318
 1207 0312 0D       		.uleb128 0xd
 1208 0313 18030000 		.4byte	0x318
 1209 0317 00       		.byte	0
 1210 0318 0E       		.uleb128 0xe
 1211 0319 04       		.byte	0x4
 1212 031a 03       		.uleb128 0x3
 1213 031b B2040000 		.4byte	.LASF57
 1214 031f 06       		.byte	0x6
 1215 0320 61       		.byte	0x61
 1216 0321 25030000 		.4byte	0x325
 1217 0325 0B       		.uleb128 0xb
 1218 0326 56050000 		.4byte	.LASF58
 1219 032a 14       		.byte	0x14
 1220 032b 07       		.byte	0x7
 1221 032c 4501     		.2byte	0x145
 1222 032e 74030000 		.4byte	0x374
 1223 0332 09       		.uleb128 0x9
 1224 0333 78010000 		.4byte	.LASF49
 1225 0337 07       		.byte	0x7
 1226 0338 4601     		.2byte	0x146
 1227 033a 5D070000 		.4byte	0x75d
 1228 033e 00       		.byte	0
 1229 033f 09       		.uleb128 0x9
 1230 0340 2D000000 		.4byte	.LASF52
 1231 0344 07       		.byte	0x7
 1232 0345 4701     		.2byte	0x147
 1233 0347 5D070000 		.4byte	0x75d
 1234 034b 04       		.byte	0x4
 1235 034c 09       		.uleb128 0x9
 1236 034d 14000000 		.4byte	.LASF59
 1237 0351 07       		.byte	0x7
 1238 0352 4801     		.2byte	0x148
 1239 0354 3C010000 		.4byte	0x13c
 1240 0358 08       		.byte	0x8
 1241 0359 09       		.uleb128 0x9
 1242 035a 73010000 		.4byte	.LASF60
 1243 035e 07       		.byte	0x7
 1244 035f 4901     		.2byte	0x149
 1245 0361 FC020000 		.4byte	0x2fc
 1246 0365 0C       		.byte	0xc
 1247 0366 08       		.uleb128 0x8
 1248 0367 70617200 		.ascii	"par\000"
 1249 036b 07       		.byte	0x7
 1250 036c 4B01     		.2byte	0x14b
 1251 036e 18030000 		.4byte	0x318
ARM GAS  /tmp/ccIUkKRb.s 			page 23


 1252 0372 10       		.byte	0x10
 1253 0373 00       		.byte	0
 1254 0374 03       		.uleb128 0x3
 1255 0375 50010000 		.4byte	.LASF61
 1256 0379 06       		.byte	0x6
 1257 037a 66       		.byte	0x66
 1258 037b 7F030000 		.4byte	0x37f
 1259 037f 0B       		.uleb128 0xb
 1260 0380 C9030000 		.4byte	.LASF62
 1261 0384 10       		.byte	0x10
 1262 0385 07       		.byte	0x7
 1263 0386 5501     		.2byte	0x155
 1264 0388 C1030000 		.4byte	0x3c1
 1265 038c 09       		.uleb128 0x9
 1266 038d 78010000 		.4byte	.LASF49
 1267 0391 07       		.byte	0x7
 1268 0392 5601     		.2byte	0x156
 1269 0394 5D070000 		.4byte	0x75d
 1270 0398 00       		.byte	0
 1271 0399 09       		.uleb128 0x9
 1272 039a 2D000000 		.4byte	.LASF52
 1273 039e 07       		.byte	0x7
 1274 039f 5801     		.2byte	0x158
 1275 03a1 5D070000 		.4byte	0x75d
 1276 03a5 04       		.byte	0x4
 1277 03a6 09       		.uleb128 0x9
 1278 03a7 14000000 		.4byte	.LASF59
 1279 03ab 07       		.byte	0x7
 1280 03ac 5A01     		.2byte	0x15a
 1281 03ae 3C010000 		.4byte	0x13c
 1282 03b2 08       		.byte	0x8
 1283 03b3 09       		.uleb128 0x9
 1284 03b4 12050000 		.4byte	.LASF63
 1285 03b8 07       		.byte	0x7
 1286 03b9 6201     		.2byte	0x162
 1287 03bb 3C010000 		.4byte	0x13c
 1288 03bf 0C       		.byte	0xc
 1289 03c0 00       		.byte	0
 1290 03c1 03       		.uleb128 0x3
 1291 03c2 46000000 		.4byte	.LASF64
 1292 03c6 06       		.byte	0x6
 1293 03c7 6B       		.byte	0x6b
 1294 03c8 CC030000 		.4byte	0x3cc
 1295 03cc 0F       		.uleb128 0xf
 1296 03cd DC040000 		.4byte	.LASF65
 1297 03d1 0C08     		.2byte	0x80c
 1298 03d3 07       		.byte	0x7
 1299 03d4 7C01     		.2byte	0x17c
 1300 03d6 F5030000 		.4byte	0x3f5
 1301 03da 09       		.uleb128 0x9
 1302 03db F0050000 		.4byte	.LASF66
 1303 03df 07       		.byte	0x7
 1304 03e0 8401     		.2byte	0x184
 1305 03e2 63070000 		.4byte	0x763
 1306 03e6 00       		.byte	0
 1307 03e7 09       		.uleb128 0x9
 1308 03e8 8B060000 		.4byte	.LASF67
ARM GAS  /tmp/ccIUkKRb.s 			page 24


 1309 03ec 07       		.byte	0x7
 1310 03ed 9301     		.2byte	0x193
 1311 03ef 61060000 		.4byte	0x661
 1312 03f3 04       		.byte	0x4
 1313 03f4 00       		.byte	0
 1314 03f5 03       		.uleb128 0x3
 1315 03f6 06060000 		.4byte	.LASF68
 1316 03fa 06       		.byte	0x6
 1317 03fb 70       		.byte	0x70
 1318 03fc 00040000 		.4byte	0x400
 1319 0400 0F       		.uleb128 0xf
 1320 0401 27050000 		.4byte	.LASF69
 1321 0405 8008     		.2byte	0x880
 1322 0407 07       		.byte	0x7
 1323 0408 9C01     		.2byte	0x19c
 1324 040a 51040000 		.4byte	0x451
 1325 040e 09       		.uleb128 0x9
 1326 040f 3B060000 		.4byte	.LASF70
 1327 0413 07       		.byte	0x7
 1328 0414 A001     		.2byte	0x1a0
 1329 0416 95020000 		.4byte	0x295
 1330 041a 00       		.byte	0
 1331 041b 09       		.uleb128 0x9
 1332 041c 24020000 		.4byte	.LASF71
 1333 0420 07       		.byte	0x7
 1334 0421 A401     		.2byte	0x1a4
 1335 0423 74030000 		.4byte	0x374
 1336 0427 1C       		.byte	0x1c
 1337 0428 08       		.uleb128 0x8
 1338 0429 64626700 		.ascii	"dbg\000"
 1339 042d 07       		.byte	0x7
 1340 042e A801     		.2byte	0x1a8
 1341 0430 C1030000 		.4byte	0x3c1
 1342 0434 2C       		.byte	0x2c
 1343 0435 10       		.uleb128 0x10
 1344 0436 3D010000 		.4byte	.LASF72
 1345 043a 07       		.byte	0x7
 1346 043b AC01     		.2byte	0x1ac
 1347 043d 47010000 		.4byte	0x147
 1348 0441 3808     		.2byte	0x838
 1349 0443 11       		.uleb128 0x11
 1350 0444 746D00   		.ascii	"tm\000"
 1351 0447 07       		.byte	0x7
 1352 0448 B101     		.2byte	0x1b1
 1353 044a 81060000 		.4byte	0x681
 1354 044e 7C08     		.2byte	0x87c
 1355 0450 00       		.byte	0
 1356 0451 04       		.uleb128 0x4
 1357 0452 04       		.byte	0x4
 1358 0453 07       		.byte	0x7
 1359 0454 AD030000 		.4byte	.LASF73
 1360 0458 03       		.uleb128 0x3
 1361 0459 1B020000 		.4byte	.LASF74
 1362 045d 08       		.byte	0x8
 1363 045e 65       		.byte	0x65
 1364 045f 18030000 		.4byte	0x318
 1365 0463 03       		.uleb128 0x3
ARM GAS  /tmp/ccIUkKRb.s 			page 25


 1366 0464 85030000 		.4byte	.LASF75
 1367 0468 08       		.byte	0x8
 1368 0469 6D       		.byte	0x6d
 1369 046a D9000000 		.4byte	0xd9
 1370 046e 05       		.uleb128 0x5
 1371 046f 65040000 		.4byte	.LASF76
 1372 0473 04       		.byte	0x4
 1373 0474 08       		.byte	0x8
 1374 0475 89       		.byte	0x89
 1375 0476 86040000 		.4byte	0x486
 1376 047a 07       		.uleb128 0x7
 1377 047b 737000   		.ascii	"sp\000"
 1378 047e 08       		.byte	0x8
 1379 047f 8A       		.byte	0x8a
 1380 0480 02050000 		.4byte	0x502
 1381 0484 00       		.byte	0
 1382 0485 00       		.byte	0
 1383 0486 0B       		.uleb128 0xb
 1384 0487 32000000 		.4byte	.LASF77
 1385 048b 24       		.byte	0x24
 1386 048c 09       		.byte	0x9
 1387 048d 5901     		.2byte	0x159
 1388 048f 02050000 		.4byte	0x502
 1389 0493 08       		.uleb128 0x8
 1390 0494 723400   		.ascii	"r4\000"
 1391 0497 09       		.byte	0x9
 1392 0498 6C01     		.2byte	0x16c
 1393 049a 58040000 		.4byte	0x458
 1394 049e 00       		.byte	0
 1395 049f 08       		.uleb128 0x8
 1396 04a0 723500   		.ascii	"r5\000"
 1397 04a3 09       		.byte	0x9
 1398 04a4 6D01     		.2byte	0x16d
 1399 04a6 58040000 		.4byte	0x458
 1400 04aa 04       		.byte	0x4
 1401 04ab 08       		.uleb128 0x8
 1402 04ac 723600   		.ascii	"r6\000"
 1403 04af 09       		.byte	0x9
 1404 04b0 6E01     		.2byte	0x16e
 1405 04b2 58040000 		.4byte	0x458
 1406 04b6 08       		.byte	0x8
 1407 04b7 08       		.uleb128 0x8
 1408 04b8 723700   		.ascii	"r7\000"
 1409 04bb 09       		.byte	0x9
 1410 04bc 6F01     		.2byte	0x16f
 1411 04be 58040000 		.4byte	0x458
 1412 04c2 0C       		.byte	0xc
 1413 04c3 08       		.uleb128 0x8
 1414 04c4 723800   		.ascii	"r8\000"
 1415 04c7 09       		.byte	0x9
 1416 04c8 7001     		.2byte	0x170
 1417 04ca 58040000 		.4byte	0x458
 1418 04ce 10       		.byte	0x10
 1419 04cf 08       		.uleb128 0x8
 1420 04d0 723900   		.ascii	"r9\000"
 1421 04d3 09       		.byte	0x9
 1422 04d4 7101     		.2byte	0x171
ARM GAS  /tmp/ccIUkKRb.s 			page 26


 1423 04d6 58040000 		.4byte	0x458
 1424 04da 14       		.byte	0x14
 1425 04db 08       		.uleb128 0x8
 1426 04dc 72313000 		.ascii	"r10\000"
 1427 04e0 09       		.byte	0x9
 1428 04e1 7201     		.2byte	0x172
 1429 04e3 58040000 		.4byte	0x458
 1430 04e7 18       		.byte	0x18
 1431 04e8 08       		.uleb128 0x8
 1432 04e9 72313100 		.ascii	"r11\000"
 1433 04ed 09       		.byte	0x9
 1434 04ee 7301     		.2byte	0x173
 1435 04f0 58040000 		.4byte	0x458
 1436 04f4 1C       		.byte	0x1c
 1437 04f5 08       		.uleb128 0x8
 1438 04f6 6C7200   		.ascii	"lr\000"
 1439 04f9 09       		.byte	0x9
 1440 04fa 7401     		.2byte	0x174
 1441 04fc 58040000 		.4byte	0x458
 1442 0500 20       		.byte	0x20
 1443 0501 00       		.byte	0
 1444 0502 0A       		.uleb128 0xa
 1445 0503 04       		.byte	0x4
 1446 0504 86040000 		.4byte	0x486
 1447 0508 12       		.uleb128 0x12
 1448 0509 08       		.byte	0x8
 1449 050a 0A       		.byte	0xa
 1450 050b 80       		.byte	0x80
 1451 050c 29050000 		.4byte	0x529
 1452 0510 07       		.uleb128 0x7
 1453 0511 6E747000 		.ascii	"ntp\000"
 1454 0515 0A       		.byte	0xa
 1455 0516 84       		.byte	0x84
 1456 0517 3B020000 		.4byte	0x23b
 1457 051b 00       		.byte	0
 1458 051c 06       		.uleb128 0x6
 1459 051d 59060000 		.4byte	.LASF78
 1460 0521 0A       		.byte	0xa
 1461 0522 88       		.byte	0x88
 1462 0523 18030000 		.4byte	0x318
 1463 0527 04       		.byte	0x4
 1464 0528 00       		.byte	0
 1465 0529 12       		.uleb128 0x12
 1466 052a 04       		.byte	0x4
 1467 052b 0A       		.byte	0xa
 1468 052c 8D       		.byte	0x8d
 1469 052d 3E050000 		.4byte	0x53e
 1470 0531 06       		.uleb128 0x6
 1471 0532 11030000 		.4byte	.LASF34
 1472 0536 0A       		.byte	0xa
 1473 0537 91       		.byte	0x91
 1474 0538 3E050000 		.4byte	0x53e
 1475 053c 00       		.byte	0
 1476 053d 00       		.byte	0
 1477 053e 0A       		.uleb128 0xa
 1478 053f 04       		.byte	0x4
 1479 0540 44050000 		.4byte	0x544
ARM GAS  /tmp/ccIUkKRb.s 			page 27


 1480 0544 13       		.uleb128 0x13
 1481 0545 49050000 		.4byte	0x549
 1482 0549 04       		.uleb128 0x4
 1483 054a 01       		.byte	0x1
 1484 054b 08       		.byte	0x8
 1485 054c B4050000 		.4byte	.LASF79
 1486 0550 12       		.uleb128 0x12
 1487 0551 04       		.byte	0x4
 1488 0552 0A       		.byte	0xa
 1489 0553 96       		.byte	0x96
 1490 0554 65050000 		.4byte	0x565
 1491 0558 06       		.uleb128 0x6
 1492 0559 4F050000 		.4byte	.LASF80
 1493 055d 0A       		.byte	0xa
 1494 055e 9A       		.byte	0x9a
 1495 055f 3E050000 		.4byte	0x53e
 1496 0563 00       		.byte	0
 1497 0564 00       		.byte	0
 1498 0565 12       		.uleb128 0x12
 1499 0566 08       		.byte	0x8
 1500 0567 0A       		.byte	0xa
 1501 0568 9F       		.byte	0x9f
 1502 0569 86050000 		.4byte	0x586
 1503 056d 07       		.uleb128 0x7
 1504 056e 75703100 		.ascii	"up1\000"
 1505 0572 0A       		.byte	0xa
 1506 0573 A3       		.byte	0xa3
 1507 0574 18030000 		.4byte	0x318
 1508 0578 00       		.byte	0
 1509 0579 07       		.uleb128 0x7
 1510 057a 75703200 		.ascii	"up2\000"
 1511 057e 0A       		.byte	0xa
 1512 057f A7       		.byte	0xa7
 1513 0580 18030000 		.4byte	0x318
 1514 0584 04       		.byte	0x4
 1515 0585 00       		.byte	0
 1516 0586 14       		.uleb128 0x14
 1517 0587 08       		.byte	0x8
 1518 0588 0A       		.byte	0xa
 1519 0589 7C       		.byte	0x7c
 1520 058a BA050000 		.4byte	0x5ba
 1521 058e 15       		.uleb128 0x15
 1522 058f 737700   		.ascii	"sw\000"
 1523 0592 0A       		.byte	0xa
 1524 0593 89       		.byte	0x89
 1525 0594 08050000 		.4byte	0x508
 1526 0598 15       		.uleb128 0x15
 1527 0599 69737200 		.ascii	"isr\000"
 1528 059d 0A       		.byte	0xa
 1529 059e 92       		.byte	0x92
 1530 059f 29050000 		.4byte	0x529
 1531 05a3 16       		.uleb128 0x16
 1532 05a4 1B050000 		.4byte	.LASF81
 1533 05a8 0A       		.byte	0xa
 1534 05a9 9B       		.byte	0x9b
 1535 05aa 50050000 		.4byte	0x550
 1536 05ae 16       		.uleb128 0x16
ARM GAS  /tmp/ccIUkKRb.s 			page 28


 1537 05af C2040000 		.4byte	.LASF82
 1538 05b3 0A       		.byte	0xa
 1539 05b4 A8       		.byte	0xa8
 1540 05b5 65050000 		.4byte	0x565
 1541 05b9 00       		.byte	0
 1542 05ba 12       		.uleb128 0x12
 1543 05bb 10       		.byte	0x10
 1544 05bc 0A       		.byte	0xa
 1545 05bd 69       		.byte	0x69
 1546 05be 06060000 		.4byte	0x606
 1547 05c2 17       		.uleb128 0x17
 1548 05c3 55000000 		.4byte	.LASF83
 1549 05c7 0A       		.byte	0xa
 1550 05c8 6D       		.byte	0x6d
 1551 05c9 CE000000 		.4byte	0xce
 1552 05cd 04       		.byte	0x4
 1553 05ce 03       		.byte	0x3
 1554 05cf 1D       		.byte	0x1d
 1555 05d0 00       		.byte	0
 1556 05d1 17       		.uleb128 0x17
 1557 05d2 C6010000 		.4byte	.LASF36
 1558 05d6 0A       		.byte	0xa
 1559 05d7 71       		.byte	0x71
 1560 05d8 CE000000 		.4byte	0xce
 1561 05dc 04       		.byte	0x4
 1562 05dd 05       		.byte	0x5
 1563 05de 18       		.byte	0x18
 1564 05df 00       		.byte	0
 1565 05e0 17       		.uleb128 0x17
 1566 05e1 96030000 		.4byte	.LASF84
 1567 05e5 0A       		.byte	0xa
 1568 05e6 77       		.byte	0x77
 1569 05e7 CE000000 		.4byte	0xce
 1570 05eb 04       		.byte	0x4
 1571 05ec 18       		.byte	0x18
 1572 05ed 00       		.byte	0
 1573 05ee 00       		.byte	0
 1574 05ef 06       		.uleb128 0x6
 1575 05f0 83040000 		.4byte	.LASF85
 1576 05f4 0A       		.byte	0xa
 1577 05f5 7B       		.byte	0x7b
 1578 05f6 3C010000 		.4byte	0x13c
 1579 05fa 04       		.byte	0x4
 1580 05fb 07       		.uleb128 0x7
 1581 05fc 7500     		.ascii	"u\000"
 1582 05fe 0A       		.byte	0xa
 1583 05ff A9       		.byte	0xa9
 1584 0600 86050000 		.4byte	0x586
 1585 0604 08       		.byte	0x8
 1586 0605 00       		.byte	0
 1587 0606 03       		.uleb128 0x3
 1588 0607 DE010000 		.4byte	.LASF86
 1589 060b 0A       		.byte	0xa
 1590 060c AA       		.byte	0xaa
 1591 060d BA050000 		.4byte	0x5ba
 1592 0611 18       		.uleb128 0x18
 1593 0612 0808     		.2byte	0x808
ARM GAS  /tmp/ccIUkKRb.s 			page 29


 1594 0614 0A       		.byte	0xa
 1595 0615 B0       		.byte	0xb0
 1596 0616 4B060000 		.4byte	0x64b
 1597 061a 06       		.uleb128 0x6
 1598 061b F7000000 		.4byte	.LASF87
 1599 061f 0A       		.byte	0xa
 1600 0620 B4       		.byte	0xb4
 1601 0621 B8000000 		.4byte	0xb8
 1602 0625 00       		.byte	0
 1603 0626 06       		.uleb128 0x6
 1604 0627 BA010000 		.4byte	.LASF88
 1605 062b 0A       		.byte	0xa
 1606 062c B8       		.byte	0xb8
 1607 062d B8000000 		.4byte	0xb8
 1608 0631 02       		.byte	0x2
 1609 0632 07       		.uleb128 0x7
 1610 0633 70747200 		.ascii	"ptr\000"
 1611 0637 0A       		.byte	0xa
 1612 0638 BC       		.byte	0xbc
 1613 0639 4B060000 		.4byte	0x64b
 1614 063d 04       		.byte	0x4
 1615 063e 06       		.uleb128 0x6
 1616 063f 09020000 		.4byte	.LASF89
 1617 0643 0A       		.byte	0xa
 1618 0644 C0       		.byte	0xc0
 1619 0645 51060000 		.4byte	0x651
 1620 0649 08       		.byte	0x8
 1621 064a 00       		.byte	0
 1622 064b 0A       		.uleb128 0xa
 1623 064c 04       		.byte	0x4
 1624 064d 06060000 		.4byte	0x606
 1625 0651 19       		.uleb128 0x19
 1626 0652 06060000 		.4byte	0x606
 1627 0656 61060000 		.4byte	0x661
 1628 065a 1A       		.uleb128 0x1a
 1629 065b 51040000 		.4byte	0x451
 1630 065f 7F       		.byte	0x7f
 1631 0660 00       		.byte	0
 1632 0661 03       		.uleb128 0x3
 1633 0662 4C040000 		.4byte	.LASF90
 1634 0666 0A       		.byte	0xa
 1635 0667 C1       		.byte	0xc1
 1636 0668 11060000 		.4byte	0x611
 1637 066c 12       		.uleb128 0x12
 1638 066d 04       		.byte	0x4
 1639 066e 0B       		.byte	0xb
 1640 066f 38       		.byte	0x38
 1641 0670 81060000 		.4byte	0x681
 1642 0674 06       		.uleb128 0x6
 1643 0675 FA050000 		.4byte	.LASF91
 1644 0679 0B       		.byte	0xb
 1645 067a 3C       		.byte	0x3c
 1646 067b E4000000 		.4byte	0xe4
 1647 067f 00       		.byte	0
 1648 0680 00       		.byte	0
 1649 0681 03       		.uleb128 0x3
 1650 0682 72040000 		.4byte	.LASF92
ARM GAS  /tmp/ccIUkKRb.s 			page 30


 1651 0686 0B       		.byte	0xb
 1652 0687 3D       		.byte	0x3d
 1653 0688 6C060000 		.4byte	0x66c
 1654 068c 14       		.uleb128 0x14
 1655 068d 04       		.byte	0x4
 1656 068e 07       		.byte	0x7
 1657 068f D2       		.byte	0xd2
 1658 0690 EF060000 		.4byte	0x6ef
 1659 0694 16       		.uleb128 0x16
 1660 0695 5E040000 		.4byte	.LASF93
 1661 0699 07       		.byte	0x7
 1662 069a D9       		.byte	0xd9
 1663 069b 1B010000 		.4byte	0x11b
 1664 069f 16       		.uleb128 0x16
 1665 06a0 34010000 		.4byte	.LASF94
 1666 06a4 07       		.byte	0x7
 1667 06a5 E0       		.byte	0xe0
 1668 06a6 1B010000 		.4byte	0x11b
 1669 06aa 16       		.uleb128 0x16
 1670 06ab 59060000 		.4byte	.LASF78
 1671 06af 07       		.byte	0x7
 1672 06b0 E7       		.byte	0xe7
 1673 06b1 18030000 		.4byte	0x318
 1674 06b5 16       		.uleb128 0x16
 1675 06b6 00030000 		.4byte	.LASF95
 1676 06ba 07       		.byte	0x7
 1677 06bb EE       		.byte	0xee
 1678 06bc EF060000 		.4byte	0x6ef
 1679 06c0 16       		.uleb128 0x16
 1680 06c1 48010000 		.4byte	.LASF96
 1681 06c5 07       		.byte	0x7
 1682 06c6 F3       		.byte	0xf3
 1683 06c7 1B010000 		.4byte	0x11b
 1684 06cb 16       		.uleb128 0x16
 1685 06cc F9020000 		.4byte	.LASF97
 1686 06d0 07       		.byte	0x7
 1687 06d1 FC       		.byte	0xfc
 1688 06d2 1A070000 		.4byte	0x71a
 1689 06d6 1B       		.uleb128 0x1b
 1690 06d7 7D050000 		.4byte	.LASF98
 1691 06db 07       		.byte	0x7
 1692 06dc 0501     		.2byte	0x105
 1693 06de 51070000 		.4byte	0x751
 1694 06e2 1B       		.uleb128 0x1b
 1695 06e3 20050000 		.4byte	.LASF99
 1696 06e7 07       		.byte	0x7
 1697 06e8 0D01     		.2byte	0x10d
 1698 06ea 26010000 		.4byte	0x126
 1699 06ee 00       		.byte	0
 1700 06ef 0A       		.uleb128 0xa
 1701 06f0 04       		.byte	0x4
 1702 06f1 30020000 		.4byte	0x230
 1703 06f5 05       		.uleb128 0x5
 1704 06f6 67050000 		.4byte	.LASF100
 1705 06fa 0C       		.byte	0xc
 1706 06fb 0C       		.byte	0xc
 1707 06fc 34       		.byte	0x34
ARM GAS  /tmp/ccIUkKRb.s 			page 31


 1708 06fd 1A070000 		.4byte	0x71a
 1709 0701 06       		.uleb128 0x6
 1710 0702 16030000 		.4byte	.LASF30
 1711 0706 0C       		.byte	0xc
 1712 0707 35       		.byte	0x35
 1713 0708 65020000 		.4byte	0x265
 1714 070c 00       		.byte	0
 1715 070d 07       		.uleb128 0x7
 1716 070e 636E7400 		.ascii	"cnt\000"
 1717 0712 0C       		.byte	0xc
 1718 0713 37       		.byte	0x37
 1719 0714 31010000 		.4byte	0x131
 1720 0718 08       		.byte	0x8
 1721 0719 00       		.byte	0
 1722 071a 0A       		.uleb128 0xa
 1723 071b 04       		.byte	0x4
 1724 071c F5060000 		.4byte	0x6f5
 1725 0720 05       		.uleb128 0x5
 1726 0721 2A060000 		.4byte	.LASF101
 1727 0725 10       		.byte	0x10
 1728 0726 0D       		.byte	0xd
 1729 0727 39       		.byte	0x39
 1730 0728 51070000 		.4byte	0x751
 1731 072c 06       		.uleb128 0x6
 1732 072d 16030000 		.4byte	.LASF30
 1733 0731 0D       		.byte	0xd
 1734 0732 3A       		.byte	0x3a
 1735 0733 65020000 		.4byte	0x265
 1736 0737 00       		.byte	0
 1737 0738 06       		.uleb128 0x6
 1738 0739 9C050000 		.4byte	.LASF102
 1739 073d 0D       		.byte	0xd
 1740 073e 3C       		.byte	0x3c
 1741 073f 3B020000 		.4byte	0x23b
 1742 0743 08       		.byte	0x8
 1743 0744 06       		.uleb128 0x6
 1744 0745 78010000 		.4byte	.LASF49
 1745 0749 0D       		.byte	0xd
 1746 074a 3E       		.byte	0x3e
 1747 074b 73070000 		.4byte	0x773
 1748 074f 0C       		.byte	0xc
 1749 0750 00       		.byte	0
 1750 0751 0A       		.uleb128 0xa
 1751 0752 04       		.byte	0x4
 1752 0753 20070000 		.4byte	0x720
 1753 0757 0A       		.uleb128 0xa
 1754 0758 04       		.byte	0x4
 1755 0759 63040000 		.4byte	0x463
 1756 075d 0A       		.uleb128 0xa
 1757 075e 04       		.byte	0x4
 1758 075f 1A030000 		.4byte	0x31a
 1759 0763 1C       		.uleb128 0x1c
 1760 0764 3E050000 		.4byte	0x53e
 1761 0768 03       		.uleb128 0x3
 1762 0769 42020000 		.4byte	.LASF103
 1763 076d 0D       		.byte	0xd
 1764 076e 34       		.byte	0x34
ARM GAS  /tmp/ccIUkKRb.s 			page 32


 1765 076f 20070000 		.4byte	0x720
 1766 0773 0A       		.uleb128 0xa
 1767 0774 04       		.byte	0x4
 1768 0775 68070000 		.4byte	0x768
 1769 0779 05       		.uleb128 0x5
 1770 077a 31050000 		.4byte	.LASF104
 1771 077e 10       		.byte	0x10
 1772 077f 0E       		.byte	0xe
 1773 0780 46       		.byte	0x46
 1774 0781 B6070000 		.4byte	0x7b6
 1775 0785 06       		.uleb128 0x6
 1776 0786 9E030000 		.4byte	.LASF105
 1777 078a 0E       		.byte	0xe
 1778 078b 47       		.byte	0x47
 1779 078c DA070000 		.4byte	0x7da
 1780 0790 00       		.byte	0
 1781 0791 06       		.uleb128 0x6
 1782 0792 54030000 		.4byte	.LASF106
 1783 0796 0E       		.byte	0xe
 1784 0797 47       		.byte	0x47
 1785 0798 FF070000 		.4byte	0x7ff
 1786 079c 04       		.byte	0x4
 1787 079d 07       		.uleb128 0x7
 1788 079e 70757400 		.ascii	"put\000"
 1789 07a2 0E       		.byte	0xe
 1790 07a3 47       		.byte	0x47
 1791 07a4 19080000 		.4byte	0x819
 1792 07a8 08       		.byte	0x8
 1793 07a9 07       		.uleb128 0x7
 1794 07aa 67657400 		.ascii	"get\000"
 1795 07ae 0E       		.byte	0xe
 1796 07af 47       		.byte	0x47
 1797 07b0 2E080000 		.4byte	0x82e
 1798 07b4 0C       		.byte	0xc
 1799 07b5 00       		.byte	0
 1800 07b6 1D       		.uleb128 0x1d
 1801 07b7 2C000000 		.4byte	0x2c
 1802 07bb CF070000 		.4byte	0x7cf
 1803 07bf 0D       		.uleb128 0xd
 1804 07c0 18030000 		.4byte	0x318
 1805 07c4 0D       		.uleb128 0xd
 1806 07c5 CF070000 		.4byte	0x7cf
 1807 07c9 0D       		.uleb128 0xd
 1808 07ca 2C000000 		.4byte	0x2c
 1809 07ce 00       		.byte	0
 1810 07cf 0A       		.uleb128 0xa
 1811 07d0 04       		.byte	0x4
 1812 07d1 D5070000 		.4byte	0x7d5
 1813 07d5 13       		.uleb128 0x13
 1814 07d6 AD000000 		.4byte	0xad
 1815 07da 0A       		.uleb128 0xa
 1816 07db 04       		.byte	0x4
 1817 07dc B6070000 		.4byte	0x7b6
 1818 07e0 1D       		.uleb128 0x1d
 1819 07e1 2C000000 		.4byte	0x2c
 1820 07e5 F9070000 		.4byte	0x7f9
 1821 07e9 0D       		.uleb128 0xd
ARM GAS  /tmp/ccIUkKRb.s 			page 33


 1822 07ea 18030000 		.4byte	0x318
 1823 07ee 0D       		.uleb128 0xd
 1824 07ef F9070000 		.4byte	0x7f9
 1825 07f3 0D       		.uleb128 0xd
 1826 07f4 2C000000 		.4byte	0x2c
 1827 07f8 00       		.byte	0
 1828 07f9 0A       		.uleb128 0xa
 1829 07fa 04       		.byte	0x4
 1830 07fb AD000000 		.4byte	0xad
 1831 07ff 0A       		.uleb128 0xa
 1832 0800 04       		.byte	0x4
 1833 0801 E0070000 		.4byte	0x7e0
 1834 0805 1D       		.uleb128 0x1d
 1835 0806 1B010000 		.4byte	0x11b
 1836 080a 19080000 		.4byte	0x819
 1837 080e 0D       		.uleb128 0xd
 1838 080f 18030000 		.4byte	0x318
 1839 0813 0D       		.uleb128 0xd
 1840 0814 AD000000 		.4byte	0xad
 1841 0818 00       		.byte	0
 1842 0819 0A       		.uleb128 0xa
 1843 081a 04       		.byte	0x4
 1844 081b 05080000 		.4byte	0x805
 1845 081f 1D       		.uleb128 0x1d
 1846 0820 1B010000 		.4byte	0x11b
 1847 0824 2E080000 		.4byte	0x82e
 1848 0828 0D       		.uleb128 0xd
 1849 0829 18030000 		.4byte	0x318
 1850 082d 00       		.byte	0
 1851 082e 0A       		.uleb128 0xa
 1852 082f 04       		.byte	0x4
 1853 0830 1F080000 		.4byte	0x81f
 1854 0834 12       		.uleb128 0x12
 1855 0835 04       		.byte	0x4
 1856 0836 0E       		.byte	0xe
 1857 0837 4F       		.byte	0x4f
 1858 0838 49080000 		.4byte	0x849
 1859 083c 07       		.uleb128 0x7
 1860 083d 766D7400 		.ascii	"vmt\000"
 1861 0841 0E       		.byte	0xe
 1862 0842 51       		.byte	0x51
 1863 0843 49080000 		.4byte	0x849
 1864 0847 00       		.byte	0
 1865 0848 00       		.byte	0
 1866 0849 0A       		.uleb128 0xa
 1867 084a 04       		.byte	0x4
 1868 084b 4F080000 		.4byte	0x84f
 1869 084f 13       		.uleb128 0x13
 1870 0850 79070000 		.4byte	0x779
 1871 0854 03       		.uleb128 0x3
 1872 0855 4A020000 		.4byte	.LASF107
 1873 0859 0E       		.byte	0xe
 1874 085a 53       		.byte	0x53
 1875 085b 34080000 		.4byte	0x834
 1876 085f 04       		.uleb128 0x4
 1877 0860 01       		.byte	0x1
 1878 0861 02       		.byte	0x2
ARM GAS  /tmp/ccIUkKRb.s 			page 34


 1879 0862 EC040000 		.4byte	.LASF108
 1880 0866 0A       		.uleb128 0xa
 1881 0867 04       		.byte	0x4
 1882 0868 49050000 		.4byte	0x549
 1883 086c 03       		.uleb128 0x3
 1884 086d F8030000 		.4byte	.LASF109
 1885 0871 0F       		.byte	0xf
 1886 0872 28       		.byte	0x28
 1887 0873 77080000 		.4byte	0x877
 1888 0877 05       		.uleb128 0x5
 1889 0878 EF010000 		.4byte	.LASF110
 1890 087c 04       		.byte	0x4
 1891 087d 10       		.byte	0x10
 1892 087e 00       		.byte	0
 1893 087f 8E080000 		.4byte	0x88e
 1894 0883 1E       		.uleb128 0x1e
 1895 0884 01060000 		.4byte	.LASF111
 1896 0888 18030000 		.4byte	0x318
 1897 088c 00       		.byte	0
 1898 088d 00       		.byte	0
 1899 088e 03       		.uleb128 0x3
 1900 088f 3E000000 		.4byte	.LASF112
 1901 0893 0F       		.byte	0xf
 1902 0894 62       		.byte	0x62
 1903 0895 6C080000 		.4byte	0x86c
 1904 0899 05       		.uleb128 0x5
 1905 089a 95040000 		.4byte	.LASF113
 1906 089e 10       		.byte	0x10
 1907 089f 11       		.byte	0x11
 1908 08a0 3D       		.byte	0x3d
 1909 08a1 D6080000 		.4byte	0x8d6
 1910 08a5 06       		.uleb128 0x6
 1911 08a6 9E030000 		.4byte	.LASF105
 1912 08aa 11       		.byte	0x11
 1913 08ab 3E       		.byte	0x3e
 1914 08ac DA070000 		.4byte	0x7da
 1915 08b0 00       		.byte	0
 1916 08b1 06       		.uleb128 0x6
 1917 08b2 54030000 		.4byte	.LASF106
 1918 08b6 11       		.byte	0x11
 1919 08b7 3E       		.byte	0x3e
 1920 08b8 FF070000 		.4byte	0x7ff
 1921 08bc 04       		.byte	0x4
 1922 08bd 07       		.uleb128 0x7
 1923 08be 70757400 		.ascii	"put\000"
 1924 08c2 11       		.byte	0x11
 1925 08c3 3E       		.byte	0x3e
 1926 08c4 19080000 		.4byte	0x819
 1927 08c8 08       		.byte	0x8
 1928 08c9 07       		.uleb128 0x7
 1929 08ca 67657400 		.ascii	"get\000"
 1930 08ce 11       		.byte	0x11
 1931 08cf 3E       		.byte	0x3e
 1932 08d0 2E080000 		.4byte	0x82e
 1933 08d4 0C       		.byte	0xc
 1934 08d5 00       		.byte	0
 1935 08d6 12       		.uleb128 0x12
ARM GAS  /tmp/ccIUkKRb.s 			page 35


 1936 08d7 14       		.byte	0x14
 1937 08d8 11       		.byte	0x11
 1938 08d9 46       		.byte	0x46
 1939 08da 1B090000 		.4byte	0x91b
 1940 08de 07       		.uleb128 0x7
 1941 08df 766D7400 		.ascii	"vmt\000"
 1942 08e3 11       		.byte	0x11
 1943 08e4 48       		.byte	0x48
 1944 08e5 1B090000 		.4byte	0x91b
 1945 08e9 00       		.byte	0
 1946 08ea 06       		.uleb128 0x6
 1947 08eb 09020000 		.4byte	.LASF89
 1948 08ef 11       		.byte	0x11
 1949 08f0 49       		.byte	0x49
 1950 08f1 F9070000 		.4byte	0x7f9
 1951 08f5 04       		.byte	0x4
 1952 08f6 06       		.uleb128 0x6
 1953 08f7 BA010000 		.4byte	.LASF88
 1954 08fb 11       		.byte	0x11
 1955 08fc 49       		.byte	0x49
 1956 08fd 2C000000 		.4byte	0x2c
 1957 0901 08       		.byte	0x8
 1958 0902 07       		.uleb128 0x7
 1959 0903 656F7300 		.ascii	"eos\000"
 1960 0907 11       		.byte	0x11
 1961 0908 49       		.byte	0x49
 1962 0909 2C000000 		.4byte	0x2c
 1963 090d 0C       		.byte	0xc
 1964 090e 06       		.uleb128 0x6
 1965 090f FA050000 		.4byte	.LASF91
 1966 0913 11       		.byte	0x11
 1967 0914 49       		.byte	0x49
 1968 0915 2C000000 		.4byte	0x2c
 1969 0919 10       		.byte	0x10
 1970 091a 00       		.byte	0
 1971 091b 0A       		.uleb128 0xa
 1972 091c 04       		.byte	0x4
 1973 091d 21090000 		.4byte	0x921
 1974 0921 13       		.uleb128 0x13
 1975 0922 99080000 		.4byte	0x899
 1976 0926 03       		.uleb128 0x3
 1977 0927 CF040000 		.4byte	.LASF114
 1978 092b 11       		.byte	0x11
 1979 092c 4A       		.byte	0x4a
 1980 092d D6080000 		.4byte	0x8d6
 1981 0931 1F       		.uleb128 0x1f
 1982 0932 33060000 		.4byte	.LASF116
 1983 0936 01       		.byte	0x1
 1984 0937 46       		.byte	0x46
 1985 0938 66080000 		.4byte	0x866
 1986 093c 01       		.byte	0x1
 1987 093d 61090000 		.4byte	0x961
 1988 0941 20       		.uleb128 0x20
 1989 0942 7000     		.ascii	"p\000"
 1990 0944 01       		.byte	0x1
 1991 0945 46       		.byte	0x46
 1992 0946 66080000 		.4byte	0x866
ARM GAS  /tmp/ccIUkKRb.s 			page 36


 1993 094a 20       		.uleb128 0x20
 1994 094b 6E756D00 		.ascii	"num\000"
 1995 094f 01       		.byte	0x1
 1996 0950 46       		.byte	0x46
 1997 0951 7B000000 		.4byte	0x7b
 1998 0955 21       		.uleb128 0x21
 1999 0956 49050000 		.4byte	.LASF115
 2000 095a 01       		.byte	0x1
 2001 095b 46       		.byte	0x46
 2002 095c 37000000 		.4byte	0x37
 2003 0960 00       		.byte	0
 2004 0961 1F       		.uleb128 0x1f
 2005 0962 60060000 		.4byte	.LASF117
 2006 0966 01       		.byte	0x1
 2007 0967 25       		.byte	0x25
 2008 0968 66080000 		.4byte	0x866
 2009 096c 01       		.byte	0x1
 2010 096d C1090000 		.4byte	0x9c1
 2011 0971 20       		.uleb128 0x20
 2012 0972 7000     		.ascii	"p\000"
 2013 0974 01       		.byte	0x1
 2014 0975 25       		.byte	0x25
 2015 0976 66080000 		.4byte	0x866
 2016 097a 20       		.uleb128 0x20
 2017 097b 6E756D00 		.ascii	"num\000"
 2018 097f 01       		.byte	0x1
 2019 0980 26       		.byte	0x26
 2020 0981 7B000000 		.4byte	0x7b
 2021 0985 21       		.uleb128 0x21
 2022 0986 49050000 		.4byte	.LASF115
 2023 098a 01       		.byte	0x1
 2024 098b 27       		.byte	0x27
 2025 098c 37000000 		.4byte	0x37
 2026 0990 21       		.uleb128 0x21
 2027 0991 F0030000 		.4byte	.LASF118
 2028 0995 01       		.byte	0x1
 2029 0996 28       		.byte	0x28
 2030 0997 7B000000 		.4byte	0x7b
 2031 099b 22       		.uleb128 0x22
 2032 099c 6900     		.ascii	"i\000"
 2033 099e 01       		.byte	0x1
 2034 099f 29       		.byte	0x29
 2035 09a0 25000000 		.4byte	0x25
 2036 09a4 22       		.uleb128 0x22
 2037 09a5 7100     		.ascii	"q\000"
 2038 09a7 01       		.byte	0x1
 2039 09a8 2A       		.byte	0x2a
 2040 09a9 66080000 		.4byte	0x866
 2041 09ad 22       		.uleb128 0x22
 2042 09ae 6C00     		.ascii	"l\000"
 2043 09b0 01       		.byte	0x1
 2044 09b1 2B       		.byte	0x2b
 2045 09b2 7B000000 		.4byte	0x7b
 2046 09b6 22       		.uleb128 0x22
 2047 09b7 6C6C00   		.ascii	"ll\000"
 2048 09ba 01       		.byte	0x1
 2049 09bb 2B       		.byte	0x2b
ARM GAS  /tmp/ccIUkKRb.s 			page 37


 2050 09bc 7B000000 		.4byte	0x7b
 2051 09c0 00       		.byte	0
 2052 09c1 23       		.uleb128 0x23
 2053 09c2 61090000 		.4byte	0x961
 2054 09c6 00000000 		.4byte	.LFB275
 2055 09ca 4A000000 		.4byte	.LFE275-.LFB275
 2056 09ce 01       		.uleb128 0x1
 2057 09cf 9C       		.byte	0x9c
 2058 09d0 1A0A0000 		.4byte	0xa1a
 2059 09d4 24       		.uleb128 0x24
 2060 09d5 71090000 		.4byte	0x971
 2061 09d9 00000000 		.4byte	.LLST0
 2062 09dd 24       		.uleb128 0x24
 2063 09de 7A090000 		.4byte	0x97a
 2064 09e2 38000000 		.4byte	.LLST1
 2065 09e6 24       		.uleb128 0x24
 2066 09e7 85090000 		.4byte	0x985
 2067 09eb 59000000 		.4byte	.LLST2
 2068 09ef 25       		.uleb128 0x25
 2069 09f0 9B090000 		.4byte	0x99b
 2070 09f4 7A000000 		.4byte	.LLST3
 2071 09f8 25       		.uleb128 0x25
 2072 09f9 A4090000 		.4byte	0x9a4
 2073 09fd A8000000 		.4byte	.LLST4
 2074 0a01 25       		.uleb128 0x25
 2075 0a02 AD090000 		.4byte	0x9ad
 2076 0a06 DE000000 		.4byte	.LLST5
 2077 0a0a 25       		.uleb128 0x25
 2078 0a0b B6090000 		.4byte	0x9b6
 2079 0a0f FC000000 		.4byte	.LLST6
 2080 0a13 26       		.uleb128 0x26
 2081 0a14 90090000 		.4byte	0x990
 2082 0a18 00       		.byte	0
 2083 0a19 00       		.byte	0
 2084 0a1a 27       		.uleb128 0x27
 2085 0a1b 49060000 		.4byte	.LASF125
 2086 0a1f 01       		.byte	0x1
 2087 0a20 79       		.byte	0x79
 2088 0a21 25000000 		.4byte	0x25
 2089 0a25 00000000 		.4byte	.LFB272
 2090 0a29 AA020000 		.4byte	.LFE272-.LFB272
 2091 0a2d 01       		.uleb128 0x1
 2092 0a2e 9C       		.byte	0x9c
 2093 0a2f D90B0000 		.4byte	0xbd9
 2094 0a33 28       		.uleb128 0x28
 2095 0a34 63687000 		.ascii	"chp\000"
 2096 0a38 01       		.byte	0x1
 2097 0a39 79       		.byte	0x79
 2098 0a3a D90B0000 		.4byte	0xbd9
 2099 0a3e 25010000 		.4byte	.LLST7
 2100 0a42 28       		.uleb128 0x28
 2101 0a43 666D7400 		.ascii	"fmt\000"
 2102 0a47 01       		.byte	0x1
 2103 0a48 79       		.byte	0x79
 2104 0a49 3E050000 		.4byte	0x53e
 2105 0a4d 43010000 		.4byte	.LLST8
 2106 0a51 28       		.uleb128 0x28
ARM GAS  /tmp/ccIUkKRb.s 			page 38


 2107 0a52 617000   		.ascii	"ap\000"
 2108 0a55 01       		.byte	0x1
 2109 0a56 79       		.byte	0x79
 2110 0a57 8E080000 		.4byte	0x88e
 2111 0a5b D5010000 		.4byte	.LLST9
 2112 0a5f 29       		.uleb128 0x29
 2113 0a60 7000     		.ascii	"p\000"
 2114 0a62 01       		.byte	0x1
 2115 0a63 7A       		.byte	0x7a
 2116 0a64 66080000 		.4byte	0x866
 2117 0a68 DC020000 		.4byte	.LLST10
 2118 0a6c 29       		.uleb128 0x29
 2119 0a6d 7300     		.ascii	"s\000"
 2120 0a6f 01       		.byte	0x1
 2121 0a70 7A       		.byte	0x7a
 2122 0a71 66080000 		.4byte	0x866
 2123 0a75 60030000 		.4byte	.LLST11
 2124 0a79 29       		.uleb128 0x29
 2125 0a7a 6300     		.ascii	"c\000"
 2126 0a7c 01       		.byte	0x1
 2127 0a7d 7A       		.byte	0x7a
 2128 0a7e 49050000 		.4byte	0x549
 2129 0a82 D9030000 		.4byte	.LLST12
 2130 0a86 2A       		.uleb128 0x2a
 2131 0a87 2B020000 		.4byte	.LASF119
 2132 0a8b 01       		.byte	0x1
 2133 0a8c 7A       		.byte	0x7a
 2134 0a8d 49050000 		.4byte	0x549
 2135 0a91 E1040000 		.4byte	.LLST13
 2136 0a95 29       		.uleb128 0x29
 2137 0a96 6900     		.ascii	"i\000"
 2138 0a98 01       		.byte	0x1
 2139 0a99 7B       		.byte	0x7b
 2140 0a9a 25000000 		.4byte	0x25
 2141 0a9e 26050000 		.4byte	.LLST14
 2142 0aa2 2A       		.uleb128 0x2a
 2143 0aa3 CA050000 		.4byte	.LASF120
 2144 0aa7 01       		.byte	0x1
 2145 0aa8 7B       		.byte	0x7b
 2146 0aa9 25000000 		.4byte	0x25
 2147 0aad 6B050000 		.4byte	.LLST15
 2148 0ab1 2A       		.uleb128 0x2a
 2149 0ab2 1C030000 		.4byte	.LASF121
 2150 0ab6 01       		.byte	0x1
 2151 0ab7 7B       		.byte	0x7b
 2152 0ab8 25000000 		.4byte	0x25
 2153 0abc 8E050000 		.4byte	.LLST16
 2154 0ac0 29       		.uleb128 0x29
 2155 0ac1 6E00     		.ascii	"n\000"
 2156 0ac3 01       		.byte	0x1
 2157 0ac4 7C       		.byte	0x7c
 2158 0ac5 25000000 		.4byte	0x25
 2159 0ac9 1F060000 		.4byte	.LLST17
 2160 0acd 2A       		.uleb128 0x2a
 2161 0ace 3A020000 		.4byte	.LASF122
 2162 0ad2 01       		.byte	0x1
 2163 0ad3 7D       		.byte	0x7d
ARM GAS  /tmp/ccIUkKRb.s 			page 39


 2164 0ad4 5F080000 		.4byte	0x85f
 2165 0ad8 5F060000 		.4byte	.LLST18
 2166 0adc 2A       		.uleb128 0x2a
 2167 0add 06030000 		.4byte	.LASF123
 2168 0ae1 01       		.byte	0x1
 2169 0ae2 7D       		.byte	0x7d
 2170 0ae3 5F080000 		.4byte	0x85f
 2171 0ae7 7E060000 		.4byte	.LLST19
 2172 0aeb 29       		.uleb128 0x29
 2173 0aec 6C00     		.ascii	"l\000"
 2174 0aee 01       		.byte	0x1
 2175 0aef 7E       		.byte	0x7e
 2176 0af0 7B000000 		.4byte	0x7b
 2177 0af4 B4060000 		.4byte	.LLST20
 2178 0af8 2B       		.uleb128 0x2b
 2179 0af9 BF010000 		.4byte	.LASF124
 2180 0afd 01       		.byte	0x1
 2181 0afe 83       		.byte	0x83
 2182 0aff DF0B0000 		.4byte	0xbdf
 2183 0b03 02       		.uleb128 0x2
 2184 0b04 91       		.byte	0x91
 2185 0b05 4C       		.sleb128 -52
 2186 0b06 2C       		.uleb128 0x2c
 2187 0b07 E0030000 		.4byte	.LASF135
 2188 0b0b 01       		.byte	0x1
 2189 0b0c EF       		.byte	0xef
 2190 0b0d 38010000 		.4byte	.L29
 2191 0b11 2D       		.uleb128 0x2d
 2192 0b12 31090000 		.4byte	0x931
 2193 0b16 3A010000 		.4byte	.LBB6
 2194 0b1a 0E000000 		.4byte	.LBE6-.LBB6
 2195 0b1e 01       		.byte	0x1
 2196 0b1f F4       		.byte	0xf4
 2197 0b20 4A0B0000 		.4byte	0xb4a
 2198 0b24 2E       		.uleb128 0x2e
 2199 0b25 55090000 		.4byte	0x955
 2200 0b29 2E       		.uleb128 0x2e
 2201 0b2a 4A090000 		.4byte	0x94a
 2202 0b2e 24       		.uleb128 0x24
 2203 0b2f 41090000 		.4byte	0x941
 2204 0b33 DE060000 		.4byte	.LLST21
 2205 0b37 2F       		.uleb128 0x2f
 2206 0b38 40010000 		.4byte	.LVL57
 2207 0b3c C1090000 		.4byte	0x9c1
 2208 0b40 30       		.uleb128 0x30
 2209 0b41 01       		.uleb128 0x1
 2210 0b42 50       		.byte	0x50
 2211 0b43 04       		.uleb128 0x4
 2212 0b44 91       		.byte	0x91
 2213 0b45 B87F     		.sleb128 -72
 2214 0b47 06       		.byte	0x6
 2215 0b48 00       		.byte	0
 2216 0b49 00       		.byte	0
 2217 0b4a 31       		.uleb128 0x31
 2218 0b4b 31090000 		.4byte	0x931
 2219 0b4f D6010000 		.4byte	.LBB8
 2220 0b53 00000000 		.4byte	.Ldebug_ranges0+0
ARM GAS  /tmp/ccIUkKRb.s 			page 40


 2221 0b57 01       		.byte	0x1
 2222 0b58 D8       		.byte	0xd8
 2223 0b59 800B0000 		.4byte	0xb80
 2224 0b5d 24       		.uleb128 0x24
 2225 0b5e 55090000 		.4byte	0x955
 2226 0b62 F3060000 		.4byte	.LLST22
 2227 0b66 2E       		.uleb128 0x2e
 2228 0b67 4A090000 		.4byte	0x94a
 2229 0b6b 2E       		.uleb128 0x2e
 2230 0b6c 41090000 		.4byte	0x941
 2231 0b70 2F       		.uleb128 0x2f
 2232 0b71 EC010000 		.4byte	.LVL81
 2233 0b75 C1090000 		.4byte	0x9c1
 2234 0b79 30       		.uleb128 0x30
 2235 0b7a 01       		.uleb128 0x1
 2236 0b7b 52       		.byte	0x52
 2237 0b7c 01       		.uleb128 0x1
 2238 0b7d 3A       		.byte	0x3a
 2239 0b7e 00       		.byte	0
 2240 0b7f 00       		.byte	0
 2241 0b80 32       		.uleb128 0x32
 2242 0b81 48000000 		.4byte	.LVL24
 2243 0b85 900B0000 		.4byte	0xb90
 2244 0b89 30       		.uleb128 0x30
 2245 0b8a 01       		.uleb128 0x1
 2246 0b8b 50       		.byte	0x50
 2247 0b8c 02       		.uleb128 0x2
 2248 0b8d 7B       		.byte	0x7b
 2249 0b8e 00       		.sleb128 0
 2250 0b8f 00       		.byte	0
 2251 0b90 32       		.uleb128 0x32
 2252 0b91 7A010000 		.4byte	.LVL65
 2253 0b95 A60B0000 		.4byte	0xba6
 2254 0b99 30       		.uleb128 0x30
 2255 0b9a 01       		.uleb128 0x1
 2256 0b9b 51       		.byte	0x51
 2257 0b9c 02       		.uleb128 0x2
 2258 0b9d 76       		.byte	0x76
 2259 0b9e 00       		.sleb128 0
 2260 0b9f 30       		.uleb128 0x30
 2261 0ba0 01       		.uleb128 0x1
 2262 0ba1 50       		.byte	0x50
 2263 0ba2 02       		.uleb128 0x2
 2264 0ba3 7B       		.byte	0x7b
 2265 0ba4 00       		.sleb128 0
 2266 0ba5 00       		.byte	0
 2267 0ba6 32       		.uleb128 0x32
 2268 0ba7 A0010000 		.4byte	.LVL70
 2269 0bab B60B0000 		.4byte	0xbb6
 2270 0baf 30       		.uleb128 0x30
 2271 0bb0 01       		.uleb128 0x1
 2272 0bb1 50       		.byte	0x50
 2273 0bb2 02       		.uleb128 0x2
 2274 0bb3 7B       		.byte	0x7b
 2275 0bb4 00       		.sleb128 0
 2276 0bb5 00       		.byte	0
 2277 0bb6 32       		.uleb128 0x32
ARM GAS  /tmp/ccIUkKRb.s 			page 41


 2278 0bb7 C0010000 		.4byte	.LVL73
 2279 0bbb CC0B0000 		.4byte	0xbcc
 2280 0bbf 30       		.uleb128 0x30
 2281 0bc0 01       		.uleb128 0x1
 2282 0bc1 51       		.byte	0x51
 2283 0bc2 02       		.uleb128 0x2
 2284 0bc3 76       		.byte	0x76
 2285 0bc4 00       		.sleb128 0
 2286 0bc5 30       		.uleb128 0x30
 2287 0bc6 01       		.uleb128 0x1
 2288 0bc7 50       		.byte	0x50
 2289 0bc8 02       		.uleb128 0x2
 2290 0bc9 7B       		.byte	0x7b
 2291 0bca 00       		.sleb128 0
 2292 0bcb 00       		.byte	0
 2293 0bcc 33       		.uleb128 0x33
 2294 0bcd 7E020000 		.4byte	.LVL99
 2295 0bd1 30       		.uleb128 0x30
 2296 0bd2 01       		.uleb128 0x1
 2297 0bd3 50       		.byte	0x50
 2298 0bd4 02       		.uleb128 0x2
 2299 0bd5 7B       		.byte	0x7b
 2300 0bd6 00       		.sleb128 0
 2301 0bd7 00       		.byte	0
 2302 0bd8 00       		.byte	0
 2303 0bd9 0A       		.uleb128 0xa
 2304 0bda 04       		.byte	0x4
 2305 0bdb 54080000 		.4byte	0x854
 2306 0bdf 19       		.uleb128 0x19
 2307 0be0 49050000 		.4byte	0x549
 2308 0be4 EF0B0000 		.4byte	0xbef
 2309 0be8 1A       		.uleb128 0x1a
 2310 0be9 51040000 		.4byte	0x451
 2311 0bed 0B       		.byte	0xb
 2312 0bee 00       		.byte	0
 2313 0bef 34       		.uleb128 0x34
 2314 0bf0 A0060000 		.4byte	.LASF126
 2315 0bf4 01       		.byte	0x1
 2316 0bf5 2E01     		.2byte	0x12e
 2317 0bf7 25000000 		.4byte	0x25
 2318 0bfb 00000000 		.4byte	.LFB273
 2319 0bff 1E000000 		.4byte	.LFE273-.LFB273
 2320 0c03 01       		.uleb128 0x1
 2321 0c04 9C       		.byte	0x9c
 2322 0c05 640C0000 		.4byte	0xc64
 2323 0c09 35       		.uleb128 0x35
 2324 0c0a 63687000 		.ascii	"chp\000"
 2325 0c0e 01       		.byte	0x1
 2326 0c0f 2E01     		.2byte	0x12e
 2327 0c11 D90B0000 		.4byte	0xbd9
 2328 0c15 07070000 		.4byte	.LLST23
 2329 0c19 36       		.uleb128 0x36
 2330 0c1a 666D7400 		.ascii	"fmt\000"
 2331 0c1e 01       		.byte	0x1
 2332 0c1f 2E01     		.2byte	0x12e
 2333 0c21 3E050000 		.4byte	0x53e
 2334 0c25 02       		.uleb128 0x2
ARM GAS  /tmp/ccIUkKRb.s 			page 42


 2335 0c26 91       		.byte	0x91
 2336 0c27 74       		.sleb128 -12
 2337 0c28 37       		.uleb128 0x37
 2338 0c29 38       		.uleb128 0x38
 2339 0c2a 617000   		.ascii	"ap\000"
 2340 0c2d 01       		.byte	0x1
 2341 0c2e 2F01     		.2byte	0x12f
 2342 0c30 8E080000 		.4byte	0x88e
 2343 0c34 02       		.uleb128 0x2
 2344 0c35 91       		.byte	0x91
 2345 0c36 6C       		.sleb128 -20
 2346 0c37 39       		.uleb128 0x39
 2347 0c38 24010000 		.4byte	.LASF127
 2348 0c3c 01       		.byte	0x1
 2349 0c3d 3001     		.2byte	0x130
 2350 0c3f 25000000 		.4byte	0x25
 2351 0c43 01       		.uleb128 0x1
 2352 0c44 50       		.byte	0x50
 2353 0c45 2F       		.uleb128 0x2f
 2354 0c46 14000000 		.4byte	.LVL106
 2355 0c4a 1A0A0000 		.4byte	0xa1a
 2356 0c4e 30       		.uleb128 0x30
 2357 0c4f 01       		.uleb128 0x1
 2358 0c50 52       		.byte	0x52
 2359 0c51 02       		.uleb128 0x2
 2360 0c52 91       		.byte	0x91
 2361 0c53 60       		.sleb128 -32
 2362 0c54 30       		.uleb128 0x30
 2363 0c55 01       		.uleb128 0x1
 2364 0c56 51       		.byte	0x51
 2365 0c57 03       		.uleb128 0x3
 2366 0c58 91       		.byte	0x91
 2367 0c59 5C       		.sleb128 -36
 2368 0c5a 06       		.byte	0x6
 2369 0c5b 30       		.uleb128 0x30
 2370 0c5c 01       		.uleb128 0x1
 2371 0c5d 50       		.byte	0x50
 2372 0c5e 03       		.uleb128 0x3
 2373 0c5f F3       		.byte	0xf3
 2374 0c60 01       		.uleb128 0x1
 2375 0c61 50       		.byte	0x50
 2376 0c62 00       		.byte	0
 2377 0c63 00       		.byte	0
 2378 0c64 34       		.uleb128 0x34
 2379 0c65 A2050000 		.4byte	.LASF128
 2380 0c69 01       		.byte	0x1
 2381 0c6a 5501     		.2byte	0x155
 2382 0c6c 25000000 		.4byte	0x25
 2383 0c70 00000000 		.4byte	.LFB274
 2384 0c74 60000000 		.4byte	.LFE274-.LFB274
 2385 0c78 01       		.uleb128 0x1
 2386 0c79 9C       		.byte	0x9c
 2387 0c7a 820D0000 		.4byte	0xd82
 2388 0c7e 35       		.uleb128 0x35
 2389 0c7f 73747200 		.ascii	"str\000"
 2390 0c83 01       		.byte	0x1
 2391 0c84 5501     		.2byte	0x155
ARM GAS  /tmp/ccIUkKRb.s 			page 43


 2392 0c86 66080000 		.4byte	0x866
 2393 0c8a 28070000 		.4byte	.LLST24
 2394 0c8e 3A       		.uleb128 0x3a
 2395 0c8f BA010000 		.4byte	.LASF88
 2396 0c93 01       		.byte	0x1
 2397 0c94 5501     		.2byte	0x155
 2398 0c96 2C000000 		.4byte	0x2c
 2399 0c9a 78070000 		.4byte	.LLST25
 2400 0c9e 36       		.uleb128 0x36
 2401 0c9f 666D7400 		.ascii	"fmt\000"
 2402 0ca3 01       		.byte	0x1
 2403 0ca4 5501     		.2byte	0x155
 2404 0ca6 3E050000 		.4byte	0x53e
 2405 0caa 02       		.uleb128 0x2
 2406 0cab 91       		.byte	0x91
 2407 0cac 78       		.sleb128 -8
 2408 0cad 37       		.uleb128 0x37
 2409 0cae 38       		.uleb128 0x38
 2410 0caf 617000   		.ascii	"ap\000"
 2411 0cb2 01       		.byte	0x1
 2412 0cb3 5601     		.2byte	0x156
 2413 0cb5 8E080000 		.4byte	0x88e
 2414 0cb9 02       		.uleb128 0x2
 2415 0cba 91       		.byte	0x91
 2416 0cbb 50       		.sleb128 -48
 2417 0cbc 38       		.uleb128 0x38
 2418 0cbd 6D7300   		.ascii	"ms\000"
 2419 0cc0 01       		.byte	0x1
 2420 0cc1 5701     		.2byte	0x157
 2421 0cc3 26090000 		.4byte	0x926
 2422 0cc7 02       		.uleb128 0x2
 2423 0cc8 91       		.byte	0x91
 2424 0cc9 54       		.sleb128 -44
 2425 0cca 3B       		.uleb128 0x3b
 2426 0ccb 63687000 		.ascii	"chp\000"
 2427 0ccf 01       		.byte	0x1
 2428 0cd0 5801     		.2byte	0x158
 2429 0cd2 D90B0000 		.4byte	0xbd9
 2430 0cd6 C8070000 		.4byte	.LLST26
 2431 0cda 3C       		.uleb128 0x3c
 2432 0cdb 01010000 		.4byte	.LASF129
 2433 0cdf 01       		.byte	0x1
 2434 0ce0 5901     		.2byte	0x159
 2435 0ce2 2C000000 		.4byte	0x2c
 2436 0ce6 1A080000 		.4byte	.LLST27
 2437 0cea 3C       		.uleb128 0x3c
 2438 0ceb F9010000 		.4byte	.LASF130
 2439 0cef 01       		.byte	0x1
 2440 0cf0 5A01     		.2byte	0x15a
 2441 0cf2 25000000 		.4byte	0x25
 2442 0cf6 70080000 		.4byte	.LLST28
 2443 0cfa 3D       		.uleb128 0x3d
 2444 0cfb 1A000000 		.4byte	.LVL112
 2445 0cff 9E0D0000 		.4byte	0xd9e
 2446 0d03 1F0D0000 		.4byte	0xd1f
 2447 0d07 30       		.uleb128 0x30
 2448 0d08 01       		.uleb128 0x1
ARM GAS  /tmp/ccIUkKRb.s 			page 44


 2449 0d09 53       		.byte	0x53
 2450 0d0a 01       		.uleb128 0x1
 2451 0d0b 30       		.byte	0x30
 2452 0d0c 30       		.uleb128 0x30
 2453 0d0d 01       		.uleb128 0x1
 2454 0d0e 52       		.byte	0x52
 2455 0d0f 02       		.uleb128 0x2
 2456 0d10 74       		.byte	0x74
 2457 0d11 7F       		.sleb128 -1
 2458 0d12 30       		.uleb128 0x30
 2459 0d13 01       		.uleb128 0x1
 2460 0d14 51       		.byte	0x51
 2461 0d15 02       		.uleb128 0x2
 2462 0d16 75       		.byte	0x75
 2463 0d17 00       		.sleb128 0
 2464 0d18 30       		.uleb128 0x30
 2465 0d19 01       		.uleb128 0x1
 2466 0d1a 50       		.byte	0x50
 2467 0d1b 02       		.uleb128 0x2
 2468 0d1c 91       		.byte	0x91
 2469 0d1d 44       		.sleb128 -60
 2470 0d1e 00       		.byte	0
 2471 0d1f 3D       		.uleb128 0x3d
 2472 0d20 28000000 		.4byte	.LVL114
 2473 0d24 1A0A0000 		.4byte	0xa1a
 2474 0d28 3F0D0000 		.4byte	0xd3f
 2475 0d2c 30       		.uleb128 0x30
 2476 0d2d 01       		.uleb128 0x1
 2477 0d2e 52       		.byte	0x52
 2478 0d2f 02       		.uleb128 0x2
 2479 0d30 91       		.byte	0x91
 2480 0d31 6C       		.sleb128 -20
 2481 0d32 30       		.uleb128 0x30
 2482 0d33 01       		.uleb128 0x1
 2483 0d34 51       		.byte	0x51
 2484 0d35 02       		.uleb128 0x2
 2485 0d36 76       		.byte	0x76
 2486 0d37 00       		.sleb128 0
 2487 0d38 30       		.uleb128 0x30
 2488 0d39 01       		.uleb128 0x1
 2489 0d3a 50       		.byte	0x50
 2490 0d3b 02       		.uleb128 0x2
 2491 0d3c 91       		.byte	0x91
 2492 0d3d 44       		.sleb128 -60
 2493 0d3e 00       		.byte	0
 2494 0d3f 3D       		.uleb128 0x3d
 2495 0d40 48000000 		.4byte	.LVL119
 2496 0d44 9E0D0000 		.4byte	0xd9e
 2497 0d48 650D0000 		.4byte	0xd65
 2498 0d4c 30       		.uleb128 0x30
 2499 0d4d 01       		.uleb128 0x1
 2500 0d4e 53       		.byte	0x53
 2501 0d4f 02       		.uleb128 0x2
 2502 0d50 74       		.byte	0x74
 2503 0d51 00       		.sleb128 0
 2504 0d52 30       		.uleb128 0x30
 2505 0d53 01       		.uleb128 0x1
ARM GAS  /tmp/ccIUkKRb.s 			page 45


 2506 0d54 52       		.byte	0x52
 2507 0d55 02       		.uleb128 0x2
 2508 0d56 74       		.byte	0x74
 2509 0d57 00       		.sleb128 0
 2510 0d58 30       		.uleb128 0x30
 2511 0d59 01       		.uleb128 0x1
 2512 0d5a 51       		.byte	0x51
 2513 0d5b 02       		.uleb128 0x2
 2514 0d5c 75       		.byte	0x75
 2515 0d5d 00       		.sleb128 0
 2516 0d5e 30       		.uleb128 0x30
 2517 0d5f 01       		.uleb128 0x1
 2518 0d60 50       		.byte	0x50
 2519 0d61 02       		.uleb128 0x2
 2520 0d62 91       		.byte	0x91
 2521 0d63 44       		.sleb128 -60
 2522 0d64 00       		.byte	0
 2523 0d65 2F       		.uleb128 0x2f
 2524 0d66 56000000 		.4byte	.LVL121
 2525 0d6a 1A0A0000 		.4byte	0xa1a
 2526 0d6e 30       		.uleb128 0x30
 2527 0d6f 01       		.uleb128 0x1
 2528 0d70 52       		.byte	0x52
 2529 0d71 02       		.uleb128 0x2
 2530 0d72 91       		.byte	0x91
 2531 0d73 6C       		.sleb128 -20
 2532 0d74 30       		.uleb128 0x30
 2533 0d75 01       		.uleb128 0x1
 2534 0d76 51       		.byte	0x51
 2535 0d77 02       		.uleb128 0x2
 2536 0d78 76       		.byte	0x76
 2537 0d79 00       		.sleb128 0
 2538 0d7a 30       		.uleb128 0x30
 2539 0d7b 01       		.uleb128 0x1
 2540 0d7c 50       		.byte	0x50
 2541 0d7d 02       		.uleb128 0x2
 2542 0d7e 91       		.byte	0x91
 2543 0d7f 44       		.sleb128 -60
 2544 0d80 00       		.byte	0
 2545 0d81 00       		.byte	0
 2546 0d82 3E       		.uleb128 0x3e
 2547 0d83 66010000 		.4byte	.LASF131
 2548 0d87 12       		.byte	0x12
 2549 0d88 4407     		.2byte	0x744
 2550 0d8a 8E0D0000 		.4byte	0xd8e
 2551 0d8e 1C       		.uleb128 0x1c
 2552 0d8f C3000000 		.4byte	0xc3
 2553 0d93 3F       		.uleb128 0x3f
 2554 0d94 636800   		.ascii	"ch\000"
 2555 0d97 07       		.byte	0x7
 2556 0d98 D201     		.2byte	0x1d2
 2557 0d9a F5030000 		.4byte	0x3f5
 2558 0d9e 40       		.uleb128 0x40
 2559 0d9f 07040000 		.4byte	.LASF136
 2560 0da3 11       		.byte	0x11
 2561 0da4 57       		.byte	0x57
 2562 0da5 BE0D0000 		.4byte	0xdbe
ARM GAS  /tmp/ccIUkKRb.s 			page 46


 2563 0da9 0D       		.uleb128 0xd
 2564 0daa BE0D0000 		.4byte	0xdbe
 2565 0dae 0D       		.uleb128 0xd
 2566 0daf F9070000 		.4byte	0x7f9
 2567 0db3 0D       		.uleb128 0xd
 2568 0db4 2C000000 		.4byte	0x2c
 2569 0db8 0D       		.uleb128 0xd
 2570 0db9 2C000000 		.4byte	0x2c
 2571 0dbd 00       		.byte	0
 2572 0dbe 0A       		.uleb128 0xa
 2573 0dbf 04       		.byte	0x4
 2574 0dc0 26090000 		.4byte	0x926
 2575 0dc4 00       		.byte	0
 2576              		.section	.debug_abbrev,"",%progbits
 2577              	.Ldebug_abbrev0:
 2578 0000 01       		.uleb128 0x1
 2579 0001 11       		.uleb128 0x11
 2580 0002 01       		.byte	0x1
 2581 0003 25       		.uleb128 0x25
 2582 0004 0E       		.uleb128 0xe
 2583 0005 13       		.uleb128 0x13
 2584 0006 0B       		.uleb128 0xb
 2585 0007 03       		.uleb128 0x3
 2586 0008 0E       		.uleb128 0xe
 2587 0009 1B       		.uleb128 0x1b
 2588 000a 0E       		.uleb128 0xe
 2589 000b 55       		.uleb128 0x55
 2590 000c 17       		.uleb128 0x17
 2591 000d 11       		.uleb128 0x11
 2592 000e 01       		.uleb128 0x1
 2593 000f 10       		.uleb128 0x10
 2594 0010 17       		.uleb128 0x17
 2595 0011 00       		.byte	0
 2596 0012 00       		.byte	0
 2597 0013 02       		.uleb128 0x2
 2598 0014 24       		.uleb128 0x24
 2599 0015 00       		.byte	0
 2600 0016 0B       		.uleb128 0xb
 2601 0017 0B       		.uleb128 0xb
 2602 0018 3E       		.uleb128 0x3e
 2603 0019 0B       		.uleb128 0xb
 2604 001a 03       		.uleb128 0x3
 2605 001b 08       		.uleb128 0x8
 2606 001c 00       		.byte	0
 2607 001d 00       		.byte	0
 2608 001e 03       		.uleb128 0x3
 2609 001f 16       		.uleb128 0x16
 2610 0020 00       		.byte	0
 2611 0021 03       		.uleb128 0x3
 2612 0022 0E       		.uleb128 0xe
 2613 0023 3A       		.uleb128 0x3a
 2614 0024 0B       		.uleb128 0xb
 2615 0025 3B       		.uleb128 0x3b
 2616 0026 0B       		.uleb128 0xb
 2617 0027 49       		.uleb128 0x49
 2618 0028 13       		.uleb128 0x13
 2619 0029 00       		.byte	0
ARM GAS  /tmp/ccIUkKRb.s 			page 47


 2620 002a 00       		.byte	0
 2621 002b 04       		.uleb128 0x4
 2622 002c 24       		.uleb128 0x24
 2623 002d 00       		.byte	0
 2624 002e 0B       		.uleb128 0xb
 2625 002f 0B       		.uleb128 0xb
 2626 0030 3E       		.uleb128 0x3e
 2627 0031 0B       		.uleb128 0xb
 2628 0032 03       		.uleb128 0x3
 2629 0033 0E       		.uleb128 0xe
 2630 0034 00       		.byte	0
 2631 0035 00       		.byte	0
 2632 0036 05       		.uleb128 0x5
 2633 0037 13       		.uleb128 0x13
 2634 0038 01       		.byte	0x1
 2635 0039 03       		.uleb128 0x3
 2636 003a 0E       		.uleb128 0xe
 2637 003b 0B       		.uleb128 0xb
 2638 003c 0B       		.uleb128 0xb
 2639 003d 3A       		.uleb128 0x3a
 2640 003e 0B       		.uleb128 0xb
 2641 003f 3B       		.uleb128 0x3b
 2642 0040 0B       		.uleb128 0xb
 2643 0041 01       		.uleb128 0x1
 2644 0042 13       		.uleb128 0x13
 2645 0043 00       		.byte	0
 2646 0044 00       		.byte	0
 2647 0045 06       		.uleb128 0x6
 2648 0046 0D       		.uleb128 0xd
 2649 0047 00       		.byte	0
 2650 0048 03       		.uleb128 0x3
 2651 0049 0E       		.uleb128 0xe
 2652 004a 3A       		.uleb128 0x3a
 2653 004b 0B       		.uleb128 0xb
 2654 004c 3B       		.uleb128 0x3b
 2655 004d 0B       		.uleb128 0xb
 2656 004e 49       		.uleb128 0x49
 2657 004f 13       		.uleb128 0x13
 2658 0050 38       		.uleb128 0x38
 2659 0051 0B       		.uleb128 0xb
 2660 0052 00       		.byte	0
 2661 0053 00       		.byte	0
 2662 0054 07       		.uleb128 0x7
 2663 0055 0D       		.uleb128 0xd
 2664 0056 00       		.byte	0
 2665 0057 03       		.uleb128 0x3
 2666 0058 08       		.uleb128 0x8
 2667 0059 3A       		.uleb128 0x3a
 2668 005a 0B       		.uleb128 0xb
 2669 005b 3B       		.uleb128 0x3b
 2670 005c 0B       		.uleb128 0xb
 2671 005d 49       		.uleb128 0x49
 2672 005e 13       		.uleb128 0x13
 2673 005f 38       		.uleb128 0x38
 2674 0060 0B       		.uleb128 0xb
 2675 0061 00       		.byte	0
 2676 0062 00       		.byte	0
ARM GAS  /tmp/ccIUkKRb.s 			page 48


 2677 0063 08       		.uleb128 0x8
 2678 0064 0D       		.uleb128 0xd
 2679 0065 00       		.byte	0
 2680 0066 03       		.uleb128 0x3
 2681 0067 08       		.uleb128 0x8
 2682 0068 3A       		.uleb128 0x3a
 2683 0069 0B       		.uleb128 0xb
 2684 006a 3B       		.uleb128 0x3b
 2685 006b 05       		.uleb128 0x5
 2686 006c 49       		.uleb128 0x49
 2687 006d 13       		.uleb128 0x13
 2688 006e 38       		.uleb128 0x38
 2689 006f 0B       		.uleb128 0xb
 2690 0070 00       		.byte	0
 2691 0071 00       		.byte	0
 2692 0072 09       		.uleb128 0x9
 2693 0073 0D       		.uleb128 0xd
 2694 0074 00       		.byte	0
 2695 0075 03       		.uleb128 0x3
 2696 0076 0E       		.uleb128 0xe
 2697 0077 3A       		.uleb128 0x3a
 2698 0078 0B       		.uleb128 0xb
 2699 0079 3B       		.uleb128 0x3b
 2700 007a 05       		.uleb128 0x5
 2701 007b 49       		.uleb128 0x49
 2702 007c 13       		.uleb128 0x13
 2703 007d 38       		.uleb128 0x38
 2704 007e 0B       		.uleb128 0xb
 2705 007f 00       		.byte	0
 2706 0080 00       		.byte	0
 2707 0081 0A       		.uleb128 0xa
 2708 0082 0F       		.uleb128 0xf
 2709 0083 00       		.byte	0
 2710 0084 0B       		.uleb128 0xb
 2711 0085 0B       		.uleb128 0xb
 2712 0086 49       		.uleb128 0x49
 2713 0087 13       		.uleb128 0x13
 2714 0088 00       		.byte	0
 2715 0089 00       		.byte	0
 2716 008a 0B       		.uleb128 0xb
 2717 008b 13       		.uleb128 0x13
 2718 008c 01       		.byte	0x1
 2719 008d 03       		.uleb128 0x3
 2720 008e 0E       		.uleb128 0xe
 2721 008f 0B       		.uleb128 0xb
 2722 0090 0B       		.uleb128 0xb
 2723 0091 3A       		.uleb128 0x3a
 2724 0092 0B       		.uleb128 0xb
 2725 0093 3B       		.uleb128 0x3b
 2726 0094 05       		.uleb128 0x5
 2727 0095 01       		.uleb128 0x1
 2728 0096 13       		.uleb128 0x13
 2729 0097 00       		.byte	0
 2730 0098 00       		.byte	0
 2731 0099 0C       		.uleb128 0xc
 2732 009a 15       		.uleb128 0x15
 2733 009b 01       		.byte	0x1
ARM GAS  /tmp/ccIUkKRb.s 			page 49


 2734 009c 27       		.uleb128 0x27
 2735 009d 19       		.uleb128 0x19
 2736 009e 01       		.uleb128 0x1
 2737 009f 13       		.uleb128 0x13
 2738 00a0 00       		.byte	0
 2739 00a1 00       		.byte	0
 2740 00a2 0D       		.uleb128 0xd
 2741 00a3 05       		.uleb128 0x5
 2742 00a4 00       		.byte	0
 2743 00a5 49       		.uleb128 0x49
 2744 00a6 13       		.uleb128 0x13
 2745 00a7 00       		.byte	0
 2746 00a8 00       		.byte	0
 2747 00a9 0E       		.uleb128 0xe
 2748 00aa 0F       		.uleb128 0xf
 2749 00ab 00       		.byte	0
 2750 00ac 0B       		.uleb128 0xb
 2751 00ad 0B       		.uleb128 0xb
 2752 00ae 00       		.byte	0
 2753 00af 00       		.byte	0
 2754 00b0 0F       		.uleb128 0xf
 2755 00b1 13       		.uleb128 0x13
 2756 00b2 01       		.byte	0x1
 2757 00b3 03       		.uleb128 0x3
 2758 00b4 0E       		.uleb128 0xe
 2759 00b5 0B       		.uleb128 0xb
 2760 00b6 05       		.uleb128 0x5
 2761 00b7 3A       		.uleb128 0x3a
 2762 00b8 0B       		.uleb128 0xb
 2763 00b9 3B       		.uleb128 0x3b
 2764 00ba 05       		.uleb128 0x5
 2765 00bb 01       		.uleb128 0x1
 2766 00bc 13       		.uleb128 0x13
 2767 00bd 00       		.byte	0
 2768 00be 00       		.byte	0
 2769 00bf 10       		.uleb128 0x10
 2770 00c0 0D       		.uleb128 0xd
 2771 00c1 00       		.byte	0
 2772 00c2 03       		.uleb128 0x3
 2773 00c3 0E       		.uleb128 0xe
 2774 00c4 3A       		.uleb128 0x3a
 2775 00c5 0B       		.uleb128 0xb
 2776 00c6 3B       		.uleb128 0x3b
 2777 00c7 05       		.uleb128 0x5
 2778 00c8 49       		.uleb128 0x49
 2779 00c9 13       		.uleb128 0x13
 2780 00ca 38       		.uleb128 0x38
 2781 00cb 05       		.uleb128 0x5
 2782 00cc 00       		.byte	0
 2783 00cd 00       		.byte	0
 2784 00ce 11       		.uleb128 0x11
 2785 00cf 0D       		.uleb128 0xd
 2786 00d0 00       		.byte	0
 2787 00d1 03       		.uleb128 0x3
 2788 00d2 08       		.uleb128 0x8
 2789 00d3 3A       		.uleb128 0x3a
 2790 00d4 0B       		.uleb128 0xb
ARM GAS  /tmp/ccIUkKRb.s 			page 50


 2791 00d5 3B       		.uleb128 0x3b
 2792 00d6 05       		.uleb128 0x5
 2793 00d7 49       		.uleb128 0x49
 2794 00d8 13       		.uleb128 0x13
 2795 00d9 38       		.uleb128 0x38
 2796 00da 05       		.uleb128 0x5
 2797 00db 00       		.byte	0
 2798 00dc 00       		.byte	0
 2799 00dd 12       		.uleb128 0x12
 2800 00de 13       		.uleb128 0x13
 2801 00df 01       		.byte	0x1
 2802 00e0 0B       		.uleb128 0xb
 2803 00e1 0B       		.uleb128 0xb
 2804 00e2 3A       		.uleb128 0x3a
 2805 00e3 0B       		.uleb128 0xb
 2806 00e4 3B       		.uleb128 0x3b
 2807 00e5 0B       		.uleb128 0xb
 2808 00e6 01       		.uleb128 0x1
 2809 00e7 13       		.uleb128 0x13
 2810 00e8 00       		.byte	0
 2811 00e9 00       		.byte	0
 2812 00ea 13       		.uleb128 0x13
 2813 00eb 26       		.uleb128 0x26
 2814 00ec 00       		.byte	0
 2815 00ed 49       		.uleb128 0x49
 2816 00ee 13       		.uleb128 0x13
 2817 00ef 00       		.byte	0
 2818 00f0 00       		.byte	0
 2819 00f1 14       		.uleb128 0x14
 2820 00f2 17       		.uleb128 0x17
 2821 00f3 01       		.byte	0x1
 2822 00f4 0B       		.uleb128 0xb
 2823 00f5 0B       		.uleb128 0xb
 2824 00f6 3A       		.uleb128 0x3a
 2825 00f7 0B       		.uleb128 0xb
 2826 00f8 3B       		.uleb128 0x3b
 2827 00f9 0B       		.uleb128 0xb
 2828 00fa 01       		.uleb128 0x1
 2829 00fb 13       		.uleb128 0x13
 2830 00fc 00       		.byte	0
 2831 00fd 00       		.byte	0
 2832 00fe 15       		.uleb128 0x15
 2833 00ff 0D       		.uleb128 0xd
 2834 0100 00       		.byte	0
 2835 0101 03       		.uleb128 0x3
 2836 0102 08       		.uleb128 0x8
 2837 0103 3A       		.uleb128 0x3a
 2838 0104 0B       		.uleb128 0xb
 2839 0105 3B       		.uleb128 0x3b
 2840 0106 0B       		.uleb128 0xb
 2841 0107 49       		.uleb128 0x49
 2842 0108 13       		.uleb128 0x13
 2843 0109 00       		.byte	0
 2844 010a 00       		.byte	0
 2845 010b 16       		.uleb128 0x16
 2846 010c 0D       		.uleb128 0xd
 2847 010d 00       		.byte	0
ARM GAS  /tmp/ccIUkKRb.s 			page 51


 2848 010e 03       		.uleb128 0x3
 2849 010f 0E       		.uleb128 0xe
 2850 0110 3A       		.uleb128 0x3a
 2851 0111 0B       		.uleb128 0xb
 2852 0112 3B       		.uleb128 0x3b
 2853 0113 0B       		.uleb128 0xb
 2854 0114 49       		.uleb128 0x49
 2855 0115 13       		.uleb128 0x13
 2856 0116 00       		.byte	0
 2857 0117 00       		.byte	0
 2858 0118 17       		.uleb128 0x17
 2859 0119 0D       		.uleb128 0xd
 2860 011a 00       		.byte	0
 2861 011b 03       		.uleb128 0x3
 2862 011c 0E       		.uleb128 0xe
 2863 011d 3A       		.uleb128 0x3a
 2864 011e 0B       		.uleb128 0xb
 2865 011f 3B       		.uleb128 0x3b
 2866 0120 0B       		.uleb128 0xb
 2867 0121 49       		.uleb128 0x49
 2868 0122 13       		.uleb128 0x13
 2869 0123 0B       		.uleb128 0xb
 2870 0124 0B       		.uleb128 0xb
 2871 0125 0D       		.uleb128 0xd
 2872 0126 0B       		.uleb128 0xb
 2873 0127 0C       		.uleb128 0xc
 2874 0128 0B       		.uleb128 0xb
 2875 0129 38       		.uleb128 0x38
 2876 012a 0B       		.uleb128 0xb
 2877 012b 00       		.byte	0
 2878 012c 00       		.byte	0
 2879 012d 18       		.uleb128 0x18
 2880 012e 13       		.uleb128 0x13
 2881 012f 01       		.byte	0x1
 2882 0130 0B       		.uleb128 0xb
 2883 0131 05       		.uleb128 0x5
 2884 0132 3A       		.uleb128 0x3a
 2885 0133 0B       		.uleb128 0xb
 2886 0134 3B       		.uleb128 0x3b
 2887 0135 0B       		.uleb128 0xb
 2888 0136 01       		.uleb128 0x1
 2889 0137 13       		.uleb128 0x13
 2890 0138 00       		.byte	0
 2891 0139 00       		.byte	0
 2892 013a 19       		.uleb128 0x19
 2893 013b 01       		.uleb128 0x1
 2894 013c 01       		.byte	0x1
 2895 013d 49       		.uleb128 0x49
 2896 013e 13       		.uleb128 0x13
 2897 013f 01       		.uleb128 0x1
 2898 0140 13       		.uleb128 0x13
 2899 0141 00       		.byte	0
 2900 0142 00       		.byte	0
 2901 0143 1A       		.uleb128 0x1a
 2902 0144 21       		.uleb128 0x21
 2903 0145 00       		.byte	0
 2904 0146 49       		.uleb128 0x49
ARM GAS  /tmp/ccIUkKRb.s 			page 52


 2905 0147 13       		.uleb128 0x13
 2906 0148 2F       		.uleb128 0x2f
 2907 0149 0B       		.uleb128 0xb
 2908 014a 00       		.byte	0
 2909 014b 00       		.byte	0
 2910 014c 1B       		.uleb128 0x1b
 2911 014d 0D       		.uleb128 0xd
 2912 014e 00       		.byte	0
 2913 014f 03       		.uleb128 0x3
 2914 0150 0E       		.uleb128 0xe
 2915 0151 3A       		.uleb128 0x3a
 2916 0152 0B       		.uleb128 0xb
 2917 0153 3B       		.uleb128 0x3b
 2918 0154 05       		.uleb128 0x5
 2919 0155 49       		.uleb128 0x49
 2920 0156 13       		.uleb128 0x13
 2921 0157 00       		.byte	0
 2922 0158 00       		.byte	0
 2923 0159 1C       		.uleb128 0x1c
 2924 015a 35       		.uleb128 0x35
 2925 015b 00       		.byte	0
 2926 015c 49       		.uleb128 0x49
 2927 015d 13       		.uleb128 0x13
 2928 015e 00       		.byte	0
 2929 015f 00       		.byte	0
 2930 0160 1D       		.uleb128 0x1d
 2931 0161 15       		.uleb128 0x15
 2932 0162 01       		.byte	0x1
 2933 0163 27       		.uleb128 0x27
 2934 0164 19       		.uleb128 0x19
 2935 0165 49       		.uleb128 0x49
 2936 0166 13       		.uleb128 0x13
 2937 0167 01       		.uleb128 0x1
 2938 0168 13       		.uleb128 0x13
 2939 0169 00       		.byte	0
 2940 016a 00       		.byte	0
 2941 016b 1E       		.uleb128 0x1e
 2942 016c 0D       		.uleb128 0xd
 2943 016d 00       		.byte	0
 2944 016e 03       		.uleb128 0x3
 2945 016f 0E       		.uleb128 0xe
 2946 0170 49       		.uleb128 0x49
 2947 0171 13       		.uleb128 0x13
 2948 0172 38       		.uleb128 0x38
 2949 0173 0B       		.uleb128 0xb
 2950 0174 34       		.uleb128 0x34
 2951 0175 19       		.uleb128 0x19
 2952 0176 00       		.byte	0
 2953 0177 00       		.byte	0
 2954 0178 1F       		.uleb128 0x1f
 2955 0179 2E       		.uleb128 0x2e
 2956 017a 01       		.byte	0x1
 2957 017b 03       		.uleb128 0x3
 2958 017c 0E       		.uleb128 0xe
 2959 017d 3A       		.uleb128 0x3a
 2960 017e 0B       		.uleb128 0xb
 2961 017f 3B       		.uleb128 0x3b
ARM GAS  /tmp/ccIUkKRb.s 			page 53


 2962 0180 0B       		.uleb128 0xb
 2963 0181 27       		.uleb128 0x27
 2964 0182 19       		.uleb128 0x19
 2965 0183 49       		.uleb128 0x49
 2966 0184 13       		.uleb128 0x13
 2967 0185 20       		.uleb128 0x20
 2968 0186 0B       		.uleb128 0xb
 2969 0187 01       		.uleb128 0x1
 2970 0188 13       		.uleb128 0x13
 2971 0189 00       		.byte	0
 2972 018a 00       		.byte	0
 2973 018b 20       		.uleb128 0x20
 2974 018c 05       		.uleb128 0x5
 2975 018d 00       		.byte	0
 2976 018e 03       		.uleb128 0x3
 2977 018f 08       		.uleb128 0x8
 2978 0190 3A       		.uleb128 0x3a
 2979 0191 0B       		.uleb128 0xb
 2980 0192 3B       		.uleb128 0x3b
 2981 0193 0B       		.uleb128 0xb
 2982 0194 49       		.uleb128 0x49
 2983 0195 13       		.uleb128 0x13
 2984 0196 00       		.byte	0
 2985 0197 00       		.byte	0
 2986 0198 21       		.uleb128 0x21
 2987 0199 05       		.uleb128 0x5
 2988 019a 00       		.byte	0
 2989 019b 03       		.uleb128 0x3
 2990 019c 0E       		.uleb128 0xe
 2991 019d 3A       		.uleb128 0x3a
 2992 019e 0B       		.uleb128 0xb
 2993 019f 3B       		.uleb128 0x3b
 2994 01a0 0B       		.uleb128 0xb
 2995 01a1 49       		.uleb128 0x49
 2996 01a2 13       		.uleb128 0x13
 2997 01a3 00       		.byte	0
 2998 01a4 00       		.byte	0
 2999 01a5 22       		.uleb128 0x22
 3000 01a6 34       		.uleb128 0x34
 3001 01a7 00       		.byte	0
 3002 01a8 03       		.uleb128 0x3
 3003 01a9 08       		.uleb128 0x8
 3004 01aa 3A       		.uleb128 0x3a
 3005 01ab 0B       		.uleb128 0xb
 3006 01ac 3B       		.uleb128 0x3b
 3007 01ad 0B       		.uleb128 0xb
 3008 01ae 49       		.uleb128 0x49
 3009 01af 13       		.uleb128 0x13
 3010 01b0 00       		.byte	0
 3011 01b1 00       		.byte	0
 3012 01b2 23       		.uleb128 0x23
 3013 01b3 2E       		.uleb128 0x2e
 3014 01b4 01       		.byte	0x1
 3015 01b5 31       		.uleb128 0x31
 3016 01b6 13       		.uleb128 0x13
 3017 01b7 11       		.uleb128 0x11
 3018 01b8 01       		.uleb128 0x1
ARM GAS  /tmp/ccIUkKRb.s 			page 54


 3019 01b9 12       		.uleb128 0x12
 3020 01ba 06       		.uleb128 0x6
 3021 01bb 40       		.uleb128 0x40
 3022 01bc 18       		.uleb128 0x18
 3023 01bd 9742     		.uleb128 0x2117
 3024 01bf 19       		.uleb128 0x19
 3025 01c0 01       		.uleb128 0x1
 3026 01c1 13       		.uleb128 0x13
 3027 01c2 00       		.byte	0
 3028 01c3 00       		.byte	0
 3029 01c4 24       		.uleb128 0x24
 3030 01c5 05       		.uleb128 0x5
 3031 01c6 00       		.byte	0
 3032 01c7 31       		.uleb128 0x31
 3033 01c8 13       		.uleb128 0x13
 3034 01c9 02       		.uleb128 0x2
 3035 01ca 17       		.uleb128 0x17
 3036 01cb 00       		.byte	0
 3037 01cc 00       		.byte	0
 3038 01cd 25       		.uleb128 0x25
 3039 01ce 34       		.uleb128 0x34
 3040 01cf 00       		.byte	0
 3041 01d0 31       		.uleb128 0x31
 3042 01d1 13       		.uleb128 0x13
 3043 01d2 02       		.uleb128 0x2
 3044 01d3 17       		.uleb128 0x17
 3045 01d4 00       		.byte	0
 3046 01d5 00       		.byte	0
 3047 01d6 26       		.uleb128 0x26
 3048 01d7 05       		.uleb128 0x5
 3049 01d8 00       		.byte	0
 3050 01d9 31       		.uleb128 0x31
 3051 01da 13       		.uleb128 0x13
 3052 01db 1C       		.uleb128 0x1c
 3053 01dc 0B       		.uleb128 0xb
 3054 01dd 00       		.byte	0
 3055 01de 00       		.byte	0
 3056 01df 27       		.uleb128 0x27
 3057 01e0 2E       		.uleb128 0x2e
 3058 01e1 01       		.byte	0x1
 3059 01e2 3F       		.uleb128 0x3f
 3060 01e3 19       		.uleb128 0x19
 3061 01e4 03       		.uleb128 0x3
 3062 01e5 0E       		.uleb128 0xe
 3063 01e6 3A       		.uleb128 0x3a
 3064 01e7 0B       		.uleb128 0xb
 3065 01e8 3B       		.uleb128 0x3b
 3066 01e9 0B       		.uleb128 0xb
 3067 01ea 27       		.uleb128 0x27
 3068 01eb 19       		.uleb128 0x19
 3069 01ec 49       		.uleb128 0x49
 3070 01ed 13       		.uleb128 0x13
 3071 01ee 11       		.uleb128 0x11
 3072 01ef 01       		.uleb128 0x1
 3073 01f0 12       		.uleb128 0x12
 3074 01f1 06       		.uleb128 0x6
 3075 01f2 40       		.uleb128 0x40
ARM GAS  /tmp/ccIUkKRb.s 			page 55


 3076 01f3 18       		.uleb128 0x18
 3077 01f4 9742     		.uleb128 0x2117
 3078 01f6 19       		.uleb128 0x19
 3079 01f7 01       		.uleb128 0x1
 3080 01f8 13       		.uleb128 0x13
 3081 01f9 00       		.byte	0
 3082 01fa 00       		.byte	0
 3083 01fb 28       		.uleb128 0x28
 3084 01fc 05       		.uleb128 0x5
 3085 01fd 00       		.byte	0
 3086 01fe 03       		.uleb128 0x3
 3087 01ff 08       		.uleb128 0x8
 3088 0200 3A       		.uleb128 0x3a
 3089 0201 0B       		.uleb128 0xb
 3090 0202 3B       		.uleb128 0x3b
 3091 0203 0B       		.uleb128 0xb
 3092 0204 49       		.uleb128 0x49
 3093 0205 13       		.uleb128 0x13
 3094 0206 02       		.uleb128 0x2
 3095 0207 17       		.uleb128 0x17
 3096 0208 00       		.byte	0
 3097 0209 00       		.byte	0
 3098 020a 29       		.uleb128 0x29
 3099 020b 34       		.uleb128 0x34
 3100 020c 00       		.byte	0
 3101 020d 03       		.uleb128 0x3
 3102 020e 08       		.uleb128 0x8
 3103 020f 3A       		.uleb128 0x3a
 3104 0210 0B       		.uleb128 0xb
 3105 0211 3B       		.uleb128 0x3b
 3106 0212 0B       		.uleb128 0xb
 3107 0213 49       		.uleb128 0x49
 3108 0214 13       		.uleb128 0x13
 3109 0215 02       		.uleb128 0x2
 3110 0216 17       		.uleb128 0x17
 3111 0217 00       		.byte	0
 3112 0218 00       		.byte	0
 3113 0219 2A       		.uleb128 0x2a
 3114 021a 34       		.uleb128 0x34
 3115 021b 00       		.byte	0
 3116 021c 03       		.uleb128 0x3
 3117 021d 0E       		.uleb128 0xe
 3118 021e 3A       		.uleb128 0x3a
 3119 021f 0B       		.uleb128 0xb
 3120 0220 3B       		.uleb128 0x3b
 3121 0221 0B       		.uleb128 0xb
 3122 0222 49       		.uleb128 0x49
 3123 0223 13       		.uleb128 0x13
 3124 0224 02       		.uleb128 0x2
 3125 0225 17       		.uleb128 0x17
 3126 0226 00       		.byte	0
 3127 0227 00       		.byte	0
 3128 0228 2B       		.uleb128 0x2b
 3129 0229 34       		.uleb128 0x34
 3130 022a 00       		.byte	0
 3131 022b 03       		.uleb128 0x3
 3132 022c 0E       		.uleb128 0xe
ARM GAS  /tmp/ccIUkKRb.s 			page 56


 3133 022d 3A       		.uleb128 0x3a
 3134 022e 0B       		.uleb128 0xb
 3135 022f 3B       		.uleb128 0x3b
 3136 0230 0B       		.uleb128 0xb
 3137 0231 49       		.uleb128 0x49
 3138 0232 13       		.uleb128 0x13
 3139 0233 02       		.uleb128 0x2
 3140 0234 18       		.uleb128 0x18
 3141 0235 00       		.byte	0
 3142 0236 00       		.byte	0
 3143 0237 2C       		.uleb128 0x2c
 3144 0238 0A       		.uleb128 0xa
 3145 0239 00       		.byte	0
 3146 023a 03       		.uleb128 0x3
 3147 023b 0E       		.uleb128 0xe
 3148 023c 3A       		.uleb128 0x3a
 3149 023d 0B       		.uleb128 0xb
 3150 023e 3B       		.uleb128 0x3b
 3151 023f 0B       		.uleb128 0xb
 3152 0240 11       		.uleb128 0x11
 3153 0241 01       		.uleb128 0x1
 3154 0242 00       		.byte	0
 3155 0243 00       		.byte	0
 3156 0244 2D       		.uleb128 0x2d
 3157 0245 1D       		.uleb128 0x1d
 3158 0246 01       		.byte	0x1
 3159 0247 31       		.uleb128 0x31
 3160 0248 13       		.uleb128 0x13
 3161 0249 11       		.uleb128 0x11
 3162 024a 01       		.uleb128 0x1
 3163 024b 12       		.uleb128 0x12
 3164 024c 06       		.uleb128 0x6
 3165 024d 58       		.uleb128 0x58
 3166 024e 0B       		.uleb128 0xb
 3167 024f 59       		.uleb128 0x59
 3168 0250 0B       		.uleb128 0xb
 3169 0251 01       		.uleb128 0x1
 3170 0252 13       		.uleb128 0x13
 3171 0253 00       		.byte	0
 3172 0254 00       		.byte	0
 3173 0255 2E       		.uleb128 0x2e
 3174 0256 05       		.uleb128 0x5
 3175 0257 00       		.byte	0
 3176 0258 31       		.uleb128 0x31
 3177 0259 13       		.uleb128 0x13
 3178 025a 00       		.byte	0
 3179 025b 00       		.byte	0
 3180 025c 2F       		.uleb128 0x2f
 3181 025d 898201   		.uleb128 0x4109
 3182 0260 01       		.byte	0x1
 3183 0261 11       		.uleb128 0x11
 3184 0262 01       		.uleb128 0x1
 3185 0263 31       		.uleb128 0x31
 3186 0264 13       		.uleb128 0x13
 3187 0265 00       		.byte	0
 3188 0266 00       		.byte	0
 3189 0267 30       		.uleb128 0x30
ARM GAS  /tmp/ccIUkKRb.s 			page 57


 3190 0268 8A8201   		.uleb128 0x410a
 3191 026b 00       		.byte	0
 3192 026c 02       		.uleb128 0x2
 3193 026d 18       		.uleb128 0x18
 3194 026e 9142     		.uleb128 0x2111
 3195 0270 18       		.uleb128 0x18
 3196 0271 00       		.byte	0
 3197 0272 00       		.byte	0
 3198 0273 31       		.uleb128 0x31
 3199 0274 1D       		.uleb128 0x1d
 3200 0275 01       		.byte	0x1
 3201 0276 31       		.uleb128 0x31
 3202 0277 13       		.uleb128 0x13
 3203 0278 52       		.uleb128 0x52
 3204 0279 01       		.uleb128 0x1
 3205 027a 55       		.uleb128 0x55
 3206 027b 17       		.uleb128 0x17
 3207 027c 58       		.uleb128 0x58
 3208 027d 0B       		.uleb128 0xb
 3209 027e 59       		.uleb128 0x59
 3210 027f 0B       		.uleb128 0xb
 3211 0280 01       		.uleb128 0x1
 3212 0281 13       		.uleb128 0x13
 3213 0282 00       		.byte	0
 3214 0283 00       		.byte	0
 3215 0284 32       		.uleb128 0x32
 3216 0285 898201   		.uleb128 0x4109
 3217 0288 01       		.byte	0x1
 3218 0289 11       		.uleb128 0x11
 3219 028a 01       		.uleb128 0x1
 3220 028b 01       		.uleb128 0x1
 3221 028c 13       		.uleb128 0x13
 3222 028d 00       		.byte	0
 3223 028e 00       		.byte	0
 3224 028f 33       		.uleb128 0x33
 3225 0290 898201   		.uleb128 0x4109
 3226 0293 01       		.byte	0x1
 3227 0294 11       		.uleb128 0x11
 3228 0295 01       		.uleb128 0x1
 3229 0296 00       		.byte	0
 3230 0297 00       		.byte	0
 3231 0298 34       		.uleb128 0x34
 3232 0299 2E       		.uleb128 0x2e
 3233 029a 01       		.byte	0x1
 3234 029b 3F       		.uleb128 0x3f
 3235 029c 19       		.uleb128 0x19
 3236 029d 03       		.uleb128 0x3
 3237 029e 0E       		.uleb128 0xe
 3238 029f 3A       		.uleb128 0x3a
 3239 02a0 0B       		.uleb128 0xb
 3240 02a1 3B       		.uleb128 0x3b
 3241 02a2 05       		.uleb128 0x5
 3242 02a3 27       		.uleb128 0x27
 3243 02a4 19       		.uleb128 0x19
 3244 02a5 49       		.uleb128 0x49
 3245 02a6 13       		.uleb128 0x13
 3246 02a7 11       		.uleb128 0x11
ARM GAS  /tmp/ccIUkKRb.s 			page 58


 3247 02a8 01       		.uleb128 0x1
 3248 02a9 12       		.uleb128 0x12
 3249 02aa 06       		.uleb128 0x6
 3250 02ab 40       		.uleb128 0x40
 3251 02ac 18       		.uleb128 0x18
 3252 02ad 9742     		.uleb128 0x2117
 3253 02af 19       		.uleb128 0x19
 3254 02b0 01       		.uleb128 0x1
 3255 02b1 13       		.uleb128 0x13
 3256 02b2 00       		.byte	0
 3257 02b3 00       		.byte	0
 3258 02b4 35       		.uleb128 0x35
 3259 02b5 05       		.uleb128 0x5
 3260 02b6 00       		.byte	0
 3261 02b7 03       		.uleb128 0x3
 3262 02b8 08       		.uleb128 0x8
 3263 02b9 3A       		.uleb128 0x3a
 3264 02ba 0B       		.uleb128 0xb
 3265 02bb 3B       		.uleb128 0x3b
 3266 02bc 05       		.uleb128 0x5
 3267 02bd 49       		.uleb128 0x49
 3268 02be 13       		.uleb128 0x13
 3269 02bf 02       		.uleb128 0x2
 3270 02c0 17       		.uleb128 0x17
 3271 02c1 00       		.byte	0
 3272 02c2 00       		.byte	0
 3273 02c3 36       		.uleb128 0x36
 3274 02c4 05       		.uleb128 0x5
 3275 02c5 00       		.byte	0
 3276 02c6 03       		.uleb128 0x3
 3277 02c7 08       		.uleb128 0x8
 3278 02c8 3A       		.uleb128 0x3a
 3279 02c9 0B       		.uleb128 0xb
 3280 02ca 3B       		.uleb128 0x3b
 3281 02cb 05       		.uleb128 0x5
 3282 02cc 49       		.uleb128 0x49
 3283 02cd 13       		.uleb128 0x13
 3284 02ce 02       		.uleb128 0x2
 3285 02cf 18       		.uleb128 0x18
 3286 02d0 00       		.byte	0
 3287 02d1 00       		.byte	0
 3288 02d2 37       		.uleb128 0x37
 3289 02d3 18       		.uleb128 0x18
 3290 02d4 00       		.byte	0
 3291 02d5 00       		.byte	0
 3292 02d6 00       		.byte	0
 3293 02d7 38       		.uleb128 0x38
 3294 02d8 34       		.uleb128 0x34
 3295 02d9 00       		.byte	0
 3296 02da 03       		.uleb128 0x3
 3297 02db 08       		.uleb128 0x8
 3298 02dc 3A       		.uleb128 0x3a
 3299 02dd 0B       		.uleb128 0xb
 3300 02de 3B       		.uleb128 0x3b
 3301 02df 05       		.uleb128 0x5
 3302 02e0 49       		.uleb128 0x49
 3303 02e1 13       		.uleb128 0x13
ARM GAS  /tmp/ccIUkKRb.s 			page 59


 3304 02e2 02       		.uleb128 0x2
 3305 02e3 18       		.uleb128 0x18
 3306 02e4 00       		.byte	0
 3307 02e5 00       		.byte	0
 3308 02e6 39       		.uleb128 0x39
 3309 02e7 34       		.uleb128 0x34
 3310 02e8 00       		.byte	0
 3311 02e9 03       		.uleb128 0x3
 3312 02ea 0E       		.uleb128 0xe
 3313 02eb 3A       		.uleb128 0x3a
 3314 02ec 0B       		.uleb128 0xb
 3315 02ed 3B       		.uleb128 0x3b
 3316 02ee 05       		.uleb128 0x5
 3317 02ef 49       		.uleb128 0x49
 3318 02f0 13       		.uleb128 0x13
 3319 02f1 02       		.uleb128 0x2
 3320 02f2 18       		.uleb128 0x18
 3321 02f3 00       		.byte	0
 3322 02f4 00       		.byte	0
 3323 02f5 3A       		.uleb128 0x3a
 3324 02f6 05       		.uleb128 0x5
 3325 02f7 00       		.byte	0
 3326 02f8 03       		.uleb128 0x3
 3327 02f9 0E       		.uleb128 0xe
 3328 02fa 3A       		.uleb128 0x3a
 3329 02fb 0B       		.uleb128 0xb
 3330 02fc 3B       		.uleb128 0x3b
 3331 02fd 05       		.uleb128 0x5
 3332 02fe 49       		.uleb128 0x49
 3333 02ff 13       		.uleb128 0x13
 3334 0300 02       		.uleb128 0x2
 3335 0301 17       		.uleb128 0x17
 3336 0302 00       		.byte	0
 3337 0303 00       		.byte	0
 3338 0304 3B       		.uleb128 0x3b
 3339 0305 34       		.uleb128 0x34
 3340 0306 00       		.byte	0
 3341 0307 03       		.uleb128 0x3
 3342 0308 08       		.uleb128 0x8
 3343 0309 3A       		.uleb128 0x3a
 3344 030a 0B       		.uleb128 0xb
 3345 030b 3B       		.uleb128 0x3b
 3346 030c 05       		.uleb128 0x5
 3347 030d 49       		.uleb128 0x49
 3348 030e 13       		.uleb128 0x13
 3349 030f 02       		.uleb128 0x2
 3350 0310 17       		.uleb128 0x17
 3351 0311 00       		.byte	0
 3352 0312 00       		.byte	0
 3353 0313 3C       		.uleb128 0x3c
 3354 0314 34       		.uleb128 0x34
 3355 0315 00       		.byte	0
 3356 0316 03       		.uleb128 0x3
 3357 0317 0E       		.uleb128 0xe
 3358 0318 3A       		.uleb128 0x3a
 3359 0319 0B       		.uleb128 0xb
 3360 031a 3B       		.uleb128 0x3b
ARM GAS  /tmp/ccIUkKRb.s 			page 60


 3361 031b 05       		.uleb128 0x5
 3362 031c 49       		.uleb128 0x49
 3363 031d 13       		.uleb128 0x13
 3364 031e 02       		.uleb128 0x2
 3365 031f 17       		.uleb128 0x17
 3366 0320 00       		.byte	0
 3367 0321 00       		.byte	0
 3368 0322 3D       		.uleb128 0x3d
 3369 0323 898201   		.uleb128 0x4109
 3370 0326 01       		.byte	0x1
 3371 0327 11       		.uleb128 0x11
 3372 0328 01       		.uleb128 0x1
 3373 0329 31       		.uleb128 0x31
 3374 032a 13       		.uleb128 0x13
 3375 032b 01       		.uleb128 0x1
 3376 032c 13       		.uleb128 0x13
 3377 032d 00       		.byte	0
 3378 032e 00       		.byte	0
 3379 032f 3E       		.uleb128 0x3e
 3380 0330 34       		.uleb128 0x34
 3381 0331 00       		.byte	0
 3382 0332 03       		.uleb128 0x3
 3383 0333 0E       		.uleb128 0xe
 3384 0334 3A       		.uleb128 0x3a
 3385 0335 0B       		.uleb128 0xb
 3386 0336 3B       		.uleb128 0x3b
 3387 0337 05       		.uleb128 0x5
 3388 0338 49       		.uleb128 0x49
 3389 0339 13       		.uleb128 0x13
 3390 033a 3F       		.uleb128 0x3f
 3391 033b 19       		.uleb128 0x19
 3392 033c 3C       		.uleb128 0x3c
 3393 033d 19       		.uleb128 0x19
 3394 033e 00       		.byte	0
 3395 033f 00       		.byte	0
 3396 0340 3F       		.uleb128 0x3f
 3397 0341 34       		.uleb128 0x34
 3398 0342 00       		.byte	0
 3399 0343 03       		.uleb128 0x3
 3400 0344 08       		.uleb128 0x8
 3401 0345 3A       		.uleb128 0x3a
 3402 0346 0B       		.uleb128 0xb
 3403 0347 3B       		.uleb128 0x3b
 3404 0348 05       		.uleb128 0x5
 3405 0349 49       		.uleb128 0x49
 3406 034a 13       		.uleb128 0x13
 3407 034b 3F       		.uleb128 0x3f
 3408 034c 19       		.uleb128 0x19
 3409 034d 3C       		.uleb128 0x3c
 3410 034e 19       		.uleb128 0x19
 3411 034f 00       		.byte	0
 3412 0350 00       		.byte	0
 3413 0351 40       		.uleb128 0x40
 3414 0352 2E       		.uleb128 0x2e
 3415 0353 01       		.byte	0x1
 3416 0354 3F       		.uleb128 0x3f
 3417 0355 19       		.uleb128 0x19
ARM GAS  /tmp/ccIUkKRb.s 			page 61


 3418 0356 03       		.uleb128 0x3
 3419 0357 0E       		.uleb128 0xe
 3420 0358 3A       		.uleb128 0x3a
 3421 0359 0B       		.uleb128 0xb
 3422 035a 3B       		.uleb128 0x3b
 3423 035b 0B       		.uleb128 0xb
 3424 035c 27       		.uleb128 0x27
 3425 035d 19       		.uleb128 0x19
 3426 035e 3C       		.uleb128 0x3c
 3427 035f 19       		.uleb128 0x19
 3428 0360 01       		.uleb128 0x1
 3429 0361 13       		.uleb128 0x13
 3430 0362 00       		.byte	0
 3431 0363 00       		.byte	0
 3432 0364 00       		.byte	0
 3433              		.section	.debug_loc,"",%progbits
 3434              	.Ldebug_loc0:
 3435              	.LLST0:
 3436 0000 00000000 		.4byte	.LVL0
 3437 0004 3A000000 		.4byte	.LVL14
 3438 0008 0100     		.2byte	0x1
 3439 000a 50       		.byte	0x50
 3440 000b 3A000000 		.4byte	.LVL14
 3441 000f 3E000000 		.4byte	.LVL15
 3442 0013 0300     		.2byte	0x3
 3443 0015 70       		.byte	0x70
 3444 0016 7F       		.sleb128 -1
 3445 0017 9F       		.byte	0x9f
 3446 0018 3E000000 		.4byte	.LVL15
 3447 001c 42000000 		.4byte	.LVL16
 3448 0020 0100     		.2byte	0x1
 3449 0022 50       		.byte	0x50
 3450 0023 42000000 		.4byte	.LVL16
 3451 0027 4A000000 		.4byte	.LFE275
 3452 002b 0300     		.2byte	0x3
 3453 002d 70       		.byte	0x70
 3454 002e 7F       		.sleb128 -1
 3455 002f 9F       		.byte	0x9f
 3456 0030 00000000 		.4byte	0
 3457 0034 00000000 		.4byte	0
 3458              	.LLST1:
 3459 0038 00000000 		.4byte	.LVL0
 3460 003c 0C000000 		.4byte	.LVL2
 3461 0040 0100     		.2byte	0x1
 3462 0042 51       		.byte	0x51
 3463 0043 0C000000 		.4byte	.LVL2
 3464 0047 4A000000 		.4byte	.LFE275
 3465 004b 0400     		.2byte	0x4
 3466 004d F3       		.byte	0xf3
 3467 004e 01       		.uleb128 0x1
 3468 004f 51       		.byte	0x51
 3469 0050 9F       		.byte	0x9f
 3470 0051 00000000 		.4byte	0
 3471 0055 00000000 		.4byte	0
 3472              	.LLST2:
 3473 0059 00000000 		.4byte	.LVL0
 3474 005d 36000000 		.4byte	.LVL13
ARM GAS  /tmp/ccIUkKRb.s 			page 62


 3475 0061 0100     		.2byte	0x1
 3476 0063 52       		.byte	0x52
 3477 0064 36000000 		.4byte	.LVL13
 3478 0068 4A000000 		.4byte	.LFE275
 3479 006c 0400     		.2byte	0x4
 3480 006e F3       		.byte	0xf3
 3481 006f 01       		.uleb128 0x1
 3482 0070 52       		.byte	0x52
 3483 0071 9F       		.byte	0x9f
 3484 0072 00000000 		.4byte	0
 3485 0076 00000000 		.4byte	0
 3486              	.LLST3:
 3487 007a 14000000 		.4byte	.LVL3
 3488 007e 18000000 		.4byte	.LVL4
 3489 0082 0100     		.2byte	0x1
 3490 0084 51       		.byte	0x51
 3491 0085 18000000 		.4byte	.LVL4
 3492 0089 22000000 		.4byte	.LVL6
 3493 008d 0100     		.2byte	0x1
 3494 008f 53       		.byte	0x53
 3495 0090 32000000 		.4byte	.LVL11
 3496 0094 48000000 		.4byte	.LVL17
 3497 0098 0600     		.2byte	0x6
 3498 009a 77       		.byte	0x77
 3499 009b 00       		.sleb128 0
 3500 009c 76       		.byte	0x76
 3501 009d 00       		.sleb128 0
 3502 009e 1C       		.byte	0x1c
 3503 009f 9F       		.byte	0x9f
 3504 00a0 00000000 		.4byte	0
 3505 00a4 00000000 		.4byte	0
 3506              	.LLST4:
 3507 00a8 06000000 		.4byte	.LVL1
 3508 00ac 0C000000 		.4byte	.LVL2
 3509 00b0 0100     		.2byte	0x1
 3510 00b2 57       		.byte	0x57
 3511 00b3 0C000000 		.4byte	.LVL2
 3512 00b7 2A000000 		.4byte	.LVL9
 3513 00bb 0300     		.2byte	0x3
 3514 00bd 75       		.byte	0x75
 3515 00be 01       		.sleb128 1
 3516 00bf 9F       		.byte	0x9f
 3517 00c0 2A000000 		.4byte	.LVL9
 3518 00c4 2E000000 		.4byte	.LVL10
 3519 00c8 0100     		.2byte	0x1
 3520 00ca 55       		.byte	0x55
 3521 00cb 2E000000 		.4byte	.LVL10
 3522 00cf 48000000 		.4byte	.LVL17
 3523 00d3 0100     		.2byte	0x1
 3524 00d5 56       		.byte	0x56
 3525 00d6 00000000 		.4byte	0
 3526 00da 00000000 		.4byte	0
 3527              	.LLST5:
 3528 00de 00000000 		.4byte	.LVL0
 3529 00e2 14000000 		.4byte	.LVL3
 3530 00e6 0100     		.2byte	0x1
 3531 00e8 51       		.byte	0x51
ARM GAS  /tmp/ccIUkKRb.s 			page 63


 3532 00e9 2A000000 		.4byte	.LVL9
 3533 00ed 34000000 		.4byte	.LVL12
 3534 00f1 0100     		.2byte	0x1
 3535 00f3 51       		.byte	0x51
 3536 00f4 00000000 		.4byte	0
 3537 00f8 00000000 		.4byte	0
 3538              	.LLST6:
 3539 00fc 00000000 		.4byte	.LVL0
 3540 0100 0C000000 		.4byte	.LVL2
 3541 0104 0100     		.2byte	0x1
 3542 0106 51       		.byte	0x51
 3543 0107 0C000000 		.4byte	.LVL2
 3544 010b 26000000 		.4byte	.LVL7
 3545 010f 0100     		.2byte	0x1
 3546 0111 54       		.byte	0x54
 3547 0112 2A000000 		.4byte	.LVL9
 3548 0116 48000000 		.4byte	.LVL17
 3549 011a 0100     		.2byte	0x1
 3550 011c 54       		.byte	0x54
 3551 011d 00000000 		.4byte	0
 3552 0121 00000000 		.4byte	0
 3553              	.LLST7:
 3554 0125 00000000 		.4byte	.LVL18
 3555 0129 32000000 		.4byte	.LVL20
 3556 012d 0100     		.2byte	0x1
 3557 012f 50       		.byte	0x50
 3558 0130 32000000 		.4byte	.LVL20
 3559 0134 AA020000 		.4byte	.LFE272
 3560 0138 0100     		.2byte	0x1
 3561 013a 5B       		.byte	0x5b
 3562 013b 00000000 		.4byte	0
 3563 013f 00000000 		.4byte	0
 3564              	.LLST8:
 3565 0143 00000000 		.4byte	.LVL18
 3566 0147 32000000 		.4byte	.LVL20
 3567 014b 0100     		.2byte	0x1
 3568 014d 51       		.byte	0x51
 3569 014e 32000000 		.4byte	.LVL20
 3570 0152 36000000 		.4byte	.LVL21
 3571 0156 0100     		.2byte	0x1
 3572 0158 54       		.byte	0x54
 3573 0159 36000000 		.4byte	.LVL21
 3574 015d 47000000 		.4byte	.LVL24-1
 3575 0161 0100     		.2byte	0x1
 3576 0163 53       		.byte	0x53
 3577 0164 47000000 		.4byte	.LVL24-1
 3578 0168 50000000 		.4byte	.LVL26
 3579 016c 0100     		.2byte	0x1
 3580 016e 54       		.byte	0x54
 3581 016f 50000000 		.4byte	.LVL26
 3582 0173 6E000000 		.4byte	.LVL31
 3583 0177 0100     		.2byte	0x1
 3584 0179 53       		.byte	0x53
 3585 017a 6E000000 		.4byte	.LVL31
 3586 017e 76000000 		.4byte	.LVL32
 3587 0182 0300     		.2byte	0x3
 3588 0184 73       		.byte	0x73
ARM GAS  /tmp/ccIUkKRb.s 			page 64


 3589 0185 01       		.sleb128 1
 3590 0186 9F       		.byte	0x9f
 3591 0187 7A000000 		.4byte	.LVL33
 3592 018b 80000000 		.4byte	.LVL34
 3593 018f 0100     		.2byte	0x1
 3594 0191 53       		.byte	0x53
 3595 0192 80000000 		.4byte	.LVL34
 3596 0196 00010000 		.4byte	.LVL45
 3597 019a 0100     		.2byte	0x1
 3598 019c 54       		.byte	0x54
 3599 019d 00010000 		.4byte	.LVL45
 3600 01a1 0C010000 		.4byte	.LVL49
 3601 01a5 0300     		.2byte	0x3
 3602 01a7 74       		.byte	0x74
 3603 01a8 7F       		.sleb128 -1
 3604 01a9 9F       		.byte	0x9f
 3605 01aa 0C010000 		.4byte	.LVL49
 3606 01ae 10010000 		.4byte	.LVL50
 3607 01b2 0100     		.2byte	0x1
 3608 01b4 54       		.byte	0x54
 3609 01b5 10010000 		.4byte	.LVL50
 3610 01b9 1E010000 		.4byte	.LVL51
 3611 01bd 0300     		.2byte	0x3
 3612 01bf 74       		.byte	0x74
 3613 01c0 7F       		.sleb128 -1
 3614 01c1 9F       		.byte	0x9f
 3615 01c2 1E010000 		.4byte	.LVL51
 3616 01c6 AA020000 		.4byte	.LFE272
 3617 01ca 0100     		.2byte	0x1
 3618 01cc 54       		.byte	0x54
 3619 01cd 00000000 		.4byte	0
 3620 01d1 00000000 		.4byte	0
 3621              	.LLST9:
 3622 01d5 00000000 		.4byte	.LVL18
 3623 01d9 2A000000 		.4byte	.LVL19
 3624 01dd 0100     		.2byte	0x1
 3625 01df 52       		.byte	0x52
 3626 01e0 2A000000 		.4byte	.LVL19
 3627 01e4 32000000 		.4byte	.LVL20
 3628 01e8 0300     		.2byte	0x3
 3629 01ea 52       		.byte	0x52
 3630 01eb 93       		.byte	0x93
 3631 01ec 04       		.uleb128 0x4
 3632 01ed 32000000 		.4byte	.LVL20
 3633 01f1 40000000 		.4byte	.LVL23
 3634 01f5 0300     		.2byte	0x3
 3635 01f7 55       		.byte	0x55
 3636 01f8 93       		.byte	0x93
 3637 01f9 04       		.uleb128 0x4
 3638 01fa 4E000000 		.4byte	.LVL25
 3639 01fe 54000000 		.4byte	.LVL27
 3640 0202 0300     		.2byte	0x3
 3641 0204 55       		.byte	0x55
 3642 0205 93       		.byte	0x93
 3643 0206 04       		.uleb128 0x4
 3644 0207 54000000 		.4byte	.LVL27
 3645 020b 5C000000 		.4byte	.LVL28
ARM GAS  /tmp/ccIUkKRb.s 			page 65


 3646 020f 0300     		.2byte	0x3
 3647 0211 55       		.byte	0x55
 3648 0212 93       		.byte	0x93
 3649 0213 04       		.uleb128 0x4
 3650 0214 5C000000 		.4byte	.LVL28
 3651 0218 5E000000 		.4byte	.LVL29
 3652 021c 0300     		.2byte	0x3
 3653 021e 55       		.byte	0x55
 3654 021f 93       		.byte	0x93
 3655 0220 04       		.uleb128 0x4
 3656 0221 80000000 		.4byte	.LVL34
 3657 0225 84000000 		.4byte	.LVL36
 3658 0229 0500     		.2byte	0x5
 3659 022b 75       		.byte	0x75
 3660 022c 04       		.sleb128 4
 3661 022d 9F       		.byte	0x9f
 3662 022e 93       		.byte	0x93
 3663 022f 04       		.uleb128 0x4
 3664 0230 84000000 		.4byte	.LVL36
 3665 0234 8E000000 		.4byte	.LVL38
 3666 0238 0300     		.2byte	0x3
 3667 023a 55       		.byte	0x55
 3668 023b 93       		.byte	0x93
 3669 023c 04       		.uleb128 0x4
 3670 023d 8E000000 		.4byte	.LVL38
 3671 0241 A8000000 		.4byte	.LVL41
 3672 0245 0500     		.2byte	0x5
 3673 0247 75       		.byte	0x75
 3674 0248 04       		.sleb128 4
 3675 0249 9F       		.byte	0x9f
 3676 024a 93       		.byte	0x93
 3677 024b 04       		.uleb128 0x4
 3678 024c A8000000 		.4byte	.LVL41
 3679 0250 00010000 		.4byte	.LVL45
 3680 0254 0300     		.2byte	0x3
 3681 0256 55       		.byte	0x55
 3682 0257 93       		.byte	0x93
 3683 0258 04       		.uleb128 0x4
 3684 0259 00010000 		.4byte	.LVL45
 3685 025d 04010000 		.4byte	.LVL47
 3686 0261 0500     		.2byte	0x5
 3687 0263 75       		.byte	0x75
 3688 0264 04       		.sleb128 4
 3689 0265 9F       		.byte	0x9f
 3690 0266 93       		.byte	0x93
 3691 0267 04       		.uleb128 0x4
 3692 0268 04010000 		.4byte	.LVL47
 3693 026c 0C010000 		.4byte	.LVL49
 3694 0270 0300     		.2byte	0x3
 3695 0272 55       		.byte	0x55
 3696 0273 93       		.byte	0x93
 3697 0274 04       		.uleb128 0x4
 3698 0275 0C010000 		.4byte	.LVL49
 3699 0279 1E010000 		.4byte	.LVL51
 3700 027d 0500     		.2byte	0x5
 3701 027f 75       		.byte	0x75
 3702 0280 04       		.sleb128 4
ARM GAS  /tmp/ccIUkKRb.s 			page 66


 3703 0281 9F       		.byte	0x9f
 3704 0282 93       		.byte	0x93
 3705 0283 04       		.uleb128 0x4
 3706 0284 1E010000 		.4byte	.LVL51
 3707 0288 4A010000 		.4byte	.LVL58
 3708 028c 0300     		.2byte	0x3
 3709 028e 55       		.byte	0x55
 3710 028f 93       		.byte	0x93
 3711 0290 04       		.uleb128 0x4
 3712 0291 4A010000 		.4byte	.LVL58
 3713 0295 F8010000 		.4byte	.LVL82
 3714 0299 0300     		.2byte	0x3
 3715 029b 55       		.byte	0x55
 3716 029c 93       		.byte	0x93
 3717 029d 04       		.uleb128 0x4
 3718 029e F8010000 		.4byte	.LVL82
 3719 02a2 18020000 		.4byte	.LVL84
 3720 02a6 0300     		.2byte	0x3
 3721 02a8 55       		.byte	0x55
 3722 02a9 93       		.byte	0x93
 3723 02aa 04       		.uleb128 0x4
 3724 02ab 18020000 		.4byte	.LVL84
 3725 02af 44020000 		.4byte	.LVL89
 3726 02b3 0300     		.2byte	0x3
 3727 02b5 55       		.byte	0x55
 3728 02b6 93       		.byte	0x93
 3729 02b7 04       		.uleb128 0x4
 3730 02b8 44020000 		.4byte	.LVL89
 3731 02bc 50020000 		.4byte	.LVL91
 3732 02c0 0500     		.2byte	0x5
 3733 02c2 75       		.byte	0x75
 3734 02c3 04       		.sleb128 4
 3735 02c4 9F       		.byte	0x9f
 3736 02c5 93       		.byte	0x93
 3737 02c6 04       		.uleb128 0x4
 3738 02c7 50020000 		.4byte	.LVL91
 3739 02cb AA020000 		.4byte	.LFE272
 3740 02cf 0300     		.2byte	0x3
 3741 02d1 55       		.byte	0x55
 3742 02d2 93       		.byte	0x93
 3743 02d3 04       		.uleb128 0x4
 3744 02d4 00000000 		.4byte	0
 3745 02d8 00000000 		.4byte	0
 3746              	.LLST10:
 3747 02dc 5C000000 		.4byte	.LVL28
 3748 02e0 4A010000 		.4byte	.LVL58
 3749 02e4 0300     		.2byte	0x3
 3750 02e6 91       		.byte	0x91
 3751 02e7 B87F     		.sleb128 -72
 3752 02e9 CA010000 		.4byte	.LVL75
 3753 02ed F8010000 		.4byte	.LVL82
 3754 02f1 0300     		.2byte	0x3
 3755 02f3 91       		.byte	0x91
 3756 02f4 B87F     		.sleb128 -72
 3757 02f6 00020000 		.4byte	.LVL83
 3758 02fa 1E020000 		.4byte	.LVL85
 3759 02fe 0300     		.2byte	0x3
ARM GAS  /tmp/ccIUkKRb.s 			page 67


 3760 0300 91       		.byte	0x91
 3761 0301 B87F     		.sleb128 -72
 3762 0303 1E020000 		.4byte	.LVL85
 3763 0307 28020000 		.4byte	.LVL86
 3764 030b 0200     		.2byte	0x2
 3765 030d 75       		.byte	0x75
 3766 030e 7C       		.sleb128 -4
 3767 030f 28020000 		.4byte	.LVL86
 3768 0313 44020000 		.4byte	.LVL89
 3769 0317 0100     		.2byte	0x1
 3770 0319 53       		.byte	0x53
 3771 031a 44020000 		.4byte	.LVL89
 3772 031e 5A020000 		.4byte	.LVL92
 3773 0322 0300     		.2byte	0x3
 3774 0324 91       		.byte	0x91
 3775 0325 B47F     		.sleb128 -76
 3776 0327 5A020000 		.4byte	.LVL92
 3777 032b 5E020000 		.4byte	.LVL94
 3778 032f 0300     		.2byte	0x3
 3779 0331 91       		.byte	0x91
 3780 0332 B87F     		.sleb128 -72
 3781 0334 5E020000 		.4byte	.LVL94
 3782 0338 6E020000 		.4byte	.LVL96
 3783 033c 0300     		.2byte	0x3
 3784 033e 91       		.byte	0x91
 3785 033f B47F     		.sleb128 -76
 3786 0341 94020000 		.4byte	.LVL103
 3787 0345 A0020000 		.4byte	.LVL104
 3788 0349 0100     		.2byte	0x1
 3789 034b 53       		.byte	0x53
 3790 034c A0020000 		.4byte	.LVL104
 3791 0350 AA020000 		.4byte	.LFE272
 3792 0354 0200     		.2byte	0x2
 3793 0356 75       		.byte	0x75
 3794 0357 7C       		.sleb128 -4
 3795 0358 00000000 		.4byte	0
 3796 035c 00000000 		.4byte	0
 3797              	.LLST11:
 3798 0360 5C000000 		.4byte	.LVL28
 3799 0364 52010000 		.4byte	.LVL59
 3800 0368 0300     		.2byte	0x3
 3801 036a 91       		.byte	0x91
 3802 036b B87F     		.sleb128 -72
 3803 036d 92010000 		.4byte	.LVL68
 3804 0371 9A010000 		.4byte	.LVL69
 3805 0375 0300     		.2byte	0x3
 3806 0377 7A       		.byte	0x7a
 3807 0378 02       		.sleb128 2
 3808 0379 9F       		.byte	0x9f
 3809 037a 9A010000 		.4byte	.LVL69
 3810 037e AC010000 		.4byte	.LVL71
 3811 0382 0300     		.2byte	0x3
 3812 0384 7A       		.byte	0x7a
 3813 0385 01       		.sleb128 1
 3814 0386 9F       		.byte	0x9f
 3815 0387 CA010000 		.4byte	.LVL75
 3816 038b 18020000 		.4byte	.LVL84
ARM GAS  /tmp/ccIUkKRb.s 			page 68


 3817 038f 0300     		.2byte	0x3
 3818 0391 91       		.byte	0x91
 3819 0392 B87F     		.sleb128 -72
 3820 0394 18020000 		.4byte	.LVL84
 3821 0398 44020000 		.4byte	.LVL89
 3822 039c 0200     		.2byte	0x2
 3823 039e 75       		.byte	0x75
 3824 039f 7C       		.sleb128 -4
 3825 03a0 44020000 		.4byte	.LVL89
 3826 03a4 6E020000 		.4byte	.LVL96
 3827 03a8 0300     		.2byte	0x3
 3828 03aa 91       		.byte	0x91
 3829 03ab B87F     		.sleb128 -72
 3830 03ad 74020000 		.4byte	.LVL97
 3831 03b1 8A020000 		.4byte	.LVL100
 3832 03b5 0300     		.2byte	0x3
 3833 03b7 79       		.byte	0x79
 3834 03b8 01       		.sleb128 1
 3835 03b9 9F       		.byte	0x9f
 3836 03ba 8A020000 		.4byte	.LVL100
 3837 03be 94020000 		.4byte	.LVL103
 3838 03c2 0100     		.2byte	0x1
 3839 03c4 59       		.byte	0x59
 3840 03c5 94020000 		.4byte	.LVL103
 3841 03c9 AA020000 		.4byte	.LFE272
 3842 03cd 0200     		.2byte	0x2
 3843 03cf 75       		.byte	0x75
 3844 03d0 7C       		.sleb128 -4
 3845 03d1 00000000 		.4byte	0
 3846 03d5 00000000 		.4byte	0
 3847              	.LLST12:
 3848 03d9 36000000 		.4byte	.LVL21
 3849 03dd 38000000 		.4byte	.LVL22
 3850 03e1 0200     		.2byte	0x2
 3851 03e3 74       		.byte	0x74
 3852 03e4 00       		.sleb128 0
 3853 03e5 50000000 		.4byte	.LVL26
 3854 03e9 54000000 		.4byte	.LVL27
 3855 03ed 0200     		.2byte	0x2
 3856 03ef 74       		.byte	0x74
 3857 03f0 00       		.sleb128 0
 3858 03f1 80000000 		.4byte	.LVL34
 3859 03f5 82000000 		.4byte	.LVL35
 3860 03f9 0100     		.2byte	0x1
 3861 03fb 52       		.byte	0x52
 3862 03fc 82000000 		.4byte	.LVL35
 3863 0400 84000000 		.4byte	.LVL36
 3864 0404 0200     		.2byte	0x2
 3865 0406 75       		.byte	0x75
 3866 0407 00       		.sleb128 0
 3867 0408 84000000 		.4byte	.LVL36
 3868 040c 8E000000 		.4byte	.LVL38
 3869 0410 0100     		.2byte	0x1
 3870 0412 53       		.byte	0x53
 3871 0413 9A000000 		.4byte	.LVL39
 3872 0417 B0000000 		.4byte	.LVL42
 3873 041b 0100     		.2byte	0x1
ARM GAS  /tmp/ccIUkKRb.s 			page 69


 3874 041d 52       		.byte	0x52
 3875 041e B8000000 		.4byte	.LVL43
 3876 0422 BC000000 		.4byte	.LVL44
 3877 0426 0200     		.2byte	0x2
 3878 0428 74       		.byte	0x74
 3879 0429 7F       		.sleb128 -1
 3880 042a BC000000 		.4byte	.LVL44
 3881 042e 00010000 		.4byte	.LVL45
 3882 0432 0100     		.2byte	0x1
 3883 0434 52       		.byte	0x52
 3884 0435 00010000 		.4byte	.LVL45
 3885 0439 02010000 		.4byte	.LVL46
 3886 043d 0200     		.2byte	0x2
 3887 043f 74       		.byte	0x74
 3888 0440 7F       		.sleb128 -1
 3889 0441 02010000 		.4byte	.LVL46
 3890 0445 04010000 		.4byte	.LVL47
 3891 0449 0200     		.2byte	0x2
 3892 044b 75       		.byte	0x75
 3893 044c 00       		.sleb128 0
 3894 044d 04010000 		.4byte	.LVL47
 3895 0451 0C010000 		.4byte	.LVL49
 3896 0455 0100     		.2byte	0x1
 3897 0457 53       		.byte	0x53
 3898 0458 10010000 		.4byte	.LVL50
 3899 045c 26010000 		.4byte	.LVL52
 3900 0460 0200     		.2byte	0x2
 3901 0462 74       		.byte	0x74
 3902 0463 7F       		.sleb128 -1
 3903 0464 36010000 		.4byte	.LVL54
 3904 0468 38010000 		.4byte	.LVL55
 3905 046c 0100     		.2byte	0x1
 3906 046e 52       		.byte	0x52
 3907 046f CA010000 		.4byte	.LVL75
 3908 0473 CE010000 		.4byte	.LVL76
 3909 0477 0200     		.2byte	0x2
 3910 0479 38       		.byte	0x38
 3911 047a 9F       		.byte	0x9f
 3912 047b CE010000 		.4byte	.LVL76
 3913 047f DA010000 		.4byte	.LVL78
 3914 0483 0100     		.2byte	0x1
 3915 0485 52       		.byte	0x52
 3916 0486 00020000 		.4byte	.LVL83
 3917 048a 28020000 		.4byte	.LVL86
 3918 048e 0100     		.2byte	0x1
 3919 0490 52       		.byte	0x52
 3920 0491 44020000 		.4byte	.LVL89
 3921 0495 4A020000 		.4byte	.LVL90
 3922 0499 0100     		.2byte	0x1
 3923 049b 52       		.byte	0x52
 3924 049c 5A020000 		.4byte	.LVL92
 3925 04a0 5C020000 		.4byte	.LVL93
 3926 04a4 0100     		.2byte	0x1
 3927 04a6 52       		.byte	0x52
 3928 04a7 5C020000 		.4byte	.LVL93
 3929 04ab 5E020000 		.4byte	.LVL94
 3930 04af 0400     		.2byte	0x4
ARM GAS  /tmp/ccIUkKRb.s 			page 70


 3931 04b1 73       		.byte	0x73
 3932 04b2 C400     		.sleb128 68
 3933 04b4 9F       		.byte	0x9f
 3934 04b5 5E020000 		.4byte	.LVL94
 3935 04b9 66020000 		.4byte	.LVL95
 3936 04bd 0100     		.2byte	0x1
 3937 04bf 52       		.byte	0x52
 3938 04c0 66020000 		.4byte	.LVL95
 3939 04c4 6E020000 		.4byte	.LVL96
 3940 04c8 0400     		.2byte	0x4
 3941 04ca 73       		.byte	0x73
 3942 04cb C400     		.sleb128 68
 3943 04cd 9F       		.byte	0x9f
 3944 04ce A0020000 		.4byte	.LVL104
 3945 04d2 AA020000 		.4byte	.LFE272
 3946 04d6 0100     		.2byte	0x1
 3947 04d8 52       		.byte	0x52
 3948 04d9 00000000 		.4byte	0
 3949 04dd 00000000 		.4byte	0
 3950              	.LLST13:
 3951 04e1 6E000000 		.4byte	.LVL31
 3952 04e5 7A000000 		.4byte	.LVL33
 3953 04e9 0300     		.2byte	0x3
 3954 04eb 08       		.byte	0x8
 3955 04ec 30       		.byte	0x30
 3956 04ed 9F       		.byte	0x9f
 3957 04ee 7A000000 		.4byte	.LVL33
 3958 04f2 00020000 		.4byte	.LVL83
 3959 04f6 0100     		.2byte	0x1
 3960 04f8 56       		.byte	0x56
 3961 04f9 00020000 		.4byte	.LVL83
 3962 04fd 5A020000 		.4byte	.LVL92
 3963 0501 0300     		.2byte	0x3
 3964 0503 08       		.byte	0x8
 3965 0504 20       		.byte	0x20
 3966 0505 9F       		.byte	0x9f
 3967 0506 5A020000 		.4byte	.LVL92
 3968 050a 94020000 		.4byte	.LVL103
 3969 050e 0100     		.2byte	0x1
 3970 0510 56       		.byte	0x56
 3971 0511 94020000 		.4byte	.LVL103
 3972 0515 AA020000 		.4byte	.LFE272
 3973 0519 0300     		.2byte	0x3
 3974 051b 08       		.byte	0x8
 3975 051c 20       		.byte	0x20
 3976 051d 9F       		.byte	0x9f
 3977 051e 00000000 		.4byte	0
 3978 0522 00000000 		.4byte	0
 3979              	.LLST14:
 3980 0526 52010000 		.4byte	.LVL59
 3981 052a 6C010000 		.4byte	.LVL63
 3982 052e 0100     		.2byte	0x1
 3983 0530 50       		.byte	0x50
 3984 0531 86010000 		.4byte	.LVL67
 3985 0535 92010000 		.4byte	.LVL68
 3986 0539 0300     		.2byte	0x3
 3987 053b 91       		.byte	0x91
ARM GAS  /tmp/ccIUkKRb.s 			page 71


 3988 053c BC7F     		.sleb128 -68
 3989 053e 6E020000 		.4byte	.LVL96
 3990 0542 7A020000 		.4byte	.LVL98
 3991 0546 0100     		.2byte	0x1
 3992 0548 50       		.byte	0x50
 3993 0549 8E020000 		.4byte	.LVL101
 3994 054d 92020000 		.4byte	.LVL102
 3995 0551 0300     		.2byte	0x3
 3996 0553 91       		.byte	0x91
 3997 0554 BC7F     		.sleb128 -68
 3998 0556 92020000 		.4byte	.LVL102
 3999 055a 94020000 		.4byte	.LVL103
 4000 055e 0300     		.2byte	0x3
 4001 0560 7C       		.byte	0x7c
 4002 0561 01       		.sleb128 1
 4003 0562 9F       		.byte	0x9f
 4004 0563 00000000 		.4byte	0
 4005 0567 00000000 		.4byte	0
 4006              	.LLST15:
 4007 056b A0000000 		.4byte	.LVL40
 4008 056f A8000000 		.4byte	.LVL41
 4009 0573 0200     		.2byte	0x2
 4010 0575 30       		.byte	0x30
 4011 0576 9F       		.byte	0x9f
 4012 0577 08010000 		.4byte	.LVL48
 4013 057b 0C010000 		.4byte	.LVL49
 4014 057f 0500     		.2byte	0x5
 4015 0581 71       		.byte	0x71
 4016 0582 00       		.sleb128 0
 4017 0583 31       		.byte	0x31
 4018 0584 24       		.byte	0x24
 4019 0585 9F       		.byte	0x9f
 4020 0586 00000000 		.4byte	0
 4021 058a 00000000 		.4byte	0
 4022              	.LLST16:
 4023 058e 7A000000 		.4byte	.LVL33
 4024 0592 80000000 		.4byte	.LVL34
 4025 0596 0200     		.2byte	0x2
 4026 0598 30       		.byte	0x30
 4027 0599 9F       		.byte	0x9f
 4028 059a 80000000 		.4byte	.LVL34
 4029 059e 88000000 		.4byte	.LVL37
 4030 05a2 0100     		.2byte	0x1
 4031 05a4 57       		.byte	0x57
 4032 05a5 8E000000 		.4byte	.LVL38
 4033 05a9 6E010000 		.4byte	.LVL64
 4034 05ad 0100     		.2byte	0x1
 4035 05af 57       		.byte	0x57
 4036 05b0 6E010000 		.4byte	.LVL64
 4037 05b4 7A010000 		.4byte	.LVL65
 4038 05b8 0100     		.2byte	0x1
 4039 05ba 5A       		.byte	0x5a
 4040 05bb 7A010000 		.4byte	.LVL65
 4041 05bf 7E010000 		.4byte	.LVL66
 4042 05c3 0300     		.2byte	0x3
 4043 05c5 7A       		.byte	0x7a
 4044 05c6 01       		.sleb128 1
ARM GAS  /tmp/ccIUkKRb.s 			page 72


 4045 05c7 9F       		.byte	0x9f
 4046 05c8 7E010000 		.4byte	.LVL66
 4047 05cc 86010000 		.4byte	.LVL67
 4048 05d0 0100     		.2byte	0x1
 4049 05d2 5A       		.byte	0x5a
 4050 05d3 86010000 		.4byte	.LVL67
 4051 05d7 92010000 		.4byte	.LVL68
 4052 05db 0100     		.2byte	0x1
 4053 05dd 57       		.byte	0x57
 4054 05de AC010000 		.4byte	.LVL71
 4055 05e2 B4010000 		.4byte	.LVL72
 4056 05e6 0100     		.2byte	0x1
 4057 05e8 57       		.byte	0x57
 4058 05e9 B4010000 		.4byte	.LVL72
 4059 05ed C0010000 		.4byte	.LVL73
 4060 05f1 0100     		.2byte	0x1
 4061 05f3 59       		.byte	0x59
 4062 05f4 C0010000 		.4byte	.LVL73
 4063 05f8 C4010000 		.4byte	.LVL74
 4064 05fc 0300     		.2byte	0x3
 4065 05fe 79       		.byte	0x79
 4066 05ff 7F       		.sleb128 -1
 4067 0600 9F       		.byte	0x9f
 4068 0601 C4010000 		.4byte	.LVL74
 4069 0605 CA010000 		.4byte	.LVL75
 4070 0609 0100     		.2byte	0x1
 4071 060b 59       		.byte	0x59
 4072 060c CA010000 		.4byte	.LVL75
 4073 0610 AA020000 		.4byte	.LFE272
 4074 0614 0100     		.2byte	0x1
 4075 0616 57       		.byte	0x57
 4076 0617 00000000 		.4byte	0
 4077 061b 00000000 		.4byte	0
 4078              	.LLST17:
 4079 061f 2A000000 		.4byte	.LVL19
 4080 0623 32000000 		.4byte	.LVL20
 4081 0627 0200     		.2byte	0x2
 4082 0629 30       		.byte	0x30
 4083 062a 9F       		.byte	0x9f
 4084 062b 32000000 		.4byte	.LVL20
 4085 062f 6E010000 		.4byte	.LVL64
 4086 0633 0100     		.2byte	0x1
 4087 0635 58       		.byte	0x58
 4088 0636 86010000 		.4byte	.LVL67
 4089 063a 92010000 		.4byte	.LVL68
 4090 063e 0100     		.2byte	0x1
 4091 0640 58       		.byte	0x58
 4092 0641 AC010000 		.4byte	.LVL71
 4093 0645 B4010000 		.4byte	.LVL72
 4094 0649 0100     		.2byte	0x1
 4095 064b 58       		.byte	0x58
 4096 064c CA010000 		.4byte	.LVL75
 4097 0650 AA020000 		.4byte	.LFE272
 4098 0654 0100     		.2byte	0x1
 4099 0656 58       		.byte	0x58
 4100 0657 00000000 		.4byte	0
 4101 065b 00000000 		.4byte	0
ARM GAS  /tmp/ccIUkKRb.s 			page 73


 4102              	.LLST18:
 4103 065f B0000000 		.4byte	.LVL42
 4104 0663 BC000000 		.4byte	.LVL44
 4105 0667 0200     		.2byte	0x2
 4106 0669 31       		.byte	0x31
 4107 066a 9F       		.byte	0x9f
 4108 066b 34010000 		.4byte	.LVL53
 4109 066f 36010000 		.4byte	.LVL54
 4110 0673 0100     		.2byte	0x1
 4111 0675 50       		.byte	0x50
 4112 0676 00000000 		.4byte	0
 4113 067a 00000000 		.4byte	0
 4114              	.LLST19:
 4115 067e 5C000000 		.4byte	.LVL28
 4116 0682 66000000 		.4byte	.LVL30
 4117 0686 0200     		.2byte	0x2
 4118 0688 30       		.byte	0x30
 4119 0689 9F       		.byte	0x9f
 4120 068a 66000000 		.4byte	.LVL30
 4121 068e 6E000000 		.4byte	.LVL31
 4122 0692 0200     		.2byte	0x2
 4123 0694 31       		.byte	0x31
 4124 0695 9F       		.byte	0x9f
 4125 0696 6E000000 		.4byte	.LVL31
 4126 069a 6E010000 		.4byte	.LVL64
 4127 069e 0100     		.2byte	0x1
 4128 06a0 5A       		.byte	0x5a
 4129 06a1 CA010000 		.4byte	.LVL75
 4130 06a5 AA020000 		.4byte	.LFE272
 4131 06a9 0100     		.2byte	0x1
 4132 06ab 5A       		.byte	0x5a
 4133 06ac 00000000 		.4byte	0
 4134 06b0 00000000 		.4byte	0
 4135              	.LLST20:
 4136 06b4 3A010000 		.4byte	.LVL56
 4137 06b8 3F010000 		.4byte	.LVL57-1
 4138 06bc 0100     		.2byte	0x1
 4139 06be 51       		.byte	0x51
 4140 06bf D0010000 		.4byte	.LVL77
 4141 06c3 DE010000 		.4byte	.LVL79
 4142 06c7 0100     		.2byte	0x1
 4143 06c9 51       		.byte	0x51
 4144 06ca DE010000 		.4byte	.LVL79
 4145 06ce E8010000 		.4byte	.LVL80
 4146 06d2 0200     		.2byte	0x2
 4147 06d4 75       		.byte	0x75
 4148 06d5 00       		.sleb128 0
 4149 06d6 00000000 		.4byte	0
 4150 06da 00000000 		.4byte	0
 4151              	.LLST21:
 4152 06de 4A010000 		.4byte	.LVL58
 4153 06e2 52010000 		.4byte	.LVL59
 4154 06e6 0300     		.2byte	0x3
 4155 06e8 91       		.byte	0x91
 4156 06e9 B87F     		.sleb128 -72
 4157 06eb 00000000 		.4byte	0
 4158 06ef 00000000 		.4byte	0
ARM GAS  /tmp/ccIUkKRb.s 			page 74


 4159              	.LLST22:
 4160 06f3 F8010000 		.4byte	.LVL82
 4161 06f7 00020000 		.4byte	.LVL83
 4162 06fb 0200     		.2byte	0x2
 4163 06fd 3A       		.byte	0x3a
 4164 06fe 9F       		.byte	0x9f
 4165 06ff 00000000 		.4byte	0
 4166 0703 00000000 		.4byte	0
 4167              	.LLST23:
 4168 0707 00000000 		.4byte	.LVL105
 4169 070b 13000000 		.4byte	.LVL106-1
 4170 070f 0100     		.2byte	0x1
 4171 0711 50       		.byte	0x50
 4172 0712 13000000 		.4byte	.LVL106-1
 4173 0716 1E000000 		.4byte	.LFE273
 4174 071a 0400     		.2byte	0x4
 4175 071c F3       		.byte	0xf3
 4176 071d 01       		.uleb128 0x1
 4177 071e 50       		.byte	0x50
 4178 071f 9F       		.byte	0x9f
 4179 0720 00000000 		.4byte	0
 4180 0724 00000000 		.4byte	0
 4181              	.LLST24:
 4182 0728 00000000 		.4byte	.LVL107
 4183 072c 10000000 		.4byte	.LVL109
 4184 0730 0100     		.2byte	0x1
 4185 0732 50       		.byte	0x50
 4186 0733 10000000 		.4byte	.LVL109
 4187 0737 38000000 		.4byte	.LVL115
 4188 073b 0100     		.2byte	0x1
 4189 073d 55       		.byte	0x55
 4190 073e 38000000 		.4byte	.LVL115
 4191 0742 3C000000 		.4byte	.LVL116
 4192 0746 0400     		.2byte	0x4
 4193 0748 F3       		.byte	0xf3
 4194 0749 01       		.uleb128 0x1
 4195 074a 50       		.byte	0x50
 4196 074b 9F       		.byte	0x9f
 4197 074c 3C000000 		.4byte	.LVL116
 4198 0750 44000000 		.4byte	.LVL118
 4199 0754 0100     		.2byte	0x1
 4200 0756 50       		.byte	0x50
 4201 0757 44000000 		.4byte	.LVL118
 4202 075b 5C000000 		.4byte	.LVL122
 4203 075f 0100     		.2byte	0x1
 4204 0761 55       		.byte	0x55
 4205 0762 5C000000 		.4byte	.LVL122
 4206 0766 60000000 		.4byte	.LFE274
 4207 076a 0400     		.2byte	0x4
 4208 076c F3       		.byte	0xf3
 4209 076d 01       		.uleb128 0x1
 4210 076e 50       		.byte	0x50
 4211 076f 9F       		.byte	0x9f
 4212 0770 00000000 		.4byte	0
 4213 0774 00000000 		.4byte	0
 4214              	.LLST25:
 4215 0778 00000000 		.4byte	.LVL107
ARM GAS  /tmp/ccIUkKRb.s 			page 75


 4216 077c 12000000 		.4byte	.LVL110
 4217 0780 0100     		.2byte	0x1
 4218 0782 51       		.byte	0x51
 4219 0783 12000000 		.4byte	.LVL110
 4220 0787 38000000 		.4byte	.LVL115
 4221 078b 0100     		.2byte	0x1
 4222 078d 54       		.byte	0x54
 4223 078e 38000000 		.4byte	.LVL115
 4224 0792 3C000000 		.4byte	.LVL116
 4225 0796 0400     		.2byte	0x4
 4226 0798 F3       		.byte	0xf3
 4227 0799 01       		.uleb128 0x1
 4228 079a 51       		.byte	0x51
 4229 079b 9F       		.byte	0x9f
 4230 079c 3C000000 		.4byte	.LVL116
 4231 07a0 42000000 		.4byte	.LVL117
 4232 07a4 0100     		.2byte	0x1
 4233 07a6 51       		.byte	0x51
 4234 07a7 42000000 		.4byte	.LVL117
 4235 07ab 5C000000 		.4byte	.LVL122
 4236 07af 0100     		.2byte	0x1
 4237 07b1 54       		.byte	0x54
 4238 07b2 5C000000 		.4byte	.LVL122
 4239 07b6 60000000 		.4byte	.LFE274
 4240 07ba 0400     		.2byte	0x4
 4241 07bc F3       		.byte	0xf3
 4242 07bd 01       		.uleb128 0x1
 4243 07be 51       		.byte	0x51
 4244 07bf 9F       		.byte	0x9f
 4245 07c0 00000000 		.4byte	0
 4246 07c4 00000000 		.4byte	0
 4247              	.LLST26:
 4248 07c8 1A000000 		.4byte	.LVL112
 4249 07cc 20000000 		.4byte	.LVL113
 4250 07d0 0300     		.2byte	0x3
 4251 07d2 91       		.byte	0x91
 4252 07d3 44       		.sleb128 -60
 4253 07d4 9F       		.byte	0x9f
 4254 07d5 20000000 		.4byte	.LVL113
 4255 07d9 27000000 		.4byte	.LVL114-1
 4256 07dd 0100     		.2byte	0x1
 4257 07df 50       		.byte	0x50
 4258 07e0 27000000 		.4byte	.LVL114-1
 4259 07e4 3C000000 		.4byte	.LVL116
 4260 07e8 0300     		.2byte	0x3
 4261 07ea 91       		.byte	0x91
 4262 07eb 44       		.sleb128 -60
 4263 07ec 9F       		.byte	0x9f
 4264 07ed 48000000 		.4byte	.LVL119
 4265 07f1 4C000000 		.4byte	.LVL120
 4266 07f5 0300     		.2byte	0x3
 4267 07f7 91       		.byte	0x91
 4268 07f8 44       		.sleb128 -60
 4269 07f9 9F       		.byte	0x9f
 4270 07fa 4C000000 		.4byte	.LVL120
 4271 07fe 55000000 		.4byte	.LVL121-1
 4272 0802 0100     		.2byte	0x1
ARM GAS  /tmp/ccIUkKRb.s 			page 76


 4273 0804 50       		.byte	0x50
 4274 0805 55000000 		.4byte	.LVL121-1
 4275 0809 60000000 		.4byte	.LFE274
 4276 080d 0300     		.2byte	0x3
 4277 080f 91       		.byte	0x91
 4278 0810 44       		.sleb128 -60
 4279 0811 9F       		.byte	0x9f
 4280 0812 00000000 		.4byte	0
 4281 0816 00000000 		.4byte	0
 4282              	.LLST27:
 4283 081a 0E000000 		.4byte	.LVL108
 4284 081e 12000000 		.4byte	.LVL110
 4285 0822 0300     		.2byte	0x3
 4286 0824 71       		.byte	0x71
 4287 0825 7F       		.sleb128 -1
 4288 0826 9F       		.byte	0x9f
 4289 0827 12000000 		.4byte	.LVL110
 4290 082b 14000000 		.4byte	.LVL111
 4291 082f 0300     		.2byte	0x3
 4292 0831 74       		.byte	0x74
 4293 0832 7F       		.sleb128 -1
 4294 0833 9F       		.byte	0x9f
 4295 0834 14000000 		.4byte	.LVL111
 4296 0838 19000000 		.4byte	.LVL112-1
 4297 083c 0100     		.2byte	0x1
 4298 083e 52       		.byte	0x52
 4299 083f 19000000 		.4byte	.LVL112-1
 4300 0843 38000000 		.4byte	.LVL115
 4301 0847 0300     		.2byte	0x3
 4302 0849 74       		.byte	0x74
 4303 084a 7F       		.sleb128 -1
 4304 084b 9F       		.byte	0x9f
 4305 084c 38000000 		.4byte	.LVL115
 4306 0850 3C000000 		.4byte	.LVL116
 4307 0854 0600     		.2byte	0x6
 4308 0856 F3       		.byte	0xf3
 4309 0857 01       		.uleb128 0x1
 4310 0858 51       		.byte	0x51
 4311 0859 31       		.byte	0x31
 4312 085a 1C       		.byte	0x1c
 4313 085b 9F       		.byte	0x9f
 4314 085c 3C000000 		.4byte	.LVL116
 4315 0860 60000000 		.4byte	.LFE274
 4316 0864 0200     		.2byte	0x2
 4317 0866 30       		.byte	0x30
 4318 0867 9F       		.byte	0x9f
 4319 0868 00000000 		.4byte	0
 4320 086c 00000000 		.4byte	0
 4321              	.LLST28:
 4322 0870 28000000 		.4byte	.LVL114
 4323 0874 3C000000 		.4byte	.LVL116
 4324 0878 0100     		.2byte	0x1
 4325 087a 50       		.byte	0x50
 4326 087b 56000000 		.4byte	.LVL121
 4327 087f 60000000 		.4byte	.LFE274
 4328 0883 0100     		.2byte	0x1
 4329 0885 50       		.byte	0x50
ARM GAS  /tmp/ccIUkKRb.s 			page 77


 4330 0886 00000000 		.4byte	0
 4331 088a 00000000 		.4byte	0
 4332              		.section	.debug_aranges,"",%progbits
 4333 0000 34000000 		.4byte	0x34
 4334 0004 0200     		.2byte	0x2
 4335 0006 00000000 		.4byte	.Ldebug_info0
 4336 000a 04       		.byte	0x4
 4337 000b 00       		.byte	0
 4338 000c 0000     		.2byte	0
 4339 000e 0000     		.2byte	0
 4340 0010 00000000 		.4byte	.LFB275
 4341 0014 4A000000 		.4byte	.LFE275-.LFB275
 4342 0018 00000000 		.4byte	.LFB272
 4343 001c AA020000 		.4byte	.LFE272-.LFB272
 4344 0020 00000000 		.4byte	.LFB273
 4345 0024 1E000000 		.4byte	.LFE273-.LFB273
 4346 0028 00000000 		.4byte	.LFB274
 4347 002c 60000000 		.4byte	.LFE274-.LFB274
 4348 0030 00000000 		.4byte	0
 4349 0034 00000000 		.4byte	0
 4350              		.section	.debug_ranges,"",%progbits
 4351              	.Ldebug_ranges0:
 4352 0000 D6010000 		.4byte	.LBB8
 4353 0004 DA010000 		.4byte	.LBE8
 4354 0008 E8010000 		.4byte	.LBB11
 4355 000c F6010000 		.4byte	.LBE11
 4356 0010 00000000 		.4byte	0
 4357 0014 00000000 		.4byte	0
 4358 0018 00000000 		.4byte	.LFB275
 4359 001c 4A000000 		.4byte	.LFE275
 4360 0020 00000000 		.4byte	.LFB272
 4361 0024 AA020000 		.4byte	.LFE272
 4362 0028 00000000 		.4byte	.LFB273
 4363 002c 1E000000 		.4byte	.LFE273
 4364 0030 00000000 		.4byte	.LFB274
 4365 0034 60000000 		.4byte	.LFE274
 4366 0038 00000000 		.4byte	0
 4367 003c 00000000 		.4byte	0
 4368              		.section	.debug_line,"",%progbits
 4369              	.Ldebug_line0:
 4370 0000 E1030000 		.section	.debug_str,"MS",%progbits,1
 4370      02008502 
 4370      00000201 
 4370      FB0E0D00 
 4370      01010101 
 4371              	.LASF53:
 4372 0000 72656164 		.ascii	"ready_list_t\000"
 4372      795F6C69 
 4372      73745F74 
 4372      00
 4373              	.LASF2:
 4374 000d 73697A65 		.ascii	"size_t\000"
 4374      5F7400
 4375              	.LASF59:
 4376 0014 64656C74 		.ascii	"delta\000"
 4376      6100
 4377              	.LASF19:
ARM GAS  /tmp/ccIUkKRb.s 			page 78


 4378 001a 75696E74 		.ascii	"uint64_t\000"
 4378      36345F74 
 4378      00
 4379              	.LASF3:
 4380 0023 5F5F7569 		.ascii	"__uint8_t\000"
 4380      6E74385F 
 4380      7400
 4381              	.LASF52:
 4382 002d 70726576 		.ascii	"prev\000"
 4382      00
 4383              	.LASF77:
 4384 0032 706F7274 		.ascii	"port_intctx\000"
 4384      5F696E74 
 4384      63747800 
 4385              	.LASF112:
 4386 003e 76615F6C 		.ascii	"va_list\000"
 4386      69737400 
 4387              	.LASF64:
 4388 0046 73797374 		.ascii	"system_debug_t\000"
 4388      656D5F64 
 4388      65627567 
 4388      5F7400
 4389              	.LASF83:
 4390 0055 74797065 		.ascii	"type\000"
 4390      00
 4391              	.LASF132:
 4392 005a 474E5520 		.ascii	"GNU C 4.8.2 -mcpu=cortex-m4 -mno-thumb-interwork -m"
 4392      4320342E 
 4392      382E3220 
 4392      2D6D6370 
 4392      753D636F 
 4393 008d 7468756D 		.ascii	"thumb -ggdb -O2 -fomit-frame-pointer -falign-functi"
 4393      62202D67 
 4393      67646220 
 4393      2D4F3220 
 4393      2D666F6D 
 4394 00c0 6F6E733D 		.ascii	"ons=16 -ffunction-sections -fdata-sections -fno-com"
 4394      3136202D 
 4394      6666756E 
 4394      6374696F 
 4394      6E2D7365 
 4395 00f3 6D6F6E00 		.ascii	"mon\000"
 4396              	.LASF87:
 4397 00f7 73757370 		.ascii	"suspended\000"
 4397      656E6465 
 4397      6400
 4398              	.LASF129:
 4399 0101 73697A65 		.ascii	"size_wo_nul\000"
 4399      5F776F5F 
 4399      6E756C00 
 4400              	.LASF14:
 4401 010d 6C6F6E67 		.ascii	"long long unsigned int\000"
 4401      206C6F6E 
 4401      6720756E 
 4401      7369676E 
 4401      65642069 
 4402              	.LASF127:
ARM GAS  /tmp/ccIUkKRb.s 			page 79


 4403 0124 666F726D 		.ascii	"formatted_bytes\000"
 4403      61747465 
 4403      645F6279 
 4403      74657300 
 4404              	.LASF94:
 4405 0134 65786974 		.ascii	"exitcode\000"
 4405      636F6465 
 4405      00
 4406              	.LASF72:
 4407 013d 6D61696E 		.ascii	"mainthread\000"
 4407      74687265 
 4407      616400
 4408              	.LASF96:
 4409 0148 73656E74 		.ascii	"sentmsg\000"
 4409      6D736700 
 4410              	.LASF61:
 4411 0150 76697274 		.ascii	"virtual_timers_list_t\000"
 4411      75616C5F 
 4411      74696D65 
 4411      72735F6C 
 4411      6973745F 
 4412              	.LASF131:
 4413 0166 49544D5F 		.ascii	"ITM_RxBuffer\000"
 4413      52784275 
 4413      66666572 
 4413      00
 4414              	.LASF60:
 4415 0173 66756E63 		.ascii	"func\000"
 4415      00
 4416              	.LASF49:
 4417 0178 6E657874 		.ascii	"next\000"
 4417      00
 4418              	.LASF51:
 4419 017d 63685F74 		.ascii	"ch_threads_queue\000"
 4419      68726561 
 4419      64735F71 
 4419      75657565 
 4419      00
 4420              	.LASF12:
 4421 018e 6C6F6E67 		.ascii	"long long int\000"
 4421      206C6F6E 
 4421      6720696E 
 4421      7400
 4422              	.LASF1:
 4423 019c 7369676E 		.ascii	"signed char\000"
 4423      65642063 
 4423      68617200 
 4424              	.LASF11:
 4425 01a8 6C6F6E67 		.ascii	"long unsigned int\000"
 4425      20756E73 
 4425      69676E65 
 4425      6420696E 
 4425      7400
 4426              	.LASF88:
 4427 01ba 73697A65 		.ascii	"size\000"
 4427      00
 4428              	.LASF124:
ARM GAS  /tmp/ccIUkKRb.s 			page 80


 4429 01bf 746D7062 		.ascii	"tmpbuf\000"
 4429      756600
 4430              	.LASF36:
 4431 01c6 73746174 		.ascii	"state\000"
 4431      6500
 4432              	.LASF9:
 4433 01cc 6C6F6E67 		.ascii	"long int\000"
 4433      20696E74 
 4433      00
 4434              	.LASF22:
 4435 01d5 74737461 		.ascii	"tstate_t\000"
 4435      74655F74 
 4435      00
 4436              	.LASF86:
 4437 01de 63685F74 		.ascii	"ch_trace_event_t\000"
 4437      72616365 
 4437      5F657665 
 4437      6E745F74 
 4437      00
 4438              	.LASF110:
 4439 01ef 5F5F7661 		.ascii	"__va_list\000"
 4439      5F6C6973 
 4439      7400
 4440              	.LASF130:
 4441 01f9 72657476 		.ascii	"retval\000"
 4441      616C00
 4442              	.LASF16:
 4443 0200 75696E74 		.ascii	"uint16_t\000"
 4443      31365F74 
 4443      00
 4444              	.LASF89:
 4445 0209 62756666 		.ascii	"buffer\000"
 4445      657200
 4446              	.LASF10:
 4447 0210 5F5F7569 		.ascii	"__uint32_t\000"
 4447      6E743332 
 4447      5F7400
 4448              	.LASF74:
 4449 021b 72656761 		.ascii	"regarm_t\000"
 4449      726D5F74 
 4449      00
 4450              	.LASF71:
 4451 0224 76746C69 		.ascii	"vtlist\000"
 4451      737400
 4452              	.LASF119:
 4453 022b 66696C6C 		.ascii	"filler\000"
 4453      657200
 4454              	.LASF39:
 4455 0232 77616974 		.ascii	"waiting\000"
 4455      696E6700 
 4456              	.LASF122:
 4457 023a 69735F6C 		.ascii	"is_long\000"
 4457      6F6E6700 
 4458              	.LASF103:
 4459 0242 6D757465 		.ascii	"mutex_t\000"
 4459      785F7400 
 4460              	.LASF107:
ARM GAS  /tmp/ccIUkKRb.s 			page 81


 4461 024a 42617365 		.ascii	"BaseSequentialStream\000"
 4461      53657175 
 4461      656E7469 
 4461      616C5374 
 4461      7265616D 
 4462              	.LASF27:
 4463 025f 636E745F 		.ascii	"cnt_t\000"
 4463      7400
 4464              	.LASF40:
 4465 0265 6D736771 		.ascii	"msgqueue\000"
 4465      75657565 
 4465      00
 4466              	.LASF0:
 4467 026e 756E7369 		.ascii	"unsigned int\000"
 4467      676E6564 
 4467      20696E74 
 4467      00
 4468              	.LASF134:
 4469 027b 2F686F6D 		.ascii	"/home/johnnyco/Documentos/Embebidos/Chibios Johnny/"
 4469      652F6A6F 
 4469      686E6E79 
 4469      636F2F44 
 4469      6F63756D 
 4470 02ae 43686962 		.ascii	"ChibiOS-Contrib/testhal/STM32/STM32F4xx/1WIRE + RTC"
 4470      694F532D 
 4470      436F6E74 
 4470      7269622F 
 4470      74657374 
 4471 02e1 202B2055 		.ascii	" + UART + PWM + ADC 1.0\000"
 4471      41525420 
 4471      2B205057 
 4471      4D202B20 
 4471      41444320 
 4472              	.LASF97:
 4473 02f9 77747365 		.ascii	"wtsemp\000"
 4473      6D7000
 4474              	.LASF95:
 4475 0300 77747472 		.ascii	"wttrp\000"
 4475      7000
 4476              	.LASF123:
 4477 0306 6C656674 		.ascii	"left_align\000"
 4477      5F616C69 
 4477      676E00
 4478              	.LASF34:
 4479 0311 6E616D65 		.ascii	"name\000"
 4479      00
 4480              	.LASF30:
 4481 0316 71756575 		.ascii	"queue\000"
 4481      6500
 4482              	.LASF121:
 4483 031c 77696474 		.ascii	"width\000"
 4483      6800
 4484              	.LASF44:
 4485 0322 6D706F6F 		.ascii	"mpool\000"
 4485      6C00
 4486              	.LASF7:
 4487 0328 73686F72 		.ascii	"short unsigned int\000"
ARM GAS  /tmp/ccIUkKRb.s 			page 82


 4487      7420756E 
 4487      7369676E 
 4487      65642069 
 4487      6E7400
 4488              	.LASF47:
 4489 033b 63685F74 		.ascii	"ch_thread\000"
 4489      68726561 
 4489      6400
 4490              	.LASF25:
 4491 0345 6D73675F 		.ascii	"msg_t\000"
 4491      7400
 4492              	.LASF41:
 4493 034b 6570656E 		.ascii	"epending\000"
 4493      64696E67 
 4493      00
 4494              	.LASF106:
 4495 0354 72656164 		.ascii	"read\000"
 4495      00
 4496              	.LASF21:
 4497 0359 746D6F64 		.ascii	"tmode_t\000"
 4497      655F7400 
 4498              	.LASF54:
 4499 0361 63685F72 		.ascii	"ch_ready_list\000"
 4499      65616479 
 4499      5F6C6973 
 4499      7400
 4500              	.LASF26:
 4501 036f 6576656E 		.ascii	"eventmask_t\000"
 4501      746D6173 
 4501      6B5F7400 
 4502              	.LASF8:
 4503 037b 5F5F696E 		.ascii	"__int32_t\000"
 4503      7433325F 
 4503      7400
 4504              	.LASF75:
 4505 0385 73746B61 		.ascii	"stkalign_t\000"
 4505      6C69676E 
 4505      5F7400
 4506              	.LASF32:
 4507 0390 6E657765 		.ascii	"newer\000"
 4507      7200
 4508              	.LASF84:
 4509 0396 72747374 		.ascii	"rtstamp\000"
 4509      616D7000 
 4510              	.LASF105:
 4511 039e 77726974 		.ascii	"write\000"
 4511      6500
 4512              	.LASF43:
 4513 03a4 7265616C 		.ascii	"realprio\000"
 4513      7072696F 
 4513      00
 4514              	.LASF73:
 4515 03ad 73697A65 		.ascii	"sizetype\000"
 4515      74797065 
 4515      00
 4516              	.LASF45:
 4517 03b6 74687265 		.ascii	"thread_reference_t\000"
ARM GAS  /tmp/ccIUkKRb.s 			page 83


 4517      61645F72 
 4517      65666572 
 4517      656E6365 
 4517      5F7400
 4518              	.LASF62:
 4519 03c9 63685F76 		.ascii	"ch_virtual_timers_list\000"
 4519      69727475 
 4519      616C5F74 
 4519      696D6572 
 4519      735F6C69 
 4520              	.LASF135:
 4521 03e0 756E7369 		.ascii	"unsigned_common\000"
 4521      676E6564 
 4521      5F636F6D 
 4521      6D6F6E00 
 4522              	.LASF118:
 4523 03f0 64697669 		.ascii	"divisor\000"
 4523      736F7200 
 4524              	.LASF109:
 4525 03f8 5F5F676E 		.ascii	"__gnuc_va_list\000"
 4525      75635F76 
 4525      615F6C69 
 4525      737400
 4526              	.LASF136:
 4527 0407 6D734F62 		.ascii	"msObjectInit\000"
 4527      6A656374 
 4527      496E6974 
 4527      00
 4528              	.LASF133:
 4529 0414 2E2E2F2E 		.ascii	"../../../../../ChibiOS-RT/os/hal/lib/streams/chprin"
 4529      2E2F2E2E 
 4529      2F2E2E2F 
 4529      2E2E2F43 
 4529      68696269 
 4530 0447 74662E63 		.ascii	"tf.c\000"
 4530      00
 4531              	.LASF90:
 4532 044c 63685F74 		.ascii	"ch_trace_buffer_t\000"
 4532      72616365 
 4532      5F627566 
 4532      6665725F 
 4532      7400
 4533              	.LASF93:
 4534 045e 7264796D 		.ascii	"rdymsg\000"
 4534      736700
 4535              	.LASF76:
 4536 0465 706F7274 		.ascii	"port_context\000"
 4536      5F636F6E 
 4536      74657874 
 4536      00
 4537              	.LASF92:
 4538 0472 746D5F63 		.ascii	"tm_calibration_t\000"
 4538      616C6962 
 4538      72617469 
 4538      6F6E5F74 
 4538      00
 4539              	.LASF85:
ARM GAS  /tmp/ccIUkKRb.s 			page 84


 4540 0483 74696D65 		.ascii	"time\000"
 4540      00
 4541              	.LASF31:
 4542 0488 7072696F 		.ascii	"prio\000"
 4542      00
 4543              	.LASF55:
 4544 048d 63757272 		.ascii	"current\000"
 4544      656E7400 
 4545              	.LASF113:
 4546 0495 4D656D53 		.ascii	"MemStreamVMT\000"
 4546      74726561 
 4546      6D564D54 
 4546      00
 4547              	.LASF13:
 4548 04a2 5F5F7569 		.ascii	"__uint64_t\000"
 4548      6E743634 
 4548      5F7400
 4549              	.LASF38:
 4550 04ad 72656673 		.ascii	"refs\000"
 4550      00
 4551              	.LASF57:
 4552 04b2 76697274 		.ascii	"virtual_timer_t\000"
 4552      75616C5F 
 4552      74696D65 
 4552      725F7400 
 4553              	.LASF82:
 4554 04c2 75736572 		.ascii	"user\000"
 4554      00
 4555              	.LASF24:
 4556 04c7 74707269 		.ascii	"tprio_t\000"
 4556      6F5F7400 
 4557              	.LASF114:
 4558 04cf 4D656D6F 		.ascii	"MemoryStream\000"
 4558      72795374 
 4558      7265616D 
 4558      00
 4559              	.LASF65:
 4560 04dc 63685F73 		.ascii	"ch_system_debug\000"
 4560      79737465 
 4560      6D5F6465 
 4560      62756700 
 4561              	.LASF108:
 4562 04ec 5F426F6F 		.ascii	"_Bool\000"
 4562      6C00
 4563              	.LASF17:
 4564 04f2 696E7433 		.ascii	"int32_t\000"
 4564      325F7400 
 4565              	.LASF4:
 4566 04fa 756E7369 		.ascii	"unsigned char\000"
 4566      676E6564 
 4566      20636861 
 4566      7200
 4567              	.LASF5:
 4568 0508 73686F72 		.ascii	"short int\000"
 4568      7420696E 
 4568      7400
 4569              	.LASF63:
ARM GAS  /tmp/ccIUkKRb.s 			page 85


 4570 0512 6C617374 		.ascii	"lasttime\000"
 4570      74696D65 
 4570      00
 4571              	.LASF81:
 4572 051b 68616C74 		.ascii	"halt\000"
 4572      00
 4573              	.LASF99:
 4574 0520 65776D61 		.ascii	"ewmask\000"
 4574      736B00
 4575              	.LASF69:
 4576 0527 63685F73 		.ascii	"ch_system\000"
 4576      79737465 
 4576      6D00
 4577              	.LASF104:
 4578 0531 42617365 		.ascii	"BaseSequentialStreamVMT\000"
 4578      53657175 
 4578      656E7469 
 4578      616C5374 
 4578      7265616D 
 4579              	.LASF115:
 4580 0549 72616469 		.ascii	"radix\000"
 4580      7800
 4581              	.LASF80:
 4582 054f 72656173 		.ascii	"reason\000"
 4582      6F6E00
 4583              	.LASF58:
 4584 0556 63685F76 		.ascii	"ch_virtual_timer\000"
 4584      69727475 
 4584      616C5F74 
 4584      696D6572 
 4584      00
 4585              	.LASF100:
 4586 0567 63685F73 		.ascii	"ch_semaphore\000"
 4586      656D6170 
 4586      686F7265 
 4586      00
 4587              	.LASF18:
 4588 0574 75696E74 		.ascii	"uint32_t\000"
 4588      33325F74 
 4588      00
 4589              	.LASF98:
 4590 057d 77746D74 		.ascii	"wtmtxp\000"
 4590      787000
 4591              	.LASF23:
 4592 0584 74726566 		.ascii	"trefs_t\000"
 4592      735F7400 
 4593              	.LASF48:
 4594 058c 63685F74 		.ascii	"ch_threads_list\000"
 4594      68726561 
 4594      64735F6C 
 4594      69737400 
 4595              	.LASF102:
 4596 059c 6F776E65 		.ascii	"owner\000"
 4596      7200
 4597              	.LASF128:
 4598 05a2 6368736E 		.ascii	"chsnprintf\000"
 4598      7072696E 
ARM GAS  /tmp/ccIUkKRb.s 			page 86


 4598      746600
 4599              	.LASF35:
 4600 05ad 77616261 		.ascii	"wabase\000"
 4600      736500
 4601              	.LASF79:
 4602 05b4 63686172 		.ascii	"char\000"
 4602      00
 4603              	.LASF33:
 4604 05b9 6F6C6465 		.ascii	"older\000"
 4604      7200
 4605              	.LASF6:
 4606 05bf 5F5F7569 		.ascii	"__uint16_t\000"
 4606      6E743136 
 4606      5F7400
 4607              	.LASF120:
 4608 05ca 70726563 		.ascii	"precision\000"
 4608      6973696F 
 4608      6E00
 4609              	.LASF29:
 4610 05d4 74687265 		.ascii	"thread_t\000"
 4610      61645F74 
 4610      00
 4611              	.LASF28:
 4612 05dd 73797374 		.ascii	"systime_t\000"
 4612      696D655F 
 4612      7400
 4613              	.LASF56:
 4614 05e7 76746675 		.ascii	"vtfunc_t\000"
 4614      6E635F74 
 4614      00
 4615              	.LASF66:
 4616 05f0 70616E69 		.ascii	"panic_msg\000"
 4616      635F6D73 
 4616      6700
 4617              	.LASF91:
 4618 05fa 6F666673 		.ascii	"offset\000"
 4618      657400
 4619              	.LASF111:
 4620 0601 5F5F6170 		.ascii	"__ap\000"
 4620      00
 4621              	.LASF68:
 4622 0606 63685F73 		.ascii	"ch_system_t\000"
 4622      79737465 
 4622      6D5F7400 
 4623              	.LASF20:
 4624 0612 7274636E 		.ascii	"rtcnt_t\000"
 4624      745F7400 
 4625              	.LASF50:
 4626 061a 74687265 		.ascii	"threads_queue_t\000"
 4626      6164735F 
 4626      71756575 
 4626      655F7400 
 4627              	.LASF101:
 4628 062a 63685F6D 		.ascii	"ch_mutex\000"
 4628      75746578 
 4628      00
 4629              	.LASF116:
ARM GAS  /tmp/ccIUkKRb.s 			page 87


 4630 0633 63685F6C 		.ascii	"ch_ltoa\000"
 4630      746F6100 
 4631              	.LASF70:
 4632 063b 726C6973 		.ascii	"rlist\000"
 4632      7400
 4633              	.LASF15:
 4634 0641 75696E74 		.ascii	"uint8_t\000"
 4634      385F7400 
 4635              	.LASF125:
 4636 0649 63687670 		.ascii	"chvprintf\000"
 4636      72696E74 
 4636      6600
 4637              	.LASF37:
 4638 0653 666C6167 		.ascii	"flags\000"
 4638      7300
 4639              	.LASF78:
 4640 0659 77746F62 		.ascii	"wtobjp\000"
 4640      6A7000
 4641              	.LASF117:
 4642 0660 6C6F6E67 		.ascii	"long_to_string_with_divisor\000"
 4642      5F746F5F 
 4642      73747269 
 4642      6E675F77 
 4642      6974685F 
 4643              	.LASF46:
 4644 067c 74687265 		.ascii	"threads_list_t\000"
 4644      6164735F 
 4644      6C697374 
 4644      5F7400
 4645              	.LASF67:
 4646 068b 74726163 		.ascii	"trace_buffer\000"
 4646      655F6275 
 4646      66666572 
 4646      00
 4647              	.LASF42:
 4648 0698 6D74786C 		.ascii	"mtxlist\000"
 4648      69737400 
 4649              	.LASF126:
 4650 06a0 63687072 		.ascii	"chprintf\000"
 4650      696E7466 
 4650      00
 4651              		.ident	"GCC: (4.8.2-14ubuntu1+6) 4.8.2"
ARM GAS  /tmp/ccIUkKRb.s 			page 88


DEFINED SYMBOLS
                            *ABS*:0000000000000000 chprintf.c
     /tmp/ccIUkKRb.s:19     .text.long_to_string_with_divisor.constprop.0:0000000000000000 $t
     /tmp/ccIUkKRb.s:24     .text.long_to_string_with_divisor.constprop.0:0000000000000000 long_to_string_with_divisor.constprop.0
     /tmp/ccIUkKRb.s:103    .text.chvprintf:0000000000000000 $t
     /tmp/ccIUkKRb.s:109    .text.chvprintf:0000000000000000 chvprintf
     /tmp/ccIUkKRb.s:810    .rodata.str1.4:0000000000000000 .LC0
     /tmp/ccIUkKRb.s:281    .text.chvprintf:00000000000000ca $d
     /tmp/ccIUkKRb.s:662    .text.chprintf:0000000000000000 $t
     /tmp/ccIUkKRb.s:668    .text.chprintf:0000000000000000 chprintf
     /tmp/ccIUkKRb.s:705    .text.chsnprintf:0000000000000000 $t
     /tmp/ccIUkKRb.s:711    .text.chsnprintf:0000000000000000 chsnprintf
     /tmp/ccIUkKRb.s:809    .rodata.str1.4:0000000000000000 $d
                     .debug_frame:0000000000000010 $d
     /tmp/ccIUkKRb.s:334    .text.chvprintf:00000000000000ff $d
     /tmp/ccIUkKRb.s:334    .text.chvprintf:0000000000000100 $t

UNDEFINED SYMBOLS
msObjectInit
