ARM GAS  /tmp/ccIUkKRb.s 			page 1


   1              		.syntax unified
   2              		.cpu cortex-m4
   3              		.fpu softvfp
   4              		.eabi_attribute 20, 1
   5              		.eabi_attribute 21, 1
   6              		.eabi_attribute 23, 3
   7              		.eabi_attribute 24, 1
   8              		.eabi_attribute 25, 1
   9              		.eabi_attribute 26, 1
  10              		.eabi_attribute 30, 2
  11              		.eabi_attribute 34, 1
  12              		.eabi_attribute 18, 4
  13              		.thumb
  14              		.file	"chprintf.c"
  15              		.text
  16              	.Ltext0:
  17              		.cfi_sections	.debug_frame
  18              		.section	.text.long_to_string_with_divisor.constprop.0,"ax",%progbits
  19              		.align	2
  20              		.p2align 4,,15
  21              		.thumb
  22              		.thumb_func
  23              		.type	long_to_string_with_divisor.constprop.0, %function
  24              	long_to_string_with_divisor.constprop.0:
  25              	.LFB275:
  26              		.file 1 "../../../../../ChibiOS-RT/os/hal/lib/streams/chprintf.c"
  27              		.loc 1 37 0
  28              		.cfi_startproc
  29              		@ args = 0, pretend = 0, frame = 0
  30              		@ frame_needed = 0, uses_anonymous_args = 0
  31              		@ link register save eliminated.
  32              	.LVL0:
  33 0000 F0B4     		push	{r4, r5, r6, r7}
  34              		.cfi_def_cfa_offset 16
  35              		.cfi_offset 4, -16
  36              		.cfi_offset 5, -12
  37              		.cfi_offset 6, -8
  38              		.cfi_offset 7, -4
  39              		.loc 1 52 0
  40 0002 00F10B07 		add	r7, r0, #11
  41              	.LVL1:
  42 0006 00F10A05 		add	r5, r0, #10
  43 000a 0C46     		mov	r4, r1
  44              	.LVL2:
  45              	.L4:
  46              		.loc 1 54 0
  47 000c B1FBF2F6 		udiv	r6, r1, r2
  48 0010 02FB1611 		mls	r1, r2, r6, r1
  49              	.LVL3:
  50              		.loc 1 55 0
  51 0014 01F13003 		add	r3, r1, #48
  52              	.LVL4:
  53              		.loc 1 56 0
  54 0018 392B     		cmp	r3, #57
  55              		.loc 1 57 0
  56 001a C8BF     		it	gt
  57 001c 01F13703 		addgt	r3, r1, #55
ARM GAS  /tmp/ccIUkKRb.s 			page 2


  58              	.LVL5:
  59              		.loc 1 58 0
  60 0020 DBB2     		uxtb	r3, r3
  61              	.LVL6:
  62              		.loc 1 60 0
  63 0022 B4FBF2F4 		udiv	r4, r4, r2
  64              	.LVL7:
  65              		.loc 1 59 0
  66 0026 3146     		mov	r1, r6
  67              	.LVL8:
  68              		.loc 1 58 0
  69 0028 2E46     		mov	r6, r5
  70              	.LVL9:
  71 002a 05F80139 		strb	r3, [r5], #-1
  72              	.LVL10:
  73              		.loc 1 60 0
  74 002e 002C     		cmp	r4, #0
  75 0030 ECD1     		bne	.L4
  76              	.LVL11:
  77              		.loc 1 62 0
  78 0032 B91B     		subs	r1, r7, r6
  79              	.LVL12:
  80 0034 3246     		mov	r2, r6
  81              	.LVL13:
  82 0036 0144     		add	r1, r1, r0
  83 0038 01E0     		b	.L6
  84              	.LVL14:
  85              	.L9:
  86 003a 12F8013F 		ldrb	r3, [r2, #1]!	@ zero_extendqisi2
  87              	.LVL15:
  88              	.L6:
  89              		.loc 1 64 0
  90 003e 00F8013B 		strb	r3, [r0], #1
  91              	.LVL16:
  92              		.loc 1 65 0
  93 0042 8842     		cmp	r0, r1
  94 0044 F9D1     		bne	.L9
  95              		.loc 1 68 0
  96 0046 F0BC     		pop	{r4, r5, r6, r7}
  97              	.LVL17:
  98 0048 7047     		bx	lr
  99              		.cfi_endproc
 100              	.LFE275:
 101              		.size	long_to_string_with_divisor.constprop.0, .-long_to_string_with_divisor.constprop.0
 102 004a 00BFAFF3 		.section	.text.chvprintf,"ax",%progbits
 102      0080
 103              		.align	2
 104              		.p2align 4,,15
 105              		.global	chvprintf
 106              		.thumb
 107              		.thumb_func
 108              		.type	chvprintf, %function
 109              	chvprintf:
 110              	.LFB272:
 111              		.loc 1 121 0
 112              		.cfi_startproc
 113              		@ args = 0, pretend = 0, frame = 40
ARM GAS  /tmp/ccIUkKRb.s 			page 3


 114              		@ frame_needed = 0, uses_anonymous_args = 0
 115              	.LVL18:
 116 0000 2DE9F04F 		push	{r4, r5, r6, r7, r8, r9, r10, fp, lr}
 117              		.cfi_def_cfa_offset 36
 118              		.cfi_offset 4, -36
 119              		.cfi_offset 5, -32
 120              		.cfi_offset 6, -28
 121              		.cfi_offset 7, -24
 122              		.cfi_offset 8, -20
 123              		.cfi_offset 9, -16
 124              		.cfi_offset 10, -12
 125              		.cfi_offset 11, -8
 126              		.cfi_offset 14, -4
 127 0004 8BB0     		sub	sp, sp, #44
 128              		.cfi_def_cfa_offset 80
 129 0006 07AB     		add	r3, sp, #28
 130 0008 0293     		str	r3, [sp, #8]
 131 000a 029B     		ldr	r3, [sp, #8]
 132 000c 0DF11D0C 		add	ip, sp, #29
 133 0010 CDF804C0 		str	ip, [sp, #4]
 134 0014 C3EB0C0C 		rsb	ip, r3, ip
 135 0018 CDF810C0 		str	ip, [sp, #16]
 136              		.loc 1 198 0
 137 001c 40F2000C 		movw	ip, #:lower16:.LC0
 138 0020 C0F2000C 		movt	ip, #:upper16:.LC0
 139              		.loc 1 121 0
 140 0024 8346     		mov	fp, r0
 141 0026 0C46     		mov	r4, r1
 142 0028 1546     		mov	r5, r2
 143              	.LVL19:
 144              		.loc 1 198 0
 145 002a CDF814C0 		str	ip, [sp, #20]
 146              		.loc 1 124 0
 147 002e 4FF00008 		mov	r8, #0
 148              	.LVL20:
 149              	.L11:
 150              		.loc 1 135 0
 151 0032 2178     		ldrb	r1, [r4]	@ zero_extendqisi2
 152 0034 631C     		adds	r3, r4, #1
 153              	.LVL21:
 154              		.loc 1 136 0
 155 0036 69B1     		cbz	r1, .L68
 156              	.LVL22:
 157              	.L71:
 158              		.loc 1 138 0
 159 0038 2529     		cmp	r1, #37
 160 003a 0FD0     		beq	.L13
 161              		.loc 1 139 0
 162 003c DBF80020 		ldr	r2, [fp]
 163              	.LVL23:
 164              		.loc 1 135 0
 165 0040 1C46     		mov	r4, r3
 166              		.loc 1 139 0
 167 0042 9268     		ldr	r2, [r2, #8]
 168 0044 5846     		mov	r0, fp
 169 0046 9047     		blx	r2
 170              	.LVL24:
ARM GAS  /tmp/ccIUkKRb.s 			page 4


 171              		.loc 1 135 0
 172 0048 2178     		ldrb	r1, [r4]	@ zero_extendqisi2
 173              		.loc 1 140 0
 174 004a 08F10108 		add	r8, r8, #1
 175              	.LVL25:
 176              		.loc 1 135 0
 177 004e 631C     		adds	r3, r4, #1
 178              	.LVL26:
 179              		.loc 1 136 0
 180 0050 0029     		cmp	r1, #0
 181 0052 F1D1     		bne	.L71
 182              	.LVL27:
 183              	.L68:
 184              		.loc 1 277 0
 185 0054 4046     		mov	r0, r8
 186 0056 0BB0     		add	sp, sp, #44
 187              		@ sp needed
 188 0058 BDE8F08F 		pop	{r4, r5, r6, r7, r8, r9, r10, fp, pc}
 189              	.LVL28:
 190              	.L13:
 191              		.loc 1 146 0
 192 005c 6278     		ldrb	r2, [r4, #1]	@ zero_extendqisi2
 193              	.LVL29:
 194 005e 2D2A     		cmp	r2, #45
 195 0060 03BF     		ittte	eq
 196 0062 A278     		ldrbeq	r2, [r4, #2]	@ zero_extendqisi2
 197              		.loc 1 147 0
 198 0064 A31C     		addeq	r3, r4, #2
 199              	.LVL30:
 200              		.loc 1 148 0
 201 0066 4FF0010A 		moveq	r10, #1
 202              		.loc 1 145 0
 203 006a 4FF0000A 		movne	r10, #0
 204              	.LVL31:
 205              		.loc 1 151 0
 206 006e 302A     		cmp	r2, #48
 207 0070 03BF     		ittte	eq
 208 0072 5A78     		ldrbeq	r2, [r3, #1]	@ zero_extendqisi2
 209              		.loc 1 152 0
 210 0074 0133     		addeq	r3, r3, #1
 211              	.LVL32:
 212              		.loc 1 153 0
 213 0076 3026     		moveq	r6, #48
 214              		.loc 1 150 0
 215 0078 2026     		movne	r6, #32
 216              	.LVL33:
 217              		.loc 1 153 0
 218 007a 1C46     		mov	r4, r3
 219              		.loc 1 155 0
 220 007c 0027     		movs	r7, #0
 221 007e 06E0     		b	.L19
 222              	.LVL34:
 223              	.L72:
 224              		.loc 1 161 0
 225 0080 2B78     		ldrb	r3, [r5]	@ zero_extendqisi2
 226              	.LVL35:
 227 0082 0435     		adds	r5, r5, #4
ARM GAS  /tmp/ccIUkKRb.s 			page 5


 228              	.LVL36:
 229              	.L17:
 230              		.loc 1 164 0
 231 0084 07EB8707 		add	r7, r7, r7, lsl #2
 232              	.LVL37:
 233 0088 2278     		ldrb	r2, [r4]	@ zero_extendqisi2
 234 008a 03EB4707 		add	r7, r3, r7, lsl #1
 235              	.LVL38:
 236              	.L19:
 237              		.loc 1 158 0
 238 008e A2F13003 		sub	r3, r2, #48
 239 0092 DBB2     		uxtb	r3, r3
 240 0094 092B     		cmp	r3, #9
 241              		.loc 1 157 0
 242 0096 04F10104 		add	r4, r4, #1
 243              	.LVL39:
 244              		.loc 1 158 0
 245 009a F3D9     		bls	.L17
 246              		.loc 1 160 0
 247 009c 2A2A     		cmp	r2, #42
 248 009e EFD0     		beq	.L72
 249              	.LVL40:
 250              		.loc 1 167 0
 251 00a0 2E2A     		cmp	r2, #46
 252 00a2 4FF00001 		mov	r1, #0
 253 00a6 31D0     		beq	.L22
 254              	.LVL41:
 255              		.loc 1 181 0
 256 00a8 02F0DF03 		and	r3, r2, #223
 257 00ac 4C2B     		cmp	r3, #76
 258 00ae 3AD1     		bne	.L23
 259              	.LVL42:
 260              	.L74:
 261              		.loc 1 183 0
 262 00b0 2378     		ldrb	r3, [r4]	@ zero_extendqisi2
 263              		.loc 1 182 0
 264 00b2 0120     		movs	r0, #1
 265              		.loc 1 183 0
 266 00b4 13B1     		cbz	r3, .L24
 267              		.loc 1 184 0
 268 00b6 0134     		adds	r4, r4, #1
 269              	.LVL43:
 270 00b8 1A46     		mov	r2, r3
 271              		.loc 1 182 0
 272 00ba 0120     		movs	r0, #1
 273              	.LVL44:
 274              	.L24:
 275              		.loc 1 190 0
 276 00bc A2F14403 		sub	r3, r2, #68
 277 00c0 342B     		cmp	r3, #52
 278 00c2 00F2CC80 		bhi	.L25
 279 00c6 DFE803F0 		tbb	[pc, r3]
 280              	.L27:
 281 00ca 82       		.byte	(.L26-.L27)/2
 282 00cb CA       		.byte	(.L25-.L27)/2
 283 00cc CA       		.byte	(.L25-.L27)/2
 284 00cd CA       		.byte	(.L25-.L27)/2
ARM GAS  /tmp/ccIUkKRb.s 			page 6


 285 00ce CA       		.byte	(.L25-.L27)/2
 286 00cf 82       		.byte	(.L26-.L27)/2
 287 00d0 CA       		.byte	(.L25-.L27)/2
 288 00d1 CA       		.byte	(.L25-.L27)/2
 289 00d2 CA       		.byte	(.L25-.L27)/2
 290 00d3 CA       		.byte	(.L25-.L27)/2
 291 00d4 CA       		.byte	(.L25-.L27)/2
 292 00d5 80       		.byte	(.L28-.L27)/2
 293 00d6 CA       		.byte	(.L25-.L27)/2
 294 00d7 CA       		.byte	(.L25-.L27)/2
 295 00d8 CA       		.byte	(.L25-.L27)/2
 296 00d9 CA       		.byte	(.L25-.L27)/2
 297 00da CA       		.byte	(.L25-.L27)/2
 298 00db 36       		.byte	(.L57-.L27)/2
 299 00dc CA       		.byte	(.L25-.L27)/2
 300 00dd CA       		.byte	(.L25-.L27)/2
 301 00de C8       		.byte	(.L30-.L27)/2
 302 00df CA       		.byte	(.L25-.L27)/2
 303 00e0 CA       		.byte	(.L25-.L27)/2
 304 00e1 CA       		.byte	(.L25-.L27)/2
 305 00e2 CA       		.byte	(.L25-.L27)/2
 306 00e3 CA       		.byte	(.L25-.L27)/2
 307 00e4 CA       		.byte	(.L25-.L27)/2
 308 00e5 CA       		.byte	(.L25-.L27)/2
 309 00e6 CA       		.byte	(.L25-.L27)/2
 310 00e7 CA       		.byte	(.L25-.L27)/2
 311 00e8 CA       		.byte	(.L25-.L27)/2
 312 00e9 BD       		.byte	(.L31-.L27)/2
 313 00ea 82       		.byte	(.L26-.L27)/2
 314 00eb CA       		.byte	(.L25-.L27)/2
 315 00ec CA       		.byte	(.L25-.L27)/2
 316 00ed CA       		.byte	(.L25-.L27)/2
 317 00ee CA       		.byte	(.L25-.L27)/2
 318 00ef 82       		.byte	(.L26-.L27)/2
 319 00f0 CA       		.byte	(.L25-.L27)/2
 320 00f1 CA       		.byte	(.L25-.L27)/2
 321 00f2 CA       		.byte	(.L25-.L27)/2
 322 00f3 CA       		.byte	(.L25-.L27)/2
 323 00f4 CA       		.byte	(.L25-.L27)/2
 324 00f5 80       		.byte	(.L28-.L27)/2
 325 00f6 CA       		.byte	(.L25-.L27)/2
 326 00f7 CA       		.byte	(.L25-.L27)/2
 327 00f8 CA       		.byte	(.L25-.L27)/2
 328 00f9 9B       		.byte	(.L32-.L27)/2
 329 00fa CA       		.byte	(.L25-.L27)/2
 330 00fb 36       		.byte	(.L57-.L27)/2
 331 00fc CA       		.byte	(.L25-.L27)/2
 332 00fd CA       		.byte	(.L25-.L27)/2
 333 00fe C8       		.byte	(.L30-.L27)/2
 334 00ff 00       		.align	1
 335              	.LVL45:
 336              	.L73:
 337              		.loc 1 173 0
 338 0100 2B78     		ldrb	r3, [r5]	@ zero_extendqisi2
 339              	.LVL46:
 340 0102 0435     		adds	r5, r5, #4
 341              	.LVL47:
ARM GAS  /tmp/ccIUkKRb.s 			page 7


 342              	.L21:
 343              		.loc 1 176 0
 344 0104 01EB8101 		add	r1, r1, r1, lsl #2
 345              	.LVL48:
 346              		.loc 1 177 0
 347 0108 03EB4101 		add	r1, r3, r1, lsl #1
 348              	.LVL49:
 349              	.L22:
 350              		.loc 1 169 0
 351 010c 14F8012B 		ldrb	r2, [r4], #1	@ zero_extendqisi2
 352              	.LVL50:
 353              		.loc 1 170 0
 354 0110 A2F13003 		sub	r3, r2, #48
 355 0114 DBB2     		uxtb	r3, r3
 356 0116 092B     		cmp	r3, #9
 357 0118 F4D9     		bls	.L21
 358              		.loc 1 172 0
 359 011a 2A2A     		cmp	r2, #42
 360 011c F0D0     		beq	.L73
 361              	.LVL51:
 362              		.loc 1 181 0
 363 011e 02F0DF03 		and	r3, r2, #223
 364 0122 4C2B     		cmp	r3, #76
 365 0124 C4D0     		beq	.L74
 366              	.LVL52:
 367              	.L23:
 368              		.loc 1 187 0
 369 0126 A2F14100 		sub	r0, r2, #65
 370 012a C0B2     		uxtb	r0, r0
 371 012c 1928     		cmp	r0, #25
 372 012e 8CBF     		ite	hi
 373 0130 0020     		movhi	r0, #0
 374 0132 0120     		movls	r0, #1
 375              	.LVL53:
 376 0134 C2E7     		b	.L24
 377              	.LVL54:
 378              	.L57:
 379              		.loc 1 190 0
 380 0136 0A22     		movs	r2, #10
 381              	.LVL55:
 382              	.L29:
 383              		.loc 1 241 0
 384 0138 2968     		ldr	r1, [r5]
 385              	.LVL56:
 386              	.LBB6:
 387              	.LBB7:
 388              		.loc 1 72 0
 389 013a 07A8     		add	r0, sp, #28
 390 013c FFF7FEFF 		bl	long_to_string_with_divisor.constprop.0
 391              	.LVL57:
 392 0140 029B     		ldr	r3, [sp, #8]
 393 0142 C01A     		subs	r0, r0, r3
 394 0144 00F1FF3C 		add	ip, r0, #-1
 395              	.LBE7:
 396              	.LBE6:
 397              		.loc 1 241 0
 398 0148 0435     		adds	r5, r5, #4
ARM GAS  /tmp/ccIUkKRb.s 			page 8


 399              	.LVL58:
 400 014a CDF80CC0 		str	ip, [sp, #12]
 401              		.loc 1 144 0
 402 014e 0DF11C09 		add	r9, sp, #28
 403              	.LVL59:
 404              	.L33:
 405              		.loc 1 251 0
 406 0152 3F1A     		subs	r7, r7, r0
 407              	.LVL60:
 408 0154 27EAE777 		bic	r7, r7, r7, asr #31
 409              	.LVL61:
 410              		.loc 1 253 0
 411 0158 BAF1000F 		cmp	r10, #0
 412 015c 13D1     		bne	.L44
 413              		.loc 1 254 0
 414 015e 7F42     		negs	r7, r7
 415              	.LVL62:
 416              		.loc 1 255 0
 417 0160 8FB1     		cbz	r7, .L44
 418              		.loc 1 256 0
 419 0162 99F80010 		ldrb	r1, [r9]	@ zero_extendqisi2
 420 0166 2D29     		cmp	r1, #45
 421 0168 00F08180 		beq	.L75
 422              	.LVL63:
 423              	.L45:
 424              		.loc 1 196 0 discriminator 1
 425 016c BA46     		mov	r10, r7
 426              	.LVL64:
 427              	.L47:
 428              		.loc 1 262 0 discriminator 1
 429 016e DBF80030 		ldr	r3, [fp]
 430 0172 5846     		mov	r0, fp
 431 0174 9B68     		ldr	r3, [r3, #8]
 432 0176 3146     		mov	r1, r6
 433 0178 9847     		blx	r3
 434              	.LVL65:
 435              		.loc 1 264 0 discriminator 1
 436 017a 1AF1010A 		adds	r10, r10, #1
 437              	.LVL66:
 438 017e F6D1     		bne	.L47
 439 0180 C7EB0808 		rsb	r8, r7, r8
 440              		.loc 1 264 0 is_stmt 0
 441 0184 5746     		mov	r7, r10
 442              	.LVL67:
 443              	.L44:
 444              		.loc 1 266 0 is_stmt 1 discriminator 1
 445 0186 039A     		ldr	r2, [sp, #12]
 446 0188 002A     		cmp	r2, #0
 447 018a 0FDB     		blt	.L48
 448 018c 09F1FF3A 		add	r10, r9, #-1
 449 0190 9144     		add	r9, r9, r2
 450              	.LVL68:
 451              	.L50:
 452              		.loc 1 267 0
 453 0192 DBF80030 		ldr	r3, [fp]
 454 0196 1AF8011F 		ldrb	r1, [r10, #1]!	@ zero_extendqisi2
 455              	.LVL69:
ARM GAS  /tmp/ccIUkKRb.s 			page 9


 456 019a 9B68     		ldr	r3, [r3, #8]
 457 019c 5846     		mov	r0, fp
 458 019e 9847     		blx	r3
 459              	.LVL70:
 460              		.loc 1 266 0
 461 01a0 CA45     		cmp	r10, r9
 462 01a2 F6D1     		bne	.L50
 463 01a4 039B     		ldr	r3, [sp, #12]
 464 01a6 08F10108 		add	r8, r8, #1
 465 01aa 9844     		add	r8, r8, r3
 466              	.LVL71:
 467              	.L48:
 468              		.loc 1 271 0 discriminator 1
 469 01ac 002F     		cmp	r7, #0
 470 01ae 3FF440AF 		beq	.L11
 471              		.loc 1 271 0 is_stmt 0
 472 01b2 B946     		mov	r9, r7
 473              	.LVL72:
 474              	.L52:
 475              		.loc 1 272 0 is_stmt 1
 476 01b4 DBF80030 		ldr	r3, [fp]
 477 01b8 5846     		mov	r0, fp
 478 01ba 9B68     		ldr	r3, [r3, #8]
 479 01bc 3146     		mov	r1, r6
 480 01be 9847     		blx	r3
 481              	.LVL73:
 482              		.loc 1 271 0
 483 01c0 B9F10109 		subs	r9, r9, #1
 484              	.LVL74:
 485 01c4 F6D1     		bne	.L52
 486 01c6 B844     		add	r8, r8, r7
 487 01c8 33E7     		b	.L11
 488              	.LVL75:
 489              	.L28:
 490 01ca 0822     		movs	r2, #8
 491 01cc B4E7     		b	.L29
 492              	.LVL76:
 493              	.L26:
 494              		.loc 1 209 0
 495 01ce 2968     		ldr	r1, [r5]
 496              	.LVL77:
 497              		.loc 1 212 0
 498 01d0 0029     		cmp	r1, #0
 499              		.loc 1 213 0
 500 01d2 B8BF     		it	lt
 501 01d4 2D23     		movlt	r3, #45
 502              	.LBB8:
 503              	.LBB9:
 504              		.loc 1 72 0
 505 01d6 4FF00A02 		mov	r2, #10
 506              	.LVL78:
 507              	.LBE9:
 508              	.LBE8:
 509              		.loc 1 214 0
 510 01da BBBF     		ittet	lt
 511 01dc 4942     		rsblt	r1, r1, #0
 512              	.LVL79:
ARM GAS  /tmp/ccIUkKRb.s 			page 10


 513              		.loc 1 213 0
 514 01de 0DF11D00 		addlt	r0, sp, #29
 515              		.loc 1 143 0
 516 01e2 07A8     		addge	r0, sp, #28
 517              		.loc 1 213 0
 518 01e4 8DF81C30 		strblt	r3, [sp, #28]
 519              	.LVL80:
 520              	.LBB11:
 521              	.LBB10:
 522              		.loc 1 72 0
 523 01e8 FFF7FEFF 		bl	long_to_string_with_divisor.constprop.0
 524              	.LVL81:
 525 01ec DDF808C0 		ldr	ip, [sp, #8]
 526 01f0 CCEB0000 		rsb	r0, ip, r0
 527 01f4 421E     		subs	r2, r0, #1
 528              	.LBE10:
 529              	.LBE11:
 530              		.loc 1 209 0
 531 01f6 0435     		adds	r5, r5, #4
 532              	.LVL82:
 533 01f8 0392     		str	r2, [sp, #12]
 534              		.loc 1 144 0
 535 01fa 0DF11C09 		add	r9, sp, #28
 536              		.loc 1 217 0
 537 01fe A8E7     		b	.L33
 538              	.LVL83:
 539              	.L32:
 540              		.loc 1 197 0
 541 0200 D5F80090 		ldr	r9, [r5]
 542              		.loc 1 198 0
 543 0204 059B     		ldr	r3, [sp, #20]
 544 0206 B9F1000F 		cmp	r9, #0
 545 020a 08BF     		it	eq
 546 020c 9946     		moveq	r9, r3
 547              		.loc 1 200 0
 548 020e 47F6FF73 		movw	r3, #32767
 549              		.loc 1 201 0
 550 0212 99F80000 		ldrb	r0, [r9]	@ zero_extendqisi2
 551              		.loc 1 197 0
 552 0216 0435     		adds	r5, r5, #4
 553              	.LVL84:
 554              		.loc 1 200 0
 555 0218 0029     		cmp	r1, #0
 556 021a 08BF     		it	eq
 557 021c 1946     		moveq	r1, r3
 558              	.LVL85:
 559              		.loc 1 201 0
 560 021e 0028     		cmp	r0, #0
 561 0220 3ED0     		beq	.L60
 562 0222 4944     		add	r1, r1, r9
 563 0224 4B46     		mov	r3, r9
 564 0226 01E0     		b	.L38
 565              	.LVL86:
 566              	.L36:
 567              		.loc 1 201 0 is_stmt 0 discriminator 2
 568 0228 9942     		cmp	r1, r3
 569 022a 33D0     		beq	.L76
ARM GAS  /tmp/ccIUkKRb.s 			page 11


 570              	.LVL87:
 571              	.L38:
 572              		.loc 1 201 0 discriminator 1
 573 022c 5A78     		ldrb	r2, [r3, #1]	@ zero_extendqisi2
 574 022e 0133     		adds	r3, r3, #1
 575              	.LVL88:
 576 0230 002A     		cmp	r2, #0
 577 0232 F9D1     		bne	.L36
 578 0234 C9EB0300 		rsb	r0, r9, r3
 579 0238 00F1FF3C 		add	ip, r0, #-1
 580 023c CDF80CC0 		str	ip, [sp, #12]
 581              		.loc 1 196 0 is_stmt 1
 582 0240 2026     		movs	r6, #32
 583 0242 86E7     		b	.L33
 584              	.LVL89:
 585              	.L31:
 586 0244 0498     		ldr	r0, [sp, #16]
 587              		.loc 1 193 0
 588 0246 2B68     		ldr	r3, [r5]
 589 0248 421E     		subs	r2, r0, #1
 590              	.LVL90:
 591 024a 8DF81C30 		strb	r3, [sp, #28]
 592 024e 0435     		adds	r5, r5, #4
 593              	.LVL91:
 594 0250 0392     		str	r2, [sp, #12]
 595              		.loc 1 192 0
 596 0252 2026     		movs	r6, #32
 597              		.loc 1 144 0
 598 0254 0DF11C09 		add	r9, sp, #28
 599              		.loc 1 194 0
 600 0258 7BE7     		b	.L33
 601              	.LVL92:
 602              	.L30:
 603              		.loc 1 190 0
 604 025a 1022     		movs	r2, #16
 605              	.LVL93:
 606 025c 6CE7     		b	.L29
 607              	.LVL94:
 608              	.L25:
 609 025e 0498     		ldr	r0, [sp, #16]
 610              		.loc 1 247 0
 611 0260 8DF81C20 		strb	r2, [sp, #28]
 612 0264 421E     		subs	r2, r0, #1
 613              	.LVL95:
 614 0266 0392     		str	r2, [sp, #12]
 615              		.loc 1 144 0
 616 0268 0DF11C09 		add	r9, sp, #28
 617              		.loc 1 248 0
 618 026c 71E7     		b	.L33
 619              	.LVL96:
 620              	.L75:
 621              		.loc 1 256 0 discriminator 1
 622 026e 302E     		cmp	r6, #48
 623 0270 7FF47CAF 		bne	.L45
 624              	.LVL97:
 625              		.loc 1 257 0
 626 0274 DBF80030 		ldr	r3, [fp]
ARM GAS  /tmp/ccIUkKRb.s 			page 12


 627 0278 5846     		mov	r0, fp
 628              	.LVL98:
 629 027a 9B68     		ldr	r3, [r3, #8]
 630 027c 9847     		blx	r3
 631              	.LVL99:
 632 027e DDF80CC0 		ldr	ip, [sp, #12]
 633 0282 0CF1FF3C 		add	ip, ip, #-1
 634 0286 09F10109 		add	r9, r9, #1
 635              	.LVL100:
 636              		.loc 1 258 0
 637 028a 08F10108 		add	r8, r8, #1
 638              	.LVL101:
 639 028e CDF80CC0 		str	ip, [sp, #12]
 640              	.LVL102:
 641 0292 6BE7     		b	.L45
 642              	.LVL103:
 643              	.L76:
 644 0294 C9EB0100 		rsb	r0, r9, r1
 645 0298 421E     		subs	r2, r0, #1
 646 029a 0392     		str	r2, [sp, #12]
 647              		.loc 1 196 0
 648 029c 2026     		movs	r6, #32
 649 029e 58E7     		b	.L33
 650              	.LVL104:
 651              	.L60:
 652              		.loc 1 201 0
 653 02a0 4FF0FF33 		mov	r3, #-1
 654 02a4 0393     		str	r3, [sp, #12]
 655              		.loc 1 196 0
 656 02a6 2026     		movs	r6, #32
 657 02a8 53E7     		b	.L33
 658              		.cfi_endproc
 659              	.LFE272:
 660              		.size	chvprintf, .-chvprintf
 661 02aa 00BFAFF3 		.section	.text.chprintf,"ax",%progbits
 661      0080
 662              		.align	2
 663              		.p2align 4,,15
 664              		.global	chprintf
 665              		.thumb
 666              		.thumb_func
 667              		.type	chprintf, %function
 668              	chprintf:
 669              	.LFB273:
 670              		.loc 1 302 0
 671              		.cfi_startproc
 672              		@ args = 4, pretend = 12, frame = 8
 673              		@ frame_needed = 0, uses_anonymous_args = 1
 674              	.LVL105:
 675 0000 0EB4     		push	{r1, r2, r3}
 676              		.cfi_def_cfa_offset 12
 677              		.cfi_offset 1, -12
 678              		.cfi_offset 2, -8
 679              		.cfi_offset 3, -4
 680 0002 00B5     		push	{lr}
 681              		.cfi_def_cfa_offset 16
 682              		.cfi_offset 14, -16
ARM GAS  /tmp/ccIUkKRb.s 			page 13


 683 0004 82B0     		sub	sp, sp, #8
 684              		.cfi_def_cfa_offset 24
 685              		.loc 1 302 0
 686 0006 03AB     		add	r3, sp, #12
 687 0008 53F8041B 		ldr	r1, [r3], #4
 688              		.loc 1 307 0
 689 000c 1A46     		mov	r2, r3
 690              		.loc 1 306 0
 691 000e 0193     		str	r3, [sp, #4]
 692              		.loc 1 307 0
 693 0010 FFF7FEFF 		bl	chvprintf
 694              	.LVL106:
 695              		.loc 1 311 0
 696 0014 02B0     		add	sp, sp, #8
 697              		@ sp needed
 698 0016 5DF804EB 		ldr	lr, [sp], #4
 699 001a 03B0     		add	sp, sp, #12
 700 001c 7047     		bx	lr
 701              		.cfi_endproc
 702              	.LFE273:
 703              		.size	chprintf, .-chprintf
 704 001e 00BF     		.section	.text.chsnprintf,"ax",%progbits
 705              		.align	2
 706              		.p2align 4,,15
 707              		.global	chsnprintf
 708              		.thumb
 709              		.thumb_func
 710              		.type	chsnprintf, %function
 711              	chsnprintf:
 712              	.LFB274:
 713              		.loc 1 341 0
 714              		.cfi_startproc
 715              		@ args = 4, pretend = 8, frame = 24
 716              		@ frame_needed = 0, uses_anonymous_args = 1
 717              	.LVL107:
 718 0000 0CB4     		push	{r2, r3}
 719              		.cfi_def_cfa_offset 8
 720              		.cfi_offset 2, -8
 721              		.cfi_offset 3, -4
 722 0002 70B5     		push	{r4, r5, r6, lr}
 723              		.cfi_def_cfa_offset 24
 724              		.cfi_offset 4, -24
 725              		.cfi_offset 5, -20
 726              		.cfi_offset 6, -16
 727              		.cfi_offset 14, -12
 728 0004 86B0     		sub	sp, sp, #24
 729              		.cfi_def_cfa_offset 48
 730              		.loc 1 348 0
 731 0006 0C46     		mov	r4, r1
 732              		.loc 1 341 0
 733 0008 0546     		mov	r5, r0
 734 000a 0A9E     		ldr	r6, [sp, #40]
 735              		.loc 1 348 0
 736 000c B1B1     		cbz	r1, .L79
 737              	.LVL108:
 738              		.loc 1 355 0
 739 000e 01A8     		add	r0, sp, #4
ARM GAS  /tmp/ccIUkKRb.s 			page 14


 740              	.LVL109:
 741 0010 2946     		mov	r1, r5
 742              	.LVL110:
 743 0012 621E     		subs	r2, r4, #1
 744              	.LVL111:
 745 0014 0023     		movs	r3, #0
 746 0016 FFF7FEFF 		bl	msObjectInit
 747              	.LVL112:
 748              		.loc 1 359 0
 749 001a 0BAB     		add	r3, sp, #44
 750              		.loc 1 360 0
 751 001c 1A46     		mov	r2, r3
 752 001e 01A8     		add	r0, sp, #4
 753              	.LVL113:
 754 0020 3146     		mov	r1, r6
 755              		.loc 1 359 0
 756 0022 0093     		str	r3, [sp]
 757              		.loc 1 360 0
 758 0024 FFF7FEFF 		bl	chvprintf
 759              	.LVL114:
 760              		.loc 1 364 0
 761 0028 049B     		ldr	r3, [sp, #16]
 762 002a 9C42     		cmp	r4, r3
 763 002c 01D9     		bls	.L81
 764              		.loc 1 365 0
 765 002e 0022     		movs	r2, #0
 766 0030 EA54     		strb	r2, [r5, r3]
 767              	.L81:
 768              		.loc 1 369 0
 769 0032 06B0     		add	sp, sp, #24
 770              		@ sp needed
 771 0034 BDE87040 		pop	{r4, r5, r6, lr}
 772              	.LVL115:
 773 0038 02B0     		add	sp, sp, #8
 774 003a 7047     		bx	lr
 775              	.LVL116:
 776              	.L79:
 777              		.loc 1 355 0
 778 003c 0A46     		mov	r2, r1
 779 003e 2346     		mov	r3, r4
 780 0040 0146     		mov	r1, r0
 781              	.LVL117:
 782 0042 01A8     		add	r0, sp, #4
 783              	.LVL118:
 784 0044 FFF7FEFF 		bl	msObjectInit
 785              	.LVL119:
 786              		.loc 1 359 0
 787 0048 0BAB     		add	r3, sp, #44
 788              		.loc 1 360 0
 789 004a 01A8     		add	r0, sp, #4
 790              	.LVL120:
 791 004c 3146     		mov	r1, r6
 792 004e 1A46     		mov	r2, r3
 793              		.loc 1 359 0
 794 0050 0093     		str	r3, [sp]
 795              		.loc 1 360 0
 796 0052 FFF7FEFF 		bl	chvprintf
ARM GAS  /tmp/ccIUkKRb.s 			page 15


 797              	.LVL121:
 798              		.loc 1 369 0
 799 0056 06B0     		add	sp, sp, #24
 800              		@ sp needed
 801 0058 BDE87040 		pop	{r4, r5, r6, lr}
 802              	.LVL122:
 803 005c 02B0     		add	sp, sp, #8
 804 005e 7047     		bx	lr
 805              		.cfi_endproc
 806              	.LFE274:
 807              		.size	chsnprintf, .-chsnprintf
 808              		.section	.rodata.str1.4,"aMS",%progbits,1
 809              		.align	2
 810              	.LC0:
 811 0000 286E756C 		.ascii	"(null)\000"
 811      6C2900
 812 0007 00       		.text
 813              	.Letext0:
 814              		.file 2 "/usr/lib/gcc/arm-none-eabi/4.8.2/include/stddef.h"
 815              		.file 3 "/usr/include/newlib/machine/_default_types.h"
 816              		.file 4 "/usr/include/newlib/stdint.h"
 817              		.file 5 "../../../../../ChibiOS-RT/os/common/ports/ARMCMx/compilers/GCC/chtypes.h"
 818              		.file 6 "../../../../../ChibiOS-RT/os/rt/include/chsystypes.h"
 819              		.file 7 "../../../../../ChibiOS-RT/os/rt/include/chschd.h"
 820              		.file 8 "../../../../../ChibiOS-RT/os/common/ports/ARMCMx/chcore.h"
 821              		.file 9 "../../../../../ChibiOS-RT/os/common/ports/ARMCMx/chcore_v7m.h"
 822              		.file 10 "../../../../../ChibiOS-RT/os/rt/include/chtrace.h"
 823              		.file 11 "../../../../../ChibiOS-RT/os/rt/include/chtm.h"
 824              		.file 12 "../../../../../ChibiOS-RT/os/rt/include/chsem.h"
 825              		.file 13 "../../../../../ChibiOS-RT/os/rt/include/chmtx.h"
 826              		.file 14 "../../../../../ChibiOS-RT/os/hal/include/hal_streams.h"
 827              		.file 15 "/usr/lib/gcc/arm-none-eabi/4.8.2/include/stdarg.h"
 828              		.file 16 "<built-in>"
 829              		.file 17 "../../../../../ChibiOS-RT/os/hal/lib/streams/memstreams.h"
 830              		.file 18 "../../../../../ChibiOS-RT/os/common/ext/CMSIS/include/core_cm4.h"