ARM GAS  /tmp/ccruCRBh.s 			page 1


   1              		.syntax unified
   2              		.cpu cortex-m4
   3              		.fpu softvfp
   4              		.eabi_attribute 20, 1
   5              		.eabi_attribute 21, 1
   6              		.eabi_attribute 23, 3
   7              		.eabi_attribute 24, 1
   8              		.eabi_attribute 25, 1
   9              		.eabi_attribute 26, 1
  10              		.eabi_attribute 30, 2
  11              		.eabi_attribute 34, 1
  12              		.eabi_attribute 18, 4
  13              		.thumb
  14              		.file	"chregistry.c"
  15              		.text
  16              	.Ltext0:
  17              		.cfi_sections	.debug_frame
  18              		.section	.text.chRegFirstThread,"ax",%progbits
  19              		.align	2
  20              		.p2align 4,,15
  21              		.global	chRegFirstThread
  22              		.thumb
  23              		.thumb_func
  24              		.type	chRegFirstThread, %function
  25              	chRegFirstThread:
  26              	.LFB239:
  27              		.file 1 "../../../../../ChibiOS-RT/os/rt/src/chregistry.c"
  28              		.loc 1 134 0
  29              		.cfi_startproc
  30              		@ args = 0, pretend = 0, frame = 0
  31              		@ frame_needed = 0, uses_anonymous_args = 0
  32              		@ link register save eliminated.
  33              	.LVL0:
  34              	.LBB71:
  35              	.LBB72:
  36              	.LBB73:
  37              	.LBB74:
  38              		.file 2 "../../../../../ChibiOS-RT/os/common/ext/CMSIS/include/cmsis_gcc.h"
  39              		.loc 2 264 0
  40 0000 2023     		movs	r3, #32
  41              	@ 264 "../../../../../ChibiOS-RT/os/common/ext/CMSIS/include/cmsis_gcc.h" 1
  42 0002 83F31188 		MSR basepri, r3
  43              	@ 0 "" 2
  44              		.thumb
  45              	.LBE74:
  46              	.LBE73:
  47              	.LBE72:
  48              	.LBE71:
  49              		.loc 1 138 0
  50 0006 40F20003 		movw	r3, #:lower16:ch
  51 000a C0F20003 		movt	r3, #:upper16:ch
  52              	.LBB75:
  53              	.LBB76:
  54              	.LBB77:
  55              	.LBB78:
  56              	.LBB79:
  57              		.loc 2 264 0
ARM GAS  /tmp/ccruCRBh.s 			page 2


  58 000e 0022     		movs	r2, #0
  59              	.LBE79:
  60              	.LBE78:
  61              	.LBE77:
  62              	.LBE76:
  63              	.LBE75:
  64              		.loc 1 138 0
  65 0010 1869     		ldr	r0, [r3, #16]
  66              	.LVL1:
  67              		.loc 1 140 0
  68 0012 90F82230 		ldrb	r3, [r0, #34]	@ zero_extendqisi2
  69 0016 0133     		adds	r3, r3, #1
  70 0018 80F82230 		strb	r3, [r0, #34]
  71              	.LVL2:
  72              	.LBB84:
  73              	.LBB83:
  74              	.LBB82:
  75              	.LBB81:
  76              	.LBB80:
  77              		.loc 2 264 0
  78              	@ 264 "../../../../../ChibiOS-RT/os/common/ext/CMSIS/include/cmsis_gcc.h" 1
  79 001c 82F31188 		MSR basepri, r2
  80              	@ 0 "" 2
  81              		.thumb
  82              	.LBE80:
  83              	.LBE81:
  84              	.LBE82:
  85              	.LBE83:
  86              	.LBE84:
  87              		.loc 1 145 0
  88 0020 7047     		bx	lr
  89              		.cfi_endproc
  90              	.LFE239:
  91              		.size	chRegFirstThread, .-chRegFirstThread
  92 0022 00BFAFF3 		.section	.text.chRegNextThread,"ax",%progbits
  92      0080AFF3 
  92      0080AFF3 
  92      0080
  93              		.align	2
  94              		.p2align 4,,15
  95              		.global	chRegNextThread
  96              		.thumb
  97              		.thumb_func
  98              		.type	chRegNextThread, %function
  99              	chRegNextThread:
 100              	.LFB240:
 101              		.loc 1 158 0
 102              		.cfi_startproc
 103              		@ args = 0, pretend = 0, frame = 0
 104              		@ frame_needed = 0, uses_anonymous_args = 0
 105              	.LVL3:
 106 0000 10B5     		push	{r4, lr}
 107              		.cfi_def_cfa_offset 8
 108              		.cfi_offset 4, -8
 109              		.cfi_offset 14, -4
 110              	.LBB85:
 111              	.LBB86:
ARM GAS  /tmp/ccruCRBh.s 			page 3


 112              	.LBB87:
 113              	.LBB88:
 114              		.loc 2 264 0
 115 0002 2023     		movs	r3, #32
 116              	@ 264 "../../../../../ChibiOS-RT/os/common/ext/CMSIS/include/cmsis_gcc.h" 1
 117 0004 83F31188 		MSR basepri, r3
 118              	@ 0 "" 2
 119              		.thumb
 120              	.LBE88:
 121              	.LBE87:
 122              	.LBE86:
 123              	.LBE85:
 124              		.loc 1 164 0
 125 0008 40F20003 		movw	r3, #:lower16:ch
 126              		.loc 1 162 0
 127 000c 0469     		ldr	r4, [r0, #16]
 128              	.LVL4:
 129              		.loc 1 164 0
 130 000e C0F20003 		movt	r3, #:upper16:ch
 131 0012 9C42     		cmp	r4, r3
 132              		.loc 1 171 0
 133 0014 1DBF     		ittte	ne
 134 0016 94F82230 		ldrbne	r3, [r4, #34]	@ zero_extendqisi2
 135 001a 0133     		addne	r3, r3, #1
 136 001c 84F82230 		strbne	r3, [r4, #34]
 137              		.loc 1 166 0
 138 0020 0024     		moveq	r4, #0
 139              	.LVL5:
 140              	.LBB89:
 141              	.LBB90:
 142              	.LBB91:
 143              	.LBB92:
 144              	.LBB93:
 145              		.loc 2 264 0
 146 0022 0023     		movs	r3, #0
 147              	@ 264 "../../../../../ChibiOS-RT/os/common/ext/CMSIS/include/cmsis_gcc.h" 1
 148 0024 83F31188 		MSR basepri, r3
 149              	@ 0 "" 2
 150              		.thumb
 151              	.LBE93:
 152              	.LBE92:
 153              	.LBE91:
 154              	.LBE90:
 155              	.LBE89:
 156              		.loc 1 176 0
 157 0028 FFF7FEFF 		bl	chThdRelease
 158              	.LVL6:
 159              		.loc 1 180 0
 160 002c 2046     		mov	r0, r4
 161 002e 10BD     		pop	{r4, pc}
 162              		.cfi_endproc
 163              	.LFE240:
 164              		.size	chRegNextThread, .-chRegNextThread
 165              		.section	.text.chRegFindThreadByName,"ax",%progbits
 166              		.align	2
 167              		.p2align 4,,15
 168              		.global	chRegFindThreadByName
ARM GAS  /tmp/ccruCRBh.s 			page 4


 169              		.thumb
 170              		.thumb_func
 171              		.type	chRegFindThreadByName, %function
 172              	chRegFindThreadByName:
 173              	.LFB241:
 174              		.loc 1 194 0
 175              		.cfi_startproc
 176              		@ args = 0, pretend = 0, frame = 0
 177              		@ frame_needed = 0, uses_anonymous_args = 0
 178              	.LVL7:
 179 0000 38B5     		push	{r3, r4, r5, lr}
 180              		.cfi_def_cfa_offset 16
 181              		.cfi_offset 3, -16
 182              		.cfi_offset 4, -12
 183              		.cfi_offset 5, -8
 184              		.cfi_offset 14, -4
 185              		.loc 1 194 0
 186 0002 0546     		mov	r5, r0
 187              	.LBB94:
 188              	.LBB95:
 189              	.LBB96:
 190              	.LBB97:
 191              	.LBB98:
 192              	.LBB99:
 193              		.loc 2 264 0
 194 0004 2023     		movs	r3, #32
 195              	@ 264 "../../../../../ChibiOS-RT/os/common/ext/CMSIS/include/cmsis_gcc.h" 1
 196 0006 83F31188 		MSR basepri, r3
 197              	@ 0 "" 2
 198              		.thumb
 199              	.LBE99:
 200              	.LBE98:
 201              	.LBE97:
 202              	.LBE96:
 203              		.loc 1 138 0
 204 000a 40F20003 		movw	r3, #:lower16:ch
 205 000e C0F20003 		movt	r3, #:upper16:ch
 206              	.LBB100:
 207              	.LBB101:
 208              	.LBB102:
 209              	.LBB103:
 210              	.LBB104:
 211              		.loc 2 264 0
 212 0012 0022     		movs	r2, #0
 213              	.LBE104:
 214              	.LBE103:
 215              	.LBE102:
 216              	.LBE101:
 217              	.LBE100:
 218              		.loc 1 138 0
 219 0014 1C69     		ldr	r4, [r3, #16]
 220              	.LVL8:
 221              		.loc 1 140 0
 222 0016 94F82230 		ldrb	r3, [r4, #34]	@ zero_extendqisi2
 223 001a 0133     		adds	r3, r3, #1
 224 001c 84F82230 		strb	r3, [r4, #34]
 225              	.LVL9:
ARM GAS  /tmp/ccruCRBh.s 			page 5


 226              	.LBB109:
 227              	.LBB108:
 228              	.LBB107:
 229              	.LBB106:
 230              	.LBB105:
 231              		.loc 2 264 0
 232              	@ 264 "../../../../../ChibiOS-RT/os/common/ext/CMSIS/include/cmsis_gcc.h" 1
 233 0020 82F31188 		MSR basepri, r2
 234              	@ 0 "" 2
 235              		.thumb
 236 0024 04E0     		b	.L7
 237              	.LVL10:
 238              	.L13:
 239              	.LBE105:
 240              	.LBE106:
 241              	.LBE107:
 242              	.LBE108:
 243              	.LBE109:
 244              	.LBE95:
 245              	.LBE94:
 246              		.loc 1 203 0
 247 0026 2046     		mov	r0, r4
 248 0028 FFF7FEFF 		bl	chRegNextThread
 249              	.LVL11:
 250              		.loc 1 204 0
 251 002c 0446     		mov	r4, r0
 252              	.LVL12:
 253 002e 28B1     		cbz	r0, .L6
 254              	.LVL13:
 255              	.L7:
 256              		.loc 1 200 0
 257 0030 A069     		ldr	r0, [r4, #24]
 258 0032 2946     		mov	r1, r5
 259 0034 FFF7FEFF 		bl	strcmp
 260              	.LVL14:
 261 0038 0028     		cmp	r0, #0
 262 003a F4D1     		bne	.L13
 263              	.LVL15:
 264              	.L6:
 265              		.loc 1 207 0
 266 003c 2046     		mov	r0, r4
 267 003e 38BD     		pop	{r3, r4, r5, pc}
 268              		.cfi_endproc
 269              	.LFE241:
 270              		.size	chRegFindThreadByName, .-chRegFindThreadByName
 271              		.section	.text.chRegFindThreadByPointer,"ax",%progbits
 272              		.align	2
 273              		.p2align 4,,15
 274              		.global	chRegFindThreadByPointer
 275              		.thumb
 276              		.thumb_func
 277              		.type	chRegFindThreadByPointer, %function
 278              	chRegFindThreadByPointer:
 279              	.LFB242:
 280              		.loc 1 221 0
 281              		.cfi_startproc
 282              		@ args = 0, pretend = 0, frame = 0
ARM GAS  /tmp/ccruCRBh.s 			page 6


 283              		@ frame_needed = 0, uses_anonymous_args = 0
 284              	.LVL16:
 285 0000 10B5     		push	{r4, lr}
 286              		.cfi_def_cfa_offset 8
 287              		.cfi_offset 4, -8
 288              		.cfi_offset 14, -4
 289              	.LBB110:
 290              	.LBB111:
 291              	.LBB112:
 292              	.LBB113:
 293              	.LBB114:
 294              	.LBB115:
 295              		.loc 2 264 0
 296 0002 2023     		movs	r3, #32
 297              	.LBE115:
 298              	.LBE114:
 299              	.LBE113:
 300              	.LBE112:
 301              	.LBE111:
 302              	.LBE110:
 303              		.loc 1 221 0
 304 0004 0446     		mov	r4, r0
 305              	.LBB131:
 306              	.LBB130:
 307              	.LBB119:
 308              	.LBB118:
 309              	.LBB117:
 310              	.LBB116:
 311              		.loc 2 264 0
 312              	@ 264 "../../../../../ChibiOS-RT/os/common/ext/CMSIS/include/cmsis_gcc.h" 1
 313 0006 83F31188 		MSR basepri, r3
 314              	@ 0 "" 2
 315              		.thumb
 316              	.LBE116:
 317              	.LBE117:
 318              	.LBE118:
 319              	.LBE119:
 320              		.loc 1 138 0
 321 000a 40F20003 		movw	r3, #:lower16:ch
 322 000e C0F20003 		movt	r3, #:upper16:ch
 323              	.LBB120:
 324              	.LBB121:
 325              	.LBB122:
 326              	.LBB123:
 327              	.LBB124:
 328              		.loc 2 264 0
 329 0012 0022     		movs	r2, #0
 330              	.LBE124:
 331              	.LBE123:
 332              	.LBE122:
 333              	.LBE121:
 334              	.LBE120:
 335              		.loc 1 138 0
 336 0014 1869     		ldr	r0, [r3, #16]
 337              	.LVL17:
 338              		.loc 1 140 0
 339 0016 90F82230 		ldrb	r3, [r0, #34]	@ zero_extendqisi2
ARM GAS  /tmp/ccruCRBh.s 			page 7


 340 001a 0133     		adds	r3, r3, #1
 341 001c 80F82230 		strb	r3, [r0, #34]
 342              	.LVL18:
 343              	.LBB129:
 344              	.LBB128:
 345              	.LBB127:
 346              	.LBB126:
 347              	.LBB125:
 348              		.loc 2 264 0
 349              	@ 264 "../../../../../ChibiOS-RT/os/common/ext/CMSIS/include/cmsis_gcc.h" 1
 350 0020 82F31188 		MSR basepri, r2
 351              	@ 0 "" 2
 352              	.LVL19:
 353              		.thumb
 354              	.LBE125:
 355              	.LBE126:
 356              	.LBE127:
 357              	.LBE128:
 358              	.LBE129:
 359              	.LBE130:
 360              	.LBE131:
 361              		.loc 1 227 0
 362 0024 8442     		cmp	r4, r0
 363 0026 02D1     		bne	.L16
 364 0028 06E0     		b	.L19
 365              	.LVL20:
 366              	.L17:
 367 002a 8442     		cmp	r4, r0
 368 002c 04D0     		beq	.L19
 369              	.L16:
 370              		.loc 1 230 0
 371 002e FFF7FEFF 		bl	chRegNextThread
 372              	.LVL21:
 373              		.loc 1 231 0
 374 0032 0028     		cmp	r0, #0
 375 0034 F9D1     		bne	.L17
 376 0036 10BD     		pop	{r4, pc}
 377              	.LVL22:
 378              	.L19:
 379              		.loc 1 230 0
 380 0038 2046     		mov	r0, r4
 381              	.LVL23:
 382              		.loc 1 234 0
 383 003a 10BD     		pop	{r4, pc}
 384              		.cfi_endproc
 385              	.LFE242:
 386              		.size	chRegFindThreadByPointer, .-chRegFindThreadByPointer
 387 003c AFF30080 		.section	.text.chRegFindThreadByWorkingArea,"ax",%progbits
 388              		.align	2
 389              		.p2align 4,,15
 390              		.global	chRegFindThreadByWorkingArea
 391              		.thumb
 392              		.thumb_func
 393              		.type	chRegFindThreadByWorkingArea, %function
 394              	chRegFindThreadByWorkingArea:
 395              	.LFB243:
 396              		.loc 1 250 0
ARM GAS  /tmp/ccruCRBh.s 			page 8


 397              		.cfi_startproc
 398              		@ args = 0, pretend = 0, frame = 0
 399              		@ frame_needed = 0, uses_anonymous_args = 0
 400              	.LVL24:
 401 0000 10B5     		push	{r4, lr}
 402              		.cfi_def_cfa_offset 8
 403              		.cfi_offset 4, -8
 404              		.cfi_offset 14, -4
 405              	.LBB132:
 406              	.LBB133:
 407              	.LBB134:
 408              	.LBB135:
 409              	.LBB136:
 410              	.LBB137:
 411              		.loc 2 264 0
 412 0002 2023     		movs	r3, #32
 413              	.LBE137:
 414              	.LBE136:
 415              	.LBE135:
 416              	.LBE134:
 417              	.LBE133:
 418              	.LBE132:
 419              		.loc 1 250 0
 420 0004 0446     		mov	r4, r0
 421              	.LBB153:
 422              	.LBB152:
 423              	.LBB141:
 424              	.LBB140:
 425              	.LBB139:
 426              	.LBB138:
 427              		.loc 2 264 0
 428              	@ 264 "../../../../../ChibiOS-RT/os/common/ext/CMSIS/include/cmsis_gcc.h" 1
 429 0006 83F31188 		MSR basepri, r3
 430              	@ 0 "" 2
 431              		.thumb
 432              	.LBE138:
 433              	.LBE139:
 434              	.LBE140:
 435              	.LBE141:
 436              		.loc 1 138 0
 437 000a 40F20003 		movw	r3, #:lower16:ch
 438 000e C0F20003 		movt	r3, #:upper16:ch
 439              	.LBB142:
 440              	.LBB143:
 441              	.LBB144:
 442              	.LBB145:
 443              	.LBB146:
 444              		.loc 2 264 0
 445 0012 0022     		movs	r2, #0
 446              	.LBE146:
 447              	.LBE145:
 448              	.LBE144:
 449              	.LBE143:
 450              	.LBE142:
 451              		.loc 1 138 0
 452 0014 1869     		ldr	r0, [r3, #16]
 453              	.LVL25:
ARM GAS  /tmp/ccruCRBh.s 			page 9


 454              		.loc 1 140 0
 455 0016 90F82230 		ldrb	r3, [r0, #34]	@ zero_extendqisi2
 456 001a 0133     		adds	r3, r3, #1
 457 001c 80F82230 		strb	r3, [r0, #34]
 458              	.LVL26:
 459              	.LBB151:
 460              	.LBB150:
 461              	.LBB149:
 462              	.LBB148:
 463              	.LBB147:
 464              		.loc 2 264 0
 465              	@ 264 "../../../../../ChibiOS-RT/os/common/ext/CMSIS/include/cmsis_gcc.h" 1
 466 0020 82F31188 		MSR basepri, r2
 467              	@ 0 "" 2
 468              		.thumb
 469 0024 02E0     		b	.L22
 470              	.LVL27:
 471              	.L26:
 472              	.LBE147:
 473              	.LBE148:
 474              	.LBE149:
 475              	.LBE150:
 476              	.LBE151:
 477              	.LBE152:
 478              	.LBE153:
 479              		.loc 1 259 0
 480 0026 FFF7FEFF 		bl	chRegNextThread
 481              	.LVL28:
 482              		.loc 1 260 0
 483 002a 10B1     		cbz	r0, .L21
 484              	.LVL29:
 485              	.L22:
 486              		.loc 1 256 0
 487 002c C369     		ldr	r3, [r0, #28]
 488 002e A342     		cmp	r3, r4
 489 0030 F9D1     		bne	.L26
 490              	.LVL30:
 491              	.L21:
 492              		.loc 1 263 0
 493 0032 10BD     		pop	{r4, pc}
 494              		.cfi_endproc
 495              	.LFE243:
 496              		.size	chRegFindThreadByWorkingArea, .-chRegFindThreadByWorkingArea
 497              		.global	ch_debug
 498 0034 AFF30080 		.section	.rodata.ch_debug,"a",%progbits
 498      AFF30080 
 498      AFF30080 
 499              		.align	2
 500              		.type	ch_debug, %object
 501              		.size	ch_debug, 22
 502              	ch_debug:
 503 0000 6D       		.byte	109
 504 0001 61       		.byte	97
 505 0002 69       		.byte	105
 506 0003 6E       		.byte	110
 507 0004 00       		.byte	0
 508 0005 16       		.byte	22
ARM GAS  /tmp/ccruCRBh.s 			page 10


 509 0006 0020     		.short	8192
 510 0008 04       		.byte	4
 511 0009 04       		.byte	4
 512 000a 44       		.byte	68
 513 000b 08       		.byte	8
 514 000c 0C       		.byte	12
 515 000d 10       		.byte	16
 516 000e 14       		.byte	20
 517 000f 18       		.byte	24
 518 0010 1C       		.byte	28
 519 0011 20       		.byte	32
 520 0012 21       		.byte	33
 521 0013 22       		.byte	34
 522 0014 00       		.byte	0
 523 0015 00       		.byte	0
 524 0016 0000     		.text
 525              	.Letext0:
 526              		.file 3 "/usr/lib/gcc/arm-none-eabi/4.8.2/include/stddef.h"
 527              		.file 4 "/usr/include/newlib/machine/_default_types.h"
 528              		.file 5 "/usr/include/newlib/stdint.h"
 529              		.file 6 "../../../../../ChibiOS-RT/os/common/ports/ARMCMx/compilers/GCC/chtypes.h"
 530              		.file 7 "../../../../../ChibiOS-RT/os/rt/include/chsystypes.h"
 531              		.file 8 "../../../../../ChibiOS-RT/os/rt/include/chschd.h"
 532              		.file 9 "../../../../../ChibiOS-RT/os/common/ports/ARMCMx/chcore.h"
 533              		.file 10 "../../../../../ChibiOS-RT/os/common/ports/ARMCMx/chcore_v7m.h"
 534              		.file 11 "../../../../../ChibiOS-RT/os/rt/include/chtrace.h"
 535              		.file 12 "../../../../../ChibiOS-RT/os/rt/include/chtm.h"
 536              		.file 13 "../../../../../ChibiOS-RT/os/rt/include/chsem.h"
 537              		.file 14 "../../../../../ChibiOS-RT/os/rt/include/chmtx.h"
 538              		.file 15 "../../../../../ChibiOS-RT/os/rt/include/chregistry.h"
 539              		.file 16 "../../../../../ChibiOS-RT/os/rt/include/chthreads.h"
 540              		.file 17 "../../../../../ChibiOS-RT/os/rt/include/chsys.h"
 541              		.file 18 "../../../../../ChibiOS-RT/os/common/ext/CMSIS/include/core_cm4.h"
 542              		.file 19 "/usr/include/newlib/string.h"