ARM GAS  /tmp/ccLPNJZZ.s 			page 1


   1              		.syntax unified
   2              		.cpu cortex-m4
   3              		.fpu softvfp
   4              		.eabi_attribute 20, 1
   5              		.eabi_attribute 21, 1
   6              		.eabi_attribute 23, 3
   7              		.eabi_attribute 24, 1
   8              		.eabi_attribute 25, 1
   9              		.eabi_attribute 26, 1
  10              		.eabi_attribute 30, 2
  11              		.eabi_attribute 34, 1
  12              		.eabi_attribute 18, 4
  13              		.thumb
  14              		.file	"chschd.c"
  15              		.text
  16              	.Ltext0:
  17              		.cfi_sections	.debug_frame
  18              		.section	.text.wakeup,"ax",%progbits
  19              		.align	2
  20              		.p2align 4,,15
  21              		.thumb
  22              		.thumb_func
  23              		.type	wakeup, %function
  24              	wakeup:
  25              	.LFB243:
  26              		.file 1 "../../../../../ChibiOS-RT/os/rt/src/chschd.c"
  27              		.loc 1 319 0
  28              		.cfi_startproc
  29              		@ args = 0, pretend = 0, frame = 0
  30              		@ frame_needed = 0, uses_anonymous_args = 0
  31              		@ link register save eliminated.
  32              	.LVL0:
  33 0000 10B4     		push	{r4}
  34              		.cfi_def_cfa_offset 4
  35              		.cfi_offset 4, -4
  36              	.LBB73:
  37              	.LBB74:
  38              	.LBB75:
  39              	.LBB76:
  40              	.LBB77:
  41              		.file 2 "../../../../../ChibiOS-RT/os/common/ext/CMSIS/include/cmsis_gcc.h"
  42              		.loc 2 264 0
  43 0002 2023     		movs	r3, #32
  44              	@ 264 "../../../../../ChibiOS-RT/os/common/ext/CMSIS/include/cmsis_gcc.h" 1
  45 0004 83F31188 		MSR basepri, r3
  46              	@ 0 "" 2
  47              		.thumb
  48              	.LBE77:
  49              	.LBE76:
  50              	.LBE75:
  51              	.LBE74:
  52              	.LBE73:
  53              		.loc 1 323 0
  54 0008 90F82030 		ldrb	r3, [r0, #32]	@ zero_extendqisi2
  55 000c 072B     		cmp	r3, #7
  56 000e 0ED8     		bhi	.L2
  57 0010 DFE803F0 		tbb	[pc, r3]
ARM GAS  /tmp/ccLPNJZZ.s 			page 2


  58              	.L4:
  59 0014 2B       		.byte	(.L3-.L4)/2
  60 0015 0D       		.byte	(.L2-.L4)/2
  61 0016 0D       		.byte	(.L2-.L4)/2
  62 0017 27       		.byte	(.L5-.L4)/2
  63 0018 08       		.byte	(.L6-.L4)/2
  64 0019 04       		.byte	(.L7-.L4)/2
  65 001a 0D       		.byte	(.L2-.L4)/2
  66 001b 08       		.byte	(.L6-.L4)/2
  67              		.align	1
  68              	.L7:
  69              		.loc 1 334 0
  70 001c 436A     		ldr	r3, [r0, #36]
  71              	.LVL1:
  72              	.LBB78:
  73              	.LBB79:
  74              		.file 3 "../../../../../ChibiOS-RT/os/rt/include/chsem.h"
  75              		.loc 3 138 0
  76 001e 9A68     		ldr	r2, [r3, #8]
  77 0020 0132     		adds	r2, r2, #1
  78 0022 9A60     		str	r2, [r3, #8]
  79              	.LVL2:
  80              	.L6:
  81              	.LBE79:
  82              	.LBE78:
  83              	.LBB80:
  84              	.LBB81:
  85              		.file 4 "../../../../../ChibiOS-RT/os/rt/include/chschd.h"
  86              		.loc 4 637 0
  87 0024 90E80C00 		ldmia	r0, {r2, r3}
  88 0028 1A60     		str	r2, [r3]
  89              		.loc 4 638 0
  90 002a 0268     		ldr	r2, [r0]
  91 002c 5360     		str	r3, [r2, #4]
  92              	.LVL3:
  93              	.L2:
  94              	.LBE81:
  95              	.LBE80:
  96              		.loc 1 348 0
  97 002e 4FF0FF34 		mov	r4, #-1
  98              	.LBB82:
  99              	.LBB83:
 100              		.loc 1 227 0
 101 0032 0022     		movs	r2, #0
 102              		.loc 1 228 0
 103 0034 40F20003 		movw	r3, #:lower16:.LANCHOR0
 104 0038 8168     		ldr	r1, [r0, #8]
 105              	.LBE83:
 106              	.LBE82:
 107              		.loc 1 348 0
 108 003a 4462     		str	r4, [r0, #36]
 109              	.LVL4:
 110              	.LBB86:
 111              	.LBB84:
 112              		.loc 1 227 0
 113 003c 80F82020 		strb	r2, [r0, #32]
 114              	.LVL5:
ARM GAS  /tmp/ccLPNJZZ.s 			page 3


 115              		.loc 1 228 0
 116 0040 C0F20003 		movt	r3, #:upper16:.LANCHOR0
 117              	.LVL6:
 118              	.L10:
 119              		.loc 1 230 0
 120 0044 1B68     		ldr	r3, [r3]
 121              	.LVL7:
 122              		.loc 1 231 0
 123 0046 9A68     		ldr	r2, [r3, #8]
 124 0048 8A42     		cmp	r2, r1
 125 004a FBD2     		bcs	.L10
 126              		.loc 1 234 0
 127 004c 5A68     		ldr	r2, [r3, #4]
 128              		.loc 1 233 0
 129 004e 0360     		str	r3, [r0]
 130              		.loc 1 234 0
 131 0050 4260     		str	r2, [r0, #4]
 132              	.LBE84:
 133              	.LBE86:
 134              	.LBB87:
 135              	.LBB88:
 136              	.LBB89:
 137              	.LBB90:
 138              	.LBB91:
 139              		.loc 2 264 0
 140 0052 0021     		movs	r1, #0
 141              	.LBE91:
 142              	.LBE90:
 143              	.LBE89:
 144              	.LBE88:
 145              	.LBE87:
 146              	.LBB96:
 147              	.LBB85:
 148              		.loc 1 235 0
 149 0054 1060     		str	r0, [r2]
 150              		.loc 1 236 0
 151 0056 5860     		str	r0, [r3, #4]
 152              	.LVL8:
 153              	.LBE85:
 154              	.LBE96:
 155              	.LBB97:
 156              	.LBB95:
 157              	.LBB94:
 158              	.LBB93:
 159              	.LBB92:
 160              		.loc 2 264 0
 161              	@ 264 "../../../../../ChibiOS-RT/os/common/ext/CMSIS/include/cmsis_gcc.h" 1
 162 0058 81F31188 		MSR basepri, r1
 163              	@ 0 "" 2
 164              		.thumb
 165              	.LBE92:
 166              	.LBE93:
 167              	.LBE94:
 168              	.LBE95:
 169              	.LBE97:
 170              		.loc 1 351 0
 171 005c 5DF8044B 		ldr	r4, [sp], #4
ARM GAS  /tmp/ccLPNJZZ.s 			page 4


 172 0060 7047     		bx	lr
 173              	.LVL9:
 174              	.L5:
 175              		.loc 1 330 0
 176 0062 436A     		ldr	r3, [r0, #36]
 177 0064 0022     		movs	r2, #0
 178 0066 1A60     		str	r2, [r3]
 179              		.loc 1 331 0
 180 0068 E1E7     		b	.L2
 181              	.L3:
 182              	.LVL10:
 183              	.LBB98:
 184              	.LBB99:
 185              	.LBB100:
 186              	.LBB101:
 187              	.LBB102:
 188              		.loc 2 264 0
 189 006a 0023     		movs	r3, #0
 190              	@ 264 "../../../../../ChibiOS-RT/os/common/ext/CMSIS/include/cmsis_gcc.h" 1
 191 006c 83F31188 		MSR basepri, r3
 192              	@ 0 "" 2
 193              		.thumb
 194              	.LBE102:
 195              	.LBE101:
 196              	.LBE100:
 197              	.LBE99:
 198              	.LBE98:
 199              		.loc 1 351 0
 200 0070 5DF8044B 		ldr	r4, [sp], #4
 201 0074 7047     		bx	lr
 202              		.cfi_endproc
 203              	.LFE243:
 204              		.size	wakeup, .-wakeup
 205 0076 00BFAFF3 		.section	.text._scheduler_init,"ax",%progbits
 205      0080AFF3 
 205      0080
 206              		.align	2
 207              		.p2align 4,,15
 208              		.global	_scheduler_init
 209              		.thumb
 210              		.thumb_func
 211              		.type	_scheduler_init, %function
 212              	_scheduler_init:
 213              	.LFB239:
 214              		.loc 1 65 0
 215              		.cfi_startproc
 216              		@ args = 0, pretend = 0, frame = 0
 217              		@ frame_needed = 0, uses_anonymous_args = 0
 218              		@ link register save eliminated.
 219              	.LVL11:
 220              	.LBB103:
 221              	.LBB104:
 222              		.loc 4 550 0
 223 0000 40F20003 		movw	r3, #:lower16:.LANCHOR0
 224 0004 C0F20003 		movt	r3, #:upper16:.LANCHOR0
 225              	.LBE104:
 226              	.LBE103:
ARM GAS  /tmp/ccLPNJZZ.s 			page 5


 227              		.loc 1 68 0
 228 0008 0022     		movs	r2, #0
 229              	.LBB106:
 230              	.LBB105:
 231              		.loc 4 550 0
 232 000a 1B60     		str	r3, [r3]
 233              		.loc 4 551 0
 234 000c 5B60     		str	r3, [r3, #4]
 235              	.LBE105:
 236              	.LBE106:
 237              		.loc 1 70 0
 238 000e 1B61     		str	r3, [r3, #16]
 239              		.loc 1 71 0
 240 0010 5B61     		str	r3, [r3, #20]
 241              		.loc 1 68 0
 242 0012 9A60     		str	r2, [r3, #8]
 243 0014 7047     		bx	lr
 244              		.cfi_endproc
 245              	.LFE239:
 246              		.size	_scheduler_init, .-_scheduler_init
 247 0016 00BFAFF3 		.section	.text.chSchReadyI,"ax",%progbits
 247      0080AFF3 
 247      0080
 248              		.align	2
 249              		.p2align 4,,15
 250              		.global	chSchReadyI
 251              		.thumb
 252              		.thumb_func
 253              		.type	chSchReadyI, %function
 254              	chSchReadyI:
 255              	.LFB240:
 256              		.loc 1 218 0
 257              		.cfi_startproc
 258              		@ args = 0, pretend = 0, frame = 0
 259              		@ frame_needed = 0, uses_anonymous_args = 0
 260              		@ link register save eliminated.
 261              	.LVL12:
 262              		.loc 1 227 0
 263 0000 0023     		movs	r3, #0
 264              		.loc 1 218 0
 265 0002 10B4     		push	{r4}
 266              		.cfi_def_cfa_offset 4
 267              		.cfi_offset 4, -4
 268 0004 8168     		ldr	r1, [r0, #8]
 269              		.loc 1 227 0
 270 0006 80F82030 		strb	r3, [r0, #32]
 271              	.LVL13:
 272              		.loc 1 228 0
 273 000a 40F20003 		movw	r3, #:lower16:.LANCHOR0
 274              		.loc 1 218 0
 275 000e 0446     		mov	r4, r0
 276              		.loc 1 228 0
 277 0010 C0F20003 		movt	r3, #:upper16:.LANCHOR0
 278              	.LVL14:
 279              	.L15:
 280              		.loc 1 230 0 discriminator 1
 281 0014 1B68     		ldr	r3, [r3]
ARM GAS  /tmp/ccLPNJZZ.s 			page 6


 282              	.LVL15:
 283              		.loc 1 231 0 discriminator 1
 284 0016 9A68     		ldr	r2, [r3, #8]
 285 0018 8A42     		cmp	r2, r1
 286 001a FBD2     		bcs	.L15
 287              		.loc 1 234 0
 288 001c 5A68     		ldr	r2, [r3, #4]
 289              		.loc 1 233 0
 290 001e 2360     		str	r3, [r4]
 291              		.loc 1 234 0
 292 0020 6260     		str	r2, [r4, #4]
 293              		.loc 1 239 0
 294 0022 2046     		mov	r0, r4
 295              	.LVL16:
 296              		.loc 1 235 0
 297 0024 1460     		str	r4, [r2]
 298              		.loc 1 236 0
 299 0026 5C60     		str	r4, [r3, #4]
 300              		.loc 1 239 0
 301 0028 5DF8044B 		ldr	r4, [sp], #4
 302              	.LVL17:
 303 002c 7047     		bx	lr
 304              		.cfi_endproc
 305              	.LFE240:
 306              		.size	chSchReadyI, .-chSchReadyI
 307 002e 00BF     		.section	.text.chSchReadyAheadI,"ax",%progbits
 308              		.align	2
 309              		.p2align 4,,15
 310              		.global	chSchReadyAheadI
 311              		.thumb
 312              		.thumb_func
 313              		.type	chSchReadyAheadI, %function
 314              	chSchReadyAheadI:
 315              	.LFB241:
 316              		.loc 1 257 0
 317              		.cfi_startproc
 318              		@ args = 0, pretend = 0, frame = 0
 319              		@ frame_needed = 0, uses_anonymous_args = 0
 320              		@ link register save eliminated.
 321              	.LVL18:
 322              		.loc 1 266 0
 323 0000 0023     		movs	r3, #0
 324              		.loc 1 257 0
 325 0002 10B4     		push	{r4}
 326              		.cfi_def_cfa_offset 4
 327              		.cfi_offset 4, -4
 328 0004 8168     		ldr	r1, [r0, #8]
 329              		.loc 1 266 0
 330 0006 80F82030 		strb	r3, [r0, #32]
 331              	.LVL19:
 332              		.loc 1 267 0
 333 000a 40F20003 		movw	r3, #:lower16:.LANCHOR0
 334              		.loc 1 257 0
 335 000e 0446     		mov	r4, r0
 336              		.loc 1 267 0
 337 0010 C0F20003 		movt	r3, #:upper16:.LANCHOR0
 338              	.LVL20:
ARM GAS  /tmp/ccLPNJZZ.s 			page 7


 339              	.L18:
 340              		.loc 1 269 0 discriminator 1
 341 0014 1B68     		ldr	r3, [r3]
 342              	.LVL21:
 343              		.loc 1 270 0 discriminator 1
 344 0016 9A68     		ldr	r2, [r3, #8]
 345 0018 8A42     		cmp	r2, r1
 346 001a FBD8     		bhi	.L18
 347              		.loc 1 273 0
 348 001c 5A68     		ldr	r2, [r3, #4]
 349              		.loc 1 272 0
 350 001e 2360     		str	r3, [r4]
 351              		.loc 1 273 0
 352 0020 6260     		str	r2, [r4, #4]
 353              		.loc 1 278 0
 354 0022 2046     		mov	r0, r4
 355              	.LVL22:
 356              		.loc 1 274 0
 357 0024 1460     		str	r4, [r2]
 358              		.loc 1 275 0
 359 0026 5C60     		str	r4, [r3, #4]
 360              		.loc 1 278 0
 361 0028 5DF8044B 		ldr	r4, [sp], #4
 362              	.LVL23:
 363 002c 7047     		bx	lr
 364              		.cfi_endproc
 365              	.LFE241:
 366              		.size	chSchReadyAheadI, .-chSchReadyAheadI
 367 002e 00BF     		.section	.text.chSchGoSleepS,"ax",%progbits
 368              		.align	2
 369              		.p2align 4,,15
 370              		.global	chSchGoSleepS
 371              		.thumb
 372              		.thumb_func
 373              		.type	chSchGoSleepS, %function
 374              	chSchGoSleepS:
 375              	.LFB242:
 376              		.loc 1 289 0
 377              		.cfi_startproc
 378              		@ args = 0, pretend = 0, frame = 0
 379              		@ frame_needed = 0, uses_anonymous_args = 0
 380              	.LVL24:
 381 0000 70B5     		push	{r4, r5, r6, lr}
 382              		.cfi_def_cfa_offset 16
 383              		.cfi_offset 4, -16
 384              		.cfi_offset 5, -12
 385              		.cfi_offset 6, -8
 386              		.cfi_offset 14, -4
 387              		.loc 1 290 0
 388 0002 40F20004 		movw	r4, #:lower16:.LANCHOR0
 389 0006 C0F20004 		movt	r4, #:upper16:.LANCHOR0
 390              		.loc 1 305 0
 391 000a 0126     		movs	r6, #1
 392              	.LBB107:
 393              	.LBB108:
 394              		.loc 4 618 0
 395 000c 2368     		ldr	r3, [r4]
ARM GAS  /tmp/ccLPNJZZ.s 			page 8


 396              	.LBE108:
 397              	.LBE107:
 398              		.loc 1 290 0
 399 000e A569     		ldr	r5, [r4, #24]
 400              	.LVL25:
 401              	.LBB112:
 402              	.LBB109:
 403              		.loc 4 620 0
 404 0010 1A68     		ldr	r2, [r3]
 405              	.LBE109:
 406              	.LBE112:
 407              		.loc 1 295 0
 408 0012 85F82000 		strb	r0, [r5, #32]
 409              	.LVL26:
 410              		.loc 1 313 0
 411 0016 2946     		mov	r1, r5
 412              	.LBB113:
 413              	.LBB110:
 414              		.loc 4 621 0
 415 0018 5460     		str	r4, [r2, #4]
 416              	.LBE110:
 417              	.LBE113:
 418              		.loc 1 313 0
 419 001a 1846     		mov	r0, r3
 420              	.LVL27:
 421              		.loc 1 305 0
 422 001c 83F82060 		strb	r6, [r3, #32]
 423              	.LVL28:
 424              	.LBB114:
 425              	.LBB111:
 426              		.loc 4 620 0
 427 0020 2260     		str	r2, [r4]
 428              	.LBE111:
 429              	.LBE114:
 430              		.loc 1 304 0
 431 0022 A361     		str	r3, [r4, #24]
 432              		.loc 1 313 0
 433 0024 FFF7FEFF 		bl	_trace_switch
 434              	.LVL29:
 435 0028 2946     		mov	r1, r5
 436 002a A069     		ldr	r0, [r4, #24]
 437              		.loc 1 314 0
 438 002c BDE87040 		pop	{r4, r5, r6, lr}
 439              	.LVL30:
 440              		.loc 1 313 0
 441 0030 FFF7FEBF 		b	_port_switch
 442              	.LVL31:
 443              		.cfi_endproc
 444              	.LFE242:
 445              		.size	chSchGoSleepS, .-chSchGoSleepS
 446 0034 AFF30080 		.section	.text.chSchGoSleepTimeoutS,"ax",%progbits
 446      AFF30080 
 446      AFF30080 
 447              		.align	2
 448              		.p2align 4,,15
 449              		.global	chSchGoSleepTimeoutS
 450              		.thumb
ARM GAS  /tmp/ccLPNJZZ.s 			page 9


 451              		.thumb_func
 452              		.type	chSchGoSleepTimeoutS, %function
 453              	chSchGoSleepTimeoutS:
 454              	.LFB244:
 455              		.loc 1 374 0
 456              		.cfi_startproc
 457              		@ args = 0, pretend = 0, frame = 24
 458              		@ frame_needed = 0, uses_anonymous_args = 0
 459              	.LVL32:
 460 0000 30B5     		push	{r4, r5, lr}
 461              		.cfi_def_cfa_offset 12
 462              		.cfi_offset 4, -12
 463              		.cfi_offset 5, -8
 464              		.cfi_offset 14, -4
 465              		.loc 1 378 0
 466 0002 4B1C     		adds	r3, r1, #1
 467              		.loc 1 374 0
 468 0004 87B0     		sub	sp, sp, #28
 469              		.cfi_def_cfa_offset 40
 470              		.loc 1 374 0
 471 0006 0546     		mov	r5, r0
 472              		.loc 1 378 0
 473 0008 17D0     		beq	.L21
 474              	.LBB115:
 475              		.loc 1 381 0
 476 000a 40F20004 		movw	r4, #:lower16:.LANCHOR0
 477 000e C0F20004 		movt	r4, #:upper16:.LANCHOR0
 478 0012 40F20002 		movw	r2, #:lower16:wakeup
 479 0016 A369     		ldr	r3, [r4, #24]
 480 0018 01A8     		add	r0, sp, #4
 481              	.LVL33:
 482 001a C0F20002 		movt	r2, #:upper16:wakeup
 483 001e FFF7FEFF 		bl	chVTDoSetI
 484              	.LVL34:
 485              		.loc 1 382 0
 486 0022 2846     		mov	r0, r5
 487 0024 FFF7FEFF 		bl	chSchGoSleepS
 488              	.LVL35:
 489              		.loc 1 383 0
 490 0028 049B     		ldr	r3, [sp, #16]
 491 002a 13B1     		cbz	r3, .L23
 492              		.loc 1 384 0
 493 002c 01A8     		add	r0, sp, #4
 494              	.LVL36:
 495 002e FFF7FEFF 		bl	chVTDoResetI
 496              	.LVL37:
 497              	.L23:
 498              	.LBE115:
 499              		.loc 1 391 0
 500 0032 A369     		ldr	r3, [r4, #24]
 501              		.loc 1 392 0
 502 0034 586A     		ldr	r0, [r3, #36]
 503 0036 07B0     		add	sp, sp, #28
 504              		@ sp needed
 505 0038 30BD     		pop	{r4, r5, pc}
 506              	.LVL38:
 507              	.L21:
ARM GAS  /tmp/ccLPNJZZ.s 			page 10


 508 003a 40F20004 		movw	r4, #:lower16:.LANCHOR0
 509 003e C0F20004 		movt	r4, #:upper16:.LANCHOR0
 510              		.loc 1 388 0
 511 0042 FFF7FEFF 		bl	chSchGoSleepS
 512              	.LVL39:
 513              		.loc 1 391 0
 514 0046 A369     		ldr	r3, [r4, #24]
 515              		.loc 1 392 0
 516 0048 586A     		ldr	r0, [r3, #36]
 517 004a 07B0     		add	sp, sp, #28
 518              		@ sp needed
 519 004c 30BD     		pop	{r4, r5, pc}
 520              		.cfi_endproc
 521              	.LFE244:
 522              		.size	chSchGoSleepTimeoutS, .-chSchGoSleepTimeoutS
 523 004e 00BF     		.section	.text.chSchWakeupS,"ax",%progbits
 524              		.align	2
 525              		.p2align 4,,15
 526              		.global	chSchWakeupS
 527              		.thumb
 528              		.thumb_func
 529              		.type	chSchWakeupS, %function
 530              	chSchWakeupS:
 531              	.LFB245:
 532              		.loc 1 411 0
 533              		.cfi_startproc
 534              		@ args = 0, pretend = 0, frame = 0
 535              		@ frame_needed = 0, uses_anonymous_args = 0
 536              	.LVL40:
 537              		.loc 1 412 0
 538 0000 40F2000C 		movw	ip, #:lower16:.LANCHOR0
 539 0004 C0F2000C 		movt	ip, #:upper16:.LANCHOR0
 540              		.loc 1 411 0
 541 0008 F8B5     		push	{r3, r4, r5, r6, r7, lr}
 542              		.cfi_def_cfa_offset 24
 543              		.cfi_offset 3, -24
 544              		.cfi_offset 4, -20
 545              		.cfi_offset 5, -16
 546              		.cfi_offset 6, -12
 547              		.cfi_offset 7, -8
 548              		.cfi_offset 14, -4
 549              		.loc 1 412 0
 550 000a DCF81870 		ldr	r7, [ip, #24]
 551              	.LVL41:
 552              		.loc 1 428 0
 553 000e 8568     		ldr	r5, [r0, #8]
 554 0010 BC68     		ldr	r4, [r7, #8]
 555              		.loc 1 422 0
 556 0012 4162     		str	r1, [r0, #36]
 557              		.loc 1 428 0
 558 0014 A542     		cmp	r5, r4
 559              		.loc 1 411 0
 560 0016 0646     		mov	r6, r0
 561              		.loc 1 428 0
 562 0018 0DD8     		bhi	.L28
 563              	.LVL42:
 564              	.LBB116:
ARM GAS  /tmp/ccLPNJZZ.s 			page 11


 565              	.LBB117:
 566              		.loc 1 227 0
 567 001a 0022     		movs	r2, #0
 568              		.loc 1 228 0
 569 001c 6346     		mov	r3, ip
 570              		.loc 1 227 0
 571 001e 80F82020 		strb	r2, [r0, #32]
 572              	.LVL43:
 573              	.L30:
 574              		.loc 1 230 0
 575 0022 1B68     		ldr	r3, [r3]
 576              	.LVL44:
 577              		.loc 1 231 0
 578 0024 9A68     		ldr	r2, [r3, #8]
 579 0026 9542     		cmp	r5, r2
 580 0028 FBD9     		bls	.L30
 581              		.loc 1 234 0
 582 002a 5A68     		ldr	r2, [r3, #4]
 583              		.loc 1 233 0
 584 002c 3360     		str	r3, [r6]
 585              		.loc 1 234 0
 586 002e 7260     		str	r2, [r6, #4]
 587              		.loc 1 235 0
 588 0030 1660     		str	r6, [r2]
 589              		.loc 1 236 0
 590 0032 5E60     		str	r6, [r3, #4]
 591 0034 F8BD     		pop	{r3, r4, r5, r6, r7, pc}
 592              	.LVL45:
 593              	.L28:
 594              	.LBE117:
 595              	.LBE116:
 596              	.LBB118:
 597              	.LBB119:
 598              		.loc 1 227 0
 599 0036 0023     		movs	r3, #0
 600 0038 87F82030 		strb	r3, [r7, #32]
 601              	.LVL46:
 602              		.loc 1 228 0
 603 003c 6346     		mov	r3, ip
 604              	.LVL47:
 605              	.L33:
 606              		.loc 1 230 0
 607 003e 1B68     		ldr	r3, [r3]
 608              	.LVL48:
 609              		.loc 1 231 0
 610 0040 9A68     		ldr	r2, [r3, #8]
 611 0042 9442     		cmp	r4, r2
 612 0044 FBD9     		bls	.L33
 613              		.loc 1 234 0
 614 0046 5A68     		ldr	r2, [r3, #4]
 615              		.loc 1 233 0
 616 0048 3B60     		str	r3, [r7]
 617              	.LBE119:
 618              	.LBE118:
 619              		.loc 1 441 0
 620 004a 0124     		movs	r4, #1
 621              	.LBB123:
ARM GAS  /tmp/ccLPNJZZ.s 			page 12


 622              	.LBB120:
 623              		.loc 1 234 0
 624 004c 7A60     		str	r2, [r7, #4]
 625              	.LBE120:
 626              	.LBE123:
 627              		.loc 1 444 0
 628 004e 3046     		mov	r0, r6
 629              	.LVL49:
 630              	.LBB124:
 631              	.LBB121:
 632              		.loc 1 235 0
 633 0050 1760     		str	r7, [r2]
 634              	.LBE121:
 635              	.LBE124:
 636              		.loc 1 444 0
 637 0052 3946     		mov	r1, r7
 638              	.LVL50:
 639              	.LBB125:
 640              	.LBB122:
 641              		.loc 1 236 0
 642 0054 5F60     		str	r7, [r3, #4]
 643              	.LVL51:
 644              	.LBE122:
 645              	.LBE125:
 646              		.loc 1 441 0
 647 0056 86F82040 		strb	r4, [r6, #32]
 648              		.loc 1 440 0
 649 005a CCF81860 		str	r6, [ip, #24]
 650              		.loc 1 444 0
 651 005e FFF7FEFF 		bl	_trace_switch
 652              	.LVL52:
 653 0062 3046     		mov	r0, r6
 654 0064 3946     		mov	r1, r7
 655              		.loc 1 446 0
 656 0066 BDE8F840 		pop	{r3, r4, r5, r6, r7, lr}
 657              	.LVL53:
 658              		.loc 1 444 0
 659 006a FFF7FEBF 		b	_port_switch
 660              	.LVL54:
 661              		.cfi_endproc
 662              	.LFE245:
 663              		.size	chSchWakeupS, .-chSchWakeupS
 664 006e 00BF     		.section	.text.chSchIsPreemptionRequired,"ax",%progbits
 665              		.align	2
 666              		.p2align 4,,15
 667              		.global	chSchIsPreemptionRequired
 668              		.thumb
 669              		.thumb_func
 670              		.type	chSchIsPreemptionRequired, %function
 671              	chSchIsPreemptionRequired:
 672              	.LFB247:
 673              		.loc 1 477 0
 674              		.cfi_startproc
 675              		@ args = 0, pretend = 0, frame = 0
 676              		@ frame_needed = 0, uses_anonymous_args = 0
 677              		@ link register save eliminated.
 678              	.LVL55:
ARM GAS  /tmp/ccLPNJZZ.s 			page 13


 679              		.loc 1 478 0
 680 0000 40F20003 		movw	r3, #:lower16:.LANCHOR0
 681 0004 C0F20003 		movt	r3, #:upper16:.LANCHOR0
 682 0008 1A68     		ldr	r2, [r3]
 683              		.loc 1 479 0
 684 000a 9B69     		ldr	r3, [r3, #24]
 685              		.loc 1 490 0
 686 000c 9068     		ldr	r0, [r2, #8]
 687 000e 9B68     		ldr	r3, [r3, #8]
 688              		.loc 1 492 0
 689 0010 9842     		cmp	r0, r3
 690 0012 94BF     		ite	ls
 691 0014 0020     		movls	r0, #0
 692 0016 0120     		movhi	r0, #1
 693 0018 7047     		bx	lr
 694              		.cfi_endproc
 695              	.LFE247:
 696              		.size	chSchIsPreemptionRequired, .-chSchIsPreemptionRequired
 697 001a 00BFAFF3 		.section	.text.chSchDoRescheduleBehind,"ax",%progbits
 697      0080
 698              		.align	2
 699              		.p2align 4,,15
 700              		.global	chSchDoRescheduleBehind
 701              		.thumb
 702              		.thumb_func
 703              		.type	chSchDoRescheduleBehind, %function
 704              	chSchDoRescheduleBehind:
 705              	.LFB248:
 706              		.loc 1 504 0
 707              		.cfi_startproc
 708              		@ args = 0, pretend = 0, frame = 0
 709              		@ frame_needed = 0, uses_anonymous_args = 0
 710 0000 70B5     		push	{r4, r5, r6, lr}
 711              		.cfi_def_cfa_offset 16
 712              		.cfi_offset 4, -16
 713              		.cfi_offset 5, -12
 714              		.cfi_offset 6, -8
 715              		.cfi_offset 14, -4
 716              		.loc 1 505 0
 717 0002 40F20006 		movw	r6, #:lower16:.LANCHOR0
 718 0006 C0F20006 		movt	r6, #:upper16:.LANCHOR0
 719              		.loc 1 509 0
 720 000a 0121     		movs	r1, #1
 721              	.LBB126:
 722              	.LBB127:
 723              		.loc 4 618 0
 724 000c 3068     		ldr	r0, [r6]
 725              	.LBE127:
 726              	.LBE126:
 727              		.loc 1 505 0
 728 000e B569     		ldr	r5, [r6, #24]
 729              	.LVL56:
 730              	.LBB130:
 731              	.LBB128:
 732              		.loc 4 620 0
 733 0010 0368     		ldr	r3, [r0]
 734 0012 AC68     		ldr	r4, [r5, #8]
ARM GAS  /tmp/ccLPNJZZ.s 			page 14


 735 0014 3360     		str	r3, [r6]
 736              	.LBE128:
 737              	.LBE130:
 738              	.LBB131:
 739              	.LBB132:
 740              		.loc 1 227 0
 741 0016 0022     		movs	r2, #0
 742              	.LBE132:
 743              	.LBE131:
 744              	.LBB135:
 745              	.LBB129:
 746              		.loc 4 621 0
 747 0018 5E60     		str	r6, [r3, #4]
 748              	.LBE129:
 749              	.LBE135:
 750              		.loc 1 509 0
 751 001a 80F82010 		strb	r1, [r0, #32]
 752              	.LVL57:
 753              		.loc 1 508 0
 754 001e B061     		str	r0, [r6, #24]
 755              	.LBB136:
 756              	.LBB133:
 757              		.loc 1 227 0
 758 0020 85F82020 		strb	r2, [r5, #32]
 759              	.LVL58:
 760 0024 00E0     		b	.L38
 761              	.LVL59:
 762              	.L39:
 763 0026 1B68     		ldr	r3, [r3]
 764              	.LVL60:
 765              	.L38:
 766              		.loc 1 231 0
 767 0028 9A68     		ldr	r2, [r3, #8]
 768 002a A242     		cmp	r2, r4
 769 002c FBD2     		bcs	.L39
 770              		.loc 1 234 0
 771 002e 5A68     		ldr	r2, [r3, #4]
 772              		.loc 1 233 0
 773 0030 2B60     		str	r3, [r5]
 774              		.loc 1 234 0
 775 0032 6A60     		str	r2, [r5, #4]
 776              	.LBE133:
 777              	.LBE136:
 778              		.loc 1 525 0
 779 0034 2946     		mov	r1, r5
 780              	.LBB137:
 781              	.LBB134:
 782              		.loc 1 235 0
 783 0036 1560     		str	r5, [r2]
 784              		.loc 1 236 0
 785 0038 5D60     		str	r5, [r3, #4]
 786              	.LVL61:
 787              	.LBE134:
 788              	.LBE137:
 789              		.loc 1 525 0
 790 003a FFF7FEFF 		bl	_trace_switch
 791              	.LVL62:
ARM GAS  /tmp/ccLPNJZZ.s 			page 15


 792 003e B069     		ldr	r0, [r6, #24]
 793 0040 2946     		mov	r1, r5
 794              		.loc 1 526 0
 795 0042 BDE87040 		pop	{r4, r5, r6, lr}
 796              	.LVL63:
 797              		.loc 1 525 0
 798 0046 FFF7FEBF 		b	_port_switch
 799              	.LVL64:
 800              		.cfi_endproc
 801              	.LFE248:
 802              		.size	chSchDoRescheduleBehind, .-chSchDoRescheduleBehind
 803 004a 00BFAFF3 		.section	.text.chSchDoRescheduleAhead,"ax",%progbits
 803      0080
 804              		.align	2
 805              		.p2align 4,,15
 806              		.global	chSchDoRescheduleAhead
 807              		.thumb
 808              		.thumb_func
 809              		.type	chSchDoRescheduleAhead, %function
 810              	chSchDoRescheduleAhead:
 811              	.LFB249:
 812              		.loc 1 537 0
 813              		.cfi_startproc
 814              		@ args = 0, pretend = 0, frame = 0
 815              		@ frame_needed = 0, uses_anonymous_args = 0
 816 0000 70B5     		push	{r4, r5, r6, lr}
 817              		.cfi_def_cfa_offset 16
 818              		.cfi_offset 4, -16
 819              		.cfi_offset 5, -12
 820              		.cfi_offset 6, -8
 821              		.cfi_offset 14, -4
 822              		.loc 1 538 0
 823 0002 40F20006 		movw	r6, #:lower16:.LANCHOR0
 824 0006 C0F20006 		movt	r6, #:upper16:.LANCHOR0
 825              		.loc 1 542 0
 826 000a 0121     		movs	r1, #1
 827              	.LBB138:
 828              	.LBB139:
 829              		.loc 4 618 0
 830 000c 3068     		ldr	r0, [r6]
 831              	.LBE139:
 832              	.LBE138:
 833              		.loc 1 538 0
 834 000e B569     		ldr	r5, [r6, #24]
 835              	.LVL65:
 836              	.LBB142:
 837              	.LBB140:
 838              		.loc 4 620 0
 839 0010 0368     		ldr	r3, [r0]
 840 0012 AC68     		ldr	r4, [r5, #8]
 841 0014 3360     		str	r3, [r6]
 842              	.LBE140:
 843              	.LBE142:
 844              	.LBB143:
 845              	.LBB144:
 846              		.loc 1 266 0
 847 0016 0022     		movs	r2, #0
ARM GAS  /tmp/ccLPNJZZ.s 			page 16


 848              	.LBE144:
 849              	.LBE143:
 850              	.LBB147:
 851              	.LBB141:
 852              		.loc 4 621 0
 853 0018 5E60     		str	r6, [r3, #4]
 854              	.LBE141:
 855              	.LBE147:
 856              		.loc 1 542 0
 857 001a 80F82010 		strb	r1, [r0, #32]
 858              	.LVL66:
 859              		.loc 1 541 0
 860 001e B061     		str	r0, [r6, #24]
 861              	.LBB148:
 862              	.LBB145:
 863              		.loc 1 266 0
 864 0020 85F82020 		strb	r2, [r5, #32]
 865              	.LVL67:
 866 0024 00E0     		b	.L42
 867              	.LVL68:
 868              	.L43:
 869 0026 1B68     		ldr	r3, [r3]
 870              	.LVL69:
 871              	.L42:
 872              		.loc 1 270 0
 873 0028 9A68     		ldr	r2, [r3, #8]
 874 002a A242     		cmp	r2, r4
 875 002c FBD8     		bhi	.L43
 876              		.loc 1 273 0
 877 002e 5A68     		ldr	r2, [r3, #4]
 878              		.loc 1 272 0
 879 0030 2B60     		str	r3, [r5]
 880              		.loc 1 273 0
 881 0032 6A60     		str	r2, [r5, #4]
 882              	.LBE145:
 883              	.LBE148:
 884              		.loc 1 553 0
 885 0034 2946     		mov	r1, r5
 886              	.LBB149:
 887              	.LBB146:
 888              		.loc 1 274 0
 889 0036 1560     		str	r5, [r2]
 890              		.loc 1 275 0
 891 0038 5D60     		str	r5, [r3, #4]
 892              	.LVL70:
 893              	.LBE146:
 894              	.LBE149:
 895              		.loc 1 553 0
 896 003a FFF7FEFF 		bl	_trace_switch
 897              	.LVL71:
 898 003e B069     		ldr	r0, [r6, #24]
 899 0040 2946     		mov	r1, r5
 900              		.loc 1 554 0
 901 0042 BDE87040 		pop	{r4, r5, r6, lr}
 902              	.LVL72:
 903              		.loc 1 553 0
 904 0046 FFF7FEBF 		b	_port_switch
ARM GAS  /tmp/ccLPNJZZ.s 			page 17


 905              	.LVL73:
 906              		.cfi_endproc
 907              	.LFE249:
 908              		.size	chSchDoRescheduleAhead, .-chSchDoRescheduleAhead
 909 004a 00BFAFF3 		.section	.text.chSchRescheduleS,"ax",%progbits
 909      0080
 910              		.align	2
 911              		.p2align 4,,15
 912              		.global	chSchRescheduleS
 913              		.thumb
 914              		.thumb_func
 915              		.type	chSchRescheduleS, %function
 916              	chSchRescheduleS:
 917              	.LFB246:
 918              		.loc 1 455 0
 919              		.cfi_startproc
 920              		@ args = 0, pretend = 0, frame = 0
 921              		@ frame_needed = 0, uses_anonymous_args = 0
 922              		@ link register save eliminated.
 923              	.LBB150:
 924              	.LBB151:
 925              		.loc 4 659 0
 926 0000 40F20003 		movw	r3, #:lower16:.LANCHOR0
 927 0004 C0F20003 		movt	r3, #:upper16:.LANCHOR0
 928 0008 1A68     		ldr	r2, [r3]
 929 000a 9B69     		ldr	r3, [r3, #24]
 930              	.LBE151:
 931              	.LBE150:
 932              		.loc 1 459 0
 933 000c 9268     		ldr	r2, [r2, #8]
 934 000e 9B68     		ldr	r3, [r3, #8]
 935 0010 9A42     		cmp	r2, r3
 936 0012 00D8     		bhi	.L46
 937 0014 7047     		bx	lr
 938              	.L46:
 939              		.loc 1 460 0
 940 0016 FFF7FEBF 		b	chSchDoRescheduleAhead
 941              	.LVL74:
 942              		.cfi_endproc
 943              	.LFE246:
 944              		.size	chSchRescheduleS, .-chSchRescheduleS
 945 001a 00BFAFF3 		.section	.text.chSchDoReschedule,"ax",%progbits
 945      0080
 946              		.align	2
 947              		.p2align 4,,15
 948              		.global	chSchDoReschedule
 949              		.thumb
 950              		.thumb_func
 951              		.type	chSchDoReschedule, %function
 952              	chSchDoReschedule:
 953              	.LFB250:
 954              		.loc 1 566 0
 955              		.cfi_startproc
 956              		@ args = 0, pretend = 0, frame = 0
 957              		@ frame_needed = 0, uses_anonymous_args = 0
 958 0000 70B5     		push	{r4, r5, r6, lr}
 959              		.cfi_def_cfa_offset 16
ARM GAS  /tmp/ccLPNJZZ.s 			page 18


 960              		.cfi_offset 4, -16
 961              		.cfi_offset 5, -12
 962              		.cfi_offset 6, -8
 963              		.cfi_offset 14, -4
 964              		.loc 1 567 0
 965 0002 40F20006 		movw	r6, #:lower16:.LANCHOR0
 966 0006 C0F20006 		movt	r6, #:upper16:.LANCHOR0
 967              		.loc 1 571 0
 968 000a 0121     		movs	r1, #1
 969              	.LBB152:
 970              	.LBB153:
 971              		.loc 4 618 0
 972 000c 3068     		ldr	r0, [r6]
 973              	.LBE153:
 974              	.LBE152:
 975              		.loc 1 567 0
 976 000e B569     		ldr	r5, [r6, #24]
 977              	.LVL75:
 978              	.LBB156:
 979              	.LBB154:
 980              		.loc 4 620 0
 981 0010 0368     		ldr	r3, [r0]
 982 0012 AC68     		ldr	r4, [r5, #8]
 983 0014 3360     		str	r3, [r6]
 984              	.LBE154:
 985              	.LBE156:
 986              	.LBB157:
 987              	.LBB158:
 988              		.loc 1 266 0
 989 0016 0022     		movs	r2, #0
 990              	.LBE158:
 991              	.LBE157:
 992              	.LBB161:
 993              	.LBB155:
 994              		.loc 4 621 0
 995 0018 5E60     		str	r6, [r3, #4]
 996              	.LBE155:
 997              	.LBE161:
 998              		.loc 1 571 0
 999 001a 80F82010 		strb	r1, [r0, #32]
 1000              	.LVL76:
 1001              		.loc 1 570 0
 1002 001e B061     		str	r0, [r6, #24]
 1003              	.LBB162:
 1004              	.LBB159:
 1005              		.loc 1 266 0
 1006 0020 85F82020 		strb	r2, [r5, #32]
 1007              	.LVL77:
 1008 0024 00E0     		b	.L49
 1009              	.LVL78:
 1010              	.L50:
 1011 0026 1B68     		ldr	r3, [r3]
 1012              	.LVL79:
 1013              	.L49:
 1014              		.loc 1 270 0
 1015 0028 9A68     		ldr	r2, [r3, #8]
 1016 002a A242     		cmp	r2, r4
ARM GAS  /tmp/ccLPNJZZ.s 			page 19


 1017 002c FBD8     		bhi	.L50
 1018              		.loc 1 273 0
 1019 002e 5A68     		ldr	r2, [r3, #4]
 1020              		.loc 1 272 0
 1021 0030 2B60     		str	r3, [r5]
 1022              		.loc 1 273 0
 1023 0032 6A60     		str	r2, [r5, #4]
 1024              	.LBE159:
 1025              	.LBE162:
 1026              		.loc 1 602 0
 1027 0034 2946     		mov	r1, r5
 1028              	.LBB163:
 1029              	.LBB160:
 1030              		.loc 1 274 0
 1031 0036 1560     		str	r5, [r2]
 1032              		.loc 1 275 0
 1033 0038 5D60     		str	r5, [r3, #4]
 1034              	.LVL80:
 1035              	.LBE160:
 1036              	.LBE163:
 1037              		.loc 1 602 0
 1038 003a FFF7FEFF 		bl	_trace_switch
 1039              	.LVL81:
 1040 003e B069     		ldr	r0, [r6, #24]
 1041 0040 2946     		mov	r1, r5
 1042              		.loc 1 603 0
 1043 0042 BDE87040 		pop	{r4, r5, r6, lr}
 1044              	.LVL82:
 1045              		.loc 1 602 0
 1046 0046 FFF7FEBF 		b	_port_switch
 1047              	.LVL83:
 1048              		.cfi_endproc
 1049              	.LFE250:
 1050              		.size	chSchDoReschedule, .-chSchDoReschedule
 1051              		.global	ch
 1052 004a 00BFAFF3 		.section	.bss.ch,"aw",%nobits
 1052      0080
 1053              		.align	2
 1054              		.set	.LANCHOR0,. + 0
 1055              		.type	ch, %object
 1056              		.size	ch, 2176
 1057              	ch:
 1058 0000 00000000 		.space	2176
 1058      00000000 
 1058      00000000 
 1058      00000000 
 1058      00000000 
 1059              		.text
 1060              	.Letext0:
 1061              		.file 5 "/usr/include/newlib/machine/_default_types.h"
 1062              		.file 6 "/usr/include/newlib/stdint.h"
 1063              		.file 7 "../../../../../ChibiOS-RT/os/common/ports/ARMCMx/compilers/GCC/chtypes.h"
 1064              		.file 8 "../../../../../ChibiOS-RT/os/rt/include/chsystypes.h"
 1065              		.file 9 "../../../../../ChibiOS-RT/os/common/ports/ARMCMx/chcore.h"
 1066              		.file 10 "../../../../../ChibiOS-RT/os/common/ports/ARMCMx/chcore_v7m.h"
 1067              		.file 11 "../../../../../ChibiOS-RT/os/rt/include/chtrace.h"
 1068              		.file 12 "../../../../../ChibiOS-RT/os/rt/include/chtm.h"
ARM GAS  /tmp/ccLPNJZZ.s 			page 20


 1069              		.file 13 "../../../../../ChibiOS-RT/os/rt/include/chmtx.h"
 1070              		.file 14 "../../../../../ChibiOS-RT/os/rt/include/chvt.h"
 1071              		.file 15 "../../../../../ChibiOS-RT/os/rt/include/chsys.h"
 1072              		.file 16 "../../../../../ChibiOS-RT/os/common/ext/CMSIS/include/core_cm4.h"