ARM GAS  /tmp/ccrxrg1p.s 			page 1


   1              		.syntax unified
   2              		.cpu cortex-m4
   3              		.fpu softvfp
   4              		.eabi_attribute 20, 1
   5              		.eabi_attribute 21, 1
   6              		.eabi_attribute 23, 3
   7              		.eabi_attribute 24, 1
   8              		.eabi_attribute 25, 1
   9              		.eabi_attribute 26, 1
  10              		.eabi_attribute 30, 2
  11              		.eabi_attribute 34, 1
  12              		.eabi_attribute 18, 4
  13              		.thumb
  14              		.file	"chsem.c"
  15              		.text
  16              	.Ltext0:
  17              		.cfi_sections	.debug_frame
  18              		.section	.text.chSemObjectInit,"ax",%progbits
  19              		.align	2
  20              		.p2align 4,,15
  21              		.global	chSemObjectInit
  22              		.thumb
  23              		.thumb_func
  24              		.type	chSemObjectInit, %function
  25              	chSemObjectInit:
  26              	.LFB239:
  27              		.file 1 "../../../../../ChibiOS-RT/os/rt/src/chsem.c"
  28              		.loc 1 97 0
  29              		.cfi_startproc
  30              		@ args = 0, pretend = 0, frame = 0
  31              		@ frame_needed = 0, uses_anonymous_args = 0
  32              		@ link register save eliminated.
  33              	.LVL0:
  34              	.LBB84:
  35              	.LBB85:
  36              		.file 2 "../../../../../ChibiOS-RT/os/rt/include/chschd.h"
  37              		.loc 2 550 0
  38 0000 0060     		str	r0, [r0]
  39              		.loc 2 551 0
  40 0002 4060     		str	r0, [r0, #4]
  41              	.LBE85:
  42              	.LBE84:
  43              		.loc 1 102 0
  44 0004 8160     		str	r1, [r0, #8]
  45 0006 7047     		bx	lr
  46              		.cfi_endproc
  47              	.LFE239:
  48              		.size	chSemObjectInit, .-chSemObjectInit
  49 0008 AFF30080 		.section	.text.chSemResetI,"ax",%progbits
  49      AFF30080 
  50              		.align	2
  51              		.p2align 4,,15
  52              		.global	chSemResetI
  53              		.thumb
  54              		.thumb_func
  55              		.type	chSemResetI, %function
  56              	chSemResetI:
ARM GAS  /tmp/ccrxrg1p.s 			page 2


  57              	.LFB241:
  58              		.loc 1 147 0
  59              		.cfi_startproc
  60              		@ args = 0, pretend = 0, frame = 0
  61              		@ frame_needed = 0, uses_anonymous_args = 0
  62              	.LVL1:
  63 0000 70B5     		push	{r4, r5, r6, lr}
  64              		.cfi_def_cfa_offset 16
  65              		.cfi_offset 4, -16
  66              		.cfi_offset 5, -12
  67              		.cfi_offset 6, -8
  68              		.cfi_offset 14, -4
  69              		.loc 1 156 0
  70 0002 8568     		ldr	r5, [r0, #8]
  71              	.LVL2:
  72              		.loc 1 157 0
  73 0004 8160     		str	r1, [r0, #8]
  74              		.loc 1 158 0
  75 0006 0135     		adds	r5, r5, #1
  76              	.LVL3:
  77 0008 002D     		cmp	r5, #0
  78              		.loc 1 147 0
  79 000a 0446     		mov	r4, r0
  80              		.loc 1 158 0
  81 000c 0BDC     		bgt	.L2
  82              		.loc 1 159 0
  83 000e 6FF00106 		mvn	r6, #1
  84              	.LVL4:
  85              	.L5:
  86              	.LBB86:
  87              	.LBB87:
  88              		.loc 2 627 0
  89 0012 6068     		ldr	r0, [r4, #4]
  90              	.LVL5:
  91              		.loc 2 629 0
  92 0014 4368     		ldr	r3, [r0, #4]
  93 0016 6360     		str	r3, [r4, #4]
  94              		.loc 2 630 0
  95 0018 1C60     		str	r4, [r3]
  96              	.LBE87:
  97              	.LBE86:
  98              		.loc 1 159 0
  99 001a FFF7FEFF 		bl	chSchReadyI
 100              	.LVL6:
 101              		.loc 1 158 0
 102 001e 0135     		adds	r5, r5, #1
 103              	.LVL7:
 104 0020 012D     		cmp	r5, #1
 105              		.loc 1 159 0
 106 0022 4662     		str	r6, [r0, #36]
 107              	.LVL8:
 108              		.loc 1 158 0
 109 0024 F5D1     		bne	.L5
 110              	.LVL9:
 111              	.L2:
 112 0026 70BD     		pop	{r4, r5, r6, pc}
 113              		.cfi_endproc
ARM GAS  /tmp/ccrxrg1p.s 			page 3


 114              	.LFE241:
 115              		.size	chSemResetI, .-chSemResetI
 116 0028 AFF30080 		.section	.text.chSemReset,"ax",%progbits
 116      AFF30080 
 117              		.align	2
 118              		.p2align 4,,15
 119              		.global	chSemReset
 120              		.thumb
 121              		.thumb_func
 122              		.type	chSemReset, %function
 123              	chSemReset:
 124              	.LFB240:
 125              		.loc 1 120 0
 126              		.cfi_startproc
 127              		@ args = 0, pretend = 0, frame = 0
 128              		@ frame_needed = 0, uses_anonymous_args = 0
 129              	.LVL10:
 130 0000 08B5     		push	{r3, lr}
 131              		.cfi_def_cfa_offset 8
 132              		.cfi_offset 3, -8
 133              		.cfi_offset 14, -4
 134              	.LBB88:
 135              	.LBB89:
 136              	.LBB90:
 137              	.LBB91:
 138              		.file 3 "../../../../../ChibiOS-RT/os/common/ext/CMSIS/include/cmsis_gcc.h"
 139              		.loc 3 264 0
 140 0002 2023     		movs	r3, #32
 141              	@ 264 "../../../../../ChibiOS-RT/os/common/ext/CMSIS/include/cmsis_gcc.h" 1
 142 0004 83F31188 		MSR basepri, r3
 143              	@ 0 "" 2
 144              		.thumb
 145              	.LBE91:
 146              	.LBE90:
 147              	.LBE89:
 148              	.LBE88:
 149              		.loc 1 123 0
 150 0008 FFF7FEFF 		bl	chSemResetI
 151              	.LVL11:
 152              		.loc 1 124 0
 153 000c FFF7FEFF 		bl	chSchRescheduleS
 154              	.LVL12:
 155              	.LBB92:
 156              	.LBB93:
 157              	.LBB94:
 158              	.LBB95:
 159              	.LBB96:
 160              		.loc 3 264 0
 161 0010 0023     		movs	r3, #0
 162              	@ 264 "../../../../../ChibiOS-RT/os/common/ext/CMSIS/include/cmsis_gcc.h" 1
 163 0012 83F31188 		MSR basepri, r3
 164              	@ 0 "" 2
 165              		.thumb
 166 0016 08BD     		pop	{r3, pc}
 167              	.LBE96:
 168              	.LBE95:
 169              	.LBE94:
ARM GAS  /tmp/ccrxrg1p.s 			page 4


 170              	.LBE93:
 171              	.LBE92:
 172              		.cfi_endproc
 173              	.LFE240:
 174              		.size	chSemReset, .-chSemReset
 175 0018 AFF30080 		.section	.text.chSemWaitS,"ax",%progbits
 175      AFF30080 
 176              		.align	2
 177              		.p2align 4,,15
 178              		.global	chSemWaitS
 179              		.thumb
 180              		.thumb_func
 181              		.type	chSemWaitS, %function
 182              	chSemWaitS:
 183              	.LFB243:
 184              		.loc 1 197 0
 185              		.cfi_startproc
 186              		@ args = 0, pretend = 0, frame = 0
 187              		@ frame_needed = 0, uses_anonymous_args = 0
 188              	.LVL13:
 189              		.loc 1 205 0
 190 0000 8268     		ldr	r2, [r0, #8]
 191 0002 013A     		subs	r2, r2, #1
 192 0004 002A     		cmp	r2, #0
 193              		.loc 1 197 0
 194 0006 10B5     		push	{r4, lr}
 195              		.cfi_def_cfa_offset 8
 196              		.cfi_offset 4, -8
 197              		.cfi_offset 14, -4
 198              		.loc 1 197 0
 199 0008 0346     		mov	r3, r0
 200              		.loc 1 205 0
 201 000a 8260     		str	r2, [r0, #8]
 202 000c 01DB     		blt	.L14
 203              		.loc 1 213 0
 204 000e 0020     		movs	r0, #0
 205              	.LVL14:
 206              		.loc 1 214 0
 207 0010 10BD     		pop	{r4, pc}
 208              	.LVL15:
 209              	.L14:
 210              		.loc 1 206 0
 211 0012 40F20004 		movw	r4, #:lower16:ch
 212 0016 C0F20004 		movt	r4, #:upper16:ch
 213              		.loc 1 208 0
 214 001a 0520     		movs	r0, #5
 215              	.LVL16:
 216              		.loc 1 206 0
 217 001c A269     		ldr	r2, [r4, #24]
 218 001e 5362     		str	r3, [r2, #36]
 219              	.LVL17:
 220              	.LBB97:
 221              	.LBB98:
 222              		.loc 2 612 0
 223 0020 5968     		ldr	r1, [r3, #4]
 224              		.loc 2 611 0
 225 0022 1360     		str	r3, [r2]
ARM GAS  /tmp/ccrxrg1p.s 			page 5


 226              		.loc 2 612 0
 227 0024 5160     		str	r1, [r2, #4]
 228              		.loc 2 613 0
 229 0026 0A60     		str	r2, [r1]
 230              		.loc 2 614 0
 231 0028 5A60     		str	r2, [r3, #4]
 232              	.LVL18:
 233              	.LBE98:
 234              	.LBE97:
 235              		.loc 1 208 0
 236 002a FFF7FEFF 		bl	chSchGoSleepS
 237              	.LVL19:
 238              		.loc 1 210 0
 239 002e A369     		ldr	r3, [r4, #24]
 240 0030 586A     		ldr	r0, [r3, #36]
 241 0032 10BD     		pop	{r4, pc}
 242              		.cfi_endproc
 243              	.LFE243:
 244              		.size	chSemWaitS, .-chSemWaitS
 245 0034 AFF30080 		.section	.text.chSemWait,"ax",%progbits
 245      AFF30080 
 245      AFF30080 
 246              		.align	2
 247              		.p2align 4,,15
 248              		.global	chSemWait
 249              		.thumb
 250              		.thumb_func
 251              		.type	chSemWait, %function
 252              	chSemWait:
 253              	.LFB242:
 254              		.loc 1 175 0
 255              		.cfi_startproc
 256              		@ args = 0, pretend = 0, frame = 0
 257              		@ frame_needed = 0, uses_anonymous_args = 0
 258              	.LVL20:
 259 0000 08B5     		push	{r3, lr}
 260              		.cfi_def_cfa_offset 8
 261              		.cfi_offset 3, -8
 262              		.cfi_offset 14, -4
 263              	.LBB99:
 264              	.LBB100:
 265              	.LBB101:
 266              	.LBB102:
 267              		.loc 3 264 0
 268 0002 2023     		movs	r3, #32
 269              	@ 264 "../../../../../ChibiOS-RT/os/common/ext/CMSIS/include/cmsis_gcc.h" 1
 270 0004 83F31188 		MSR basepri, r3
 271              	@ 0 "" 2
 272              		.thumb
 273              	.LBE102:
 274              	.LBE101:
 275              	.LBE100:
 276              	.LBE99:
 277              		.loc 1 179 0
 278 0008 FFF7FEFF 		bl	chSemWaitS
 279              	.LVL21:
 280              	.LBB103:
ARM GAS  /tmp/ccrxrg1p.s 			page 6


 281              	.LBB104:
 282              	.LBB105:
 283              	.LBB106:
 284              	.LBB107:
 285              		.loc 3 264 0
 286 000c 0023     		movs	r3, #0
 287              	@ 264 "../../../../../ChibiOS-RT/os/common/ext/CMSIS/include/cmsis_gcc.h" 1
 288 000e 83F31188 		MSR basepri, r3
 289              	@ 0 "" 2
 290              		.thumb
 291              	.LBE107:
 292              	.LBE106:
 293              	.LBE105:
 294              	.LBE104:
 295              	.LBE103:
 296              		.loc 1 183 0
 297 0012 08BD     		pop	{r3, pc}
 298              		.cfi_endproc
 299              	.LFE242:
 300              		.size	chSemWait, .-chSemWait
 301 0014 AFF30080 		.section	.text.chSemWaitTimeoutS,"ax",%progbits
 301      AFF30080 
 301      AFF30080 
 302              		.align	2
 303              		.p2align 4,,15
 304              		.global	chSemWaitTimeoutS
 305              		.thumb
 306              		.thumb_func
 307              		.type	chSemWaitTimeoutS, %function
 308              	chSemWaitTimeoutS:
 309              	.LFB245:
 310              		.loc 1 264 0
 311              		.cfi_startproc
 312              		@ args = 0, pretend = 0, frame = 0
 313              		@ frame_needed = 0, uses_anonymous_args = 0
 314              		@ link register save eliminated.
 315              	.LVL22:
 316 0000 0346     		mov	r3, r0
 317              		.loc 1 272 0
 318 0002 8068     		ldr	r0, [r0, #8]
 319              	.LVL23:
 320 0004 421E     		subs	r2, r0, #1
 321 0006 002A     		cmp	r2, #0
 322              		.loc 1 264 0
 323 0008 10B4     		push	{r4}
 324              		.cfi_def_cfa_offset 4
 325              		.cfi_offset 4, -4
 326              		.loc 1 284 0
 327 000a A8BF     		it	ge
 328 000c 0020     		movge	r0, #0
 329              		.loc 1 272 0
 330 000e 9A60     		str	r2, [r3, #8]
 331 0010 02DB     		blt	.L20
 332              	.L17:
 333              		.loc 1 285 0
 334 0012 5DF8044B 		ldr	r4, [sp], #4
 335 0016 7047     		bx	lr
ARM GAS  /tmp/ccrxrg1p.s 			page 7


 336              	.L20:
 337              		.loc 1 273 0
 338 0018 79B1     		cbz	r1, .L21
 339              		.loc 1 278 0
 340 001a 40F20002 		movw	r2, #:lower16:ch
 341 001e C0F20002 		movt	r2, #:upper16:ch
 342              		.loc 1 281 0
 343 0022 0520     		movs	r0, #5
 344              		.loc 1 278 0
 345 0024 9269     		ldr	r2, [r2, #24]
 346 0026 5362     		str	r3, [r2, #36]
 347              	.LVL24:
 348              	.LBB108:
 349              	.LBB109:
 350              		.loc 2 612 0
 351 0028 5C68     		ldr	r4, [r3, #4]
 352 002a 82E81800 		stmia	r2, {r3, r4}
 353              		.loc 2 613 0
 354 002e 2260     		str	r2, [r4]
 355              		.loc 2 614 0
 356 0030 5A60     		str	r2, [r3, #4]
 357              	.LVL25:
 358              	.LBE109:
 359              	.LBE108:
 360              		.loc 1 285 0
 361 0032 5DF8044B 		ldr	r4, [sp], #4
 362              		.loc 1 281 0
 363 0036 FFF7FEBF 		b	chSchGoSleepTimeoutS
 364              	.LVL26:
 365              	.L21:
 366              		.loc 1 274 0
 367 003a 9860     		str	r0, [r3, #8]
 368              		.loc 1 276 0
 369 003c 4FF0FF30 		mov	r0, #-1
 370 0040 E7E7     		b	.L17
 371              		.cfi_endproc
 372              	.LFE245:
 373              		.size	chSemWaitTimeoutS, .-chSemWaitTimeoutS
 374 0042 00BFAFF3 		.section	.text.chSemWaitTimeout,"ax",%progbits
 374      0080AFF3 
 374      0080AFF3 
 374      0080
 375              		.align	2
 376              		.p2align 4,,15
 377              		.global	chSemWaitTimeout
 378              		.thumb
 379              		.thumb_func
 380              		.type	chSemWaitTimeout, %function
 381              	chSemWaitTimeout:
 382              	.LFB244:
 383              		.loc 1 235 0
 384              		.cfi_startproc
 385              		@ args = 0, pretend = 0, frame = 0
 386              		@ frame_needed = 0, uses_anonymous_args = 0
 387              	.LVL27:
 388 0000 08B5     		push	{r3, lr}
 389              		.cfi_def_cfa_offset 8
ARM GAS  /tmp/ccrxrg1p.s 			page 8


 390              		.cfi_offset 3, -8
 391              		.cfi_offset 14, -4
 392              	.LBB110:
 393              	.LBB111:
 394              	.LBB112:
 395              	.LBB113:
 396              		.loc 3 264 0
 397 0002 2023     		movs	r3, #32
 398              	@ 264 "../../../../../ChibiOS-RT/os/common/ext/CMSIS/include/cmsis_gcc.h" 1
 399 0004 83F31188 		MSR basepri, r3
 400              	@ 0 "" 2
 401              		.thumb
 402              	.LBE113:
 403              	.LBE112:
 404              	.LBE111:
 405              	.LBE110:
 406              		.loc 1 239 0
 407 0008 FFF7FEFF 		bl	chSemWaitTimeoutS
 408              	.LVL28:
 409              	.LBB114:
 410              	.LBB115:
 411              	.LBB116:
 412              	.LBB117:
 413              	.LBB118:
 414              		.loc 3 264 0
 415 000c 0023     		movs	r3, #0
 416              	@ 264 "../../../../../ChibiOS-RT/os/common/ext/CMSIS/include/cmsis_gcc.h" 1
 417 000e 83F31188 		MSR basepri, r3
 418              	@ 0 "" 2
 419              		.thumb
 420              	.LBE118:
 421              	.LBE117:
 422              	.LBE116:
 423              	.LBE115:
 424              	.LBE114:
 425              		.loc 1 243 0
 426 0012 08BD     		pop	{r3, pc}
 427              		.cfi_endproc
 428              	.LFE244:
 429              		.size	chSemWaitTimeout, .-chSemWaitTimeout
 430 0014 AFF30080 		.section	.text.chSemSignal,"ax",%progbits
 430      AFF30080 
 430      AFF30080 
 431              		.align	2
 432              		.p2align 4,,15
 433              		.global	chSemSignal
 434              		.thumb
 435              		.thumb_func
 436              		.type	chSemSignal, %function
 437              	chSemSignal:
 438              	.LFB246:
 439              		.loc 1 294 0
 440              		.cfi_startproc
 441              		@ args = 0, pretend = 0, frame = 0
 442              		@ frame_needed = 0, uses_anonymous_args = 0
 443              	.LVL29:
 444 0000 08B5     		push	{r3, lr}
ARM GAS  /tmp/ccrxrg1p.s 			page 9


 445              		.cfi_def_cfa_offset 8
 446              		.cfi_offset 3, -8
 447              		.cfi_offset 14, -4
 448              	.LBB119:
 449              	.LBB120:
 450              	.LBB121:
 451              	.LBB122:
 452              		.loc 3 264 0
 453 0002 2022     		movs	r2, #32
 454              	.LBE122:
 455              	.LBE121:
 456              	.LBE120:
 457              	.LBE119:
 458              		.loc 1 294 0
 459 0004 0346     		mov	r3, r0
 460              	.LBB126:
 461              	.LBB125:
 462              	.LBB124:
 463              	.LBB123:
 464              		.loc 3 264 0
 465              	@ 264 "../../../../../ChibiOS-RT/os/common/ext/CMSIS/include/cmsis_gcc.h" 1
 466 0006 82F31188 		MSR basepri, r2
 467              	@ 0 "" 2
 468              		.thumb
 469              	.LBE123:
 470              	.LBE124:
 471              	.LBE125:
 472              	.LBE126:
 473              		.loc 1 302 0
 474 000a 8268     		ldr	r2, [r0, #8]
 475 000c 0132     		adds	r2, r2, #1
 476 000e 002A     		cmp	r2, #0
 477 0010 8260     		str	r2, [r0, #8]
 478 0012 03DD     		ble	.L25
 479              	.LVL30:
 480              	.LBB127:
 481              	.LBB128:
 482              	.LBB129:
 483              	.LBB130:
 484              	.LBB131:
 485              		.loc 3 264 0
 486 0014 0023     		movs	r3, #0
 487              	@ 264 "../../../../../ChibiOS-RT/os/common/ext/CMSIS/include/cmsis_gcc.h" 1
 488 0016 83F31188 		MSR basepri, r3
 489              	@ 0 "" 2
 490              		.thumb
 491 001a 08BD     		pop	{r3, pc}
 492              	.LVL31:
 493              	.L25:
 494              	.LBE131:
 495              	.LBE130:
 496              	.LBE129:
 497              	.LBE128:
 498              	.LBE127:
 499              	.LBB136:
 500              	.LBB137:
 501              		.loc 2 618 0
ARM GAS  /tmp/ccrxrg1p.s 			page 10


 502 001c 0068     		ldr	r0, [r0]
 503              	.LVL32:
 504              		.loc 2 620 0
 505 001e 0268     		ldr	r2, [r0]
 506              	.LBE137:
 507              	.LBE136:
 508              		.loc 1 303 0
 509 0020 0021     		movs	r1, #0
 510              	.LBB139:
 511              	.LBB138:
 512              		.loc 2 620 0
 513 0022 1A60     		str	r2, [r3]
 514              		.loc 2 621 0
 515 0024 5360     		str	r3, [r2, #4]
 516              	.LBE138:
 517              	.LBE139:
 518              		.loc 1 303 0
 519 0026 FFF7FEFF 		bl	chSchWakeupS
 520              	.LVL33:
 521              	.LBB140:
 522              	.LBB135:
 523              	.LBB134:
 524              	.LBB133:
 525              	.LBB132:
 526              		.loc 3 264 0
 527 002a 0023     		movs	r3, #0
 528              	@ 264 "../../../../../ChibiOS-RT/os/common/ext/CMSIS/include/cmsis_gcc.h" 1
 529 002c 83F31188 		MSR basepri, r3
 530              	@ 0 "" 2
 531              		.thumb
 532 0030 08BD     		pop	{r3, pc}
 533              	.LBE132:
 534              	.LBE133:
 535              	.LBE134:
 536              	.LBE135:
 537              	.LBE140:
 538              		.cfi_endproc
 539              	.LFE246:
 540              		.size	chSemSignal, .-chSemSignal
 541 0032 00BFAFF3 		.section	.text.chSemSignalI,"ax",%progbits
 541      0080AFF3 
 541      0080AFF3 
 541      0080
 542              		.align	2
 543              		.p2align 4,,15
 544              		.global	chSemSignalI
 545              		.thumb
 546              		.thumb_func
 547              		.type	chSemSignalI, %function
 548              	chSemSignalI:
 549              	.LFB247:
 550              		.loc 1 319 0
 551              		.cfi_startproc
 552              		@ args = 0, pretend = 0, frame = 0
 553              		@ frame_needed = 0, uses_anonymous_args = 0
 554              		@ link register save eliminated.
 555              	.LVL34:
ARM GAS  /tmp/ccrxrg1p.s 			page 11


 556              		.loc 1 327 0
 557 0000 8268     		ldr	r2, [r0, #8]
 558 0002 0132     		adds	r2, r2, #1
 559 0004 002A     		cmp	r2, #0
 560              		.loc 1 319 0
 561 0006 10B4     		push	{r4}
 562              		.cfi_def_cfa_offset 4
 563              		.cfi_offset 4, -4
 564              		.loc 1 319 0
 565 0008 0346     		mov	r3, r0
 566              		.loc 1 327 0
 567 000a 8260     		str	r2, [r0, #8]
 568 000c 02DD     		ble	.L28
 569              		.loc 1 334 0
 570 000e 5DF8044B 		ldr	r4, [sp], #4
 571 0012 7047     		bx	lr
 572              	.L28:
 573              	.LVL35:
 574              	.LBB141:
 575              	.LBB142:
 576              	.LBB143:
 577              		.loc 2 618 0
 578 0014 0268     		ldr	r2, [r0]
 579              	.LVL36:
 580              		.loc 2 620 0
 581 0016 1168     		ldr	r1, [r2]
 582              	.LBE143:
 583              	.LBE142:
 584              		.loc 1 331 0
 585 0018 0024     		movs	r4, #0
 586              	.LBB145:
 587              	.LBB144:
 588              		.loc 2 620 0
 589 001a 0160     		str	r1, [r0]
 590              		.loc 2 621 0
 591 001c 4B60     		str	r3, [r1, #4]
 592              	.LBE144:
 593              	.LBE145:
 594              		.loc 1 331 0
 595 001e 5462     		str	r4, [r2, #36]
 596              		.loc 1 332 0
 597 0020 1046     		mov	r0, r2
 598              	.LVL37:
 599              	.LBE141:
 600              		.loc 1 334 0
 601 0022 5DF8044B 		ldr	r4, [sp], #4
 602              	.LBB146:
 603              		.loc 1 332 0
 604 0026 FFF7FEBF 		b	chSchReadyI
 605              	.LVL38:
 606              	.LBE146:
 607              		.cfi_endproc
 608              	.LFE247:
 609              		.size	chSemSignalI, .-chSemSignalI
 610 002a 00BFAFF3 		.section	.text.chSemAddCounterI,"ax",%progbits
 610      0080
 611              		.align	2
ARM GAS  /tmp/ccrxrg1p.s 			page 12


 612              		.p2align 4,,15
 613              		.global	chSemAddCounterI
 614              		.thumb
 615              		.thumb_func
 616              		.type	chSemAddCounterI, %function
 617              	chSemAddCounterI:
 618              	.LFB248:
 619              		.loc 1 349 0
 620              		.cfi_startproc
 621              		@ args = 0, pretend = 0, frame = 0
 622              		@ frame_needed = 0, uses_anonymous_args = 0
 623              	.LVL39:
 624 0000 70B5     		push	{r4, r5, r6, lr}
 625              		.cfi_def_cfa_offset 16
 626              		.cfi_offset 4, -16
 627              		.cfi_offset 5, -12
 628              		.cfi_offset 6, -8
 629              		.cfi_offset 14, -4
 630              		.loc 1 357 0
 631 0002 0C1E     		subs	r4, r1, #0
 632              		.loc 1 349 0
 633 0004 0546     		mov	r5, r0
 634              		.loc 1 357 0
 635 0006 11DD     		ble	.L29
 636              		.loc 1 359 0
 637 0008 0026     		movs	r6, #0
 638 000a 01E0     		b	.L33
 639              	.LVL40:
 640              	.L31:
 641              		.loc 1 357 0
 642 000c 013C     		subs	r4, r4, #1
 643              	.LVL41:
 644 000e 0DD0     		beq	.L29
 645              	.LVL42:
 646              	.L33:
 647              		.loc 1 358 0
 648 0010 AB68     		ldr	r3, [r5, #8]
 649 0012 0133     		adds	r3, r3, #1
 650 0014 002B     		cmp	r3, #0
 651 0016 AB60     		str	r3, [r5, #8]
 652 0018 F8DC     		bgt	.L31
 653              	.LVL43:
 654              	.LBB147:
 655              	.LBB148:
 656              		.loc 2 618 0
 657 001a 2868     		ldr	r0, [r5]
 658              	.LVL44:
 659              		.loc 2 620 0
 660 001c 0368     		ldr	r3, [r0]
 661 001e 2B60     		str	r3, [r5]
 662              		.loc 2 621 0
 663 0020 5D60     		str	r5, [r3, #4]
 664              	.LBE148:
 665              	.LBE147:
 666              		.loc 1 359 0
 667 0022 FFF7FEFF 		bl	chSchReadyI
 668              	.LVL45:
ARM GAS  /tmp/ccrxrg1p.s 			page 13


 669              		.loc 1 357 0
 670 0026 013C     		subs	r4, r4, #1
 671              	.LVL46:
 672              		.loc 1 359 0
 673 0028 4662     		str	r6, [r0, #36]
 674              	.LVL47:
 675              		.loc 1 357 0
 676 002a F1D1     		bne	.L33
 677              	.LVL48:
 678              	.L29:
 679 002c 70BD     		pop	{r4, r5, r6, pc}
 680              		.cfi_endproc
 681              	.LFE248:
 682              		.size	chSemAddCounterI, .-chSemAddCounterI
 683 002e 00BF     		.section	.text.chSemSignalWait,"ax",%progbits
 684              		.align	2
 685              		.p2align 4,,15
 686              		.global	chSemSignalWait
 687              		.thumb
 688              		.thumb_func
 689              		.type	chSemSignalWait, %function
 690              	chSemSignalWait:
 691              	.LFB249:
 692              		.loc 1 378 0
 693              		.cfi_startproc
 694              		@ args = 0, pretend = 0, frame = 8
 695              		@ frame_needed = 0, uses_anonymous_args = 0
 696              	.LVL49:
 697 0000 10B5     		push	{r4, lr}
 698              		.cfi_def_cfa_offset 8
 699              		.cfi_offset 4, -8
 700              		.cfi_offset 14, -4
 701 0002 0346     		mov	r3, r0
 702 0004 82B0     		sub	sp, sp, #8
 703              		.cfi_def_cfa_offset 16
 704              	.LBB149:
 705              	.LBB150:
 706              	.LBB151:
 707              	.LBB152:
 708              		.loc 3 264 0
 709 0006 2022     		movs	r2, #32
 710              	@ 264 "../../../../../ChibiOS-RT/os/common/ext/CMSIS/include/cmsis_gcc.h" 1
 711 0008 82F31188 		MSR basepri, r2
 712              	@ 0 "" 2
 713              		.thumb
 714              	.LBE152:
 715              	.LBE151:
 716              	.LBE150:
 717              	.LBE149:
 718              		.loc 1 390 0
 719 000c 8268     		ldr	r2, [r0, #8]
 720 000e 0132     		adds	r2, r2, #1
 721 0010 002A     		cmp	r2, #0
 722 0012 8260     		str	r2, [r0, #8]
 723 0014 20DD     		ble	.L41
 724              	.LVL50:
 725              	.L38:
ARM GAS  /tmp/ccrxrg1p.s 			page 14


 726              		.loc 1 393 0
 727 0016 8B68     		ldr	r3, [r1, #8]
 728 0018 013B     		subs	r3, r3, #1
 729 001a 002B     		cmp	r3, #0
 730 001c 8B60     		str	r3, [r1, #8]
 731 001e 07DB     		blt	.L42
 732              		.loc 1 401 0
 733 0020 FFF7FEFF 		bl	chSchRescheduleS
 734              	.LVL51:
 735              		.loc 1 402 0
 736 0024 0020     		movs	r0, #0
 737              	.LVL52:
 738              	.LBB153:
 739              	.LBB154:
 740              	.LBB155:
 741              	.LBB156:
 742              	.LBB157:
 743              		.loc 3 264 0
 744 0026 0023     		movs	r3, #0
 745              	@ 264 "../../../../../ChibiOS-RT/os/common/ext/CMSIS/include/cmsis_gcc.h" 1
 746 0028 83F31188 		MSR basepri, r3
 747              	@ 0 "" 2
 748              		.thumb
 749              	.LBE157:
 750              	.LBE156:
 751              	.LBE155:
 752              	.LBE154:
 753              	.LBE153:
 754              		.loc 1 407 0
 755 002c 02B0     		add	sp, sp, #8
 756              		@ sp needed
 757 002e 10BD     		pop	{r4, pc}
 758              	.LVL53:
 759              	.L42:
 760              	.LBB162:
 761              		.loc 1 394 0
 762 0030 40F20003 		movw	r3, #:lower16:ch
 763 0034 C0F20003 		movt	r3, #:upper16:ch
 764              	.LBB163:
 765              	.LBB164:
 766              		.loc 2 612 0
 767 0038 4A68     		ldr	r2, [r1, #4]
 768              	.LBE164:
 769              	.LBE163:
 770              		.loc 1 394 0
 771 003a 9C69     		ldr	r4, [r3, #24]
 772              	.LVL54:
 773              		.loc 1 397 0
 774 003c 0520     		movs	r0, #5
 775              	.LBB166:
 776              	.LBB165:
 777              		.loc 2 612 0
 778 003e 84E80600 		stmia	r4, {r1, r2}
 779              		.loc 2 613 0
 780 0042 1460     		str	r4, [r2]
 781              		.loc 2 614 0
 782 0044 4C60     		str	r4, [r1, #4]
ARM GAS  /tmp/ccrxrg1p.s 			page 15


 783              	.LBE165:
 784              	.LBE166:
 785              		.loc 1 396 0
 786 0046 6162     		str	r1, [r4, #36]
 787              		.loc 1 397 0
 788 0048 FFF7FEFF 		bl	chSchGoSleepS
 789              	.LVL55:
 790              		.loc 1 398 0
 791 004c 606A     		ldr	r0, [r4, #36]
 792              	.LVL56:
 793              	.LBE162:
 794              	.LBB167:
 795              	.LBB161:
 796              	.LBB160:
 797              	.LBB159:
 798              	.LBB158:
 799              		.loc 3 264 0
 800 004e 0023     		movs	r3, #0
 801              	@ 264 "../../../../../ChibiOS-RT/os/common/ext/CMSIS/include/cmsis_gcc.h" 1
 802 0050 83F31188 		MSR basepri, r3
 803              	@ 0 "" 2
 804              		.thumb
 805              	.LBE158:
 806              	.LBE159:
 807              	.LBE160:
 808              	.LBE161:
 809              	.LBE167:
 810              		.loc 1 407 0
 811 0054 02B0     		add	sp, sp, #8
 812              		@ sp needed
 813 0056 10BD     		pop	{r4, pc}
 814              	.LVL57:
 815              	.L41:
 816              	.LBB168:
 817              	.LBB169:
 818              		.loc 2 618 0
 819 0058 0068     		ldr	r0, [r0]
 820              	.LVL58:
 821              		.loc 2 620 0
 822 005a 0268     		ldr	r2, [r0]
 823 005c 1A60     		str	r2, [r3]
 824              		.loc 2 621 0
 825 005e 5360     		str	r3, [r2, #4]
 826              	.LBE169:
 827              	.LBE168:
 828              		.loc 1 391 0
 829 0060 0191     		str	r1, [sp, #4]
 830 0062 FFF7FEFF 		bl	chSchReadyI
 831              	.LVL59:
 832 0066 0023     		movs	r3, #0
 833 0068 4362     		str	r3, [r0, #36]
 834 006a 0199     		ldr	r1, [sp, #4]
 835 006c D3E7     		b	.L38
 836              		.cfi_endproc
 837              	.LFE249:
 838              		.size	chSemSignalWait, .-chSemSignalWait
 839 006e 00BF     		.text
ARM GAS  /tmp/ccrxrg1p.s 			page 16


 840              	.Letext0:
 841              		.file 4 "/usr/include/newlib/machine/_default_types.h"
 842              		.file 5 "/usr/include/newlib/stdint.h"
 843              		.file 6 "../../../../../ChibiOS-RT/os/common/ports/ARMCMx/compilers/GCC/chtypes.h"
 844              		.file 7 "../../../../../ChibiOS-RT/os/rt/include/chsystypes.h"
 845              		.file 8 "../../../../../ChibiOS-RT/os/common/ports/ARMCMx/chcore.h"
 846              		.file 9 "../../../../../ChibiOS-RT/os/common/ports/ARMCMx/chcore_v7m.h"
 847              		.file 10 "../../../../../ChibiOS-RT/os/rt/include/chtrace.h"
 848              		.file 11 "../../../../../ChibiOS-RT/os/rt/include/chtm.h"
 849              		.file 12 "../../../../../ChibiOS-RT/os/rt/include/chsem.h"
 850              		.file 13 "../../../../../ChibiOS-RT/os/rt/include/chmtx.h"
 851              		.file 14 "../../../../../ChibiOS-RT/os/rt/include/chsys.h"
 852              		.file 15 "../../../../../ChibiOS-RT/os/common/ext/CMSIS/include/core_cm4.h"
 853              		.section	.debug_info,"",%progbits
 854              	.Ldebug_info0:
 855 0000 FA100000 		.4byte	0x10fa
 856 0004 0400     		.2byte	0x4
 857 0006 00000000 		.4byte	.Ldebug_abbrev0
 858 000a 04       		.byte	0x4
 859 000b 01       		.uleb128 0x1
 860 000c B4050000 		.4byte	.LASF129
 861 0010 01       		.byte	0x1
 862 0011 08040000 		.4byte	.LASF130
 863 0015 2C020000 		.4byte	.LASF131
 864 0019 A8000000 		.4byte	.Ldebug_ranges0+0xa8
 865 001d 00000000 		.4byte	0
 866 0021 00000000 		.4byte	.Ldebug_line0
 867 0025 02       		.uleb128 0x2
 868 0026 04       		.byte	0x4
 869 0027 05       		.byte	0x5
 870 0028 696E7400 		.ascii	"int\000"
 871 002c 03       		.uleb128 0x3
 872 002d 04       		.byte	0x4
 873 002e 07       		.byte	0x7
 874 002f 0E020000 		.4byte	.LASF0
 875 0033 03       		.uleb128 0x3
 876 0034 01       		.byte	0x1
 877 0035 06       		.byte	0x6
 878 0036 16010000 		.4byte	.LASF1
 879 003a 04       		.uleb128 0x4
 880 003b 43000000 		.4byte	.LASF4
 881 003f 04       		.byte	0x4
 882 0040 1C       		.byte	0x1c
 883 0041 45000000 		.4byte	0x45
 884 0045 03       		.uleb128 0x3
 885 0046 01       		.byte	0x1
 886 0047 08       		.byte	0x8
 887 0048 76040000 		.4byte	.LASF2
 888 004c 03       		.uleb128 0x3
 889 004d 02       		.byte	0x2
 890 004e 05       		.byte	0x5
 891 004f 84040000 		.4byte	.LASF3
 892 0053 04       		.uleb128 0x4
 893 0054 4A050000 		.4byte	.LASF5
 894 0058 04       		.byte	0x4
 895 0059 26       		.byte	0x26
 896 005a 5E000000 		.4byte	0x5e
ARM GAS  /tmp/ccrxrg1p.s 			page 17


 897 005e 03       		.uleb128 0x3
 898 005f 02       		.byte	0x2
 899 0060 07       		.byte	0x7
 900 0061 DF020000 		.4byte	.LASF6
 901 0065 04       		.uleb128 0x4
 902 0066 44030000 		.4byte	.LASF7
 903 006a 04       		.byte	0x4
 904 006b 37       		.byte	0x37
 905 006c 70000000 		.4byte	0x70
 906 0070 03       		.uleb128 0x3
 907 0071 04       		.byte	0x4
 908 0072 05       		.byte	0x5
 909 0073 67010000 		.4byte	.LASF8
 910 0077 04       		.uleb128 0x4
 911 0078 C5010000 		.4byte	.LASF9
 912 007c 04       		.byte	0x4
 913 007d 38       		.byte	0x38
 914 007e 82000000 		.4byte	0x82
 915 0082 03       		.uleb128 0x3
 916 0083 04       		.byte	0x4
 917 0084 07       		.byte	0x7
 918 0085 B1020000 		.4byte	.LASF10
 919 0089 03       		.uleb128 0x3
 920 008a 08       		.byte	0x8
 921 008b 05       		.byte	0x5
 922 008c 08010000 		.4byte	.LASF11
 923 0090 04       		.uleb128 0x4
 924 0091 FD030000 		.4byte	.LASF12
 925 0095 04       		.byte	0x4
 926 0096 4E       		.byte	0x4e
 927 0097 9B000000 		.4byte	0x9b
 928 009b 03       		.uleb128 0x3
 929 009c 08       		.byte	0x8
 930 009d 07       		.byte	0x7
 931 009e 37010000 		.4byte	.LASF13
 932 00a2 04       		.uleb128 0x4
 933 00a3 89060000 		.4byte	.LASF14
 934 00a7 05       		.byte	0x5
 935 00a8 2A       		.byte	0x2a
 936 00a9 3A000000 		.4byte	0x3a
 937 00ad 04       		.uleb128 0x4
 938 00ae A4010000 		.4byte	.LASF15
 939 00b2 05       		.byte	0x5
 940 00b3 36       		.byte	0x36
 941 00b4 53000000 		.4byte	0x53
 942 00b8 04       		.uleb128 0x4
 943 00b9 6E040000 		.4byte	.LASF16
 944 00bd 05       		.byte	0x5
 945 00be 41       		.byte	0x41
 946 00bf 65000000 		.4byte	0x65
 947 00c3 04       		.uleb128 0x4
 948 00c4 F4040000 		.4byte	.LASF17
 949 00c8 05       		.byte	0x5
 950 00c9 42       		.byte	0x42
 951 00ca 77000000 		.4byte	0x77
 952 00ce 04       		.uleb128 0x4
 953 00cf 3A000000 		.4byte	.LASF18
ARM GAS  /tmp/ccrxrg1p.s 			page 18


 954 00d3 05       		.byte	0x5
 955 00d4 4E       		.byte	0x4e
 956 00d5 90000000 		.4byte	0x90
 957 00d9 04       		.uleb128 0x4
 958 00da AC050000 		.4byte	.LASF19
 959 00de 06       		.byte	0x6
 960 00df 39       		.byte	0x39
 961 00e0 C3000000 		.4byte	0xc3
 962 00e4 04       		.uleb128 0x4
 963 00e5 22030000 		.4byte	.LASF20
 964 00e9 06       		.byte	0x6
 965 00ea 3C       		.byte	0x3c
 966 00eb A2000000 		.4byte	0xa2
 967 00ef 04       		.uleb128 0x4
 968 00f0 70010000 		.4byte	.LASF21
 969 00f4 06       		.byte	0x6
 970 00f5 3D       		.byte	0x3d
 971 00f6 A2000000 		.4byte	0xa2
 972 00fa 04       		.uleb128 0x4
 973 00fb 34040000 		.4byte	.LASF22
 974 00ff 06       		.byte	0x6
 975 0100 3E       		.byte	0x3e
 976 0101 A2000000 		.4byte	0xa2
 977 0105 04       		.uleb128 0x4
 978 0106 56040000 		.4byte	.LASF23
 979 010a 06       		.byte	0x6
 980 010b 40       		.byte	0x40
 981 010c C3000000 		.4byte	0xc3
 982 0110 04       		.uleb128 0x4
 983 0111 07030000 		.4byte	.LASF24
 984 0115 06       		.byte	0x6
 985 0116 41       		.byte	0x41
 986 0117 B8000000 		.4byte	0xb8
 987 011b 04       		.uleb128 0x4
 988 011c 38030000 		.4byte	.LASF25
 989 0120 06       		.byte	0x6
 990 0121 43       		.byte	0x43
 991 0122 C3000000 		.4byte	0xc3
 992 0126 04       		.uleb128 0x4
 993 0127 FF010000 		.4byte	.LASF26
 994 012b 06       		.byte	0x6
 995 012c 45       		.byte	0x45
 996 012d B8000000 		.4byte	0xb8
 997 0131 04       		.uleb128 0x4
 998 0132 70050000 		.4byte	.LASF27
 999 0136 07       		.byte	0x7
 1000 0137 33       		.byte	0x33
 1001 0138 C3000000 		.4byte	0xc3
 1002 013c 04       		.uleb128 0x4
 1003 013d 55050000 		.4byte	.LASF28
 1004 0141 07       		.byte	0x7
 1005 0142 3F       		.byte	0x3f
 1006 0143 47010000 		.4byte	0x147
 1007 0147 05       		.uleb128 0x5
 1008 0148 F2020000 		.4byte	.LASF46
 1009 014c 44       		.byte	0x44
 1010 014d 02       		.byte	0x2
ARM GAS  /tmp/ccrxrg1p.s 			page 19


 1011 014e 9A       		.byte	0x9a
 1012 014f 25020000 		.4byte	0x225
 1013 0153 06       		.uleb128 0x6
 1014 0154 D3020000 		.4byte	.LASF29
 1015 0158 02       		.byte	0x2
 1016 0159 9B       		.byte	0x9b
 1017 015a 5A020000 		.4byte	0x25a
 1018 015e 00       		.byte	0
 1019 015f 06       		.uleb128 0x6
 1020 0160 F0030000 		.4byte	.LASF30
 1021 0164 02       		.byte	0x2
 1022 0165 9C       		.byte	0x9c
 1023 0166 05010000 		.4byte	0x105
 1024 016a 08       		.byte	0x8
 1025 016b 07       		.uleb128 0x7
 1026 016c 63747800 		.ascii	"ctx\000"
 1027 0170 02       		.byte	0x2
 1028 0171 9D       		.byte	0x9d
 1029 0172 63040000 		.4byte	0x463
 1030 0176 0C       		.byte	0xc
 1031 0177 06       		.uleb128 0x6
 1032 0178 6F030000 		.4byte	.LASF31
 1033 017c 02       		.byte	0x2
 1034 017d 9F       		.byte	0x9f
 1035 017e 30020000 		.4byte	0x230
 1036 0182 10       		.byte	0x10
 1037 0183 06       		.uleb128 0x6
 1038 0184 32050000 		.4byte	.LASF32
 1039 0188 02       		.byte	0x2
 1040 0189 A0       		.byte	0xa0
 1041 018a 30020000 		.4byte	0x230
 1042 018e 14       		.byte	0x14
 1043 018f 06       		.uleb128 0x6
 1044 0190 CE020000 		.4byte	.LASF33
 1045 0194 02       		.byte	0x2
 1046 0195 A7       		.byte	0xa7
 1047 0196 33050000 		.4byte	0x533
 1048 019a 18       		.byte	0x18
 1049 019b 06       		.uleb128 0x6
 1050 019c 26050000 		.4byte	.LASF34
 1051 01a0 02       		.byte	0x2
 1052 01a1 B0       		.byte	0xb0
 1053 01a2 4C070000 		.4byte	0x74c
 1054 01a6 1C       		.byte	0x1c
 1055 01a7 06       		.uleb128 0x6
 1056 01a8 61010000 		.4byte	.LASF35
 1057 01ac 02       		.byte	0x2
 1058 01ad B5       		.byte	0xb5
 1059 01ae EF000000 		.4byte	0xef
 1060 01b2 20       		.byte	0x20
 1061 01b3 06       		.uleb128 0x6
 1062 01b4 91060000 		.4byte	.LASF36
 1063 01b8 02       		.byte	0x2
 1064 01b9 B9       		.byte	0xb9
 1065 01ba E4000000 		.4byte	0xe4
 1066 01be 21       		.byte	0x21
 1067 01bf 06       		.uleb128 0x6
ARM GAS  /tmp/ccrxrg1p.s 			page 20


 1068 01c0 3C040000 		.4byte	.LASF37
 1069 01c4 02       		.byte	0x2
 1070 01c5 BE       		.byte	0xbe
 1071 01c6 FA000000 		.4byte	0xfa
 1072 01ca 22       		.byte	0x22
 1073 01cb 08       		.uleb128 0x8
 1074 01cc 7500     		.ascii	"u\000"
 1075 01ce 02       		.byte	0x2
 1076 01cf 0F01     		.2byte	0x10f
 1077 01d1 81060000 		.4byte	0x681
 1078 01d5 24       		.byte	0x24
 1079 01d6 09       		.uleb128 0x9
 1080 01d7 D9010000 		.4byte	.LASF38
 1081 01db 02       		.byte	0x2
 1082 01dc 1401     		.2byte	0x114
 1083 01de 36020000 		.4byte	0x236
 1084 01e2 28       		.byte	0x28
 1085 01e3 09       		.uleb128 0x9
 1086 01e4 05020000 		.4byte	.LASF39
 1087 01e8 02       		.byte	0x2
 1088 01e9 1A01     		.2byte	0x11a
 1089 01eb 5A020000 		.4byte	0x25a
 1090 01ef 2C       		.byte	0x2c
 1091 01f0 09       		.uleb128 0x9
 1092 01f1 0D030000 		.4byte	.LASF40
 1093 01f5 02       		.byte	0x2
 1094 01f6 2001     		.2byte	0x120
 1095 01f8 1B010000 		.4byte	0x11b
 1096 01fc 34       		.byte	0x34
 1097 01fd 09       		.uleb128 0x9
 1098 01fe C6060000 		.4byte	.LASF41
 1099 0202 02       		.byte	0x2
 1100 0203 2701     		.2byte	0x127
 1101 0205 46070000 		.4byte	0x746
 1102 0209 38       		.byte	0x38
 1103 020a 09       		.uleb128 0x9
 1104 020b 7D030000 		.4byte	.LASF42
 1105 020f 02       		.byte	0x2
 1106 0210 2B01     		.2byte	0x12b
 1107 0212 05010000 		.4byte	0x105
 1108 0216 3C       		.byte	0x3c
 1109 0217 09       		.uleb128 0x9
 1110 0218 D9020000 		.4byte	.LASF43
 1111 021c 02       		.byte	0x2
 1112 021d 3201     		.2byte	0x132
 1113 021f 0D030000 		.4byte	0x30d
 1114 0223 40       		.byte	0x40
 1115 0224 00       		.byte	0
 1116 0225 04       		.uleb128 0x4
 1117 0226 8F030000 		.4byte	.LASF44
 1118 022a 07       		.byte	0x7
 1119 022b 44       		.byte	0x44
 1120 022c 30020000 		.4byte	0x230
 1121 0230 0A       		.uleb128 0xa
 1122 0231 04       		.byte	0x4
 1123 0232 3C010000 		.4byte	0x13c
 1124 0236 04       		.uleb128 0x4
ARM GAS  /tmp/ccrxrg1p.s 			page 21


 1125 0237 9E060000 		.4byte	.LASF45
 1126 023b 07       		.byte	0x7
 1127 023c 49       		.byte	0x49
 1128 023d 41020000 		.4byte	0x241
 1129 0241 05       		.uleb128 0x5
 1130 0242 10050000 		.4byte	.LASF47
 1131 0246 04       		.byte	0x4
 1132 0247 02       		.byte	0x2
 1133 0248 88       		.byte	0x88
 1134 0249 5A020000 		.4byte	0x25a
 1135 024d 06       		.uleb128 0x6
 1136 024e F2000000 		.4byte	.LASF48
 1137 0252 02       		.byte	0x2
 1138 0253 89       		.byte	0x89
 1139 0254 30020000 		.4byte	0x230
 1140 0258 00       		.byte	0
 1141 0259 00       		.byte	0
 1142 025a 04       		.uleb128 0x4
 1143 025b 5E060000 		.4byte	.LASF49
 1144 025f 07       		.byte	0x7
 1145 0260 50       		.byte	0x50
 1146 0261 65020000 		.4byte	0x265
 1147 0265 05       		.uleb128 0x5
 1148 0266 F7000000 		.4byte	.LASF50
 1149 026a 08       		.byte	0x8
 1150 026b 02       		.byte	0x2
 1151 026c 8F       		.byte	0x8f
 1152 026d 8A020000 		.4byte	0x28a
 1153 0271 06       		.uleb128 0x6
 1154 0272 F2000000 		.4byte	.LASF48
 1155 0276 02       		.byte	0x2
 1156 0277 90       		.byte	0x90
 1157 0278 30020000 		.4byte	0x230
 1158 027c 00       		.byte	0
 1159 027d 06       		.uleb128 0x6
 1160 027e 4D000000 		.4byte	.LASF51
 1161 0282 02       		.byte	0x2
 1162 0283 91       		.byte	0x91
 1163 0284 30020000 		.4byte	0x230
 1164 0288 04       		.byte	0x4
 1165 0289 00       		.byte	0
 1166 028a 04       		.uleb128 0x4
 1167 028b 00000000 		.4byte	.LASF52
 1168 028f 07       		.byte	0x7
 1169 0290 57       		.byte	0x57
 1170 0291 95020000 		.4byte	0x295
 1171 0295 0B       		.uleb128 0xb
 1172 0296 2A030000 		.4byte	.LASF53
 1173 029a 1C       		.byte	0x1c
 1174 029b 02       		.byte	0x2
 1175 029c 6A01     		.2byte	0x16a
 1176 029e F1020000 		.4byte	0x2f1
 1177 02a2 09       		.uleb128 0x9
 1178 02a3 D3020000 		.4byte	.LASF29
 1179 02a7 02       		.byte	0x2
 1180 02a8 6B01     		.2byte	0x16b
 1181 02aa 5A020000 		.4byte	0x25a
ARM GAS  /tmp/ccrxrg1p.s 			page 22


 1182 02ae 00       		.byte	0
 1183 02af 09       		.uleb128 0x9
 1184 02b0 F0030000 		.4byte	.LASF30
 1185 02b4 02       		.byte	0x2
 1186 02b5 6C01     		.2byte	0x16c
 1187 02b7 05010000 		.4byte	0x105
 1188 02bb 08       		.byte	0x8
 1189 02bc 08       		.uleb128 0x8
 1190 02bd 63747800 		.ascii	"ctx\000"
 1191 02c1 02       		.byte	0x2
 1192 02c2 6E01     		.2byte	0x16e
 1193 02c4 63040000 		.4byte	0x463
 1194 02c8 0C       		.byte	0xc
 1195 02c9 09       		.uleb128 0x9
 1196 02ca 6F030000 		.4byte	.LASF31
 1197 02ce 02       		.byte	0x2
 1198 02cf 7101     		.2byte	0x171
 1199 02d1 30020000 		.4byte	0x230
 1200 02d5 10       		.byte	0x10
 1201 02d6 09       		.uleb128 0x9
 1202 02d7 32050000 		.4byte	.LASF32
 1203 02db 02       		.byte	0x2
 1204 02dc 7201     		.2byte	0x172
 1205 02de 30020000 		.4byte	0x230
 1206 02e2 14       		.byte	0x14
 1207 02e3 09       		.uleb128 0x9
 1208 02e4 F5030000 		.4byte	.LASF54
 1209 02e8 02       		.byte	0x2
 1210 02e9 7501     		.2byte	0x175
 1211 02eb 30020000 		.4byte	0x230
 1212 02ef 18       		.byte	0x18
 1213 02f0 00       		.byte	0
 1214 02f1 04       		.uleb128 0x4
 1215 02f2 7A050000 		.4byte	.LASF55
 1216 02f6 07       		.byte	0x7
 1217 02f7 5C       		.byte	0x5c
 1218 02f8 FC020000 		.4byte	0x2fc
 1219 02fc 0A       		.uleb128 0xa
 1220 02fd 04       		.byte	0x4
 1221 02fe 02030000 		.4byte	0x302
 1222 0302 0C       		.uleb128 0xc
 1223 0303 0D030000 		.4byte	0x30d
 1224 0307 0D       		.uleb128 0xd
 1225 0308 0D030000 		.4byte	0x30d
 1226 030c 00       		.byte	0
 1227 030d 0E       		.uleb128 0xe
 1228 030e 04       		.byte	0x4
 1229 030f 04       		.uleb128 0x4
 1230 0310 41040000 		.4byte	.LASF56
 1231 0314 07       		.byte	0x7
 1232 0315 61       		.byte	0x61
 1233 0316 1A030000 		.4byte	0x31a
 1234 031a 0B       		.uleb128 0xb
 1235 031b C8040000 		.4byte	.LASF57
 1236 031f 14       		.byte	0x14
 1237 0320 02       		.byte	0x2
 1238 0321 4501     		.2byte	0x145
ARM GAS  /tmp/ccrxrg1p.s 			page 23


 1239 0323 69030000 		.4byte	0x369
 1240 0327 09       		.uleb128 0x9
 1241 0328 F2000000 		.4byte	.LASF48
 1242 032c 02       		.byte	0x2
 1243 032d 4601     		.2byte	0x146
 1244 032f 52070000 		.4byte	0x752
 1245 0333 00       		.byte	0
 1246 0334 09       		.uleb128 0x9
 1247 0335 4D000000 		.4byte	.LASF51
 1248 0339 02       		.byte	0x2
 1249 033a 4701     		.2byte	0x147
 1250 033c 52070000 		.4byte	0x752
 1251 0340 04       		.byte	0x4
 1252 0341 09       		.uleb128 0x9
 1253 0342 2D000000 		.4byte	.LASF58
 1254 0346 02       		.byte	0x2
 1255 0347 4801     		.2byte	0x148
 1256 0349 31010000 		.4byte	0x131
 1257 034d 08       		.byte	0x8
 1258 034e 09       		.uleb128 0x9
 1259 034f 8A010000 		.4byte	.LASF59
 1260 0353 02       		.byte	0x2
 1261 0354 4901     		.2byte	0x149
 1262 0356 F1020000 		.4byte	0x2f1
 1263 035a 0C       		.byte	0xc
 1264 035b 08       		.uleb128 0x8
 1265 035c 70617200 		.ascii	"par\000"
 1266 0360 02       		.byte	0x2
 1267 0361 4B01     		.2byte	0x14b
 1268 0363 0D030000 		.4byte	0x30d
 1269 0367 10       		.byte	0x10
 1270 0368 00       		.byte	0
 1271 0369 04       		.uleb128 0x4
 1272 036a 4E030000 		.4byte	.LASF60
 1273 036e 07       		.byte	0x7
 1274 036f 66       		.byte	0x66
 1275 0370 74030000 		.4byte	0x374
 1276 0374 0B       		.uleb128 0xb
 1277 0375 A2030000 		.4byte	.LASF61
 1278 0379 10       		.byte	0x10
 1279 037a 02       		.byte	0x2
 1280 037b 5501     		.2byte	0x155
 1281 037d B6030000 		.4byte	0x3b6
 1282 0381 09       		.uleb128 0x9
 1283 0382 F2000000 		.4byte	.LASF48
 1284 0386 02       		.byte	0x2
 1285 0387 5601     		.2byte	0x156
 1286 0389 52070000 		.4byte	0x752
 1287 038d 00       		.byte	0
 1288 038e 09       		.uleb128 0x9
 1289 038f 4D000000 		.4byte	.LASF51
 1290 0393 02       		.byte	0x2
 1291 0394 5801     		.2byte	0x158
 1292 0396 52070000 		.4byte	0x752
 1293 039a 04       		.byte	0x4
 1294 039b 09       		.uleb128 0x9
 1295 039c 2D000000 		.4byte	.LASF58
ARM GAS  /tmp/ccrxrg1p.s 			page 24


 1296 03a0 02       		.byte	0x2
 1297 03a1 5A01     		.2byte	0x15a
 1298 03a3 31010000 		.4byte	0x131
 1299 03a7 08       		.byte	0x8
 1300 03a8 09       		.uleb128 0x9
 1301 03a9 8E040000 		.4byte	.LASF62
 1302 03ad 02       		.byte	0x2
 1303 03ae 6201     		.2byte	0x162
 1304 03b0 31010000 		.4byte	0x131
 1305 03b4 0C       		.byte	0xc
 1306 03b5 00       		.byte	0
 1307 03b6 04       		.uleb128 0x4
 1308 03b7 5E000000 		.4byte	.LASF63
 1309 03bb 07       		.byte	0x7
 1310 03bc 6B       		.byte	0x6b
 1311 03bd C1030000 		.4byte	0x3c1
 1312 03c1 0F       		.uleb128 0xf
 1313 03c2 5E040000 		.4byte	.LASF64
 1314 03c6 0C08     		.2byte	0x80c
 1315 03c8 02       		.byte	0x2
 1316 03c9 7C01     		.2byte	0x17c
 1317 03cb EA030000 		.4byte	0x3ea
 1318 03cf 09       		.uleb128 0x9
 1319 03d0 9B050000 		.4byte	.LASF65
 1320 03d4 02       		.byte	0x2
 1321 03d5 8401     		.2byte	0x184
 1322 03d7 58070000 		.4byte	0x758
 1323 03db 00       		.byte	0
 1324 03dc 09       		.uleb128 0x9
 1325 03dd AD060000 		.4byte	.LASF66
 1326 03e1 02       		.byte	0x2
 1327 03e2 9301     		.2byte	0x193
 1328 03e4 56060000 		.4byte	0x656
 1329 03e8 04       		.byte	0x4
 1330 03e9 00       		.byte	0
 1331 03ea 04       		.uleb128 0x4
 1332 03eb 16030000 		.4byte	.LASF67
 1333 03ef 07       		.byte	0x7
 1334 03f0 70       		.byte	0x70
 1335 03f1 F5030000 		.4byte	0x3f5
 1336 03f5 0F       		.uleb128 0xf
 1337 03f6 A3040000 		.4byte	.LASF68
 1338 03fa 8008     		.2byte	0x880
 1339 03fc 02       		.byte	0x2
 1340 03fd 9C01     		.2byte	0x19c
 1341 03ff 46040000 		.4byte	0x446
 1342 0403 09       		.uleb128 0x9
 1343 0404 83060000 		.4byte	.LASF69
 1344 0408 02       		.byte	0x2
 1345 0409 A001     		.2byte	0x1a0
 1346 040b 8A020000 		.4byte	0x28a
 1347 040f 00       		.byte	0
 1348 0410 09       		.uleb128 0x9
 1349 0411 4E010000 		.4byte	.LASF70
 1350 0415 02       		.byte	0x2
 1351 0416 A401     		.2byte	0x1a4
 1352 0418 69030000 		.4byte	0x369
ARM GAS  /tmp/ccrxrg1p.s 			page 25


 1353 041c 1C       		.byte	0x1c
 1354 041d 08       		.uleb128 0x8
 1355 041e 64626700 		.ascii	"dbg\000"
 1356 0422 02       		.byte	0x2
 1357 0423 A801     		.2byte	0x1a8
 1358 0425 B6030000 		.4byte	0x3b6
 1359 0429 2C       		.byte	0x2c
 1360 042a 10       		.uleb128 0x10
 1361 042b C1000000 		.4byte	.LASF71
 1362 042f 02       		.byte	0x2
 1363 0430 AC01     		.2byte	0x1ac
 1364 0432 3C010000 		.4byte	0x13c
 1365 0436 3808     		.2byte	0x838
 1366 0438 11       		.uleb128 0x11
 1367 0439 746D00   		.ascii	"tm\000"
 1368 043c 02       		.byte	0x2
 1369 043d B101     		.2byte	0x1b1
 1370 043f 76060000 		.4byte	0x676
 1371 0443 7C08     		.2byte	0x87c
 1372 0445 00       		.byte	0
 1373 0446 03       		.uleb128 0x3
 1374 0447 04       		.byte	0x4
 1375 0448 07       		.byte	0x7
 1376 0449 86030000 		.4byte	.LASF72
 1377 044d 04       		.uleb128 0x4
 1378 044e D0010000 		.4byte	.LASF73
 1379 0452 08       		.byte	0x8
 1380 0453 65       		.byte	0x65
 1381 0454 0D030000 		.4byte	0x30d
 1382 0458 04       		.uleb128 0x4
 1383 0459 64030000 		.4byte	.LASF74
 1384 045d 08       		.byte	0x8
 1385 045e 6D       		.byte	0x6d
 1386 045f CE000000 		.4byte	0xce
 1387 0463 05       		.uleb128 0x5
 1388 0464 CD030000 		.4byte	.LASF75
 1389 0468 04       		.byte	0x4
 1390 0469 08       		.byte	0x8
 1391 046a 89       		.byte	0x89
 1392 046b 7B040000 		.4byte	0x47b
 1393 046f 07       		.uleb128 0x7
 1394 0470 737000   		.ascii	"sp\000"
 1395 0473 08       		.byte	0x8
 1396 0474 8A       		.byte	0x8a
 1397 0475 F7040000 		.4byte	0x4f7
 1398 0479 00       		.byte	0
 1399 047a 00       		.byte	0
 1400 047b 0B       		.uleb128 0xb
 1401 047c 52000000 		.4byte	.LASF76
 1402 0480 24       		.byte	0x24
 1403 0481 09       		.byte	0x9
 1404 0482 5901     		.2byte	0x159
 1405 0484 F7040000 		.4byte	0x4f7
 1406 0488 08       		.uleb128 0x8
 1407 0489 723400   		.ascii	"r4\000"
 1408 048c 09       		.byte	0x9
 1409 048d 6C01     		.2byte	0x16c
ARM GAS  /tmp/ccrxrg1p.s 			page 26


 1410 048f 4D040000 		.4byte	0x44d
 1411 0493 00       		.byte	0
 1412 0494 08       		.uleb128 0x8
 1413 0495 723500   		.ascii	"r5\000"
 1414 0498 09       		.byte	0x9
 1415 0499 6D01     		.2byte	0x16d
 1416 049b 4D040000 		.4byte	0x44d
 1417 049f 04       		.byte	0x4
 1418 04a0 08       		.uleb128 0x8
 1419 04a1 723600   		.ascii	"r6\000"
 1420 04a4 09       		.byte	0x9
 1421 04a5 6E01     		.2byte	0x16e
 1422 04a7 4D040000 		.4byte	0x44d
 1423 04ab 08       		.byte	0x8
 1424 04ac 08       		.uleb128 0x8
 1425 04ad 723700   		.ascii	"r7\000"
 1426 04b0 09       		.byte	0x9
 1427 04b1 6F01     		.2byte	0x16f
 1428 04b3 4D040000 		.4byte	0x44d
 1429 04b7 0C       		.byte	0xc
 1430 04b8 08       		.uleb128 0x8
 1431 04b9 723800   		.ascii	"r8\000"
 1432 04bc 09       		.byte	0x9
 1433 04bd 7001     		.2byte	0x170
 1434 04bf 4D040000 		.4byte	0x44d
 1435 04c3 10       		.byte	0x10
 1436 04c4 08       		.uleb128 0x8
 1437 04c5 723900   		.ascii	"r9\000"
 1438 04c8 09       		.byte	0x9
 1439 04c9 7101     		.2byte	0x171
 1440 04cb 4D040000 		.4byte	0x44d
 1441 04cf 14       		.byte	0x14
 1442 04d0 08       		.uleb128 0x8
 1443 04d1 72313000 		.ascii	"r10\000"
 1444 04d5 09       		.byte	0x9
 1445 04d6 7201     		.2byte	0x172
 1446 04d8 4D040000 		.4byte	0x44d
 1447 04dc 18       		.byte	0x18
 1448 04dd 08       		.uleb128 0x8
 1449 04de 72313100 		.ascii	"r11\000"
 1450 04e2 09       		.byte	0x9
 1451 04e3 7301     		.2byte	0x173
 1452 04e5 4D040000 		.4byte	0x44d
 1453 04e9 1C       		.byte	0x1c
 1454 04ea 08       		.uleb128 0x8
 1455 04eb 6C7200   		.ascii	"lr\000"
 1456 04ee 09       		.byte	0x9
 1457 04ef 7401     		.2byte	0x174
 1458 04f1 4D040000 		.4byte	0x44d
 1459 04f5 20       		.byte	0x20
 1460 04f6 00       		.byte	0
 1461 04f7 0A       		.uleb128 0xa
 1462 04f8 04       		.byte	0x4
 1463 04f9 7B040000 		.4byte	0x47b
 1464 04fd 12       		.uleb128 0x12
 1465 04fe 08       		.byte	0x8
 1466 04ff 0A       		.byte	0xa
ARM GAS  /tmp/ccrxrg1p.s 			page 27


 1467 0500 80       		.byte	0x80
 1468 0501 1E050000 		.4byte	0x51e
 1469 0505 07       		.uleb128 0x7
 1470 0506 6E747000 		.ascii	"ntp\000"
 1471 050a 0A       		.byte	0xa
 1472 050b 84       		.byte	0x84
 1473 050c 30020000 		.4byte	0x230
 1474 0510 00       		.byte	0
 1475 0511 06       		.uleb128 0x6
 1476 0512 97060000 		.4byte	.LASF77
 1477 0516 0A       		.byte	0xa
 1478 0517 88       		.byte	0x88
 1479 0518 0D030000 		.4byte	0x30d
 1480 051c 04       		.byte	0x4
 1481 051d 00       		.byte	0
 1482 051e 12       		.uleb128 0x12
 1483 051f 04       		.byte	0x4
 1484 0520 0A       		.byte	0xa
 1485 0521 8D       		.byte	0x8d
 1486 0522 33050000 		.4byte	0x533
 1487 0526 06       		.uleb128 0x6
 1488 0527 CE020000 		.4byte	.LASF33
 1489 052b 0A       		.byte	0xa
 1490 052c 91       		.byte	0x91
 1491 052d 33050000 		.4byte	0x533
 1492 0531 00       		.byte	0
 1493 0532 00       		.byte	0
 1494 0533 0A       		.uleb128 0xa
 1495 0534 04       		.byte	0x4
 1496 0535 39050000 		.4byte	0x539
 1497 0539 13       		.uleb128 0x13
 1498 053a 3E050000 		.4byte	0x53e
 1499 053e 03       		.uleb128 0x3
 1500 053f 01       		.byte	0x1
 1501 0540 08       		.byte	0x8
 1502 0541 2D050000 		.4byte	.LASF78
 1503 0545 12       		.uleb128 0x12
 1504 0546 04       		.byte	0x4
 1505 0547 0A       		.byte	0xa
 1506 0548 96       		.byte	0x96
 1507 0549 5A050000 		.4byte	0x55a
 1508 054d 06       		.uleb128 0x6
 1509 054e C1040000 		.4byte	.LASF79
 1510 0552 0A       		.byte	0xa
 1511 0553 9A       		.byte	0x9a
 1512 0554 33050000 		.4byte	0x533
 1513 0558 00       		.byte	0
 1514 0559 00       		.byte	0
 1515 055a 12       		.uleb128 0x12
 1516 055b 08       		.byte	0x8
 1517 055c 0A       		.byte	0xa
 1518 055d 9F       		.byte	0x9f
 1519 055e 7B050000 		.4byte	0x57b
 1520 0562 07       		.uleb128 0x7
 1521 0563 75703100 		.ascii	"up1\000"
 1522 0567 0A       		.byte	0xa
 1523 0568 A3       		.byte	0xa3
ARM GAS  /tmp/ccrxrg1p.s 			page 28


 1524 0569 0D030000 		.4byte	0x30d
 1525 056d 00       		.byte	0
 1526 056e 07       		.uleb128 0x7
 1527 056f 75703200 		.ascii	"up2\000"
 1528 0573 0A       		.byte	0xa
 1529 0574 A7       		.byte	0xa7
 1530 0575 0D030000 		.4byte	0x30d
 1531 0579 04       		.byte	0x4
 1532 057a 00       		.byte	0
 1533 057b 14       		.uleb128 0x14
 1534 057c 08       		.byte	0x8
 1535 057d 0A       		.byte	0xa
 1536 057e 7C       		.byte	0x7c
 1537 057f AF050000 		.4byte	0x5af
 1538 0583 15       		.uleb128 0x15
 1539 0584 737700   		.ascii	"sw\000"
 1540 0587 0A       		.byte	0xa
 1541 0588 89       		.byte	0x89
 1542 0589 FD040000 		.4byte	0x4fd
 1543 058d 15       		.uleb128 0x15
 1544 058e 69737200 		.ascii	"isr\000"
 1545 0592 0A       		.byte	0xa
 1546 0593 92       		.byte	0x92
 1547 0594 1E050000 		.4byte	0x51e
 1548 0598 16       		.uleb128 0x16
 1549 0599 97040000 		.4byte	.LASF80
 1550 059d 0A       		.byte	0xa
 1551 059e 9B       		.byte	0x9b
 1552 059f 45050000 		.4byte	0x545
 1553 05a3 16       		.uleb128 0x16
 1554 05a4 51040000 		.4byte	.LASF81
 1555 05a8 0A       		.byte	0xa
 1556 05a9 A8       		.byte	0xa8
 1557 05aa 5A050000 		.4byte	0x55a
 1558 05ae 00       		.byte	0
 1559 05af 12       		.uleb128 0x12
 1560 05b0 10       		.byte	0x10
 1561 05b1 0A       		.byte	0xa
 1562 05b2 69       		.byte	0x69
 1563 05b3 FB050000 		.4byte	0x5fb
 1564 05b7 17       		.uleb128 0x17
 1565 05b8 6D000000 		.4byte	.LASF82
 1566 05bc 0A       		.byte	0xa
 1567 05bd 6D       		.byte	0x6d
 1568 05be C3000000 		.4byte	0xc3
 1569 05c2 04       		.byte	0x4
 1570 05c3 03       		.byte	0x3
 1571 05c4 1D       		.byte	0x1d
 1572 05c5 00       		.byte	0
 1573 05c6 17       		.uleb128 0x17
 1574 05c7 61010000 		.4byte	.LASF35
 1575 05cb 0A       		.byte	0xa
 1576 05cc 71       		.byte	0x71
 1577 05cd C3000000 		.4byte	0xc3
 1578 05d1 04       		.byte	0x4
 1579 05d2 05       		.byte	0x5
 1580 05d3 18       		.byte	0x18
ARM GAS  /tmp/ccrxrg1p.s 			page 29


 1581 05d4 00       		.byte	0
 1582 05d5 17       		.uleb128 0x17
 1583 05d6 75030000 		.4byte	.LASF83
 1584 05da 0A       		.byte	0xa
 1585 05db 77       		.byte	0x77
 1586 05dc C3000000 		.4byte	0xc3
 1587 05e0 04       		.byte	0x4
 1588 05e1 18       		.byte	0x18
 1589 05e2 00       		.byte	0
 1590 05e3 00       		.byte	0
 1591 05e4 06       		.uleb128 0x6
 1592 05e5 EB030000 		.4byte	.LASF84
 1593 05e9 0A       		.byte	0xa
 1594 05ea 7B       		.byte	0x7b
 1595 05eb 31010000 		.4byte	0x131
 1596 05ef 04       		.byte	0x4
 1597 05f0 07       		.uleb128 0x7
 1598 05f1 7500     		.ascii	"u\000"
 1599 05f3 0A       		.byte	0xa
 1600 05f4 A9       		.byte	0xa9
 1601 05f5 7B050000 		.4byte	0x57b
 1602 05f9 08       		.byte	0x8
 1603 05fa 00       		.byte	0
 1604 05fb 04       		.uleb128 0x4
 1605 05fc 79010000 		.4byte	.LASF85
 1606 0600 0A       		.byte	0xa
 1607 0601 AA       		.byte	0xaa
 1608 0602 AF050000 		.4byte	0x5af
 1609 0606 18       		.uleb128 0x18
 1610 0607 0808     		.2byte	0x808
 1611 0609 0A       		.byte	0xa
 1612 060a B0       		.byte	0xb0
 1613 060b 40060000 		.4byte	0x640
 1614 060f 06       		.uleb128 0x6
 1615 0610 B9030000 		.4byte	.LASF86
 1616 0614 0A       		.byte	0xa
 1617 0615 B4       		.byte	0xb4
 1618 0616 AD000000 		.4byte	0xad
 1619 061a 00       		.byte	0
 1620 061b 06       		.uleb128 0x6
 1621 061c 32010000 		.4byte	.LASF87
 1622 0620 0A       		.byte	0xa
 1623 0621 B8       		.byte	0xb8
 1624 0622 AD000000 		.4byte	0xad
 1625 0626 02       		.byte	0x2
 1626 0627 07       		.uleb128 0x7
 1627 0628 70747200 		.ascii	"ptr\000"
 1628 062c 0A       		.byte	0xa
 1629 062d BC       		.byte	0xbc
 1630 062e 40060000 		.4byte	0x640
 1631 0632 04       		.byte	0x4
 1632 0633 06       		.uleb128 0x6
 1633 0634 AD010000 		.4byte	.LASF88
 1634 0638 0A       		.byte	0xa
 1635 0639 C0       		.byte	0xc0
 1636 063a 46060000 		.4byte	0x646
 1637 063e 08       		.byte	0x8
ARM GAS  /tmp/ccrxrg1p.s 			page 30


 1638 063f 00       		.byte	0
 1639 0640 0A       		.uleb128 0xa
 1640 0641 04       		.byte	0x4
 1641 0642 FB050000 		.4byte	0x5fb
 1642 0646 19       		.uleb128 0x19
 1643 0647 FB050000 		.4byte	0x5fb
 1644 064b 56060000 		.4byte	0x656
 1645 064f 1A       		.uleb128 0x1a
 1646 0650 46040000 		.4byte	0x446
 1647 0654 7F       		.byte	0x7f
 1648 0655 00       		.byte	0
 1649 0656 04       		.uleb128 0x4
 1650 0657 9A000000 		.4byte	.LASF89
 1651 065b 0A       		.byte	0xa
 1652 065c C1       		.byte	0xc1
 1653 065d 06060000 		.4byte	0x606
 1654 0661 12       		.uleb128 0x12
 1655 0662 04       		.byte	0x4
 1656 0663 0B       		.byte	0xb
 1657 0664 38       		.byte	0x38
 1658 0665 76060000 		.4byte	0x676
 1659 0669 06       		.uleb128 0x6
 1660 066a A5050000 		.4byte	.LASF90
 1661 066e 0B       		.byte	0xb
 1662 066f 3C       		.byte	0x3c
 1663 0670 D9000000 		.4byte	0xd9
 1664 0674 00       		.byte	0
 1665 0675 00       		.byte	0
 1666 0676 04       		.uleb128 0x4
 1667 0677 DA030000 		.4byte	.LASF91
 1668 067b 0B       		.byte	0xb
 1669 067c 3D       		.byte	0x3d
 1670 067d 61060000 		.4byte	0x661
 1671 0681 14       		.uleb128 0x14
 1672 0682 04       		.byte	0x4
 1673 0683 02       		.byte	0x2
 1674 0684 D2       		.byte	0xd2
 1675 0685 E4060000 		.4byte	0x6e4
 1676 0689 16       		.uleb128 0x16
 1677 068a 33000000 		.4byte	.LASF92
 1678 068e 02       		.byte	0x2
 1679 068f D9       		.byte	0xd9
 1680 0690 10010000 		.4byte	0x110
 1681 0694 16       		.uleb128 0x16
 1682 0695 B8000000 		.4byte	.LASF93
 1683 0699 02       		.byte	0x2
 1684 069a E0       		.byte	0xe0
 1685 069b 10010000 		.4byte	0x110
 1686 069f 16       		.uleb128 0x16
 1687 06a0 97060000 		.4byte	.LASF77
 1688 06a4 02       		.byte	0x2
 1689 06a5 E7       		.byte	0xe7
 1690 06a6 0D030000 		.4byte	0x30d
 1691 06aa 16       		.uleb128 0x16
 1692 06ab 27000000 		.4byte	.LASF94
 1693 06af 02       		.byte	0x2
 1694 06b0 EE       		.byte	0xee
ARM GAS  /tmp/ccrxrg1p.s 			page 31


 1695 06b1 E4060000 		.4byte	0x6e4
 1696 06b5 16       		.uleb128 0x16
 1697 06b6 CC000000 		.4byte	.LASF95
 1698 06ba 02       		.byte	0x2
 1699 06bb F3       		.byte	0xf3
 1700 06bc 10010000 		.4byte	0x110
 1701 06c0 16       		.uleb128 0x16
 1702 06c1 AA020000 		.4byte	.LASF96
 1703 06c5 02       		.byte	0x2
 1704 06c6 FC       		.byte	0xfc
 1705 06c7 0F070000 		.4byte	0x70f
 1706 06cb 1B       		.uleb128 0x1b
 1707 06cc FD040000 		.4byte	.LASF97
 1708 06d0 02       		.byte	0x2
 1709 06d1 0501     		.2byte	0x105
 1710 06d3 46070000 		.4byte	0x746
 1711 06d7 1B       		.uleb128 0x1b
 1712 06d8 9C040000 		.4byte	.LASF98
 1713 06dc 02       		.byte	0x2
 1714 06dd 0D01     		.2byte	0x10d
 1715 06df 1B010000 		.4byte	0x11b
 1716 06e3 00       		.byte	0
 1717 06e4 0A       		.uleb128 0xa
 1718 06e5 04       		.byte	0x4
 1719 06e6 25020000 		.4byte	0x225
 1720 06ea 05       		.uleb128 0x5
 1721 06eb D9040000 		.4byte	.LASF99
 1722 06ef 0C       		.byte	0xc
 1723 06f0 0C       		.byte	0xc
 1724 06f1 34       		.byte	0x34
 1725 06f2 0F070000 		.4byte	0x70f
 1726 06f6 06       		.uleb128 0x6
 1727 06f7 D3020000 		.4byte	.LASF29
 1728 06fb 0C       		.byte	0xc
 1729 06fc 35       		.byte	0x35
 1730 06fd 5A020000 		.4byte	0x25a
 1731 0701 00       		.byte	0
 1732 0702 07       		.uleb128 0x7
 1733 0703 636E7400 		.ascii	"cnt\000"
 1734 0707 0C       		.byte	0xc
 1735 0708 37       		.byte	0x37
 1736 0709 26010000 		.4byte	0x126
 1737 070d 08       		.byte	0x8
 1738 070e 00       		.byte	0
 1739 070f 0A       		.uleb128 0xa
 1740 0710 04       		.byte	0x4
 1741 0711 EA060000 		.4byte	0x6ea
 1742 0715 05       		.uleb128 0x5
 1743 0716 6E060000 		.4byte	.LASF100
 1744 071a 10       		.byte	0x10
 1745 071b 0D       		.byte	0xd
 1746 071c 39       		.byte	0x39
 1747 071d 46070000 		.4byte	0x746
 1748 0721 06       		.uleb128 0x6
 1749 0722 D3020000 		.4byte	.LASF29
 1750 0726 0D       		.byte	0xd
 1751 0727 3A       		.byte	0x3a
ARM GAS  /tmp/ccrxrg1p.s 			page 32


 1752 0728 5A020000 		.4byte	0x25a
 1753 072c 00       		.byte	0
 1754 072d 06       		.uleb128 0x6
 1755 072e 20050000 		.4byte	.LASF101
 1756 0732 0D       		.byte	0xd
 1757 0733 3C       		.byte	0x3c
 1758 0734 30020000 		.4byte	0x230
 1759 0738 08       		.byte	0x8
 1760 0739 06       		.uleb128 0x6
 1761 073a F2000000 		.4byte	.LASF48
 1762 073e 0D       		.byte	0xd
 1763 073f 3E       		.byte	0x3e
 1764 0740 73070000 		.4byte	0x773
 1765 0744 0C       		.byte	0xc
 1766 0745 00       		.byte	0
 1767 0746 0A       		.uleb128 0xa
 1768 0747 04       		.byte	0x4
 1769 0748 15070000 		.4byte	0x715
 1770 074c 0A       		.uleb128 0xa
 1771 074d 04       		.byte	0x4
 1772 074e 58040000 		.4byte	0x458
 1773 0752 0A       		.uleb128 0xa
 1774 0753 04       		.byte	0x4
 1775 0754 0F030000 		.4byte	0x30f
 1776 0758 1C       		.uleb128 0x1c
 1777 0759 33050000 		.4byte	0x533
 1778 075d 04       		.uleb128 0x4
 1779 075e AC000000 		.4byte	.LASF102
 1780 0762 0C       		.byte	0xc
 1781 0763 38       		.byte	0x38
 1782 0764 EA060000 		.4byte	0x6ea
 1783 0768 04       		.uleb128 0x4
 1784 0769 E1010000 		.4byte	.LASF103
 1785 076d 0D       		.byte	0xd
 1786 076e 34       		.byte	0x34
 1787 076f 15070000 		.4byte	0x715
 1788 0773 0A       		.uleb128 0xa
 1789 0774 04       		.byte	0x4
 1790 0775 68070000 		.4byte	0x768
 1791 0779 1D       		.uleb128 0x1d
 1792 077a 83050000 		.4byte	.LASF106
 1793 077e 03       		.byte	0x3
 1794 077f 0601     		.2byte	0x106
 1795 0781 03       		.byte	0x3
 1796 0782 93070000 		.4byte	0x793
 1797 0786 1E       		.uleb128 0x1e
 1798 0787 E9010000 		.4byte	.LASF108
 1799 078b 03       		.byte	0x3
 1800 078c 0601     		.2byte	0x106
 1801 078e C3000000 		.4byte	0xc3
 1802 0792 00       		.byte	0
 1803 0793 1F       		.uleb128 0x1f
 1804 0794 72000000 		.4byte	.LASF104
 1805 0798 09       		.byte	0x9
 1806 0799 5202     		.2byte	0x252
 1807 079b 03       		.byte	0x3
 1808 079c 1F       		.uleb128 0x1f
ARM GAS  /tmp/ccrxrg1p.s 			page 33


 1809 079d 55010000 		.4byte	.LASF105
 1810 07a1 09       		.byte	0x9
 1811 07a2 6A02     		.2byte	0x26a
 1812 07a4 03       		.byte	0x3
 1813 07a5 1D       		.uleb128 0x1d
 1814 07a6 FC020000 		.4byte	.LASF107
 1815 07aa 02       		.byte	0x2
 1816 07ab 2402     		.2byte	0x224
 1817 07ad 03       		.byte	0x3
 1818 07ae BF070000 		.4byte	0x7bf
 1819 07b2 20       		.uleb128 0x20
 1820 07b3 74717000 		.ascii	"tqp\000"
 1821 07b7 02       		.byte	0x2
 1822 07b8 2402     		.2byte	0x224
 1823 07ba BF070000 		.4byte	0x7bf
 1824 07be 00       		.byte	0
 1825 07bf 0A       		.uleb128 0xa
 1826 07c0 04       		.byte	0x4
 1827 07c1 5A020000 		.4byte	0x25a
 1828 07c5 21       		.uleb128 0x21
 1829 07c6 7C000000 		.4byte	.LASF113
 1830 07ca 02       		.byte	0x2
 1831 07cb 7202     		.2byte	0x272
 1832 07cd 30020000 		.4byte	0x230
 1833 07d1 03       		.byte	0x3
 1834 07d2 EE070000 		.4byte	0x7ee
 1835 07d6 20       		.uleb128 0x20
 1836 07d7 74717000 		.ascii	"tqp\000"
 1837 07db 02       		.byte	0x2
 1838 07dc 7202     		.2byte	0x272
 1839 07de BF070000 		.4byte	0x7bf
 1840 07e2 22       		.uleb128 0x22
 1841 07e3 747000   		.ascii	"tp\000"
 1842 07e6 02       		.byte	0x2
 1843 07e7 7302     		.2byte	0x273
 1844 07e9 30020000 		.4byte	0x230
 1845 07ed 00       		.byte	0
 1846 07ee 1F       		.uleb128 0x1f
 1847 07ef C3030000 		.4byte	.LASF109
 1848 07f3 0E       		.byte	0xe
 1849 07f4 7601     		.2byte	0x176
 1850 07f6 03       		.byte	0x3
 1851 07f7 1D       		.uleb128 0x1d
 1852 07f8 BA060000 		.4byte	.LASF110
 1853 07fc 0E       		.byte	0xe
 1854 07fd 8201     		.2byte	0x182
 1855 07ff 03       		.byte	0x3
 1856 0800 12080000 		.4byte	0x812
 1857 0804 23       		.uleb128 0x23
 1858 0805 AD040000 		.4byte	.LASF111
 1859 0809 22080000 		.4byte	0x822
 1860 080d BA060000 		.4byte	.LASF110
 1861 0811 00       		.byte	0
 1862 0812 19       		.uleb128 0x19
 1863 0813 3E050000 		.4byte	0x53e
 1864 0817 22080000 		.4byte	0x822
 1865 081b 1A       		.uleb128 0x1a
ARM GAS  /tmp/ccrxrg1p.s 			page 34


 1866 081c 46040000 		.4byte	0x446
 1867 0820 0B       		.byte	0xb
 1868 0821 00       		.byte	0
 1869 0822 13       		.uleb128 0x13
 1870 0823 12080000 		.4byte	0x812
 1871 0827 1D       		.uleb128 0x1d
 1872 0828 0D000000 		.4byte	.LASF112
 1873 082c 02       		.byte	0x2
 1874 082d 6102     		.2byte	0x261
 1875 082f 03       		.byte	0x3
 1876 0830 4C080000 		.4byte	0x84c
 1877 0834 20       		.uleb128 0x20
 1878 0835 747000   		.ascii	"tp\000"
 1879 0838 02       		.byte	0x2
 1880 0839 6102     		.2byte	0x261
 1881 083b 30020000 		.4byte	0x230
 1882 083f 20       		.uleb128 0x20
 1883 0840 74717000 		.ascii	"tqp\000"
 1884 0844 02       		.byte	0x2
 1885 0845 6102     		.2byte	0x261
 1886 0847 BF070000 		.4byte	0x7bf
 1887 084b 00       		.byte	0
 1888 084c 21       		.uleb128 0x21
 1889 084d 5E050000 		.4byte	.LASF114
 1890 0851 02       		.byte	0x2
 1891 0852 6902     		.2byte	0x269
 1892 0854 30020000 		.4byte	0x230
 1893 0858 03       		.byte	0x3
 1894 0859 75080000 		.4byte	0x875
 1895 085d 20       		.uleb128 0x20
 1896 085e 74717000 		.ascii	"tqp\000"
 1897 0862 02       		.byte	0x2
 1898 0863 6902     		.2byte	0x269
 1899 0865 BF070000 		.4byte	0x7bf
 1900 0869 22       		.uleb128 0x22
 1901 086a 747000   		.ascii	"tp\000"
 1902 086d 02       		.byte	0x2
 1903 086e 6A02     		.2byte	0x26a
 1904 0870 30020000 		.4byte	0x230
 1905 0874 00       		.byte	0
 1906 0875 24       		.uleb128 0x24
 1907 0876 EF010000 		.4byte	.LASF115
 1908 087a 01       		.byte	0x1
 1909 087b 61       		.byte	0x61
 1910 087c 00000000 		.4byte	.LFB239
 1911 0880 08000000 		.4byte	.LFE239-.LFB239
 1912 0884 01       		.uleb128 0x1
 1913 0885 9C       		.byte	0x9c
 1914 0886 C2080000 		.4byte	0x8c2
 1915 088a 25       		.uleb128 0x25
 1916 088b 737000   		.ascii	"sp\000"
 1917 088e 01       		.byte	0x1
 1918 088f 61       		.byte	0x61
 1919 0890 C2080000 		.4byte	0x8c2
 1920 0894 01       		.uleb128 0x1
 1921 0895 50       		.byte	0x50
 1922 0896 25       		.uleb128 0x25
ARM GAS  /tmp/ccrxrg1p.s 			page 35


 1923 0897 6E00     		.ascii	"n\000"
 1924 0899 01       		.byte	0x1
 1925 089a 61       		.byte	0x61
 1926 089b 26010000 		.4byte	0x126
 1927 089f 01       		.uleb128 0x1
 1928 08a0 51       		.byte	0x51
 1929 08a1 26       		.uleb128 0x26
 1930 08a2 AD040000 		.4byte	.LASF111
 1931 08a6 D8080000 		.4byte	0x8d8
 1932 08aa 27       		.uleb128 0x27
 1933 08ab A5070000 		.4byte	0x7a5
 1934 08af 00000000 		.4byte	.LBB84
 1935 08b3 04000000 		.4byte	.LBE84-.LBB84
 1936 08b7 01       		.byte	0x1
 1937 08b8 65       		.byte	0x65
 1938 08b9 28       		.uleb128 0x28
 1939 08ba B2070000 		.4byte	0x7b2
 1940 08be 01       		.uleb128 0x1
 1941 08bf 50       		.byte	0x50
 1942 08c0 00       		.byte	0
 1943 08c1 00       		.byte	0
 1944 08c2 0A       		.uleb128 0xa
 1945 08c3 04       		.byte	0x4
 1946 08c4 5D070000 		.4byte	0x75d
 1947 08c8 19       		.uleb128 0x19
 1948 08c9 3E050000 		.4byte	0x53e
 1949 08cd D8080000 		.4byte	0x8d8
 1950 08d1 1A       		.uleb128 0x1a
 1951 08d2 46040000 		.4byte	0x446
 1952 08d6 0F       		.byte	0xf
 1953 08d7 00       		.byte	0
 1954 08d8 13       		.uleb128 0x13
 1955 08d9 C8080000 		.4byte	0x8c8
 1956 08dd 24       		.uleb128 0x24
 1957 08de 77060000 		.4byte	.LASF116
 1958 08e2 01       		.byte	0x1
 1959 08e3 93       		.byte	0x93
 1960 08e4 00000000 		.4byte	.LFB241
 1961 08e8 28000000 		.4byte	.LFE241-.LFB241
 1962 08ec 01       		.uleb128 0x1
 1963 08ed 9C       		.byte	0x9c
 1964 08ee 5F090000 		.4byte	0x95f
 1965 08f2 29       		.uleb128 0x29
 1966 08f3 737000   		.ascii	"sp\000"
 1967 08f6 01       		.byte	0x1
 1968 08f7 93       		.byte	0x93
 1969 08f8 C2080000 		.4byte	0x8c2
 1970 08fc 00000000 		.4byte	.LLST0
 1971 0900 29       		.uleb128 0x29
 1972 0901 6E00     		.ascii	"n\000"
 1973 0903 01       		.byte	0x1
 1974 0904 93       		.byte	0x93
 1975 0905 26010000 		.4byte	0x126
 1976 0909 1E000000 		.4byte	.LLST1
 1977 090d 2A       		.uleb128 0x2a
 1978 090e 636E7400 		.ascii	"cnt\000"
 1979 0912 01       		.byte	0x1
ARM GAS  /tmp/ccrxrg1p.s 			page 36


 1980 0913 94       		.byte	0x94
 1981 0914 26010000 		.4byte	0x126
 1982 0918 3F000000 		.4byte	.LLST2
 1983 091c 26       		.uleb128 0x26
 1984 091d AD040000 		.4byte	.LASF111
 1985 0921 5F090000 		.4byte	0x95f
 1986 0925 2B       		.uleb128 0x2b
 1987 0926 C5070000 		.4byte	0x7c5
 1988 092a 12000000 		.4byte	.LBB86
 1989 092e 08000000 		.4byte	.LBE86-.LBB86
 1990 0932 01       		.byte	0x1
 1991 0933 9F       		.byte	0x9f
 1992 0934 55090000 		.4byte	0x955
 1993 0938 2C       		.uleb128 0x2c
 1994 0939 D6070000 		.4byte	0x7d6
 1995 093d 6A000000 		.4byte	.LLST3
 1996 0941 2D       		.uleb128 0x2d
 1997 0942 12000000 		.4byte	.LBB87
 1998 0946 08000000 		.4byte	.LBE87-.LBB87
 1999 094a 2E       		.uleb128 0x2e
 2000 094b E2070000 		.4byte	0x7e2
 2001 094f 7D000000 		.4byte	.LLST4
 2002 0953 00       		.byte	0
 2003 0954 00       		.byte	0
 2004 0955 2F       		.uleb128 0x2f
 2005 0956 1E000000 		.4byte	.LVL6
 2006 095a 9F100000 		.4byte	0x109f
 2007 095e 00       		.byte	0
 2008 095f 13       		.uleb128 0x13
 2009 0960 12080000 		.4byte	0x812
 2010 0964 24       		.uleb128 0x24
 2011 0965 C3020000 		.4byte	.LASF117
 2012 0969 01       		.byte	0x1
 2013 096a 78       		.byte	0x78
 2014 096b 00000000 		.4byte	.LFB240
 2015 096f 18000000 		.4byte	.LFE240-.LFB240
 2016 0973 01       		.uleb128 0x1
 2017 0974 9C       		.byte	0x9c
 2018 0975 410A0000 		.4byte	0xa41
 2019 0979 29       		.uleb128 0x29
 2020 097a 737000   		.ascii	"sp\000"
 2021 097d 01       		.byte	0x1
 2022 097e 78       		.byte	0x78
 2023 097f C2080000 		.4byte	0x8c2
 2024 0983 90000000 		.4byte	.LLST5
 2025 0987 29       		.uleb128 0x29
 2026 0988 6E00     		.ascii	"n\000"
 2027 098a 01       		.byte	0x1
 2028 098b 78       		.byte	0x78
 2029 098c 26010000 		.4byte	0x126
 2030 0990 B1000000 		.4byte	.LLST6
 2031 0994 2B       		.uleb128 0x2b
 2032 0995 EE070000 		.4byte	0x7ee
 2033 0999 02000000 		.4byte	.LBB88
 2034 099d 06000000 		.4byte	.LBE88-.LBB88
 2035 09a1 01       		.byte	0x1
 2036 09a2 7A       		.byte	0x7a
ARM GAS  /tmp/ccrxrg1p.s 			page 37


 2037 09a3 D0090000 		.4byte	0x9d0
 2038 09a7 30       		.uleb128 0x30
 2039 09a8 93070000 		.4byte	0x793
 2040 09ac 02000000 		.4byte	.LBB89
 2041 09b0 06000000 		.4byte	.LBE89-.LBB89
 2042 09b4 0E       		.byte	0xe
 2043 09b5 7801     		.2byte	0x178
 2044 09b7 30       		.uleb128 0x30
 2045 09b8 79070000 		.4byte	0x779
 2046 09bc 02000000 		.4byte	.LBB90
 2047 09c0 06000000 		.4byte	.LBE90-.LBB90
 2048 09c4 09       		.byte	0x9
 2049 09c5 5A02     		.2byte	0x25a
 2050 09c7 31       		.uleb128 0x31
 2051 09c8 86070000 		.4byte	0x786
 2052 09cc 20       		.byte	0x20
 2053 09cd 00       		.byte	0
 2054 09ce 00       		.byte	0
 2055 09cf 00       		.byte	0
 2056 09d0 2B       		.uleb128 0x2b
 2057 09d1 F7070000 		.4byte	0x7f7
 2058 09d5 10000000 		.4byte	.LBB92
 2059 09d9 08000000 		.4byte	.LBE92-.LBB92
 2060 09dd 01       		.byte	0x1
 2061 09de 7D       		.byte	0x7d
 2062 09df 1B0A0000 		.4byte	0xa1b
 2063 09e3 2D       		.uleb128 0x2d
 2064 09e4 10000000 		.4byte	.LBB93
 2065 09e8 08000000 		.4byte	.LBE93-.LBB93
 2066 09ec 32       		.uleb128 0x32
 2067 09ed 04080000 		.4byte	0x804
 2068 09f1 30       		.uleb128 0x30
 2069 09f2 9C070000 		.4byte	0x79c
 2070 09f6 10000000 		.4byte	.LBB94
 2071 09fa 08000000 		.4byte	.LBE94-.LBB94
 2072 09fe 0E       		.byte	0xe
 2073 09ff 8F01     		.2byte	0x18f
 2074 0a01 30       		.uleb128 0x30
 2075 0a02 79070000 		.4byte	0x779
 2076 0a06 10000000 		.4byte	.LBB95
 2077 0a0a 08000000 		.4byte	.LBE95-.LBB95
 2078 0a0e 09       		.byte	0x9
 2079 0a0f 6D02     		.2byte	0x26d
 2080 0a11 31       		.uleb128 0x31
 2081 0a12 86070000 		.4byte	0x786
 2082 0a16 00       		.byte	0
 2083 0a17 00       		.byte	0
 2084 0a18 00       		.byte	0
 2085 0a19 00       		.byte	0
 2086 0a1a 00       		.byte	0
 2087 0a1b 33       		.uleb128 0x33
 2088 0a1c 0C000000 		.4byte	.LVL11
 2089 0a20 DD080000 		.4byte	0x8dd
 2090 0a24 370A0000 		.4byte	0xa37
 2091 0a28 34       		.uleb128 0x34
 2092 0a29 01       		.uleb128 0x1
 2093 0a2a 51       		.byte	0x51
ARM GAS  /tmp/ccrxrg1p.s 			page 38


 2094 0a2b 03       		.uleb128 0x3
 2095 0a2c F3       		.byte	0xf3
 2096 0a2d 01       		.uleb128 0x1
 2097 0a2e 51       		.byte	0x51
 2098 0a2f 34       		.uleb128 0x34
 2099 0a30 01       		.uleb128 0x1
 2100 0a31 50       		.byte	0x50
 2101 0a32 03       		.uleb128 0x3
 2102 0a33 F3       		.byte	0xf3
 2103 0a34 01       		.uleb128 0x1
 2104 0a35 50       		.byte	0x50
 2105 0a36 00       		.byte	0
 2106 0a37 2F       		.uleb128 0x2f
 2107 0a38 10000000 		.4byte	.LVL12
 2108 0a3c B5100000 		.4byte	0x10b5
 2109 0a40 00       		.byte	0
 2110 0a41 35       		.uleb128 0x35
 2111 0a42 B6040000 		.4byte	.LASF118
 2112 0a46 01       		.byte	0x1
 2113 0a47 C5       		.byte	0xc5
 2114 0a48 10010000 		.4byte	0x110
 2115 0a4c 00000000 		.4byte	.LFB243
 2116 0a50 34000000 		.4byte	.LFE243-.LFB243
 2117 0a54 01       		.uleb128 0x1
 2118 0a55 9C       		.byte	0x9c
 2119 0a56 A70A0000 		.4byte	0xaa7
 2120 0a5a 29       		.uleb128 0x29
 2121 0a5b 737000   		.ascii	"sp\000"
 2122 0a5e 01       		.byte	0x1
 2123 0a5f C5       		.byte	0xc5
 2124 0a60 C2080000 		.4byte	0x8c2
 2125 0a64 D2000000 		.4byte	.LLST7
 2126 0a68 26       		.uleb128 0x26
 2127 0a69 AD040000 		.4byte	.LASF111
 2128 0a6d B70A0000 		.4byte	0xab7
 2129 0a71 2B       		.uleb128 0x2b
 2130 0a72 27080000 		.4byte	0x827
 2131 0a76 20000000 		.4byte	.LBB97
 2132 0a7a 0A000000 		.4byte	.LBE97-.LBB97
 2133 0a7e 01       		.byte	0x1
 2134 0a7f CF       		.byte	0xcf
 2135 0a80 970A0000 		.4byte	0xa97
 2136 0a84 2C       		.uleb128 0x2c
 2137 0a85 3F080000 		.4byte	0x83f
 2138 0a89 14010000 		.4byte	.LLST8
 2139 0a8d 2C       		.uleb128 0x2c
 2140 0a8e 34080000 		.4byte	0x834
 2141 0a92 41010000 		.4byte	.LLST9
 2142 0a96 00       		.byte	0
 2143 0a97 36       		.uleb128 0x36
 2144 0a98 2E000000 		.4byte	.LVL19
 2145 0a9c BD100000 		.4byte	0x10bd
 2146 0aa0 34       		.uleb128 0x34
 2147 0aa1 01       		.uleb128 0x1
 2148 0aa2 50       		.byte	0x50
 2149 0aa3 01       		.uleb128 0x1
 2150 0aa4 35       		.byte	0x35
ARM GAS  /tmp/ccrxrg1p.s 			page 39


 2151 0aa5 00       		.byte	0
 2152 0aa6 00       		.byte	0
 2153 0aa7 19       		.uleb128 0x19
 2154 0aa8 3E050000 		.4byte	0x53e
 2155 0aac B70A0000 		.4byte	0xab7
 2156 0ab0 1A       		.uleb128 0x1a
 2157 0ab1 46040000 		.4byte	0x446
 2158 0ab5 0A       		.byte	0xa
 2159 0ab6 00       		.byte	0
 2160 0ab7 13       		.uleb128 0x13
 2161 0ab8 A70A0000 		.4byte	0xaa7
 2162 0abc 35       		.uleb128 0x35
 2163 0abd 91050000 		.4byte	.LASF119
 2164 0ac1 01       		.byte	0x1
 2165 0ac2 AF       		.byte	0xaf
 2166 0ac3 10010000 		.4byte	0x110
 2167 0ac7 00000000 		.4byte	.LFB242
 2168 0acb 14000000 		.4byte	.LFE242-.LFB242
 2169 0acf 01       		.uleb128 0x1
 2170 0ad0 9C       		.byte	0x9c
 2171 0ad1 890B0000 		.4byte	0xb89
 2172 0ad5 29       		.uleb128 0x29
 2173 0ad6 737000   		.ascii	"sp\000"
 2174 0ad9 01       		.byte	0x1
 2175 0ada AF       		.byte	0xaf
 2176 0adb C2080000 		.4byte	0x8c2
 2177 0adf 54010000 		.4byte	.LLST10
 2178 0ae3 37       		.uleb128 0x37
 2179 0ae4 6D736700 		.ascii	"msg\000"
 2180 0ae8 01       		.byte	0x1
 2181 0ae9 B0       		.byte	0xb0
 2182 0aea 10010000 		.4byte	0x110
 2183 0aee 01       		.uleb128 0x1
 2184 0aef 50       		.byte	0x50
 2185 0af0 2B       		.uleb128 0x2b
 2186 0af1 EE070000 		.4byte	0x7ee
 2187 0af5 02000000 		.4byte	.LBB99
 2188 0af9 06000000 		.4byte	.LBE99-.LBB99
 2189 0afd 01       		.byte	0x1
 2190 0afe B2       		.byte	0xb2
 2191 0aff 2C0B0000 		.4byte	0xb2c
 2192 0b03 30       		.uleb128 0x30
 2193 0b04 93070000 		.4byte	0x793
 2194 0b08 02000000 		.4byte	.LBB100
 2195 0b0c 06000000 		.4byte	.LBE100-.LBB100
 2196 0b10 0E       		.byte	0xe
 2197 0b11 7801     		.2byte	0x178
 2198 0b13 30       		.uleb128 0x30
 2199 0b14 79070000 		.4byte	0x779
 2200 0b18 02000000 		.4byte	.LBB101
 2201 0b1c 06000000 		.4byte	.LBE101-.LBB101
 2202 0b20 09       		.byte	0x9
 2203 0b21 5A02     		.2byte	0x25a
 2204 0b23 31       		.uleb128 0x31
 2205 0b24 86070000 		.4byte	0x786
 2206 0b28 20       		.byte	0x20
 2207 0b29 00       		.byte	0
ARM GAS  /tmp/ccrxrg1p.s 			page 40


 2208 0b2a 00       		.byte	0
 2209 0b2b 00       		.byte	0
 2210 0b2c 2B       		.uleb128 0x2b
 2211 0b2d F7070000 		.4byte	0x7f7
 2212 0b31 0C000000 		.4byte	.LBB103
 2213 0b35 06000000 		.4byte	.LBE103-.LBB103
 2214 0b39 01       		.byte	0x1
 2215 0b3a B4       		.byte	0xb4
 2216 0b3b 770B0000 		.4byte	0xb77
 2217 0b3f 2D       		.uleb128 0x2d
 2218 0b40 0C000000 		.4byte	.LBB104
 2219 0b44 06000000 		.4byte	.LBE104-.LBB104
 2220 0b48 32       		.uleb128 0x32
 2221 0b49 04080000 		.4byte	0x804
 2222 0b4d 30       		.uleb128 0x30
 2223 0b4e 9C070000 		.4byte	0x79c
 2224 0b52 0C000000 		.4byte	.LBB105
 2225 0b56 06000000 		.4byte	.LBE105-.LBB105
 2226 0b5a 0E       		.byte	0xe
 2227 0b5b 8F01     		.2byte	0x18f
 2228 0b5d 30       		.uleb128 0x30
 2229 0b5e 79070000 		.4byte	0x779
 2230 0b62 0C000000 		.4byte	.LBB106
 2231 0b66 06000000 		.4byte	.LBE106-.LBB106
 2232 0b6a 09       		.byte	0x9
 2233 0b6b 6D02     		.2byte	0x26d
 2234 0b6d 31       		.uleb128 0x31
 2235 0b6e 86070000 		.4byte	0x786
 2236 0b72 00       		.byte	0
 2237 0b73 00       		.byte	0
 2238 0b74 00       		.byte	0
 2239 0b75 00       		.byte	0
 2240 0b76 00       		.byte	0
 2241 0b77 36       		.uleb128 0x36
 2242 0b78 0C000000 		.4byte	.LVL21
 2243 0b7c 410A0000 		.4byte	0xa41
 2244 0b80 34       		.uleb128 0x34
 2245 0b81 01       		.uleb128 0x1
 2246 0b82 50       		.byte	0x50
 2247 0b83 03       		.uleb128 0x3
 2248 0b84 F3       		.byte	0xf3
 2249 0b85 01       		.uleb128 0x1
 2250 0b86 50       		.byte	0x50
 2251 0b87 00       		.byte	0
 2252 0b88 00       		.byte	0
 2253 0b89 38       		.uleb128 0x38
 2254 0b8a 38050000 		.4byte	.LASF120
 2255 0b8e 01       		.byte	0x1
 2256 0b8f 0801     		.2byte	0x108
 2257 0b91 10010000 		.4byte	0x110
 2258 0b95 00000000 		.4byte	.LFB245
 2259 0b99 42000000 		.4byte	.LFE245-.LFB245
 2260 0b9d 01       		.uleb128 0x1
 2261 0b9e 9C       		.byte	0x9c
 2262 0b9f 020C0000 		.4byte	0xc02
 2263 0ba3 39       		.uleb128 0x39
 2264 0ba4 737000   		.ascii	"sp\000"
ARM GAS  /tmp/ccrxrg1p.s 			page 41


 2265 0ba7 01       		.byte	0x1
 2266 0ba8 0801     		.2byte	0x108
 2267 0baa C2080000 		.4byte	0x8c2
 2268 0bae 75010000 		.4byte	.LLST11
 2269 0bb2 3A       		.uleb128 0x3a
 2270 0bb3 EB030000 		.4byte	.LASF84
 2271 0bb7 01       		.byte	0x1
 2272 0bb8 0801     		.2byte	0x108
 2273 0bba 31010000 		.4byte	0x131
 2274 0bbe AC010000 		.4byte	.LLST12
 2275 0bc2 26       		.uleb128 0x26
 2276 0bc3 AD040000 		.4byte	.LASF111
 2277 0bc7 120C0000 		.4byte	0xc12
 2278 0bcb 3B       		.uleb128 0x3b
 2279 0bcc 27080000 		.4byte	0x827
 2280 0bd0 28000000 		.4byte	.LBB108
 2281 0bd4 0A000000 		.4byte	.LBE108-.LBB108
 2282 0bd8 01       		.byte	0x1
 2283 0bd9 1701     		.2byte	0x117
 2284 0bdb F20B0000 		.4byte	0xbf2
 2285 0bdf 2C       		.uleb128 0x2c
 2286 0be0 3F080000 		.4byte	0x83f
 2287 0be4 D8010000 		.4byte	.LLST13
 2288 0be8 2C       		.uleb128 0x2c
 2289 0be9 34080000 		.4byte	0x834
 2290 0bed 05020000 		.4byte	.LLST14
 2291 0bf1 00       		.byte	0
 2292 0bf2 3C       		.uleb128 0x3c
 2293 0bf3 3A000000 		.4byte	.LVL26
 2294 0bf7 CF100000 		.4byte	0x10cf
 2295 0bfb 34       		.uleb128 0x34
 2296 0bfc 01       		.uleb128 0x1
 2297 0bfd 50       		.byte	0x50
 2298 0bfe 01       		.uleb128 0x1
 2299 0bff 35       		.byte	0x35
 2300 0c00 00       		.byte	0
 2301 0c01 00       		.byte	0
 2302 0c02 19       		.uleb128 0x19
 2303 0c03 3E050000 		.4byte	0x53e
 2304 0c07 120C0000 		.4byte	0xc12
 2305 0c0b 1A       		.uleb128 0x1a
 2306 0c0c 46040000 		.4byte	0x446
 2307 0c10 11       		.byte	0x11
 2308 0c11 00       		.byte	0
 2309 0c12 13       		.uleb128 0x13
 2310 0c13 020C0000 		.4byte	0xc02
 2311 0c17 35       		.uleb128 0x35
 2312 0c18 1B020000 		.4byte	.LASF121
 2313 0c1c 01       		.byte	0x1
 2314 0c1d EB       		.byte	0xeb
 2315 0c1e 10010000 		.4byte	0x110
 2316 0c22 00000000 		.4byte	.LFB244
 2317 0c26 14000000 		.4byte	.LFE244-.LFB244
 2318 0c2a 01       		.uleb128 0x1
 2319 0c2b 9C       		.byte	0x9c
 2320 0c2c FA0C0000 		.4byte	0xcfa
 2321 0c30 29       		.uleb128 0x29
ARM GAS  /tmp/ccrxrg1p.s 			page 42


 2322 0c31 737000   		.ascii	"sp\000"
 2323 0c34 01       		.byte	0x1
 2324 0c35 EB       		.byte	0xeb
 2325 0c36 C2080000 		.4byte	0x8c2
 2326 0c3a 18020000 		.4byte	.LLST15
 2327 0c3e 3D       		.uleb128 0x3d
 2328 0c3f EB030000 		.4byte	.LASF84
 2329 0c43 01       		.byte	0x1
 2330 0c44 EB       		.byte	0xeb
 2331 0c45 31010000 		.4byte	0x131
 2332 0c49 39020000 		.4byte	.LLST16
 2333 0c4d 37       		.uleb128 0x37
 2334 0c4e 6D736700 		.ascii	"msg\000"
 2335 0c52 01       		.byte	0x1
 2336 0c53 EC       		.byte	0xec
 2337 0c54 10010000 		.4byte	0x110
 2338 0c58 01       		.uleb128 0x1
 2339 0c59 50       		.byte	0x50
 2340 0c5a 2B       		.uleb128 0x2b
 2341 0c5b EE070000 		.4byte	0x7ee
 2342 0c5f 02000000 		.4byte	.LBB110
 2343 0c63 06000000 		.4byte	.LBE110-.LBB110
 2344 0c67 01       		.byte	0x1
 2345 0c68 EE       		.byte	0xee
 2346 0c69 960C0000 		.4byte	0xc96
 2347 0c6d 30       		.uleb128 0x30
 2348 0c6e 93070000 		.4byte	0x793
 2349 0c72 02000000 		.4byte	.LBB111
 2350 0c76 06000000 		.4byte	.LBE111-.LBB111
 2351 0c7a 0E       		.byte	0xe
 2352 0c7b 7801     		.2byte	0x178
 2353 0c7d 30       		.uleb128 0x30
 2354 0c7e 79070000 		.4byte	0x779
 2355 0c82 02000000 		.4byte	.LBB112
 2356 0c86 06000000 		.4byte	.LBE112-.LBB112
 2357 0c8a 09       		.byte	0x9
 2358 0c8b 5A02     		.2byte	0x25a
 2359 0c8d 31       		.uleb128 0x31
 2360 0c8e 86070000 		.4byte	0x786
 2361 0c92 20       		.byte	0x20
 2362 0c93 00       		.byte	0
 2363 0c94 00       		.byte	0
 2364 0c95 00       		.byte	0
 2365 0c96 2B       		.uleb128 0x2b
 2366 0c97 F7070000 		.4byte	0x7f7
 2367 0c9b 0C000000 		.4byte	.LBB114
 2368 0c9f 06000000 		.4byte	.LBE114-.LBB114
 2369 0ca3 01       		.byte	0x1
 2370 0ca4 F0       		.byte	0xf0
 2371 0ca5 E10C0000 		.4byte	0xce1
 2372 0ca9 2D       		.uleb128 0x2d
 2373 0caa 0C000000 		.4byte	.LBB115
 2374 0cae 06000000 		.4byte	.LBE115-.LBB115
 2375 0cb2 32       		.uleb128 0x32
 2376 0cb3 04080000 		.4byte	0x804
 2377 0cb7 30       		.uleb128 0x30
 2378 0cb8 9C070000 		.4byte	0x79c
ARM GAS  /tmp/ccrxrg1p.s 			page 43


 2379 0cbc 0C000000 		.4byte	.LBB116
 2380 0cc0 06000000 		.4byte	.LBE116-.LBB116
 2381 0cc4 0E       		.byte	0xe
 2382 0cc5 8F01     		.2byte	0x18f
 2383 0cc7 30       		.uleb128 0x30
 2384 0cc8 79070000 		.4byte	0x779
 2385 0ccc 0C000000 		.4byte	.LBB117
 2386 0cd0 06000000 		.4byte	.LBE117-.LBB117
 2387 0cd4 09       		.byte	0x9
 2388 0cd5 6D02     		.2byte	0x26d
 2389 0cd7 31       		.uleb128 0x31
 2390 0cd8 86070000 		.4byte	0x786
 2391 0cdc 00       		.byte	0
 2392 0cdd 00       		.byte	0
 2393 0cde 00       		.byte	0
 2394 0cdf 00       		.byte	0
 2395 0ce0 00       		.byte	0
 2396 0ce1 36       		.uleb128 0x36
 2397 0ce2 0C000000 		.4byte	.LVL28
 2398 0ce6 890B0000 		.4byte	0xb89
 2399 0cea 34       		.uleb128 0x34
 2400 0ceb 01       		.uleb128 0x1
 2401 0cec 51       		.byte	0x51
 2402 0ced 03       		.uleb128 0x3
 2403 0cee F3       		.byte	0xf3
 2404 0cef 01       		.uleb128 0x1
 2405 0cf0 51       		.byte	0x51
 2406 0cf1 34       		.uleb128 0x34
 2407 0cf2 01       		.uleb128 0x1
 2408 0cf3 50       		.byte	0x50
 2409 0cf4 03       		.uleb128 0x3
 2410 0cf5 F3       		.byte	0xf3
 2411 0cf6 01       		.uleb128 0x1
 2412 0cf7 50       		.byte	0x50
 2413 0cf8 00       		.byte	0
 2414 0cf9 00       		.byte	0
 2415 0cfa 3E       		.uleb128 0x3e
 2416 0cfb 8E000000 		.4byte	.LASF122
 2417 0cff 01       		.byte	0x1
 2418 0d00 2601     		.2byte	0x126
 2419 0d02 00000000 		.4byte	.LFB246
 2420 0d06 32000000 		.4byte	.LFE246-.LFB246
 2421 0d0a 01       		.uleb128 0x1
 2422 0d0b 9C       		.byte	0x9c
 2423 0d0c ED0D0000 		.4byte	0xded
 2424 0d10 39       		.uleb128 0x39
 2425 0d11 737000   		.ascii	"sp\000"
 2426 0d14 01       		.byte	0x1
 2427 0d15 2601     		.2byte	0x126
 2428 0d17 C2080000 		.4byte	0x8c2
 2429 0d1b 5A020000 		.4byte	.LLST17
 2430 0d1f 26       		.uleb128 0x26
 2431 0d20 AD040000 		.4byte	.LASF111
 2432 0d24 ED0D0000 		.4byte	0xded
 2433 0d28 3F       		.uleb128 0x3f
 2434 0d29 EE070000 		.4byte	0x7ee
 2435 0d2d 02000000 		.4byte	.LBB119
ARM GAS  /tmp/ccrxrg1p.s 			page 44


 2436 0d31 00000000 		.4byte	.Ldebug_ranges0+0
 2437 0d35 01       		.byte	0x1
 2438 0d36 2D01     		.2byte	0x12d
 2439 0d38 650D0000 		.4byte	0xd65
 2440 0d3c 40       		.uleb128 0x40
 2441 0d3d 93070000 		.4byte	0x793
 2442 0d41 02000000 		.4byte	.LBB120
 2443 0d45 00000000 		.4byte	.Ldebug_ranges0+0
 2444 0d49 0E       		.byte	0xe
 2445 0d4a 7801     		.2byte	0x178
 2446 0d4c 40       		.uleb128 0x40
 2447 0d4d 79070000 		.4byte	0x779
 2448 0d51 02000000 		.4byte	.LBB121
 2449 0d55 00000000 		.4byte	.Ldebug_ranges0+0
 2450 0d59 09       		.byte	0x9
 2451 0d5a 5A02     		.2byte	0x25a
 2452 0d5c 31       		.uleb128 0x31
 2453 0d5d 86070000 		.4byte	0x786
 2454 0d61 20       		.byte	0x20
 2455 0d62 00       		.byte	0
 2456 0d63 00       		.byte	0
 2457 0d64 00       		.byte	0
 2458 0d65 3F       		.uleb128 0x3f
 2459 0d66 F7070000 		.4byte	0x7f7
 2460 0d6a 14000000 		.4byte	.LBB127
 2461 0d6e 18000000 		.4byte	.Ldebug_ranges0+0x18
 2462 0d72 01       		.byte	0x1
 2463 0d73 3101     		.2byte	0x131
 2464 0d75 B00D0000 		.4byte	0xdb0
 2465 0d79 41       		.uleb128 0x41
 2466 0d7a 18000000 		.4byte	.Ldebug_ranges0+0x18
 2467 0d7e 32       		.uleb128 0x32
 2468 0d7f 04080000 		.4byte	0x804
 2469 0d83 40       		.uleb128 0x40
 2470 0d84 9C070000 		.4byte	0x79c
 2471 0d88 14000000 		.4byte	.LBB129
 2472 0d8c 18000000 		.4byte	.Ldebug_ranges0+0x18
 2473 0d90 0E       		.byte	0xe
 2474 0d91 8F01     		.2byte	0x18f
 2475 0d93 40       		.uleb128 0x40
 2476 0d94 79070000 		.4byte	0x779
 2477 0d98 14000000 		.4byte	.LBB130
 2478 0d9c 18000000 		.4byte	.Ldebug_ranges0+0x18
 2479 0da0 09       		.byte	0x9
 2480 0da1 6D02     		.2byte	0x26d
 2481 0da3 2C       		.uleb128 0x2c
 2482 0da4 86070000 		.4byte	0x786
 2483 0da8 86020000 		.4byte	.LLST18
 2484 0dac 00       		.byte	0
 2485 0dad 00       		.byte	0
 2486 0dae 00       		.byte	0
 2487 0daf 00       		.byte	0
 2488 0db0 3F       		.uleb128 0x3f
 2489 0db1 4C080000 		.4byte	0x84c
 2490 0db5 1C000000 		.4byte	.LBB136
 2491 0db9 30000000 		.4byte	.Ldebug_ranges0+0x30
 2492 0dbd 01       		.byte	0x1
ARM GAS  /tmp/ccrxrg1p.s 			page 45


 2493 0dbe 2F01     		.2byte	0x12f
 2494 0dc0 DD0D0000 		.4byte	0xddd
 2495 0dc4 2C       		.uleb128 0x2c
 2496 0dc5 5D080000 		.4byte	0x85d
 2497 0dc9 A6020000 		.4byte	.LLST19
 2498 0dcd 41       		.uleb128 0x41
 2499 0dce 30000000 		.4byte	.Ldebug_ranges0+0x30
 2500 0dd2 2E       		.uleb128 0x2e
 2501 0dd3 69080000 		.4byte	0x869
 2502 0dd7 D2020000 		.4byte	.LLST20
 2503 0ddb 00       		.byte	0
 2504 0ddc 00       		.byte	0
 2505 0ddd 36       		.uleb128 0x36
 2506 0dde 2A000000 		.4byte	.LVL33
 2507 0de2 EA100000 		.4byte	0x10ea
 2508 0de6 34       		.uleb128 0x34
 2509 0de7 01       		.uleb128 0x1
 2510 0de8 51       		.byte	0x51
 2511 0de9 01       		.uleb128 0x1
 2512 0dea 30       		.byte	0x30
 2513 0deb 00       		.byte	0
 2514 0dec 00       		.byte	0
 2515 0ded 13       		.uleb128 0x13
 2516 0dee 12080000 		.4byte	0x812
 2517 0df2 3E       		.uleb128 0x3e
 2518 0df3 1A000000 		.4byte	.LASF123
 2519 0df7 01       		.byte	0x1
 2520 0df8 3F01     		.2byte	0x13f
 2521 0dfa 00000000 		.4byte	.LFB247
 2522 0dfe 2A000000 		.4byte	.LFE247-.LFB247
 2523 0e02 01       		.uleb128 0x1
 2524 0e03 9C       		.byte	0x9c
 2525 0e04 6A0E0000 		.4byte	0xe6a
 2526 0e08 39       		.uleb128 0x39
 2527 0e09 737000   		.ascii	"sp\000"
 2528 0e0c 01       		.byte	0x1
 2529 0e0d 3F01     		.2byte	0x13f
 2530 0e0f C2080000 		.4byte	0x8c2
 2531 0e13 E5020000 		.4byte	.LLST21
 2532 0e17 26       		.uleb128 0x26
 2533 0e18 AD040000 		.4byte	.LASF111
 2534 0e1c 7A0E0000 		.4byte	0xe7a
 2535 0e20 41       		.uleb128 0x41
 2536 0e21 48000000 		.4byte	.Ldebug_ranges0+0x48
 2537 0e25 42       		.uleb128 0x42
 2538 0e26 747000   		.ascii	"tp\000"
 2539 0e29 01       		.byte	0x1
 2540 0e2a 4A01     		.2byte	0x14a
 2541 0e2c 30020000 		.4byte	0x230
 2542 0e30 01       		.uleb128 0x1
 2543 0e31 52       		.byte	0x52
 2544 0e32 3F       		.uleb128 0x3f
 2545 0e33 4C080000 		.4byte	0x84c
 2546 0e37 14000000 		.4byte	.LBB142
 2547 0e3b 60000000 		.4byte	.Ldebug_ranges0+0x60
 2548 0e3f 01       		.byte	0x1
 2549 0e40 4A01     		.2byte	0x14a
ARM GAS  /tmp/ccrxrg1p.s 			page 46


 2550 0e42 5F0E0000 		.4byte	0xe5f
 2551 0e46 2C       		.uleb128 0x2c
 2552 0e47 5D080000 		.4byte	0x85d
 2553 0e4b 11030000 		.4byte	.LLST22
 2554 0e4f 41       		.uleb128 0x41
 2555 0e50 60000000 		.4byte	.Ldebug_ranges0+0x60
 2556 0e54 2E       		.uleb128 0x2e
 2557 0e55 69080000 		.4byte	0x869
 2558 0e59 3D030000 		.4byte	.LLST23
 2559 0e5d 00       		.byte	0
 2560 0e5e 00       		.byte	0
 2561 0e5f 43       		.uleb128 0x43
 2562 0e60 2A000000 		.4byte	.LVL38
 2563 0e64 9F100000 		.4byte	0x109f
 2564 0e68 00       		.byte	0
 2565 0e69 00       		.byte	0
 2566 0e6a 19       		.uleb128 0x19
 2567 0e6b 3E050000 		.4byte	0x53e
 2568 0e6f 7A0E0000 		.4byte	0xe7a
 2569 0e73 1A       		.uleb128 0x1a
 2570 0e74 46040000 		.4byte	0x446
 2571 0e78 0C       		.byte	0xc
 2572 0e79 00       		.byte	0
 2573 0e7a 13       		.uleb128 0x13
 2574 0e7b 6A0E0000 		.4byte	0xe6a
 2575 0e7f 3E       		.uleb128 0x3e
 2576 0e80 D4000000 		.4byte	.LASF124
 2577 0e84 01       		.byte	0x1
 2578 0e85 5D01     		.2byte	0x15d
 2579 0e87 00000000 		.4byte	.LFB248
 2580 0e8b 2E000000 		.4byte	.LFE248-.LFB248
 2581 0e8f 01       		.uleb128 0x1
 2582 0e90 9C       		.byte	0x9c
 2583 0e91 F60E0000 		.4byte	0xef6
 2584 0e95 39       		.uleb128 0x39
 2585 0e96 737000   		.ascii	"sp\000"
 2586 0e99 01       		.byte	0x1
 2587 0e9a 5D01     		.2byte	0x15d
 2588 0e9c C2080000 		.4byte	0x8c2
 2589 0ea0 50030000 		.4byte	.LLST24
 2590 0ea4 39       		.uleb128 0x39
 2591 0ea5 6E00     		.ascii	"n\000"
 2592 0ea7 01       		.byte	0x1
 2593 0ea8 5D01     		.2byte	0x15d
 2594 0eaa 26010000 		.4byte	0x126
 2595 0eae 6E030000 		.4byte	.LLST25
 2596 0eb2 26       		.uleb128 0x26
 2597 0eb3 AD040000 		.4byte	.LASF111
 2598 0eb7 060F0000 		.4byte	0xf06
 2599 0ebb 3B       		.uleb128 0x3b
 2600 0ebc 4C080000 		.4byte	0x84c
 2601 0ec0 1A000000 		.4byte	.LBB147
 2602 0ec4 08000000 		.4byte	.LBE147-.LBB147
 2603 0ec8 01       		.byte	0x1
 2604 0ec9 6701     		.2byte	0x167
 2605 0ecb EC0E0000 		.4byte	0xeec
 2606 0ecf 2C       		.uleb128 0x2c
ARM GAS  /tmp/ccrxrg1p.s 			page 47


 2607 0ed0 5D080000 		.4byte	0x85d
 2608 0ed4 A6030000 		.4byte	.LLST26
 2609 0ed8 2D       		.uleb128 0x2d
 2610 0ed9 1A000000 		.4byte	.LBB148
 2611 0edd 08000000 		.4byte	.LBE148-.LBB148
 2612 0ee1 2E       		.uleb128 0x2e
 2613 0ee2 69080000 		.4byte	0x869
 2614 0ee6 B9030000 		.4byte	.LLST27
 2615 0eea 00       		.byte	0
 2616 0eeb 00       		.byte	0
 2617 0eec 2F       		.uleb128 0x2f
 2618 0eed 26000000 		.4byte	.LVL45
 2619 0ef1 9F100000 		.4byte	0x109f
 2620 0ef5 00       		.byte	0
 2621 0ef6 19       		.uleb128 0x19
 2622 0ef7 3E050000 		.4byte	0x53e
 2623 0efb 060F0000 		.4byte	0xf06
 2624 0eff 1A       		.uleb128 0x1a
 2625 0f00 46040000 		.4byte	0x446
 2626 0f04 10       		.byte	0x10
 2627 0f05 00       		.byte	0
 2628 0f06 13       		.uleb128 0x13
 2629 0f07 F60E0000 		.4byte	0xef6
 2630 0f0b 38       		.uleb128 0x38
 2631 0f0c 22010000 		.4byte	.LASF125
 2632 0f10 01       		.byte	0x1
 2633 0f11 7A01     		.2byte	0x17a
 2634 0f13 10010000 		.4byte	0x110
 2635 0f17 00000000 		.4byte	.LFB249
 2636 0f1b 6E000000 		.4byte	.LFE249-.LFB249
 2637 0f1f 01       		.uleb128 0x1
 2638 0f20 9C       		.byte	0x9c
 2639 0f21 7E100000 		.4byte	0x107e
 2640 0f25 39       		.uleb128 0x39
 2641 0f26 73707300 		.ascii	"sps\000"
 2642 0f2a 01       		.byte	0x1
 2643 0f2b 7A01     		.2byte	0x17a
 2644 0f2d C2080000 		.4byte	0x8c2
 2645 0f31 CC030000 		.4byte	.LLST28
 2646 0f35 39       		.uleb128 0x39
 2647 0f36 73707700 		.ascii	"spw\000"
 2648 0f3a 01       		.byte	0x1
 2649 0f3b 7A01     		.2byte	0x17a
 2650 0f3d C2080000 		.4byte	0x8c2
 2651 0f41 11040000 		.4byte	.LLST29
 2652 0f45 44       		.uleb128 0x44
 2653 0f46 6D736700 		.ascii	"msg\000"
 2654 0f4a 01       		.byte	0x1
 2655 0f4b 7B01     		.2byte	0x17b
 2656 0f4d 10010000 		.4byte	0x110
 2657 0f51 4B040000 		.4byte	.LLST30
 2658 0f55 26       		.uleb128 0x26
 2659 0f56 AD040000 		.4byte	.LASF111
 2660 0f5a 7E100000 		.4byte	0x107e
 2661 0f5e 3B       		.uleb128 0x3b
 2662 0f5f EE070000 		.4byte	0x7ee
 2663 0f63 06000000 		.4byte	.LBB149
ARM GAS  /tmp/ccrxrg1p.s 			page 48


 2664 0f67 06000000 		.4byte	.LBE149-.LBB149
 2665 0f6b 01       		.byte	0x1
 2666 0f6c 8501     		.2byte	0x185
 2667 0f6e 9B0F0000 		.4byte	0xf9b
 2668 0f72 30       		.uleb128 0x30
 2669 0f73 93070000 		.4byte	0x793
 2670 0f77 06000000 		.4byte	.LBB150
 2671 0f7b 06000000 		.4byte	.LBE150-.LBB150
 2672 0f7f 0E       		.byte	0xe
 2673 0f80 7801     		.2byte	0x178
 2674 0f82 30       		.uleb128 0x30
 2675 0f83 79070000 		.4byte	0x779
 2676 0f87 06000000 		.4byte	.LBB151
 2677 0f8b 06000000 		.4byte	.LBE151-.LBB151
 2678 0f8f 09       		.byte	0x9
 2679 0f90 5A02     		.2byte	0x25a
 2680 0f92 31       		.uleb128 0x31
 2681 0f93 86070000 		.4byte	0x786
 2682 0f97 20       		.byte	0x20
 2683 0f98 00       		.byte	0
 2684 0f99 00       		.byte	0
 2685 0f9a 00       		.byte	0
 2686 0f9b 3F       		.uleb128 0x3f
 2687 0f9c F7070000 		.4byte	0x7f7
 2688 0fa0 26000000 		.4byte	.LBB153
 2689 0fa4 78000000 		.4byte	.Ldebug_ranges0+0x78
 2690 0fa8 01       		.byte	0x1
 2691 0fa9 9401     		.2byte	0x194
 2692 0fab E60F0000 		.4byte	0xfe6
 2693 0faf 41       		.uleb128 0x41
 2694 0fb0 78000000 		.4byte	.Ldebug_ranges0+0x78
 2695 0fb4 32       		.uleb128 0x32
 2696 0fb5 04080000 		.4byte	0x804
 2697 0fb9 40       		.uleb128 0x40
 2698 0fba 9C070000 		.4byte	0x79c
 2699 0fbe 26000000 		.4byte	.LBB155
 2700 0fc2 78000000 		.4byte	.Ldebug_ranges0+0x78
 2701 0fc6 0E       		.byte	0xe
 2702 0fc7 8F01     		.2byte	0x18f
 2703 0fc9 40       		.uleb128 0x40
 2704 0fca 79070000 		.4byte	0x779
 2705 0fce 26000000 		.4byte	.LBB156
 2706 0fd2 78000000 		.4byte	.Ldebug_ranges0+0x78
 2707 0fd6 09       		.byte	0x9
 2708 0fd7 6D02     		.2byte	0x26d
 2709 0fd9 2C       		.uleb128 0x2c
 2710 0fda 86070000 		.4byte	0x786
 2711 0fde 75040000 		.4byte	.LLST31
 2712 0fe2 00       		.byte	0
 2713 0fe3 00       		.byte	0
 2714 0fe4 00       		.byte	0
 2715 0fe5 00       		.byte	0
 2716 0fe6 45       		.uleb128 0x45
 2717 0fe7 30000000 		.4byte	.LBB162
 2718 0feb 1E000000 		.4byte	.LBE162-.LBB162
 2719 0fef 3A100000 		.4byte	0x103a
 2720 0ff3 44       		.uleb128 0x44
ARM GAS  /tmp/ccrxrg1p.s 			page 49


 2721 0ff4 63747000 		.ascii	"ctp\000"
 2722 0ff8 01       		.byte	0x1
 2723 0ff9 8A01     		.2byte	0x18a
 2724 0ffb 30020000 		.4byte	0x230
 2725 0fff 95040000 		.4byte	.LLST32
 2726 1003 3F       		.uleb128 0x3f
 2727 1004 27080000 		.4byte	0x827
 2728 1008 38000000 		.4byte	.LBB163
 2729 100c 90000000 		.4byte	.Ldebug_ranges0+0x90
 2730 1010 01       		.byte	0x1
 2731 1011 8B01     		.2byte	0x18b
 2732 1013 2A100000 		.4byte	0x102a
 2733 1017 2C       		.uleb128 0x2c
 2734 1018 3F080000 		.4byte	0x83f
 2735 101c A8040000 		.4byte	.LLST33
 2736 1020 2C       		.uleb128 0x2c
 2737 1021 34080000 		.4byte	0x834
 2738 1025 95040000 		.4byte	.LLST32
 2739 1029 00       		.byte	0
 2740 102a 36       		.uleb128 0x36
 2741 102b 4C000000 		.4byte	.LVL55
 2742 102f BD100000 		.4byte	0x10bd
 2743 1033 34       		.uleb128 0x34
 2744 1034 01       		.uleb128 0x1
 2745 1035 50       		.byte	0x50
 2746 1036 01       		.uleb128 0x1
 2747 1037 35       		.byte	0x35
 2748 1038 00       		.byte	0
 2749 1039 00       		.byte	0
 2750 103a 3B       		.uleb128 0x3b
 2751 103b 4C080000 		.4byte	0x84c
 2752 103f 58000000 		.4byte	.LBB168
 2753 1043 08000000 		.4byte	.LBE168-.LBB168
 2754 1047 01       		.byte	0x1
 2755 1048 8701     		.2byte	0x187
 2756 104a 6B100000 		.4byte	0x106b
 2757 104e 2C       		.uleb128 0x2c
 2758 104f 5D080000 		.4byte	0x85d
 2759 1053 BB040000 		.4byte	.LLST35
 2760 1057 2D       		.uleb128 0x2d
 2761 1058 58000000 		.4byte	.LBB169
 2762 105c 08000000 		.4byte	.LBE169-.LBB169
 2763 1060 2E       		.uleb128 0x2e
 2764 1061 69080000 		.4byte	0x869
 2765 1065 E7040000 		.4byte	.LLST36
 2766 1069 00       		.byte	0
 2767 106a 00       		.byte	0
 2768 106b 2F       		.uleb128 0x2f
 2769 106c 24000000 		.4byte	.LVL51
 2770 1070 B5100000 		.4byte	0x10b5
 2771 1074 2F       		.uleb128 0x2f
 2772 1075 66000000 		.4byte	.LVL59
 2773 1079 9F100000 		.4byte	0x109f
 2774 107d 00       		.byte	0
 2775 107e 13       		.uleb128 0x13
 2776 107f C8080000 		.4byte	0x8c8
 2777 1083 46       		.uleb128 0x46
ARM GAS  /tmp/ccrxrg1p.s 			page 50


 2778 1084 E5000000 		.4byte	.LASF126
 2779 1088 0F       		.byte	0xf
 2780 1089 4407     		.2byte	0x744
 2781 108b 8F100000 		.4byte	0x108f
 2782 108f 1C       		.uleb128 0x1c
 2783 1090 B8000000 		.4byte	0xb8
 2784 1094 47       		.uleb128 0x47
 2785 1095 636800   		.ascii	"ch\000"
 2786 1098 02       		.byte	0x2
 2787 1099 D201     		.2byte	0x1d2
 2788 109b EA030000 		.4byte	0x3ea
 2789 109f 48       		.uleb128 0x48
 2790 10a0 04050000 		.4byte	.LASF127
 2791 10a4 02       		.byte	0x2
 2792 10a5 DC01     		.2byte	0x1dc
 2793 10a7 30020000 		.4byte	0x230
 2794 10ab B5100000 		.4byte	0x10b5
 2795 10af 0D       		.uleb128 0xd
 2796 10b0 30020000 		.4byte	0x230
 2797 10b4 00       		.byte	0
 2798 10b5 49       		.uleb128 0x49
 2799 10b6 B4010000 		.4byte	.LASF132
 2800 10ba 02       		.byte	0x2
 2801 10bb E101     		.2byte	0x1e1
 2802 10bd 4A       		.uleb128 0x4a
 2803 10be E6040000 		.4byte	.LASF133
 2804 10c2 02       		.byte	0x2
 2805 10c3 DE01     		.2byte	0x1de
 2806 10c5 CF100000 		.4byte	0x10cf
 2807 10c9 0D       		.uleb128 0xd
 2808 10ca EF000000 		.4byte	0xef
 2809 10ce 00       		.byte	0
 2810 10cf 48       		.uleb128 0x48
 2811 10d0 8F010000 		.4byte	.LASF128
 2812 10d4 02       		.byte	0x2
 2813 10d5 DF01     		.2byte	0x1df
 2814 10d7 10010000 		.4byte	0x110
 2815 10db EA100000 		.4byte	0x10ea
 2816 10df 0D       		.uleb128 0xd
 2817 10e0 EF000000 		.4byte	0xef
 2818 10e4 0D       		.uleb128 0xd
 2819 10e5 31010000 		.4byte	0x131
 2820 10e9 00       		.byte	0
 2821 10ea 4B       		.uleb128 0x4b
 2822 10eb 51060000 		.4byte	.LASF134
 2823 10ef 02       		.byte	0x2
 2824 10f0 E001     		.2byte	0x1e0
 2825 10f2 0D       		.uleb128 0xd
 2826 10f3 30020000 		.4byte	0x230
 2827 10f7 0D       		.uleb128 0xd
 2828 10f8 10010000 		.4byte	0x110
 2829 10fc 00       		.byte	0
 2830 10fd 00       		.byte	0
 2831              		.section	.debug_abbrev,"",%progbits
 2832              	.Ldebug_abbrev0:
 2833 0000 01       		.uleb128 0x1
 2834 0001 11       		.uleb128 0x11
ARM GAS  /tmp/ccrxrg1p.s 			page 51


 2835 0002 01       		.byte	0x1
 2836 0003 25       		.uleb128 0x25
 2837 0004 0E       		.uleb128 0xe
 2838 0005 13       		.uleb128 0x13
 2839 0006 0B       		.uleb128 0xb
 2840 0007 03       		.uleb128 0x3
 2841 0008 0E       		.uleb128 0xe
 2842 0009 1B       		.uleb128 0x1b
 2843 000a 0E       		.uleb128 0xe
 2844 000b 55       		.uleb128 0x55
 2845 000c 17       		.uleb128 0x17
 2846 000d 11       		.uleb128 0x11
 2847 000e 01       		.uleb128 0x1
 2848 000f 10       		.uleb128 0x10
 2849 0010 17       		.uleb128 0x17
 2850 0011 00       		.byte	0
 2851 0012 00       		.byte	0
 2852 0013 02       		.uleb128 0x2
 2853 0014 24       		.uleb128 0x24
 2854 0015 00       		.byte	0
 2855 0016 0B       		.uleb128 0xb
 2856 0017 0B       		.uleb128 0xb
 2857 0018 3E       		.uleb128 0x3e
 2858 0019 0B       		.uleb128 0xb
 2859 001a 03       		.uleb128 0x3
 2860 001b 08       		.uleb128 0x8
 2861 001c 00       		.byte	0
 2862 001d 00       		.byte	0
 2863 001e 03       		.uleb128 0x3
 2864 001f 24       		.uleb128 0x24
 2865 0020 00       		.byte	0
 2866 0021 0B       		.uleb128 0xb
 2867 0022 0B       		.uleb128 0xb
 2868 0023 3E       		.uleb128 0x3e
 2869 0024 0B       		.uleb128 0xb
 2870 0025 03       		.uleb128 0x3
 2871 0026 0E       		.uleb128 0xe
 2872 0027 00       		.byte	0
 2873 0028 00       		.byte	0
 2874 0029 04       		.uleb128 0x4
 2875 002a 16       		.uleb128 0x16
 2876 002b 00       		.byte	0
 2877 002c 03       		.uleb128 0x3
 2878 002d 0E       		.uleb128 0xe
 2879 002e 3A       		.uleb128 0x3a
 2880 002f 0B       		.uleb128 0xb
 2881 0030 3B       		.uleb128 0x3b
 2882 0031 0B       		.uleb128 0xb
 2883 0032 49       		.uleb128 0x49
 2884 0033 13       		.uleb128 0x13
 2885 0034 00       		.byte	0
 2886 0035 00       		.byte	0
 2887 0036 05       		.uleb128 0x5
 2888 0037 13       		.uleb128 0x13
 2889 0038 01       		.byte	0x1
 2890 0039 03       		.uleb128 0x3
 2891 003a 0E       		.uleb128 0xe
ARM GAS  /tmp/ccrxrg1p.s 			page 52


 2892 003b 0B       		.uleb128 0xb
 2893 003c 0B       		.uleb128 0xb
 2894 003d 3A       		.uleb128 0x3a
 2895 003e 0B       		.uleb128 0xb
 2896 003f 3B       		.uleb128 0x3b
 2897 0040 0B       		.uleb128 0xb
 2898 0041 01       		.uleb128 0x1
 2899 0042 13       		.uleb128 0x13
 2900 0043 00       		.byte	0
 2901 0044 00       		.byte	0
 2902 0045 06       		.uleb128 0x6
 2903 0046 0D       		.uleb128 0xd
 2904 0047 00       		.byte	0
 2905 0048 03       		.uleb128 0x3
 2906 0049 0E       		.uleb128 0xe
 2907 004a 3A       		.uleb128 0x3a
 2908 004b 0B       		.uleb128 0xb
 2909 004c 3B       		.uleb128 0x3b
 2910 004d 0B       		.uleb128 0xb
 2911 004e 49       		.uleb128 0x49
 2912 004f 13       		.uleb128 0x13
 2913 0050 38       		.uleb128 0x38
 2914 0051 0B       		.uleb128 0xb
 2915 0052 00       		.byte	0
 2916 0053 00       		.byte	0
 2917 0054 07       		.uleb128 0x7
 2918 0055 0D       		.uleb128 0xd
 2919 0056 00       		.byte	0
 2920 0057 03       		.uleb128 0x3
 2921 0058 08       		.uleb128 0x8
 2922 0059 3A       		.uleb128 0x3a
 2923 005a 0B       		.uleb128 0xb
 2924 005b 3B       		.uleb128 0x3b
 2925 005c 0B       		.uleb128 0xb
 2926 005d 49       		.uleb128 0x49
 2927 005e 13       		.uleb128 0x13
 2928 005f 38       		.uleb128 0x38
 2929 0060 0B       		.uleb128 0xb
 2930 0061 00       		.byte	0
 2931 0062 00       		.byte	0
 2932 0063 08       		.uleb128 0x8
 2933 0064 0D       		.uleb128 0xd
 2934 0065 00       		.byte	0
 2935 0066 03       		.uleb128 0x3
 2936 0067 08       		.uleb128 0x8
 2937 0068 3A       		.uleb128 0x3a
 2938 0069 0B       		.uleb128 0xb
 2939 006a 3B       		.uleb128 0x3b
 2940 006b 05       		.uleb128 0x5
 2941 006c 49       		.uleb128 0x49
 2942 006d 13       		.uleb128 0x13
 2943 006e 38       		.uleb128 0x38
 2944 006f 0B       		.uleb128 0xb
 2945 0070 00       		.byte	0
 2946 0071 00       		.byte	0
 2947 0072 09       		.uleb128 0x9
 2948 0073 0D       		.uleb128 0xd
ARM GAS  /tmp/ccrxrg1p.s 			page 53


 2949 0074 00       		.byte	0
 2950 0075 03       		.uleb128 0x3
 2951 0076 0E       		.uleb128 0xe
 2952 0077 3A       		.uleb128 0x3a
 2953 0078 0B       		.uleb128 0xb
 2954 0079 3B       		.uleb128 0x3b
 2955 007a 05       		.uleb128 0x5
 2956 007b 49       		.uleb128 0x49
 2957 007c 13       		.uleb128 0x13
 2958 007d 38       		.uleb128 0x38
 2959 007e 0B       		.uleb128 0xb
 2960 007f 00       		.byte	0
 2961 0080 00       		.byte	0
 2962 0081 0A       		.uleb128 0xa
 2963 0082 0F       		.uleb128 0xf
 2964 0083 00       		.byte	0
 2965 0084 0B       		.uleb128 0xb
 2966 0085 0B       		.uleb128 0xb
 2967 0086 49       		.uleb128 0x49
 2968 0087 13       		.uleb128 0x13
 2969 0088 00       		.byte	0
 2970 0089 00       		.byte	0
 2971 008a 0B       		.uleb128 0xb
 2972 008b 13       		.uleb128 0x13
 2973 008c 01       		.byte	0x1
 2974 008d 03       		.uleb128 0x3
 2975 008e 0E       		.uleb128 0xe
 2976 008f 0B       		.uleb128 0xb
 2977 0090 0B       		.uleb128 0xb
 2978 0091 3A       		.uleb128 0x3a
 2979 0092 0B       		.uleb128 0xb
 2980 0093 3B       		.uleb128 0x3b
 2981 0094 05       		.uleb128 0x5
 2982 0095 01       		.uleb128 0x1
 2983 0096 13       		.uleb128 0x13
 2984 0097 00       		.byte	0
 2985 0098 00       		.byte	0
 2986 0099 0C       		.uleb128 0xc
 2987 009a 15       		.uleb128 0x15
 2988 009b 01       		.byte	0x1
 2989 009c 27       		.uleb128 0x27
 2990 009d 19       		.uleb128 0x19
 2991 009e 01       		.uleb128 0x1
 2992 009f 13       		.uleb128 0x13
 2993 00a0 00       		.byte	0
 2994 00a1 00       		.byte	0
 2995 00a2 0D       		.uleb128 0xd
 2996 00a3 05       		.uleb128 0x5
 2997 00a4 00       		.byte	0
 2998 00a5 49       		.uleb128 0x49
 2999 00a6 13       		.uleb128 0x13
 3000 00a7 00       		.byte	0
 3001 00a8 00       		.byte	0
 3002 00a9 0E       		.uleb128 0xe
 3003 00aa 0F       		.uleb128 0xf
 3004 00ab 00       		.byte	0
 3005 00ac 0B       		.uleb128 0xb
ARM GAS  /tmp/ccrxrg1p.s 			page 54


 3006 00ad 0B       		.uleb128 0xb
 3007 00ae 00       		.byte	0
 3008 00af 00       		.byte	0
 3009 00b0 0F       		.uleb128 0xf
 3010 00b1 13       		.uleb128 0x13
 3011 00b2 01       		.byte	0x1
 3012 00b3 03       		.uleb128 0x3
 3013 00b4 0E       		.uleb128 0xe
 3014 00b5 0B       		.uleb128 0xb
 3015 00b6 05       		.uleb128 0x5
 3016 00b7 3A       		.uleb128 0x3a
 3017 00b8 0B       		.uleb128 0xb
 3018 00b9 3B       		.uleb128 0x3b
 3019 00ba 05       		.uleb128 0x5
 3020 00bb 01       		.uleb128 0x1
 3021 00bc 13       		.uleb128 0x13
 3022 00bd 00       		.byte	0
 3023 00be 00       		.byte	0
 3024 00bf 10       		.uleb128 0x10
 3025 00c0 0D       		.uleb128 0xd
 3026 00c1 00       		.byte	0
 3027 00c2 03       		.uleb128 0x3
 3028 00c3 0E       		.uleb128 0xe
 3029 00c4 3A       		.uleb128 0x3a
 3030 00c5 0B       		.uleb128 0xb
 3031 00c6 3B       		.uleb128 0x3b
 3032 00c7 05       		.uleb128 0x5
 3033 00c8 49       		.uleb128 0x49
 3034 00c9 13       		.uleb128 0x13
 3035 00ca 38       		.uleb128 0x38
 3036 00cb 05       		.uleb128 0x5
 3037 00cc 00       		.byte	0
 3038 00cd 00       		.byte	0
 3039 00ce 11       		.uleb128 0x11
 3040 00cf 0D       		.uleb128 0xd
 3041 00d0 00       		.byte	0
 3042 00d1 03       		.uleb128 0x3
 3043 00d2 08       		.uleb128 0x8
 3044 00d3 3A       		.uleb128 0x3a
 3045 00d4 0B       		.uleb128 0xb
 3046 00d5 3B       		.uleb128 0x3b
 3047 00d6 05       		.uleb128 0x5
 3048 00d7 49       		.uleb128 0x49
 3049 00d8 13       		.uleb128 0x13
 3050 00d9 38       		.uleb128 0x38
 3051 00da 05       		.uleb128 0x5
 3052 00db 00       		.byte	0
 3053 00dc 00       		.byte	0
 3054 00dd 12       		.uleb128 0x12
 3055 00de 13       		.uleb128 0x13
 3056 00df 01       		.byte	0x1
 3057 00e0 0B       		.uleb128 0xb
 3058 00e1 0B       		.uleb128 0xb
 3059 00e2 3A       		.uleb128 0x3a
 3060 00e3 0B       		.uleb128 0xb
 3061 00e4 3B       		.uleb128 0x3b
 3062 00e5 0B       		.uleb128 0xb
ARM GAS  /tmp/ccrxrg1p.s 			page 55


 3063 00e6 01       		.uleb128 0x1
 3064 00e7 13       		.uleb128 0x13
 3065 00e8 00       		.byte	0
 3066 00e9 00       		.byte	0
 3067 00ea 13       		.uleb128 0x13
 3068 00eb 26       		.uleb128 0x26
 3069 00ec 00       		.byte	0
 3070 00ed 49       		.uleb128 0x49
 3071 00ee 13       		.uleb128 0x13
 3072 00ef 00       		.byte	0
 3073 00f0 00       		.byte	0
 3074 00f1 14       		.uleb128 0x14
 3075 00f2 17       		.uleb128 0x17
 3076 00f3 01       		.byte	0x1
 3077 00f4 0B       		.uleb128 0xb
 3078 00f5 0B       		.uleb128 0xb
 3079 00f6 3A       		.uleb128 0x3a
 3080 00f7 0B       		.uleb128 0xb
 3081 00f8 3B       		.uleb128 0x3b
 3082 00f9 0B       		.uleb128 0xb
 3083 00fa 01       		.uleb128 0x1
 3084 00fb 13       		.uleb128 0x13
 3085 00fc 00       		.byte	0
 3086 00fd 00       		.byte	0
 3087 00fe 15       		.uleb128 0x15
 3088 00ff 0D       		.uleb128 0xd
 3089 0100 00       		.byte	0
 3090 0101 03       		.uleb128 0x3
 3091 0102 08       		.uleb128 0x8
 3092 0103 3A       		.uleb128 0x3a
 3093 0104 0B       		.uleb128 0xb
 3094 0105 3B       		.uleb128 0x3b
 3095 0106 0B       		.uleb128 0xb
 3096 0107 49       		.uleb128 0x49
 3097 0108 13       		.uleb128 0x13
 3098 0109 00       		.byte	0
 3099 010a 00       		.byte	0
 3100 010b 16       		.uleb128 0x16
 3101 010c 0D       		.uleb128 0xd
 3102 010d 00       		.byte	0
 3103 010e 03       		.uleb128 0x3
 3104 010f 0E       		.uleb128 0xe
 3105 0110 3A       		.uleb128 0x3a
 3106 0111 0B       		.uleb128 0xb
 3107 0112 3B       		.uleb128 0x3b
 3108 0113 0B       		.uleb128 0xb
 3109 0114 49       		.uleb128 0x49
 3110 0115 13       		.uleb128 0x13
 3111 0116 00       		.byte	0
 3112 0117 00       		.byte	0
 3113 0118 17       		.uleb128 0x17
 3114 0119 0D       		.uleb128 0xd
 3115 011a 00       		.byte	0
 3116 011b 03       		.uleb128 0x3
 3117 011c 0E       		.uleb128 0xe
 3118 011d 3A       		.uleb128 0x3a
 3119 011e 0B       		.uleb128 0xb
ARM GAS  /tmp/ccrxrg1p.s 			page 56


 3120 011f 3B       		.uleb128 0x3b
 3121 0120 0B       		.uleb128 0xb
 3122 0121 49       		.uleb128 0x49
 3123 0122 13       		.uleb128 0x13
 3124 0123 0B       		.uleb128 0xb
 3125 0124 0B       		.uleb128 0xb
 3126 0125 0D       		.uleb128 0xd
 3127 0126 0B       		.uleb128 0xb
 3128 0127 0C       		.uleb128 0xc
 3129 0128 0B       		.uleb128 0xb
 3130 0129 38       		.uleb128 0x38
 3131 012a 0B       		.uleb128 0xb
 3132 012b 00       		.byte	0
 3133 012c 00       		.byte	0
 3134 012d 18       		.uleb128 0x18
 3135 012e 13       		.uleb128 0x13
 3136 012f 01       		.byte	0x1
 3137 0130 0B       		.uleb128 0xb
 3138 0131 05       		.uleb128 0x5
 3139 0132 3A       		.uleb128 0x3a
 3140 0133 0B       		.uleb128 0xb
 3141 0134 3B       		.uleb128 0x3b
 3142 0135 0B       		.uleb128 0xb
 3143 0136 01       		.uleb128 0x1
 3144 0137 13       		.uleb128 0x13
 3145 0138 00       		.byte	0
 3146 0139 00       		.byte	0
 3147 013a 19       		.uleb128 0x19
 3148 013b 01       		.uleb128 0x1
 3149 013c 01       		.byte	0x1
 3150 013d 49       		.uleb128 0x49
 3151 013e 13       		.uleb128 0x13
 3152 013f 01       		.uleb128 0x1
 3153 0140 13       		.uleb128 0x13
 3154 0141 00       		.byte	0
 3155 0142 00       		.byte	0
 3156 0143 1A       		.uleb128 0x1a
 3157 0144 21       		.uleb128 0x21
 3158 0145 00       		.byte	0
 3159 0146 49       		.uleb128 0x49
 3160 0147 13       		.uleb128 0x13
 3161 0148 2F       		.uleb128 0x2f
 3162 0149 0B       		.uleb128 0xb
 3163 014a 00       		.byte	0
 3164 014b 00       		.byte	0
 3165 014c 1B       		.uleb128 0x1b
 3166 014d 0D       		.uleb128 0xd
 3167 014e 00       		.byte	0
 3168 014f 03       		.uleb128 0x3
 3169 0150 0E       		.uleb128 0xe
 3170 0151 3A       		.uleb128 0x3a
 3171 0152 0B       		.uleb128 0xb
 3172 0153 3B       		.uleb128 0x3b
 3173 0154 05       		.uleb128 0x5
 3174 0155 49       		.uleb128 0x49
 3175 0156 13       		.uleb128 0x13
 3176 0157 00       		.byte	0
ARM GAS  /tmp/ccrxrg1p.s 			page 57


 3177 0158 00       		.byte	0
 3178 0159 1C       		.uleb128 0x1c
 3179 015a 35       		.uleb128 0x35
 3180 015b 00       		.byte	0
 3181 015c 49       		.uleb128 0x49
 3182 015d 13       		.uleb128 0x13
 3183 015e 00       		.byte	0
 3184 015f 00       		.byte	0
 3185 0160 1D       		.uleb128 0x1d
 3186 0161 2E       		.uleb128 0x2e
 3187 0162 01       		.byte	0x1
 3188 0163 03       		.uleb128 0x3
 3189 0164 0E       		.uleb128 0xe
 3190 0165 3A       		.uleb128 0x3a
 3191 0166 0B       		.uleb128 0xb
 3192 0167 3B       		.uleb128 0x3b
 3193 0168 05       		.uleb128 0x5
 3194 0169 27       		.uleb128 0x27
 3195 016a 19       		.uleb128 0x19
 3196 016b 20       		.uleb128 0x20
 3197 016c 0B       		.uleb128 0xb
 3198 016d 01       		.uleb128 0x1
 3199 016e 13       		.uleb128 0x13
 3200 016f 00       		.byte	0
 3201 0170 00       		.byte	0
 3202 0171 1E       		.uleb128 0x1e
 3203 0172 05       		.uleb128 0x5
 3204 0173 00       		.byte	0
 3205 0174 03       		.uleb128 0x3
 3206 0175 0E       		.uleb128 0xe
 3207 0176 3A       		.uleb128 0x3a
 3208 0177 0B       		.uleb128 0xb
 3209 0178 3B       		.uleb128 0x3b
 3210 0179 05       		.uleb128 0x5
 3211 017a 49       		.uleb128 0x49
 3212 017b 13       		.uleb128 0x13
 3213 017c 00       		.byte	0
 3214 017d 00       		.byte	0
 3215 017e 1F       		.uleb128 0x1f
 3216 017f 2E       		.uleb128 0x2e
 3217 0180 00       		.byte	0
 3218 0181 03       		.uleb128 0x3
 3219 0182 0E       		.uleb128 0xe
 3220 0183 3A       		.uleb128 0x3a
 3221 0184 0B       		.uleb128 0xb
 3222 0185 3B       		.uleb128 0x3b
 3223 0186 05       		.uleb128 0x5
 3224 0187 27       		.uleb128 0x27
 3225 0188 19       		.uleb128 0x19
 3226 0189 20       		.uleb128 0x20
 3227 018a 0B       		.uleb128 0xb
 3228 018b 00       		.byte	0
 3229 018c 00       		.byte	0
 3230 018d 20       		.uleb128 0x20
 3231 018e 05       		.uleb128 0x5
 3232 018f 00       		.byte	0
 3233 0190 03       		.uleb128 0x3
ARM GAS  /tmp/ccrxrg1p.s 			page 58


 3234 0191 08       		.uleb128 0x8
 3235 0192 3A       		.uleb128 0x3a
 3236 0193 0B       		.uleb128 0xb
 3237 0194 3B       		.uleb128 0x3b
 3238 0195 05       		.uleb128 0x5
 3239 0196 49       		.uleb128 0x49
 3240 0197 13       		.uleb128 0x13
 3241 0198 00       		.byte	0
 3242 0199 00       		.byte	0
 3243 019a 21       		.uleb128 0x21
 3244 019b 2E       		.uleb128 0x2e
 3245 019c 01       		.byte	0x1
 3246 019d 03       		.uleb128 0x3
 3247 019e 0E       		.uleb128 0xe
 3248 019f 3A       		.uleb128 0x3a
 3249 01a0 0B       		.uleb128 0xb
 3250 01a1 3B       		.uleb128 0x3b
 3251 01a2 05       		.uleb128 0x5
 3252 01a3 27       		.uleb128 0x27
 3253 01a4 19       		.uleb128 0x19
 3254 01a5 49       		.uleb128 0x49
 3255 01a6 13       		.uleb128 0x13
 3256 01a7 20       		.uleb128 0x20
 3257 01a8 0B       		.uleb128 0xb
 3258 01a9 01       		.uleb128 0x1
 3259 01aa 13       		.uleb128 0x13
 3260 01ab 00       		.byte	0
 3261 01ac 00       		.byte	0
 3262 01ad 22       		.uleb128 0x22
 3263 01ae 34       		.uleb128 0x34
 3264 01af 00       		.byte	0
 3265 01b0 03       		.uleb128 0x3
 3266 01b1 08       		.uleb128 0x8
 3267 01b2 3A       		.uleb128 0x3a
 3268 01b3 0B       		.uleb128 0xb
 3269 01b4 3B       		.uleb128 0x3b
 3270 01b5 05       		.uleb128 0x5
 3271 01b6 49       		.uleb128 0x49
 3272 01b7 13       		.uleb128 0x13
 3273 01b8 00       		.byte	0
 3274 01b9 00       		.byte	0
 3275 01ba 23       		.uleb128 0x23
 3276 01bb 34       		.uleb128 0x34
 3277 01bc 00       		.byte	0
 3278 01bd 03       		.uleb128 0x3
 3279 01be 0E       		.uleb128 0xe
 3280 01bf 49       		.uleb128 0x49
 3281 01c0 13       		.uleb128 0x13
 3282 01c1 34       		.uleb128 0x34
 3283 01c2 19       		.uleb128 0x19
 3284 01c3 1C       		.uleb128 0x1c
 3285 01c4 0E       		.uleb128 0xe
 3286 01c5 00       		.byte	0
 3287 01c6 00       		.byte	0
 3288 01c7 24       		.uleb128 0x24
 3289 01c8 2E       		.uleb128 0x2e
 3290 01c9 01       		.byte	0x1
ARM GAS  /tmp/ccrxrg1p.s 			page 59


 3291 01ca 3F       		.uleb128 0x3f
 3292 01cb 19       		.uleb128 0x19
 3293 01cc 03       		.uleb128 0x3
 3294 01cd 0E       		.uleb128 0xe
 3295 01ce 3A       		.uleb128 0x3a
 3296 01cf 0B       		.uleb128 0xb
 3297 01d0 3B       		.uleb128 0x3b
 3298 01d1 0B       		.uleb128 0xb
 3299 01d2 27       		.uleb128 0x27
 3300 01d3 19       		.uleb128 0x19
 3301 01d4 11       		.uleb128 0x11
 3302 01d5 01       		.uleb128 0x1
 3303 01d6 12       		.uleb128 0x12
 3304 01d7 06       		.uleb128 0x6
 3305 01d8 40       		.uleb128 0x40
 3306 01d9 18       		.uleb128 0x18
 3307 01da 9742     		.uleb128 0x2117
 3308 01dc 19       		.uleb128 0x19
 3309 01dd 01       		.uleb128 0x1
 3310 01de 13       		.uleb128 0x13
 3311 01df 00       		.byte	0
 3312 01e0 00       		.byte	0
 3313 01e1 25       		.uleb128 0x25
 3314 01e2 05       		.uleb128 0x5
 3315 01e3 00       		.byte	0
 3316 01e4 03       		.uleb128 0x3
 3317 01e5 08       		.uleb128 0x8
 3318 01e6 3A       		.uleb128 0x3a
 3319 01e7 0B       		.uleb128 0xb
 3320 01e8 3B       		.uleb128 0x3b
 3321 01e9 0B       		.uleb128 0xb
 3322 01ea 49       		.uleb128 0x49
 3323 01eb 13       		.uleb128 0x13
 3324 01ec 02       		.uleb128 0x2
 3325 01ed 18       		.uleb128 0x18
 3326 01ee 00       		.byte	0
 3327 01ef 00       		.byte	0
 3328 01f0 26       		.uleb128 0x26
 3329 01f1 34       		.uleb128 0x34
 3330 01f2 00       		.byte	0
 3331 01f3 03       		.uleb128 0x3
 3332 01f4 0E       		.uleb128 0xe
 3333 01f5 49       		.uleb128 0x49
 3334 01f6 13       		.uleb128 0x13
 3335 01f7 34       		.uleb128 0x34
 3336 01f8 19       		.uleb128 0x19
 3337 01f9 00       		.byte	0
 3338 01fa 00       		.byte	0
 3339 01fb 27       		.uleb128 0x27
 3340 01fc 1D       		.uleb128 0x1d
 3341 01fd 01       		.byte	0x1
 3342 01fe 31       		.uleb128 0x31
 3343 01ff 13       		.uleb128 0x13
 3344 0200 11       		.uleb128 0x11
 3345 0201 01       		.uleb128 0x1
 3346 0202 12       		.uleb128 0x12
 3347 0203 06       		.uleb128 0x6
ARM GAS  /tmp/ccrxrg1p.s 			page 60


 3348 0204 58       		.uleb128 0x58
 3349 0205 0B       		.uleb128 0xb
 3350 0206 59       		.uleb128 0x59
 3351 0207 0B       		.uleb128 0xb
 3352 0208 00       		.byte	0
 3353 0209 00       		.byte	0
 3354 020a 28       		.uleb128 0x28
 3355 020b 05       		.uleb128 0x5
 3356 020c 00       		.byte	0
 3357 020d 31       		.uleb128 0x31
 3358 020e 13       		.uleb128 0x13
 3359 020f 02       		.uleb128 0x2
 3360 0210 18       		.uleb128 0x18
 3361 0211 00       		.byte	0
 3362 0212 00       		.byte	0
 3363 0213 29       		.uleb128 0x29
 3364 0214 05       		.uleb128 0x5
 3365 0215 00       		.byte	0
 3366 0216 03       		.uleb128 0x3
 3367 0217 08       		.uleb128 0x8
 3368 0218 3A       		.uleb128 0x3a
 3369 0219 0B       		.uleb128 0xb
 3370 021a 3B       		.uleb128 0x3b
 3371 021b 0B       		.uleb128 0xb
 3372 021c 49       		.uleb128 0x49
 3373 021d 13       		.uleb128 0x13
 3374 021e 02       		.uleb128 0x2
 3375 021f 17       		.uleb128 0x17
 3376 0220 00       		.byte	0
 3377 0221 00       		.byte	0
 3378 0222 2A       		.uleb128 0x2a
 3379 0223 34       		.uleb128 0x34
 3380 0224 00       		.byte	0
 3381 0225 03       		.uleb128 0x3
 3382 0226 08       		.uleb128 0x8
 3383 0227 3A       		.uleb128 0x3a
 3384 0228 0B       		.uleb128 0xb
 3385 0229 3B       		.uleb128 0x3b
 3386 022a 0B       		.uleb128 0xb
 3387 022b 49       		.uleb128 0x49
 3388 022c 13       		.uleb128 0x13
 3389 022d 02       		.uleb128 0x2
 3390 022e 17       		.uleb128 0x17
 3391 022f 00       		.byte	0
 3392 0230 00       		.byte	0
 3393 0231 2B       		.uleb128 0x2b
 3394 0232 1D       		.uleb128 0x1d
 3395 0233 01       		.byte	0x1
 3396 0234 31       		.uleb128 0x31
 3397 0235 13       		.uleb128 0x13
 3398 0236 11       		.uleb128 0x11
 3399 0237 01       		.uleb128 0x1
 3400 0238 12       		.uleb128 0x12
 3401 0239 06       		.uleb128 0x6
 3402 023a 58       		.uleb128 0x58
 3403 023b 0B       		.uleb128 0xb
 3404 023c 59       		.uleb128 0x59
ARM GAS  /tmp/ccrxrg1p.s 			page 61


 3405 023d 0B       		.uleb128 0xb
 3406 023e 01       		.uleb128 0x1
 3407 023f 13       		.uleb128 0x13
 3408 0240 00       		.byte	0
 3409 0241 00       		.byte	0
 3410 0242 2C       		.uleb128 0x2c
 3411 0243 05       		.uleb128 0x5
 3412 0244 00       		.byte	0
 3413 0245 31       		.uleb128 0x31
 3414 0246 13       		.uleb128 0x13
 3415 0247 02       		.uleb128 0x2
 3416 0248 17       		.uleb128 0x17
 3417 0249 00       		.byte	0
 3418 024a 00       		.byte	0
 3419 024b 2D       		.uleb128 0x2d
 3420 024c 0B       		.uleb128 0xb
 3421 024d 01       		.byte	0x1
 3422 024e 11       		.uleb128 0x11
 3423 024f 01       		.uleb128 0x1
 3424 0250 12       		.uleb128 0x12
 3425 0251 06       		.uleb128 0x6
 3426 0252 00       		.byte	0
 3427 0253 00       		.byte	0
 3428 0254 2E       		.uleb128 0x2e
 3429 0255 34       		.uleb128 0x34
 3430 0256 00       		.byte	0
 3431 0257 31       		.uleb128 0x31
 3432 0258 13       		.uleb128 0x13
 3433 0259 02       		.uleb128 0x2
 3434 025a 17       		.uleb128 0x17
 3435 025b 00       		.byte	0
 3436 025c 00       		.byte	0
 3437 025d 2F       		.uleb128 0x2f
 3438 025e 898201   		.uleb128 0x4109
 3439 0261 00       		.byte	0
 3440 0262 11       		.uleb128 0x11
 3441 0263 01       		.uleb128 0x1
 3442 0264 31       		.uleb128 0x31
 3443 0265 13       		.uleb128 0x13
 3444 0266 00       		.byte	0
 3445 0267 00       		.byte	0
 3446 0268 30       		.uleb128 0x30
 3447 0269 1D       		.uleb128 0x1d
 3448 026a 01       		.byte	0x1
 3449 026b 31       		.uleb128 0x31
 3450 026c 13       		.uleb128 0x13
 3451 026d 11       		.uleb128 0x11
 3452 026e 01       		.uleb128 0x1
 3453 026f 12       		.uleb128 0x12
 3454 0270 06       		.uleb128 0x6
 3455 0271 58       		.uleb128 0x58
 3456 0272 0B       		.uleb128 0xb
 3457 0273 59       		.uleb128 0x59
 3458 0274 05       		.uleb128 0x5
 3459 0275 00       		.byte	0
 3460 0276 00       		.byte	0
 3461 0277 31       		.uleb128 0x31
ARM GAS  /tmp/ccrxrg1p.s 			page 62


 3462 0278 05       		.uleb128 0x5
 3463 0279 00       		.byte	0
 3464 027a 31       		.uleb128 0x31
 3465 027b 13       		.uleb128 0x13
 3466 027c 1C       		.uleb128 0x1c
 3467 027d 0B       		.uleb128 0xb
 3468 027e 00       		.byte	0
 3469 027f 00       		.byte	0
 3470 0280 32       		.uleb128 0x32
 3471 0281 34       		.uleb128 0x34
 3472 0282 00       		.byte	0
 3473 0283 31       		.uleb128 0x31
 3474 0284 13       		.uleb128 0x13
 3475 0285 00       		.byte	0
 3476 0286 00       		.byte	0
 3477 0287 33       		.uleb128 0x33
 3478 0288 898201   		.uleb128 0x4109
 3479 028b 01       		.byte	0x1
 3480 028c 11       		.uleb128 0x11
 3481 028d 01       		.uleb128 0x1
 3482 028e 31       		.uleb128 0x31
 3483 028f 13       		.uleb128 0x13
 3484 0290 01       		.uleb128 0x1
 3485 0291 13       		.uleb128 0x13
 3486 0292 00       		.byte	0
 3487 0293 00       		.byte	0
 3488 0294 34       		.uleb128 0x34
 3489 0295 8A8201   		.uleb128 0x410a
 3490 0298 00       		.byte	0
 3491 0299 02       		.uleb128 0x2
 3492 029a 18       		.uleb128 0x18
 3493 029b 9142     		.uleb128 0x2111
 3494 029d 18       		.uleb128 0x18
 3495 029e 00       		.byte	0
 3496 029f 00       		.byte	0
 3497 02a0 35       		.uleb128 0x35
 3498 02a1 2E       		.uleb128 0x2e
 3499 02a2 01       		.byte	0x1
 3500 02a3 3F       		.uleb128 0x3f
 3501 02a4 19       		.uleb128 0x19
 3502 02a5 03       		.uleb128 0x3
 3503 02a6 0E       		.uleb128 0xe
 3504 02a7 3A       		.uleb128 0x3a
 3505 02a8 0B       		.uleb128 0xb
 3506 02a9 3B       		.uleb128 0x3b
 3507 02aa 0B       		.uleb128 0xb
 3508 02ab 27       		.uleb128 0x27
 3509 02ac 19       		.uleb128 0x19
 3510 02ad 49       		.uleb128 0x49
 3511 02ae 13       		.uleb128 0x13
 3512 02af 11       		.uleb128 0x11
 3513 02b0 01       		.uleb128 0x1
 3514 02b1 12       		.uleb128 0x12
 3515 02b2 06       		.uleb128 0x6
 3516 02b3 40       		.uleb128 0x40
 3517 02b4 18       		.uleb128 0x18
 3518 02b5 9742     		.uleb128 0x2117
ARM GAS  /tmp/ccrxrg1p.s 			page 63


 3519 02b7 19       		.uleb128 0x19
 3520 02b8 01       		.uleb128 0x1
 3521 02b9 13       		.uleb128 0x13
 3522 02ba 00       		.byte	0
 3523 02bb 00       		.byte	0
 3524 02bc 36       		.uleb128 0x36
 3525 02bd 898201   		.uleb128 0x4109
 3526 02c0 01       		.byte	0x1
 3527 02c1 11       		.uleb128 0x11
 3528 02c2 01       		.uleb128 0x1
 3529 02c3 31       		.uleb128 0x31
 3530 02c4 13       		.uleb128 0x13
 3531 02c5 00       		.byte	0
 3532 02c6 00       		.byte	0
 3533 02c7 37       		.uleb128 0x37
 3534 02c8 34       		.uleb128 0x34
 3535 02c9 00       		.byte	0
 3536 02ca 03       		.uleb128 0x3
 3537 02cb 08       		.uleb128 0x8
 3538 02cc 3A       		.uleb128 0x3a
 3539 02cd 0B       		.uleb128 0xb
 3540 02ce 3B       		.uleb128 0x3b
 3541 02cf 0B       		.uleb128 0xb
 3542 02d0 49       		.uleb128 0x49
 3543 02d1 13       		.uleb128 0x13
 3544 02d2 02       		.uleb128 0x2
 3545 02d3 18       		.uleb128 0x18
 3546 02d4 00       		.byte	0
 3547 02d5 00       		.byte	0
 3548 02d6 38       		.uleb128 0x38
 3549 02d7 2E       		.uleb128 0x2e
 3550 02d8 01       		.byte	0x1
 3551 02d9 3F       		.uleb128 0x3f
 3552 02da 19       		.uleb128 0x19
 3553 02db 03       		.uleb128 0x3
 3554 02dc 0E       		.uleb128 0xe
 3555 02dd 3A       		.uleb128 0x3a
 3556 02de 0B       		.uleb128 0xb
 3557 02df 3B       		.uleb128 0x3b
 3558 02e0 05       		.uleb128 0x5
 3559 02e1 27       		.uleb128 0x27
 3560 02e2 19       		.uleb128 0x19
 3561 02e3 49       		.uleb128 0x49
 3562 02e4 13       		.uleb128 0x13
 3563 02e5 11       		.uleb128 0x11
 3564 02e6 01       		.uleb128 0x1
 3565 02e7 12       		.uleb128 0x12
 3566 02e8 06       		.uleb128 0x6
 3567 02e9 40       		.uleb128 0x40
 3568 02ea 18       		.uleb128 0x18
 3569 02eb 9742     		.uleb128 0x2117
 3570 02ed 19       		.uleb128 0x19
 3571 02ee 01       		.uleb128 0x1
 3572 02ef 13       		.uleb128 0x13
 3573 02f0 00       		.byte	0
 3574 02f1 00       		.byte	0
 3575 02f2 39       		.uleb128 0x39
ARM GAS  /tmp/ccrxrg1p.s 			page 64


 3576 02f3 05       		.uleb128 0x5
 3577 02f4 00       		.byte	0
 3578 02f5 03       		.uleb128 0x3
 3579 02f6 08       		.uleb128 0x8
 3580 02f7 3A       		.uleb128 0x3a
 3581 02f8 0B       		.uleb128 0xb
 3582 02f9 3B       		.uleb128 0x3b
 3583 02fa 05       		.uleb128 0x5
 3584 02fb 49       		.uleb128 0x49
 3585 02fc 13       		.uleb128 0x13
 3586 02fd 02       		.uleb128 0x2
 3587 02fe 17       		.uleb128 0x17
 3588 02ff 00       		.byte	0
 3589 0300 00       		.byte	0
 3590 0301 3A       		.uleb128 0x3a
 3591 0302 05       		.uleb128 0x5
 3592 0303 00       		.byte	0
 3593 0304 03       		.uleb128 0x3
 3594 0305 0E       		.uleb128 0xe
 3595 0306 3A       		.uleb128 0x3a
 3596 0307 0B       		.uleb128 0xb
 3597 0308 3B       		.uleb128 0x3b
 3598 0309 05       		.uleb128 0x5
 3599 030a 49       		.uleb128 0x49
 3600 030b 13       		.uleb128 0x13
 3601 030c 02       		.uleb128 0x2
 3602 030d 17       		.uleb128 0x17
 3603 030e 00       		.byte	0
 3604 030f 00       		.byte	0
 3605 0310 3B       		.uleb128 0x3b
 3606 0311 1D       		.uleb128 0x1d
 3607 0312 01       		.byte	0x1
 3608 0313 31       		.uleb128 0x31
 3609 0314 13       		.uleb128 0x13
 3610 0315 11       		.uleb128 0x11
 3611 0316 01       		.uleb128 0x1
 3612 0317 12       		.uleb128 0x12
 3613 0318 06       		.uleb128 0x6
 3614 0319 58       		.uleb128 0x58
 3615 031a 0B       		.uleb128 0xb
 3616 031b 59       		.uleb128 0x59
 3617 031c 05       		.uleb128 0x5
 3618 031d 01       		.uleb128 0x1
 3619 031e 13       		.uleb128 0x13
 3620 031f 00       		.byte	0
 3621 0320 00       		.byte	0
 3622 0321 3C       		.uleb128 0x3c
 3623 0322 898201   		.uleb128 0x4109
 3624 0325 01       		.byte	0x1
 3625 0326 11       		.uleb128 0x11
 3626 0327 01       		.uleb128 0x1
 3627 0328 9542     		.uleb128 0x2115
 3628 032a 19       		.uleb128 0x19
 3629 032b 31       		.uleb128 0x31
 3630 032c 13       		.uleb128 0x13
 3631 032d 00       		.byte	0
 3632 032e 00       		.byte	0
ARM GAS  /tmp/ccrxrg1p.s 			page 65


 3633 032f 3D       		.uleb128 0x3d
 3634 0330 05       		.uleb128 0x5
 3635 0331 00       		.byte	0
 3636 0332 03       		.uleb128 0x3
 3637 0333 0E       		.uleb128 0xe
 3638 0334 3A       		.uleb128 0x3a
 3639 0335 0B       		.uleb128 0xb
 3640 0336 3B       		.uleb128 0x3b
 3641 0337 0B       		.uleb128 0xb
 3642 0338 49       		.uleb128 0x49
 3643 0339 13       		.uleb128 0x13
 3644 033a 02       		.uleb128 0x2
 3645 033b 17       		.uleb128 0x17
 3646 033c 00       		.byte	0
 3647 033d 00       		.byte	0
 3648 033e 3E       		.uleb128 0x3e
 3649 033f 2E       		.uleb128 0x2e
 3650 0340 01       		.byte	0x1
 3651 0341 3F       		.uleb128 0x3f
 3652 0342 19       		.uleb128 0x19
 3653 0343 03       		.uleb128 0x3
 3654 0344 0E       		.uleb128 0xe
 3655 0345 3A       		.uleb128 0x3a
 3656 0346 0B       		.uleb128 0xb
 3657 0347 3B       		.uleb128 0x3b
 3658 0348 05       		.uleb128 0x5
 3659 0349 27       		.uleb128 0x27
 3660 034a 19       		.uleb128 0x19
 3661 034b 11       		.uleb128 0x11
 3662 034c 01       		.uleb128 0x1
 3663 034d 12       		.uleb128 0x12
 3664 034e 06       		.uleb128 0x6
 3665 034f 40       		.uleb128 0x40
 3666 0350 18       		.uleb128 0x18
 3667 0351 9742     		.uleb128 0x2117
 3668 0353 19       		.uleb128 0x19
 3669 0354 01       		.uleb128 0x1
 3670 0355 13       		.uleb128 0x13
 3671 0356 00       		.byte	0
 3672 0357 00       		.byte	0
 3673 0358 3F       		.uleb128 0x3f
 3674 0359 1D       		.uleb128 0x1d
 3675 035a 01       		.byte	0x1
 3676 035b 31       		.uleb128 0x31
 3677 035c 13       		.uleb128 0x13
 3678 035d 52       		.uleb128 0x52
 3679 035e 01       		.uleb128 0x1
 3680 035f 55       		.uleb128 0x55
 3681 0360 17       		.uleb128 0x17
 3682 0361 58       		.uleb128 0x58
 3683 0362 0B       		.uleb128 0xb
 3684 0363 59       		.uleb128 0x59
 3685 0364 05       		.uleb128 0x5
 3686 0365 01       		.uleb128 0x1
 3687 0366 13       		.uleb128 0x13
 3688 0367 00       		.byte	0
 3689 0368 00       		.byte	0
ARM GAS  /tmp/ccrxrg1p.s 			page 66


 3690 0369 40       		.uleb128 0x40
 3691 036a 1D       		.uleb128 0x1d
 3692 036b 01       		.byte	0x1
 3693 036c 31       		.uleb128 0x31
 3694 036d 13       		.uleb128 0x13
 3695 036e 52       		.uleb128 0x52
 3696 036f 01       		.uleb128 0x1
 3697 0370 55       		.uleb128 0x55
 3698 0371 17       		.uleb128 0x17
 3699 0372 58       		.uleb128 0x58
 3700 0373 0B       		.uleb128 0xb
 3701 0374 59       		.uleb128 0x59
 3702 0375 05       		.uleb128 0x5
 3703 0376 00       		.byte	0
 3704 0377 00       		.byte	0
 3705 0378 41       		.uleb128 0x41
 3706 0379 0B       		.uleb128 0xb
 3707 037a 01       		.byte	0x1
 3708 037b 55       		.uleb128 0x55
 3709 037c 17       		.uleb128 0x17
 3710 037d 00       		.byte	0
 3711 037e 00       		.byte	0
 3712 037f 42       		.uleb128 0x42
 3713 0380 34       		.uleb128 0x34
 3714 0381 00       		.byte	0
 3715 0382 03       		.uleb128 0x3
 3716 0383 08       		.uleb128 0x8
 3717 0384 3A       		.uleb128 0x3a
 3718 0385 0B       		.uleb128 0xb
 3719 0386 3B       		.uleb128 0x3b
 3720 0387 05       		.uleb128 0x5
 3721 0388 49       		.uleb128 0x49
 3722 0389 13       		.uleb128 0x13
 3723 038a 02       		.uleb128 0x2
 3724 038b 18       		.uleb128 0x18
 3725 038c 00       		.byte	0
 3726 038d 00       		.byte	0
 3727 038e 43       		.uleb128 0x43
 3728 038f 898201   		.uleb128 0x4109
 3729 0392 00       		.byte	0
 3730 0393 11       		.uleb128 0x11
 3731 0394 01       		.uleb128 0x1
 3732 0395 9542     		.uleb128 0x2115
 3733 0397 19       		.uleb128 0x19
 3734 0398 31       		.uleb128 0x31
 3735 0399 13       		.uleb128 0x13
 3736 039a 00       		.byte	0
 3737 039b 00       		.byte	0
 3738 039c 44       		.uleb128 0x44
 3739 039d 34       		.uleb128 0x34
 3740 039e 00       		.byte	0
 3741 039f 03       		.uleb128 0x3
 3742 03a0 08       		.uleb128 0x8
 3743 03a1 3A       		.uleb128 0x3a
 3744 03a2 0B       		.uleb128 0xb
 3745 03a3 3B       		.uleb128 0x3b
 3746 03a4 05       		.uleb128 0x5
ARM GAS  /tmp/ccrxrg1p.s 			page 67


 3747 03a5 49       		.uleb128 0x49
 3748 03a6 13       		.uleb128 0x13
 3749 03a7 02       		.uleb128 0x2
 3750 03a8 17       		.uleb128 0x17
 3751 03a9 00       		.byte	0
 3752 03aa 00       		.byte	0
 3753 03ab 45       		.uleb128 0x45
 3754 03ac 0B       		.uleb128 0xb
 3755 03ad 01       		.byte	0x1
 3756 03ae 11       		.uleb128 0x11
 3757 03af 01       		.uleb128 0x1
 3758 03b0 12       		.uleb128 0x12
 3759 03b1 06       		.uleb128 0x6
 3760 03b2 01       		.uleb128 0x1
 3761 03b3 13       		.uleb128 0x13
 3762 03b4 00       		.byte	0
 3763 03b5 00       		.byte	0
 3764 03b6 46       		.uleb128 0x46
 3765 03b7 34       		.uleb128 0x34
 3766 03b8 00       		.byte	0
 3767 03b9 03       		.uleb128 0x3
 3768 03ba 0E       		.uleb128 0xe
 3769 03bb 3A       		.uleb128 0x3a
 3770 03bc 0B       		.uleb128 0xb
 3771 03bd 3B       		.uleb128 0x3b
 3772 03be 05       		.uleb128 0x5
 3773 03bf 49       		.uleb128 0x49
 3774 03c0 13       		.uleb128 0x13
 3775 03c1 3F       		.uleb128 0x3f
 3776 03c2 19       		.uleb128 0x19
 3777 03c3 3C       		.uleb128 0x3c
 3778 03c4 19       		.uleb128 0x19
 3779 03c5 00       		.byte	0
 3780 03c6 00       		.byte	0
 3781 03c7 47       		.uleb128 0x47
 3782 03c8 34       		.uleb128 0x34
 3783 03c9 00       		.byte	0
 3784 03ca 03       		.uleb128 0x3
 3785 03cb 08       		.uleb128 0x8
 3786 03cc 3A       		.uleb128 0x3a
 3787 03cd 0B       		.uleb128 0xb
 3788 03ce 3B       		.uleb128 0x3b
 3789 03cf 05       		.uleb128 0x5
 3790 03d0 49       		.uleb128 0x49
 3791 03d1 13       		.uleb128 0x13
 3792 03d2 3F       		.uleb128 0x3f
 3793 03d3 19       		.uleb128 0x19
 3794 03d4 3C       		.uleb128 0x3c
 3795 03d5 19       		.uleb128 0x19
 3796 03d6 00       		.byte	0
 3797 03d7 00       		.byte	0
 3798 03d8 48       		.uleb128 0x48
 3799 03d9 2E       		.uleb128 0x2e
 3800 03da 01       		.byte	0x1
 3801 03db 3F       		.uleb128 0x3f
 3802 03dc 19       		.uleb128 0x19
 3803 03dd 03       		.uleb128 0x3
ARM GAS  /tmp/ccrxrg1p.s 			page 68


 3804 03de 0E       		.uleb128 0xe
 3805 03df 3A       		.uleb128 0x3a
 3806 03e0 0B       		.uleb128 0xb
 3807 03e1 3B       		.uleb128 0x3b
 3808 03e2 05       		.uleb128 0x5
 3809 03e3 27       		.uleb128 0x27
 3810 03e4 19       		.uleb128 0x19
 3811 03e5 49       		.uleb128 0x49
 3812 03e6 13       		.uleb128 0x13
 3813 03e7 3C       		.uleb128 0x3c
 3814 03e8 19       		.uleb128 0x19
 3815 03e9 01       		.uleb128 0x1
 3816 03ea 13       		.uleb128 0x13
 3817 03eb 00       		.byte	0
 3818 03ec 00       		.byte	0
 3819 03ed 49       		.uleb128 0x49
 3820 03ee 2E       		.uleb128 0x2e
 3821 03ef 00       		.byte	0
 3822 03f0 3F       		.uleb128 0x3f
 3823 03f1 19       		.uleb128 0x19
 3824 03f2 03       		.uleb128 0x3
 3825 03f3 0E       		.uleb128 0xe
 3826 03f4 3A       		.uleb128 0x3a
 3827 03f5 0B       		.uleb128 0xb
 3828 03f6 3B       		.uleb128 0x3b
 3829 03f7 05       		.uleb128 0x5
 3830 03f8 27       		.uleb128 0x27
 3831 03f9 19       		.uleb128 0x19
 3832 03fa 3C       		.uleb128 0x3c
 3833 03fb 19       		.uleb128 0x19
 3834 03fc 00       		.byte	0
 3835 03fd 00       		.byte	0
 3836 03fe 4A       		.uleb128 0x4a
 3837 03ff 2E       		.uleb128 0x2e
 3838 0400 01       		.byte	0x1
 3839 0401 3F       		.uleb128 0x3f
 3840 0402 19       		.uleb128 0x19
 3841 0403 03       		.uleb128 0x3
 3842 0404 0E       		.uleb128 0xe
 3843 0405 3A       		.uleb128 0x3a
 3844 0406 0B       		.uleb128 0xb
 3845 0407 3B       		.uleb128 0x3b
 3846 0408 05       		.uleb128 0x5
 3847 0409 27       		.uleb128 0x27
 3848 040a 19       		.uleb128 0x19
 3849 040b 3C       		.uleb128 0x3c
 3850 040c 19       		.uleb128 0x19
 3851 040d 01       		.uleb128 0x1
 3852 040e 13       		.uleb128 0x13
 3853 040f 00       		.byte	0
 3854 0410 00       		.byte	0
 3855 0411 4B       		.uleb128 0x4b
 3856 0412 2E       		.uleb128 0x2e
 3857 0413 01       		.byte	0x1
 3858 0414 3F       		.uleb128 0x3f
 3859 0415 19       		.uleb128 0x19
 3860 0416 03       		.uleb128 0x3
ARM GAS  /tmp/ccrxrg1p.s 			page 69


 3861 0417 0E       		.uleb128 0xe
 3862 0418 3A       		.uleb128 0x3a
 3863 0419 0B       		.uleb128 0xb
 3864 041a 3B       		.uleb128 0x3b
 3865 041b 05       		.uleb128 0x5
 3866 041c 27       		.uleb128 0x27
 3867 041d 19       		.uleb128 0x19
 3868 041e 3C       		.uleb128 0x3c
 3869 041f 19       		.uleb128 0x19
 3870 0420 00       		.byte	0
 3871 0421 00       		.byte	0
 3872 0422 00       		.byte	0
 3873              		.section	.debug_loc,"",%progbits
 3874              	.Ldebug_loc0:
 3875              	.LLST0:
 3876 0000 00000000 		.4byte	.LVL1
 3877 0004 12000000 		.4byte	.LVL4
 3878 0008 0100     		.2byte	0x1
 3879 000a 50       		.byte	0x50
 3880 000b 12000000 		.4byte	.LVL4
 3881 000f 28000000 		.4byte	.LFE241
 3882 0013 0100     		.2byte	0x1
 3883 0015 54       		.byte	0x54
 3884 0016 00000000 		.4byte	0
 3885 001a 00000000 		.4byte	0
 3886              	.LLST1:
 3887 001e 00000000 		.4byte	.LVL1
 3888 0022 12000000 		.4byte	.LVL4
 3889 0026 0100     		.2byte	0x1
 3890 0028 51       		.byte	0x51
 3891 0029 12000000 		.4byte	.LVL4
 3892 002d 28000000 		.4byte	.LFE241
 3893 0031 0400     		.2byte	0x4
 3894 0033 F3       		.byte	0xf3
 3895 0034 01       		.uleb128 0x1
 3896 0035 51       		.byte	0x51
 3897 0036 9F       		.byte	0x9f
 3898 0037 00000000 		.4byte	0
 3899 003b 00000000 		.4byte	0
 3900              	.LLST2:
 3901 003f 04000000 		.4byte	.LVL2
 3902 0043 20000000 		.4byte	.LVL7
 3903 0047 0100     		.2byte	0x1
 3904 0049 55       		.byte	0x55
 3905 004a 20000000 		.4byte	.LVL7
 3906 004e 24000000 		.4byte	.LVL8
 3907 0052 0300     		.2byte	0x3
 3908 0054 75       		.byte	0x75
 3909 0055 7F       		.sleb128 -1
 3910 0056 9F       		.byte	0x9f
 3911 0057 24000000 		.4byte	.LVL8
 3912 005b 28000000 		.4byte	.LFE241
 3913 005f 0100     		.2byte	0x1
 3914 0061 55       		.byte	0x55
 3915 0062 00000000 		.4byte	0
 3916 0066 00000000 		.4byte	0
 3917              	.LLST3:
ARM GAS  /tmp/ccrxrg1p.s 			page 70


 3918 006a 12000000 		.4byte	.LVL4
 3919 006e 26000000 		.4byte	.LVL9
 3920 0072 0100     		.2byte	0x1
 3921 0074 54       		.byte	0x54
 3922 0075 00000000 		.4byte	0
 3923 0079 00000000 		.4byte	0
 3924              	.LLST4:
 3925 007d 14000000 		.4byte	.LVL5
 3926 0081 1D000000 		.4byte	.LVL6-1
 3927 0085 0100     		.2byte	0x1
 3928 0087 50       		.byte	0x50
 3929 0088 00000000 		.4byte	0
 3930 008c 00000000 		.4byte	0
 3931              	.LLST5:
 3932 0090 00000000 		.4byte	.LVL10
 3933 0094 0B000000 		.4byte	.LVL11-1
 3934 0098 0100     		.2byte	0x1
 3935 009a 50       		.byte	0x50
 3936 009b 0B000000 		.4byte	.LVL11-1
 3937 009f 18000000 		.4byte	.LFE240
 3938 00a3 0400     		.2byte	0x4
 3939 00a5 F3       		.byte	0xf3
 3940 00a6 01       		.uleb128 0x1
 3941 00a7 50       		.byte	0x50
 3942 00a8 9F       		.byte	0x9f
 3943 00a9 00000000 		.4byte	0
 3944 00ad 00000000 		.4byte	0
 3945              	.LLST6:
 3946 00b1 00000000 		.4byte	.LVL10
 3947 00b5 0B000000 		.4byte	.LVL11-1
 3948 00b9 0100     		.2byte	0x1
 3949 00bb 51       		.byte	0x51
 3950 00bc 0B000000 		.4byte	.LVL11-1
 3951 00c0 18000000 		.4byte	.LFE240
 3952 00c4 0400     		.2byte	0x4
 3953 00c6 F3       		.byte	0xf3
 3954 00c7 01       		.uleb128 0x1
 3955 00c8 51       		.byte	0x51
 3956 00c9 9F       		.byte	0x9f
 3957 00ca 00000000 		.4byte	0
 3958 00ce 00000000 		.4byte	0
 3959              	.LLST7:
 3960 00d2 00000000 		.4byte	.LVL13
 3961 00d6 10000000 		.4byte	.LVL14
 3962 00da 0100     		.2byte	0x1
 3963 00dc 50       		.byte	0x50
 3964 00dd 10000000 		.4byte	.LVL14
 3965 00e1 12000000 		.4byte	.LVL15
 3966 00e5 0100     		.2byte	0x1
 3967 00e7 53       		.byte	0x53
 3968 00e8 12000000 		.4byte	.LVL15
 3969 00ec 1C000000 		.4byte	.LVL16
 3970 00f0 0100     		.2byte	0x1
 3971 00f2 50       		.byte	0x50
 3972 00f3 1C000000 		.4byte	.LVL16
 3973 00f7 2D000000 		.4byte	.LVL19-1
 3974 00fb 0100     		.2byte	0x1
ARM GAS  /tmp/ccrxrg1p.s 			page 71


 3975 00fd 53       		.byte	0x53
 3976 00fe 2D000000 		.4byte	.LVL19-1
 3977 0102 34000000 		.4byte	.LFE243
 3978 0106 0400     		.2byte	0x4
 3979 0108 F3       		.byte	0xf3
 3980 0109 01       		.uleb128 0x1
 3981 010a 50       		.byte	0x50
 3982 010b 9F       		.byte	0x9f
 3983 010c 00000000 		.4byte	0
 3984 0110 00000000 		.4byte	0
 3985              	.LLST8:
 3986 0114 20000000 		.4byte	.LVL17
 3987 0118 2A000000 		.4byte	.LVL18
 3988 011c 0200     		.2byte	0x2
 3989 011e 72       		.byte	0x72
 3990 011f 24       		.sleb128 36
 3991 0120 2A000000 		.4byte	.LVL18
 3992 0124 2D000000 		.4byte	.LVL19-1
 3993 0128 0100     		.2byte	0x1
 3994 012a 53       		.byte	0x53
 3995 012b 2D000000 		.4byte	.LVL19-1
 3996 012f 34000000 		.4byte	.LFE243
 3997 0133 0400     		.2byte	0x4
 3998 0135 F3       		.byte	0xf3
 3999 0136 01       		.uleb128 0x1
 4000 0137 50       		.byte	0x50
 4001 0138 9F       		.byte	0x9f
 4002 0139 00000000 		.4byte	0
 4003 013d 00000000 		.4byte	0
 4004              	.LLST9:
 4005 0141 20000000 		.4byte	.LVL17
 4006 0145 2D000000 		.4byte	.LVL19-1
 4007 0149 0100     		.2byte	0x1
 4008 014b 52       		.byte	0x52
 4009 014c 00000000 		.4byte	0
 4010 0150 00000000 		.4byte	0
 4011              	.LLST10:
 4012 0154 00000000 		.4byte	.LVL20
 4013 0158 0B000000 		.4byte	.LVL21-1
 4014 015c 0100     		.2byte	0x1
 4015 015e 50       		.byte	0x50
 4016 015f 0B000000 		.4byte	.LVL21-1
 4017 0163 14000000 		.4byte	.LFE242
 4018 0167 0400     		.2byte	0x4
 4019 0169 F3       		.byte	0xf3
 4020 016a 01       		.uleb128 0x1
 4021 016b 50       		.byte	0x50
 4022 016c 9F       		.byte	0x9f
 4023 016d 00000000 		.4byte	0
 4024 0171 00000000 		.4byte	0
 4025              	.LLST11:
 4026 0175 00000000 		.4byte	.LVL22
 4027 0179 04000000 		.4byte	.LVL23
 4028 017d 0100     		.2byte	0x1
 4029 017f 50       		.byte	0x50
 4030 0180 04000000 		.4byte	.LVL23
 4031 0184 39000000 		.4byte	.LVL26-1
ARM GAS  /tmp/ccrxrg1p.s 			page 72


 4032 0188 0100     		.2byte	0x1
 4033 018a 53       		.byte	0x53
 4034 018b 39000000 		.4byte	.LVL26-1
 4035 018f 3A000000 		.4byte	.LVL26
 4036 0193 0400     		.2byte	0x4
 4037 0195 F3       		.byte	0xf3
 4038 0196 01       		.uleb128 0x1
 4039 0197 50       		.byte	0x50
 4040 0198 9F       		.byte	0x9f
 4041 0199 3A000000 		.4byte	.LVL26
 4042 019d 42000000 		.4byte	.LFE245
 4043 01a1 0100     		.2byte	0x1
 4044 01a3 53       		.byte	0x53
 4045 01a4 00000000 		.4byte	0
 4046 01a8 00000000 		.4byte	0
 4047              	.LLST12:
 4048 01ac 00000000 		.4byte	.LVL22
 4049 01b0 39000000 		.4byte	.LVL26-1
 4050 01b4 0100     		.2byte	0x1
 4051 01b6 51       		.byte	0x51
 4052 01b7 39000000 		.4byte	.LVL26-1
 4053 01bb 3A000000 		.4byte	.LVL26
 4054 01bf 0400     		.2byte	0x4
 4055 01c1 F3       		.byte	0xf3
 4056 01c2 01       		.uleb128 0x1
 4057 01c3 51       		.byte	0x51
 4058 01c4 9F       		.byte	0x9f
 4059 01c5 3A000000 		.4byte	.LVL26
 4060 01c9 42000000 		.4byte	.LFE245
 4061 01cd 0100     		.2byte	0x1
 4062 01cf 51       		.byte	0x51
 4063 01d0 00000000 		.4byte	0
 4064 01d4 00000000 		.4byte	0
 4065              	.LLST13:
 4066 01d8 28000000 		.4byte	.LVL24
 4067 01dc 32000000 		.4byte	.LVL25
 4068 01e0 0200     		.2byte	0x2
 4069 01e2 72       		.byte	0x72
 4070 01e3 24       		.sleb128 36
 4071 01e4 32000000 		.4byte	.LVL25
 4072 01e8 39000000 		.4byte	.LVL26-1
 4073 01ec 0100     		.2byte	0x1
 4074 01ee 53       		.byte	0x53
 4075 01ef 39000000 		.4byte	.LVL26-1
 4076 01f3 3A000000 		.4byte	.LVL26
 4077 01f7 0400     		.2byte	0x4
 4078 01f9 F3       		.byte	0xf3
 4079 01fa 01       		.uleb128 0x1
 4080 01fb 50       		.byte	0x50
 4081 01fc 9F       		.byte	0x9f
 4082 01fd 00000000 		.4byte	0
 4083 0201 00000000 		.4byte	0
 4084              	.LLST14:
 4085 0205 28000000 		.4byte	.LVL24
 4086 0209 39000000 		.4byte	.LVL26-1
 4087 020d 0100     		.2byte	0x1
 4088 020f 52       		.byte	0x52
ARM GAS  /tmp/ccrxrg1p.s 			page 73


 4089 0210 00000000 		.4byte	0
 4090 0214 00000000 		.4byte	0
 4091              	.LLST15:
 4092 0218 00000000 		.4byte	.LVL27
 4093 021c 0B000000 		.4byte	.LVL28-1
 4094 0220 0100     		.2byte	0x1
 4095 0222 50       		.byte	0x50
 4096 0223 0B000000 		.4byte	.LVL28-1
 4097 0227 14000000 		.4byte	.LFE244
 4098 022b 0400     		.2byte	0x4
 4099 022d F3       		.byte	0xf3
 4100 022e 01       		.uleb128 0x1
 4101 022f 50       		.byte	0x50
 4102 0230 9F       		.byte	0x9f
 4103 0231 00000000 		.4byte	0
 4104 0235 00000000 		.4byte	0
 4105              	.LLST16:
 4106 0239 00000000 		.4byte	.LVL27
 4107 023d 0B000000 		.4byte	.LVL28-1
 4108 0241 0100     		.2byte	0x1
 4109 0243 51       		.byte	0x51
 4110 0244 0B000000 		.4byte	.LVL28-1
 4111 0248 14000000 		.4byte	.LFE244
 4112 024c 0400     		.2byte	0x4
 4113 024e F3       		.byte	0xf3
 4114 024f 01       		.uleb128 0x1
 4115 0250 51       		.byte	0x51
 4116 0251 9F       		.byte	0x9f
 4117 0252 00000000 		.4byte	0
 4118 0256 00000000 		.4byte	0
 4119              	.LLST17:
 4120 025a 00000000 		.4byte	.LVL29
 4121 025e 1E000000 		.4byte	.LVL32
 4122 0262 0100     		.2byte	0x1
 4123 0264 50       		.byte	0x50
 4124 0265 1E000000 		.4byte	.LVL32
 4125 0269 29000000 		.4byte	.LVL33-1
 4126 026d 0100     		.2byte	0x1
 4127 026f 53       		.byte	0x53
 4128 0270 29000000 		.4byte	.LVL33-1
 4129 0274 32000000 		.4byte	.LFE246
 4130 0278 0400     		.2byte	0x4
 4131 027a F3       		.byte	0xf3
 4132 027b 01       		.uleb128 0x1
 4133 027c 50       		.byte	0x50
 4134 027d 9F       		.byte	0x9f
 4135 027e 00000000 		.4byte	0
 4136 0282 00000000 		.4byte	0
 4137              	.LLST18:
 4138 0286 14000000 		.4byte	.LVL30
 4139 028a 1C000000 		.4byte	.LVL31
 4140 028e 0200     		.2byte	0x2
 4141 0290 30       		.byte	0x30
 4142 0291 9F       		.byte	0x9f
 4143 0292 2A000000 		.4byte	.LVL33
 4144 0296 32000000 		.4byte	.LFE246
 4145 029a 0200     		.2byte	0x2
ARM GAS  /tmp/ccrxrg1p.s 			page 74


 4146 029c 30       		.byte	0x30
 4147 029d 9F       		.byte	0x9f
 4148 029e 00000000 		.4byte	0
 4149 02a2 00000000 		.4byte	0
 4150              	.LLST19:
 4151 02a6 1C000000 		.4byte	.LVL31
 4152 02aa 1E000000 		.4byte	.LVL32
 4153 02ae 0100     		.2byte	0x1
 4154 02b0 50       		.byte	0x50
 4155 02b1 1E000000 		.4byte	.LVL32
 4156 02b5 29000000 		.4byte	.LVL33-1
 4157 02b9 0100     		.2byte	0x1
 4158 02bb 53       		.byte	0x53
 4159 02bc 29000000 		.4byte	.LVL33-1
 4160 02c0 32000000 		.4byte	.LFE246
 4161 02c4 0400     		.2byte	0x4
 4162 02c6 F3       		.byte	0xf3
 4163 02c7 01       		.uleb128 0x1
 4164 02c8 50       		.byte	0x50
 4165 02c9 9F       		.byte	0x9f
 4166 02ca 00000000 		.4byte	0
 4167 02ce 00000000 		.4byte	0
 4168              	.LLST20:
 4169 02d2 1E000000 		.4byte	.LVL32
 4170 02d6 29000000 		.4byte	.LVL33-1
 4171 02da 0100     		.2byte	0x1
 4172 02dc 50       		.byte	0x50
 4173 02dd 00000000 		.4byte	0
 4174 02e1 00000000 		.4byte	0
 4175              	.LLST21:
 4176 02e5 00000000 		.4byte	.LVL34
 4177 02e9 22000000 		.4byte	.LVL37
 4178 02ed 0100     		.2byte	0x1
 4179 02ef 50       		.byte	0x50
 4180 02f0 22000000 		.4byte	.LVL37
 4181 02f4 29000000 		.4byte	.LVL38-1
 4182 02f8 0100     		.2byte	0x1
 4183 02fa 53       		.byte	0x53
 4184 02fb 29000000 		.4byte	.LVL38-1
 4185 02ff 2A000000 		.4byte	.LFE247
 4186 0303 0400     		.2byte	0x4
 4187 0305 F3       		.byte	0xf3
 4188 0306 01       		.uleb128 0x1
 4189 0307 50       		.byte	0x50
 4190 0308 9F       		.byte	0x9f
 4191 0309 00000000 		.4byte	0
 4192 030d 00000000 		.4byte	0
 4193              	.LLST22:
 4194 0311 14000000 		.4byte	.LVL35
 4195 0315 22000000 		.4byte	.LVL37
 4196 0319 0100     		.2byte	0x1
 4197 031b 50       		.byte	0x50
 4198 031c 22000000 		.4byte	.LVL37
 4199 0320 29000000 		.4byte	.LVL38-1
 4200 0324 0100     		.2byte	0x1
 4201 0326 53       		.byte	0x53
 4202 0327 29000000 		.4byte	.LVL38-1
ARM GAS  /tmp/ccrxrg1p.s 			page 75


 4203 032b 2A000000 		.4byte	.LFE247
 4204 032f 0400     		.2byte	0x4
 4205 0331 F3       		.byte	0xf3
 4206 0332 01       		.uleb128 0x1
 4207 0333 50       		.byte	0x50
 4208 0334 9F       		.byte	0x9f
 4209 0335 00000000 		.4byte	0
 4210 0339 00000000 		.4byte	0
 4211              	.LLST23:
 4212 033d 16000000 		.4byte	.LVL36
 4213 0341 29000000 		.4byte	.LVL38-1
 4214 0345 0100     		.2byte	0x1
 4215 0347 52       		.byte	0x52
 4216 0348 00000000 		.4byte	0
 4217 034c 00000000 		.4byte	0
 4218              	.LLST24:
 4219 0350 00000000 		.4byte	.LVL39
 4220 0354 0C000000 		.4byte	.LVL40
 4221 0358 0100     		.2byte	0x1
 4222 035a 50       		.byte	0x50
 4223 035b 0C000000 		.4byte	.LVL40
 4224 035f 2E000000 		.4byte	.LFE248
 4225 0363 0100     		.2byte	0x1
 4226 0365 55       		.byte	0x55
 4227 0366 00000000 		.4byte	0
 4228 036a 00000000 		.4byte	0
 4229              	.LLST25:
 4230 036e 00000000 		.4byte	.LVL39
 4231 0372 0C000000 		.4byte	.LVL40
 4232 0376 0100     		.2byte	0x1
 4233 0378 51       		.byte	0x51
 4234 0379 0C000000 		.4byte	.LVL40
 4235 037d 0E000000 		.4byte	.LVL41
 4236 0381 0300     		.2byte	0x3
 4237 0383 74       		.byte	0x74
 4238 0384 7F       		.sleb128 -1
 4239 0385 9F       		.byte	0x9f
 4240 0386 0E000000 		.4byte	.LVL41
 4241 038a 28000000 		.4byte	.LVL46
 4242 038e 0100     		.2byte	0x1
 4243 0390 54       		.byte	0x54
 4244 0391 28000000 		.4byte	.LVL46
 4245 0395 2A000000 		.4byte	.LVL47
 4246 0399 0300     		.2byte	0x3
 4247 039b 74       		.byte	0x74
 4248 039c 01       		.sleb128 1
 4249 039d 9F       		.byte	0x9f
 4250 039e 00000000 		.4byte	0
 4251 03a2 00000000 		.4byte	0
 4252              	.LLST26:
 4253 03a6 1A000000 		.4byte	.LVL43
 4254 03aa 2C000000 		.4byte	.LVL48
 4255 03ae 0100     		.2byte	0x1
 4256 03b0 55       		.byte	0x55
 4257 03b1 00000000 		.4byte	0
 4258 03b5 00000000 		.4byte	0
 4259              	.LLST27:
ARM GAS  /tmp/ccrxrg1p.s 			page 76


 4260 03b9 1C000000 		.4byte	.LVL44
 4261 03bd 25000000 		.4byte	.LVL45-1
 4262 03c1 0100     		.2byte	0x1
 4263 03c3 50       		.byte	0x50
 4264 03c4 00000000 		.4byte	0
 4265 03c8 00000000 		.4byte	0
 4266              	.LLST28:
 4267 03cc 00000000 		.4byte	.LVL49
 4268 03d0 16000000 		.4byte	.LVL50
 4269 03d4 0100     		.2byte	0x1
 4270 03d6 50       		.byte	0x50
 4271 03d7 16000000 		.4byte	.LVL50
 4272 03db 58000000 		.4byte	.LVL57
 4273 03df 0400     		.2byte	0x4
 4274 03e1 F3       		.byte	0xf3
 4275 03e2 01       		.uleb128 0x1
 4276 03e3 50       		.byte	0x50
 4277 03e4 9F       		.byte	0x9f
 4278 03e5 58000000 		.4byte	.LVL57
 4279 03e9 5A000000 		.4byte	.LVL58
 4280 03ed 0100     		.2byte	0x1
 4281 03ef 50       		.byte	0x50
 4282 03f0 5A000000 		.4byte	.LVL58
 4283 03f4 65000000 		.4byte	.LVL59-1
 4284 03f8 0100     		.2byte	0x1
 4285 03fa 53       		.byte	0x53
 4286 03fb 65000000 		.4byte	.LVL59-1
 4287 03ff 6E000000 		.4byte	.LFE249
 4288 0403 0400     		.2byte	0x4
 4289 0405 F3       		.byte	0xf3
 4290 0406 01       		.uleb128 0x1
 4291 0407 50       		.byte	0x50
 4292 0408 9F       		.byte	0x9f
 4293 0409 00000000 		.4byte	0
 4294 040d 00000000 		.4byte	0
 4295              	.LLST29:
 4296 0411 00000000 		.4byte	.LVL49
 4297 0415 16000000 		.4byte	.LVL50
 4298 0419 0100     		.2byte	0x1
 4299 041b 51       		.byte	0x51
 4300 041c 16000000 		.4byte	.LVL50
 4301 0420 58000000 		.4byte	.LVL57
 4302 0424 0400     		.2byte	0x4
 4303 0426 F3       		.byte	0xf3
 4304 0427 01       		.uleb128 0x1
 4305 0428 51       		.byte	0x51
 4306 0429 9F       		.byte	0x9f
 4307 042a 58000000 		.4byte	.LVL57
 4308 042e 65000000 		.4byte	.LVL59-1
 4309 0432 0100     		.2byte	0x1
 4310 0434 51       		.byte	0x51
 4311 0435 65000000 		.4byte	.LVL59-1
 4312 0439 6E000000 		.4byte	.LFE249
 4313 043d 0400     		.2byte	0x4
 4314 043f F3       		.byte	0xf3
 4315 0440 01       		.uleb128 0x1
 4316 0441 51       		.byte	0x51
ARM GAS  /tmp/ccrxrg1p.s 			page 77


 4317 0442 9F       		.byte	0x9f
 4318 0443 00000000 		.4byte	0
 4319 0447 00000000 		.4byte	0
 4320              	.LLST30:
 4321 044b 24000000 		.4byte	.LVL51
 4322 044f 26000000 		.4byte	.LVL52
 4323 0453 0200     		.2byte	0x2
 4324 0455 30       		.byte	0x30
 4325 0456 9F       		.byte	0x9f
 4326 0457 26000000 		.4byte	.LVL52
 4327 045b 30000000 		.4byte	.LVL53
 4328 045f 0100     		.2byte	0x1
 4329 0461 50       		.byte	0x50
 4330 0462 4E000000 		.4byte	.LVL56
 4331 0466 58000000 		.4byte	.LVL57
 4332 046a 0100     		.2byte	0x1
 4333 046c 50       		.byte	0x50
 4334 046d 00000000 		.4byte	0
 4335 0471 00000000 		.4byte	0
 4336              	.LLST31:
 4337 0475 26000000 		.4byte	.LVL52
 4338 0479 30000000 		.4byte	.LVL53
 4339 047d 0200     		.2byte	0x2
 4340 047f 30       		.byte	0x30
 4341 0480 9F       		.byte	0x9f
 4342 0481 4E000000 		.4byte	.LVL56
 4343 0485 58000000 		.4byte	.LVL57
 4344 0489 0200     		.2byte	0x2
 4345 048b 30       		.byte	0x30
 4346 048c 9F       		.byte	0x9f
 4347 048d 00000000 		.4byte	0
 4348 0491 00000000 		.4byte	0
 4349              	.LLST32:
 4350 0495 3C000000 		.4byte	.LVL54
 4351 0499 58000000 		.4byte	.LVL57
 4352 049d 0100     		.2byte	0x1
 4353 049f 54       		.byte	0x54
 4354 04a0 00000000 		.4byte	0
 4355 04a4 00000000 		.4byte	0
 4356              	.LLST33:
 4357 04a8 3C000000 		.4byte	.LVL54
 4358 04ac 4B000000 		.4byte	.LVL55-1
 4359 04b0 0100     		.2byte	0x1
 4360 04b2 51       		.byte	0x51
 4361 04b3 00000000 		.4byte	0
 4362 04b7 00000000 		.4byte	0
 4363              	.LLST35:
 4364 04bb 58000000 		.4byte	.LVL57
 4365 04bf 5A000000 		.4byte	.LVL58
 4366 04c3 0100     		.2byte	0x1
 4367 04c5 50       		.byte	0x50
 4368 04c6 5A000000 		.4byte	.LVL58
 4369 04ca 65000000 		.4byte	.LVL59-1
 4370 04ce 0100     		.2byte	0x1
 4371 04d0 53       		.byte	0x53
 4372 04d1 65000000 		.4byte	.LVL59-1
 4373 04d5 6E000000 		.4byte	.LFE249
ARM GAS  /tmp/ccrxrg1p.s 			page 78


 4374 04d9 0400     		.2byte	0x4
 4375 04db F3       		.byte	0xf3
 4376 04dc 01       		.uleb128 0x1
 4377 04dd 50       		.byte	0x50
 4378 04de 9F       		.byte	0x9f
 4379 04df 00000000 		.4byte	0
 4380 04e3 00000000 		.4byte	0
 4381              	.LLST36:
 4382 04e7 5A000000 		.4byte	.LVL58
 4383 04eb 65000000 		.4byte	.LVL59-1
 4384 04ef 0100     		.2byte	0x1
 4385 04f1 50       		.byte	0x50
 4386 04f2 00000000 		.4byte	0
 4387 04f6 00000000 		.4byte	0
 4388              		.section	.debug_aranges,"",%progbits
 4389 0000 6C000000 		.4byte	0x6c
 4390 0004 0200     		.2byte	0x2
 4391 0006 00000000 		.4byte	.Ldebug_info0
 4392 000a 04       		.byte	0x4
 4393 000b 00       		.byte	0
 4394 000c 0000     		.2byte	0
 4395 000e 0000     		.2byte	0
 4396 0010 00000000 		.4byte	.LFB239
 4397 0014 08000000 		.4byte	.LFE239-.LFB239
 4398 0018 00000000 		.4byte	.LFB241
 4399 001c 28000000 		.4byte	.LFE241-.LFB241
 4400 0020 00000000 		.4byte	.LFB240
 4401 0024 18000000 		.4byte	.LFE240-.LFB240
 4402 0028 00000000 		.4byte	.LFB243
 4403 002c 34000000 		.4byte	.LFE243-.LFB243
 4404 0030 00000000 		.4byte	.LFB242
 4405 0034 14000000 		.4byte	.LFE242-.LFB242
 4406 0038 00000000 		.4byte	.LFB245
 4407 003c 42000000 		.4byte	.LFE245-.LFB245
 4408 0040 00000000 		.4byte	.LFB244
 4409 0044 14000000 		.4byte	.LFE244-.LFB244
 4410 0048 00000000 		.4byte	.LFB246
 4411 004c 32000000 		.4byte	.LFE246-.LFB246
 4412 0050 00000000 		.4byte	.LFB247
 4413 0054 2A000000 		.4byte	.LFE247-.LFB247
 4414 0058 00000000 		.4byte	.LFB248
 4415 005c 2E000000 		.4byte	.LFE248-.LFB248
 4416 0060 00000000 		.4byte	.LFB249
 4417 0064 6E000000 		.4byte	.LFE249-.LFB249
 4418 0068 00000000 		.4byte	0
 4419 006c 00000000 		.4byte	0
 4420              		.section	.debug_ranges,"",%progbits
 4421              	.Ldebug_ranges0:
 4422 0000 02000000 		.4byte	.LBB119
 4423 0004 04000000 		.4byte	.LBE119
 4424 0008 06000000 		.4byte	.LBB126
 4425 000c 0A000000 		.4byte	.LBE126
 4426 0010 00000000 		.4byte	0
 4427 0014 00000000 		.4byte	0
 4428 0018 14000000 		.4byte	.LBB127
 4429 001c 1C000000 		.4byte	.LBE127
 4430 0020 2A000000 		.4byte	.LBB140
ARM GAS  /tmp/ccrxrg1p.s 			page 79


 4431 0024 32000000 		.4byte	.LBE140
 4432 0028 00000000 		.4byte	0
 4433 002c 00000000 		.4byte	0
 4434 0030 1C000000 		.4byte	.LBB136
 4435 0034 20000000 		.4byte	.LBE136
 4436 0038 22000000 		.4byte	.LBB139
 4437 003c 26000000 		.4byte	.LBE139
 4438 0040 00000000 		.4byte	0
 4439 0044 00000000 		.4byte	0
 4440 0048 14000000 		.4byte	.LBB141
 4441 004c 22000000 		.4byte	.LBE141
 4442 0050 26000000 		.4byte	.LBB146
 4443 0054 2A000000 		.4byte	.LBE146
 4444 0058 00000000 		.4byte	0
 4445 005c 00000000 		.4byte	0
 4446 0060 14000000 		.4byte	.LBB142
 4447 0064 18000000 		.4byte	.LBE142
 4448 0068 1A000000 		.4byte	.LBB145
 4449 006c 1E000000 		.4byte	.LBE145
 4450 0070 00000000 		.4byte	0
 4451 0074 00000000 		.4byte	0
 4452 0078 26000000 		.4byte	.LBB153
 4453 007c 2C000000 		.4byte	.LBE153
 4454 0080 4E000000 		.4byte	.LBB167
 4455 0084 54000000 		.4byte	.LBE167
 4456 0088 00000000 		.4byte	0
 4457 008c 00000000 		.4byte	0
 4458 0090 38000000 		.4byte	.LBB163
 4459 0094 3A000000 		.4byte	.LBE163
 4460 0098 3E000000 		.4byte	.LBB166
 4461 009c 46000000 		.4byte	.LBE166
 4462 00a0 00000000 		.4byte	0
 4463 00a4 00000000 		.4byte	0
 4464 00a8 00000000 		.4byte	.LFB239
 4465 00ac 08000000 		.4byte	.LFE239
 4466 00b0 00000000 		.4byte	.LFB241
 4467 00b4 28000000 		.4byte	.LFE241
 4468 00b8 00000000 		.4byte	.LFB240
 4469 00bc 18000000 		.4byte	.LFE240
 4470 00c0 00000000 		.4byte	.LFB243
 4471 00c4 34000000 		.4byte	.LFE243
 4472 00c8 00000000 		.4byte	.LFB242
 4473 00cc 14000000 		.4byte	.LFE242
 4474 00d0 00000000 		.4byte	.LFB245
 4475 00d4 42000000 		.4byte	.LFE245
 4476 00d8 00000000 		.4byte	.LFB244
 4477 00dc 14000000 		.4byte	.LFE244
 4478 00e0 00000000 		.4byte	.LFB246
 4479 00e4 32000000 		.4byte	.LFE246
 4480 00e8 00000000 		.4byte	.LFB247
 4481 00ec 2A000000 		.4byte	.LFE247
 4482 00f0 00000000 		.4byte	.LFB248
 4483 00f4 2E000000 		.4byte	.LFE248
 4484 00f8 00000000 		.4byte	.LFB249
 4485 00fc 6E000000 		.4byte	.LFE249
 4486 0100 00000000 		.4byte	0
 4487 0104 00000000 		.4byte	0
ARM GAS  /tmp/ccrxrg1p.s 			page 80


 4488              		.section	.debug_line,"",%progbits
 4489              	.Ldebug_line0:
 4490 0000 27040000 		.section	.debug_str,"MS",%progbits,1
 4490      0200FA01 
 4490      00000201 
 4490      FB0E0D00 
 4490      01010101 
 4491              	.LASF52:
 4492 0000 72656164 		.ascii	"ready_list_t\000"
 4492      795F6C69 
 4492      73745F74 
 4492      00
 4493              	.LASF112:
 4494 000d 71756575 		.ascii	"queue_insert\000"
 4494      655F696E 
 4494      73657274 
 4494      00
 4495              	.LASF123:
 4496 001a 63685365 		.ascii	"chSemSignalI\000"
 4496      6D536967 
 4496      6E616C49 
 4496      00
 4497              	.LASF94:
 4498 0027 77747472 		.ascii	"wttrp\000"
 4498      7000
 4499              	.LASF58:
 4500 002d 64656C74 		.ascii	"delta\000"
 4500      6100
 4501              	.LASF92:
 4502 0033 7264796D 		.ascii	"rdymsg\000"
 4502      736700
 4503              	.LASF18:
 4504 003a 75696E74 		.ascii	"uint64_t\000"
 4504      36345F74 
 4504      00
 4505              	.LASF4:
 4506 0043 5F5F7569 		.ascii	"__uint8_t\000"
 4506      6E74385F 
 4506      7400
 4507              	.LASF51:
 4508 004d 70726576 		.ascii	"prev\000"
 4508      00
 4509              	.LASF76:
 4510 0052 706F7274 		.ascii	"port_intctx\000"
 4510      5F696E74 
 4510      63747800 
 4511              	.LASF63:
 4512 005e 73797374 		.ascii	"system_debug_t\000"
 4512      656D5F64 
 4512      65627567 
 4512      5F7400
 4513              	.LASF82:
 4514 006d 74797065 		.ascii	"type\000"
 4514      00
 4515              	.LASF104:
 4516 0072 706F7274 		.ascii	"port_lock\000"
 4516      5F6C6F63 
ARM GAS  /tmp/ccrxrg1p.s 			page 81


 4516      6B00
 4517              	.LASF113:
 4518 007c 71756575 		.ascii	"queue_lifo_remove\000"
 4518      655F6C69 
 4518      666F5F72 
 4518      656D6F76 
 4518      6500
 4519              	.LASF122:
 4520 008e 63685365 		.ascii	"chSemSignal\000"
 4520      6D536967 
 4520      6E616C00 
 4521              	.LASF89:
 4522 009a 63685F74 		.ascii	"ch_trace_buffer_t\000"
 4522      72616365 
 4522      5F627566 
 4522      6665725F 
 4522      7400
 4523              	.LASF102:
 4524 00ac 73656D61 		.ascii	"semaphore_t\000"
 4524      70686F72 
 4524      655F7400 
 4525              	.LASF93:
 4526 00b8 65786974 		.ascii	"exitcode\000"
 4526      636F6465 
 4526      00
 4527              	.LASF71:
 4528 00c1 6D61696E 		.ascii	"mainthread\000"
 4528      74687265 
 4528      616400
 4529              	.LASF95:
 4530 00cc 73656E74 		.ascii	"sentmsg\000"
 4530      6D736700 
 4531              	.LASF124:
 4532 00d4 63685365 		.ascii	"chSemAddCounterI\000"
 4532      6D416464 
 4532      436F756E 
 4532      74657249 
 4532      00
 4533              	.LASF126:
 4534 00e5 49544D5F 		.ascii	"ITM_RxBuffer\000"
 4534      52784275 
 4534      66666572 
 4534      00
 4535              	.LASF48:
 4536 00f2 6E657874 		.ascii	"next\000"
 4536      00
 4537              	.LASF50:
 4538 00f7 63685F74 		.ascii	"ch_threads_queue\000"
 4538      68726561 
 4538      64735F71 
 4538      75657565 
 4538      00
 4539              	.LASF11:
 4540 0108 6C6F6E67 		.ascii	"long long int\000"
 4540      206C6F6E 
 4540      6720696E 
 4540      7400
ARM GAS  /tmp/ccrxrg1p.s 			page 82


 4541              	.LASF1:
 4542 0116 7369676E 		.ascii	"signed char\000"
 4542      65642063 
 4542      68617200 
 4543              	.LASF125:
 4544 0122 63685365 		.ascii	"chSemSignalWait\000"
 4544      6D536967 
 4544      6E616C57 
 4544      61697400 
 4545              	.LASF87:
 4546 0132 73697A65 		.ascii	"size\000"
 4546      00
 4547              	.LASF13:
 4548 0137 6C6F6E67 		.ascii	"long long unsigned int\000"
 4548      206C6F6E 
 4548      6720756E 
 4548      7369676E 
 4548      65642069 
 4549              	.LASF70:
 4550 014e 76746C69 		.ascii	"vtlist\000"
 4550      737400
 4551              	.LASF105:
 4552 0155 706F7274 		.ascii	"port_unlock\000"
 4552      5F756E6C 
 4552      6F636B00 
 4553              	.LASF35:
 4554 0161 73746174 		.ascii	"state\000"
 4554      6500
 4555              	.LASF8:
 4556 0167 6C6F6E67 		.ascii	"long int\000"
 4556      20696E74 
 4556      00
 4557              	.LASF21:
 4558 0170 74737461 		.ascii	"tstate_t\000"
 4558      74655F74 
 4558      00
 4559              	.LASF85:
 4560 0179 63685F74 		.ascii	"ch_trace_event_t\000"
 4560      72616365 
 4560      5F657665 
 4560      6E745F74 
 4560      00
 4561              	.LASF59:
 4562 018a 66756E63 		.ascii	"func\000"
 4562      00
 4563              	.LASF128:
 4564 018f 63685363 		.ascii	"chSchGoSleepTimeoutS\000"
 4564      68476F53 
 4564      6C656570 
 4564      54696D65 
 4564      6F757453 
 4565              	.LASF15:
 4566 01a4 75696E74 		.ascii	"uint16_t\000"
 4566      31365F74 
 4566      00
 4567              	.LASF88:
 4568 01ad 62756666 		.ascii	"buffer\000"
ARM GAS  /tmp/ccrxrg1p.s 			page 83


 4568      657200
 4569              	.LASF132:
 4570 01b4 63685363 		.ascii	"chSchRescheduleS\000"
 4570      68526573 
 4570      63686564 
 4570      756C6553 
 4570      00
 4571              	.LASF9:
 4572 01c5 5F5F7569 		.ascii	"__uint32_t\000"
 4572      6E743332 
 4572      5F7400
 4573              	.LASF73:
 4574 01d0 72656761 		.ascii	"regarm_t\000"
 4574      726D5F74 
 4574      00
 4575              	.LASF38:
 4576 01d9 77616974 		.ascii	"waiting\000"
 4576      696E6700 
 4577              	.LASF103:
 4578 01e1 6D757465 		.ascii	"mutex_t\000"
 4578      785F7400 
 4579              	.LASF108:
 4580 01e9 76616C75 		.ascii	"value\000"
 4580      6500
 4581              	.LASF115:
 4582 01ef 63685365 		.ascii	"chSemObjectInit\000"
 4582      6D4F626A 
 4582      65637449 
 4582      6E697400 
 4583              	.LASF26:
 4584 01ff 636E745F 		.ascii	"cnt_t\000"
 4584      7400
 4585              	.LASF39:
 4586 0205 6D736771 		.ascii	"msgqueue\000"
 4586      75657565 
 4586      00
 4587              	.LASF0:
 4588 020e 756E7369 		.ascii	"unsigned int\000"
 4588      676E6564 
 4588      20696E74 
 4588      00
 4589              	.LASF121:
 4590 021b 63685365 		.ascii	"chSemWaitTimeout\000"
 4590      6D576169 
 4590      7454696D 
 4590      656F7574 
 4590      00
 4591              	.LASF131:
 4592 022c 2F686F6D 		.ascii	"/home/johnnyco/Documentos/Embebidos/Chibios Johnny/"
 4592      652F6A6F 
 4592      686E6E79 
 4592      636F2F44 
 4592      6F63756D 
 4593 025f 43686962 		.ascii	"ChibiOS-Contrib/testhal/STM32/STM32F4xx/1WIRE + RTC"
 4593      694F532D 
 4593      436F6E74 
 4593      7269622F 
ARM GAS  /tmp/ccrxrg1p.s 			page 84


 4593      74657374 
 4594 0292 202B2055 		.ascii	" + UART + PWM + ADC 1.0\000"
 4594      41525420 
 4594      2B205057 
 4594      4D202B20 
 4594      41444320 
 4595              	.LASF96:
 4596 02aa 77747365 		.ascii	"wtsemp\000"
 4596      6D7000
 4597              	.LASF10:
 4598 02b1 6C6F6E67 		.ascii	"long unsigned int\000"
 4598      20756E73 
 4598      69676E65 
 4598      6420696E 
 4598      7400
 4599              	.LASF117:
 4600 02c3 63685365 		.ascii	"chSemReset\000"
 4600      6D526573 
 4600      657400
 4601              	.LASF33:
 4602 02ce 6E616D65 		.ascii	"name\000"
 4602      00
 4603              	.LASF29:
 4604 02d3 71756575 		.ascii	"queue\000"
 4604      6500
 4605              	.LASF43:
 4606 02d9 6D706F6F 		.ascii	"mpool\000"
 4606      6C00
 4607              	.LASF6:
 4608 02df 73686F72 		.ascii	"short unsigned int\000"
 4608      7420756E 
 4608      7369676E 
 4608      65642069 
 4608      6E7400
 4609              	.LASF46:
 4610 02f2 63685F74 		.ascii	"ch_thread\000"
 4610      68726561 
 4610      6400
 4611              	.LASF107:
 4612 02fc 71756575 		.ascii	"queue_init\000"
 4612      655F696E 
 4612      697400
 4613              	.LASF24:
 4614 0307 6D73675F 		.ascii	"msg_t\000"
 4614      7400
 4615              	.LASF40:
 4616 030d 6570656E 		.ascii	"epending\000"
 4616      64696E67 
 4616      00
 4617              	.LASF67:
 4618 0316 63685F73 		.ascii	"ch_system_t\000"
 4618      79737465 
 4618      6D5F7400 
 4619              	.LASF20:
 4620 0322 746D6F64 		.ascii	"tmode_t\000"
 4620      655F7400 
 4621              	.LASF53:
ARM GAS  /tmp/ccrxrg1p.s 			page 85


 4622 032a 63685F72 		.ascii	"ch_ready_list\000"
 4622      65616479 
 4622      5F6C6973 
 4622      7400
 4623              	.LASF25:
 4624 0338 6576656E 		.ascii	"eventmask_t\000"
 4624      746D6173 
 4624      6B5F7400 
 4625              	.LASF7:
 4626 0344 5F5F696E 		.ascii	"__int32_t\000"
 4626      7433325F 
 4626      7400
 4627              	.LASF60:
 4628 034e 76697274 		.ascii	"virtual_timers_list_t\000"
 4628      75616C5F 
 4628      74696D65 
 4628      72735F6C 
 4628      6973745F 
 4629              	.LASF74:
 4630 0364 73746B61 		.ascii	"stkalign_t\000"
 4630      6C69676E 
 4630      5F7400
 4631              	.LASF31:
 4632 036f 6E657765 		.ascii	"newer\000"
 4632      7200
 4633              	.LASF83:
 4634 0375 72747374 		.ascii	"rtstamp\000"
 4634      616D7000 
 4635              	.LASF42:
 4636 037d 7265616C 		.ascii	"realprio\000"
 4636      7072696F 
 4636      00
 4637              	.LASF72:
 4638 0386 73697A65 		.ascii	"sizetype\000"
 4638      74797065 
 4638      00
 4639              	.LASF44:
 4640 038f 74687265 		.ascii	"thread_reference_t\000"
 4640      61645F72 
 4640      65666572 
 4640      656E6365 
 4640      5F7400
 4641              	.LASF61:
 4642 03a2 63685F76 		.ascii	"ch_virtual_timers_list\000"
 4642      69727475 
 4642      616C5F74 
 4642      696D6572 
 4642      735F6C69 
 4643              	.LASF86:
 4644 03b9 73757370 		.ascii	"suspended\000"
 4644      656E6465 
 4644      6400
 4645              	.LASF109:
 4646 03c3 63685379 		.ascii	"chSysLock\000"
 4646      734C6F63 
 4646      6B00
 4647              	.LASF75:
ARM GAS  /tmp/ccrxrg1p.s 			page 86


 4648 03cd 706F7274 		.ascii	"port_context\000"
 4648      5F636F6E 
 4648      74657874 
 4648      00
 4649              	.LASF91:
 4650 03da 746D5F63 		.ascii	"tm_calibration_t\000"
 4650      616C6962 
 4650      72617469 
 4650      6F6E5F74 
 4650      00
 4651              	.LASF84:
 4652 03eb 74696D65 		.ascii	"time\000"
 4652      00
 4653              	.LASF30:
 4654 03f0 7072696F 		.ascii	"prio\000"
 4654      00
 4655              	.LASF54:
 4656 03f5 63757272 		.ascii	"current\000"
 4656      656E7400 
 4657              	.LASF12:
 4658 03fd 5F5F7569 		.ascii	"__uint64_t\000"
 4658      6E743634 
 4658      5F7400
 4659              	.LASF130:
 4660 0408 2E2E2F2E 		.ascii	"../../../../../ChibiOS-RT/os/rt/src/chsem.c\000"
 4660      2E2F2E2E 
 4660      2F2E2E2F 
 4660      2E2E2F43 
 4660      68696269 
 4661              	.LASF22:
 4662 0434 74726566 		.ascii	"trefs_t\000"
 4662      735F7400 
 4663              	.LASF37:
 4664 043c 72656673 		.ascii	"refs\000"
 4664      00
 4665              	.LASF56:
 4666 0441 76697274 		.ascii	"virtual_timer_t\000"
 4666      75616C5F 
 4666      74696D65 
 4666      725F7400 
 4667              	.LASF81:
 4668 0451 75736572 		.ascii	"user\000"
 4668      00
 4669              	.LASF23:
 4670 0456 74707269 		.ascii	"tprio_t\000"
 4670      6F5F7400 
 4671              	.LASF64:
 4672 045e 63685F73 		.ascii	"ch_system_debug\000"
 4672      79737465 
 4672      6D5F6465 
 4672      62756700 
 4673              	.LASF16:
 4674 046e 696E7433 		.ascii	"int32_t\000"
 4674      325F7400 
 4675              	.LASF2:
 4676 0476 756E7369 		.ascii	"unsigned char\000"
 4676      676E6564 
ARM GAS  /tmp/ccrxrg1p.s 			page 87


 4676      20636861 
 4676      7200
 4677              	.LASF3:
 4678 0484 73686F72 		.ascii	"short int\000"
 4678      7420696E 
 4678      7400
 4679              	.LASF62:
 4680 048e 6C617374 		.ascii	"lasttime\000"
 4680      74696D65 
 4680      00
 4681              	.LASF80:
 4682 0497 68616C74 		.ascii	"halt\000"
 4682      00
 4683              	.LASF98:
 4684 049c 65776D61 		.ascii	"ewmask\000"
 4684      736B00
 4685              	.LASF68:
 4686 04a3 63685F73 		.ascii	"ch_system\000"
 4686      79737465 
 4686      6D00
 4687              	.LASF111:
 4688 04ad 5F5F6675 		.ascii	"__func__\000"
 4688      6E635F5F 
 4688      00
 4689              	.LASF118:
 4690 04b6 63685365 		.ascii	"chSemWaitS\000"
 4690      6D576169 
 4690      745300
 4691              	.LASF79:
 4692 04c1 72656173 		.ascii	"reason\000"
 4692      6F6E00
 4693              	.LASF57:
 4694 04c8 63685F76 		.ascii	"ch_virtual_timer\000"
 4694      69727475 
 4694      616C5F74 
 4694      696D6572 
 4694      00
 4695              	.LASF99:
 4696 04d9 63685F73 		.ascii	"ch_semaphore\000"
 4696      656D6170 
 4696      686F7265 
 4696      00
 4697              	.LASF133:
 4698 04e6 63685363 		.ascii	"chSchGoSleepS\000"
 4698      68476F53 
 4698      6C656570 
 4698      5300
 4699              	.LASF17:
 4700 04f4 75696E74 		.ascii	"uint32_t\000"
 4700      33325F74 
 4700      00
 4701              	.LASF97:
 4702 04fd 77746D74 		.ascii	"wtmtxp\000"
 4702      787000
 4703              	.LASF127:
 4704 0504 63685363 		.ascii	"chSchReadyI\000"
 4704      68526561 
ARM GAS  /tmp/ccrxrg1p.s 			page 88


 4704      64794900 
 4705              	.LASF47:
 4706 0510 63685F74 		.ascii	"ch_threads_list\000"
 4706      68726561 
 4706      64735F6C 
 4706      69737400 
 4707              	.LASF101:
 4708 0520 6F776E65 		.ascii	"owner\000"
 4708      7200
 4709              	.LASF34:
 4710 0526 77616261 		.ascii	"wabase\000"
 4710      736500
 4711              	.LASF78:
 4712 052d 63686172 		.ascii	"char\000"
 4712      00
 4713              	.LASF32:
 4714 0532 6F6C6465 		.ascii	"older\000"
 4714      7200
 4715              	.LASF120:
 4716 0538 63685365 		.ascii	"chSemWaitTimeoutS\000"
 4716      6D576169 
 4716      7454696D 
 4716      656F7574 
 4716      5300
 4717              	.LASF5:
 4718 054a 5F5F7569 		.ascii	"__uint16_t\000"
 4718      6E743136 
 4718      5F7400
 4719              	.LASF28:
 4720 0555 74687265 		.ascii	"thread_t\000"
 4720      61645F74 
 4720      00
 4721              	.LASF114:
 4722 055e 71756575 		.ascii	"queue_fifo_remove\000"
 4722      655F6669 
 4722      666F5F72 
 4722      656D6F76 
 4722      6500
 4723              	.LASF27:
 4724 0570 73797374 		.ascii	"systime_t\000"
 4724      696D655F 
 4724      7400
 4725              	.LASF55:
 4726 057a 76746675 		.ascii	"vtfunc_t\000"
 4726      6E635F74 
 4726      00
 4727              	.LASF106:
 4728 0583 5F5F7365 		.ascii	"__set_BASEPRI\000"
 4728      745F4241 
 4728      53455052 
 4728      4900
 4729              	.LASF119:
 4730 0591 63685365 		.ascii	"chSemWait\000"
 4730      6D576169 
 4730      7400
 4731              	.LASF65:
 4732 059b 70616E69 		.ascii	"panic_msg\000"
ARM GAS  /tmp/ccrxrg1p.s 			page 89


 4732      635F6D73 
 4732      6700
 4733              	.LASF90:
 4734 05a5 6F666673 		.ascii	"offset\000"
 4734      657400
 4735              	.LASF19:
 4736 05ac 7274636E 		.ascii	"rtcnt_t\000"
 4736      745F7400 
 4737              	.LASF129:
 4738 05b4 474E5520 		.ascii	"GNU C 4.8.2 -mcpu=cortex-m4 -mno-thumb-interwork -m"
 4738      4320342E 
 4738      382E3220 
 4738      2D6D6370 
 4738      753D636F 
 4739 05e7 7468756D 		.ascii	"thumb -ggdb -O2 -fomit-frame-pointer -falign-functi"
 4739      62202D67 
 4739      67646220 
 4739      2D4F3220 
 4739      2D666F6D 
 4740 061a 6F6E733D 		.ascii	"ons=16 -ffunction-sections -fdata-sections -fno-com"
 4740      3136202D 
 4740      6666756E 
 4740      6374696F 
 4740      6E2D7365 
 4741 064d 6D6F6E00 		.ascii	"mon\000"
 4742              	.LASF134:
 4743 0651 63685363 		.ascii	"chSchWakeupS\000"
 4743      6857616B 
 4743      65757053 
 4743      00
 4744              	.LASF49:
 4745 065e 74687265 		.ascii	"threads_queue_t\000"
 4745      6164735F 
 4745      71756575 
 4745      655F7400 
 4746              	.LASF100:
 4747 066e 63685F6D 		.ascii	"ch_mutex\000"
 4747      75746578 
 4747      00
 4748              	.LASF116:
 4749 0677 63685365 		.ascii	"chSemResetI\000"
 4749      6D526573 
 4749      65744900 
 4750              	.LASF69:
 4751 0683 726C6973 		.ascii	"rlist\000"
 4751      7400
 4752              	.LASF14:
 4753 0689 75696E74 		.ascii	"uint8_t\000"
 4753      385F7400 
 4754              	.LASF36:
 4755 0691 666C6167 		.ascii	"flags\000"
 4755      7300
 4756              	.LASF77:
 4757 0697 77746F62 		.ascii	"wtobjp\000"
 4757      6A7000
 4758              	.LASF45:
 4759 069e 74687265 		.ascii	"threads_list_t\000"
ARM GAS  /tmp/ccrxrg1p.s 			page 90


 4759      6164735F 
 4759      6C697374 
 4759      5F7400
 4760              	.LASF66:
 4761 06ad 74726163 		.ascii	"trace_buffer\000"
 4761      655F6275 
 4761      66666572 
 4761      00
 4762              	.LASF110:
 4763 06ba 63685379 		.ascii	"chSysUnlock\000"
 4763      73556E6C 
 4763      6F636B00 
 4764              	.LASF41:
 4765 06c6 6D74786C 		.ascii	"mtxlist\000"
 4765      69737400 
 4766              		.ident	"GCC: (4.8.2-14ubuntu1+6) 4.8.2"
ARM GAS  /tmp/ccrxrg1p.s 			page 91


DEFINED SYMBOLS
                            *ABS*:0000000000000000 chsem.c
     /tmp/ccrxrg1p.s:19     .text.chSemObjectInit:0000000000000000 $t
     /tmp/ccrxrg1p.s:25     .text.chSemObjectInit:0000000000000000 chSemObjectInit
     /tmp/ccrxrg1p.s:50     .text.chSemResetI:0000000000000000 $t
     /tmp/ccrxrg1p.s:56     .text.chSemResetI:0000000000000000 chSemResetI
     /tmp/ccrxrg1p.s:117    .text.chSemReset:0000000000000000 $t
     /tmp/ccrxrg1p.s:123    .text.chSemReset:0000000000000000 chSemReset
     /tmp/ccrxrg1p.s:176    .text.chSemWaitS:0000000000000000 $t
     /tmp/ccrxrg1p.s:182    .text.chSemWaitS:0000000000000000 chSemWaitS
     /tmp/ccrxrg1p.s:246    .text.chSemWait:0000000000000000 $t
     /tmp/ccrxrg1p.s:252    .text.chSemWait:0000000000000000 chSemWait
     /tmp/ccrxrg1p.s:302    .text.chSemWaitTimeoutS:0000000000000000 $t
     /tmp/ccrxrg1p.s:308    .text.chSemWaitTimeoutS:0000000000000000 chSemWaitTimeoutS
     /tmp/ccrxrg1p.s:375    .text.chSemWaitTimeout:0000000000000000 $t
     /tmp/ccrxrg1p.s:381    .text.chSemWaitTimeout:0000000000000000 chSemWaitTimeout
     /tmp/ccrxrg1p.s:431    .text.chSemSignal:0000000000000000 $t
     /tmp/ccrxrg1p.s:437    .text.chSemSignal:0000000000000000 chSemSignal
     /tmp/ccrxrg1p.s:542    .text.chSemSignalI:0000000000000000 $t
     /tmp/ccrxrg1p.s:548    .text.chSemSignalI:0000000000000000 chSemSignalI
     /tmp/ccrxrg1p.s:611    .text.chSemAddCounterI:0000000000000000 $t
     /tmp/ccrxrg1p.s:617    .text.chSemAddCounterI:0000000000000000 chSemAddCounterI
     /tmp/ccrxrg1p.s:684    .text.chSemSignalWait:0000000000000000 $t
     /tmp/ccrxrg1p.s:690    .text.chSemSignalWait:0000000000000000 chSemSignalWait
                     .debug_frame:0000000000000010 $d

UNDEFINED SYMBOLS
chSchReadyI
chSchRescheduleS
ch
chSchGoSleepS
chSchGoSleepTimeoutS
chSchWakeupS
