ARM GAS  /tmp/ccrxrg1p.s 			page 1


   1              		.syntax unified
   2              		.cpu cortex-m4
   3              		.fpu softvfp
   4              		.eabi_attribute 20, 1
   5              		.eabi_attribute 21, 1
   6              		.eabi_attribute 23, 3
   7              		.eabi_attribute 24, 1
   8              		.eabi_attribute 25, 1
   9              		.eabi_attribute 26, 1
  10              		.eabi_attribute 30, 2
  11              		.eabi_attribute 34, 1
  12              		.eabi_attribute 18, 4
  13              		.thumb
  14              		.file	"chsem.c"
  15              		.text
  16              	.Ltext0:
  17              		.cfi_sections	.debug_frame
  18              		.section	.text.chSemObjectInit,"ax",%progbits
  19              		.align	2
  20              		.p2align 4,,15
  21              		.global	chSemObjectInit
  22              		.thumb
  23              		.thumb_func
  24              		.type	chSemObjectInit, %function
  25              	chSemObjectInit:
  26              	.LFB239:
  27              		.file 1 "../../../../../ChibiOS-RT/os/rt/src/chsem.c"
  28              		.loc 1 97 0
  29              		.cfi_startproc
  30              		@ args = 0, pretend = 0, frame = 0
  31              		@ frame_needed = 0, uses_anonymous_args = 0
  32              		@ link register save eliminated.
  33              	.LVL0:
  34              	.LBB84:
  35              	.LBB85:
  36              		.file 2 "../../../../../ChibiOS-RT/os/rt/include/chschd.h"
  37              		.loc 2 550 0
  38 0000 0060     		str	r0, [r0]
  39              		.loc 2 551 0
  40 0002 4060     		str	r0, [r0, #4]
  41              	.LBE85:
  42              	.LBE84:
  43              		.loc 1 102 0
  44 0004 8160     		str	r1, [r0, #8]
  45 0006 7047     		bx	lr
  46              		.cfi_endproc
  47              	.LFE239:
  48              		.size	chSemObjectInit, .-chSemObjectInit
  49 0008 AFF30080 		.section	.text.chSemResetI,"ax",%progbits
  49      AFF30080 
  50              		.align	2
  51              		.p2align 4,,15
  52              		.global	chSemResetI
  53              		.thumb
  54              		.thumb_func
  55              		.type	chSemResetI, %function
  56              	chSemResetI:
ARM GAS  /tmp/ccrxrg1p.s 			page 2


  57              	.LFB241:
  58              		.loc 1 147 0
  59              		.cfi_startproc
  60              		@ args = 0, pretend = 0, frame = 0
  61              		@ frame_needed = 0, uses_anonymous_args = 0
  62              	.LVL1:
  63 0000 70B5     		push	{r4, r5, r6, lr}
  64              		.cfi_def_cfa_offset 16
  65              		.cfi_offset 4, -16
  66              		.cfi_offset 5, -12
  67              		.cfi_offset 6, -8
  68              		.cfi_offset 14, -4
  69              		.loc 1 156 0
  70 0002 8568     		ldr	r5, [r0, #8]
  71              	.LVL2:
  72              		.loc 1 157 0
  73 0004 8160     		str	r1, [r0, #8]
  74              		.loc 1 158 0
  75 0006 0135     		adds	r5, r5, #1
  76              	.LVL3:
  77 0008 002D     		cmp	r5, #0
  78              		.loc 1 147 0
  79 000a 0446     		mov	r4, r0
  80              		.loc 1 158 0
  81 000c 0BDC     		bgt	.L2
  82              		.loc 1 159 0
  83 000e 6FF00106 		mvn	r6, #1
  84              	.LVL4:
  85              	.L5:
  86              	.LBB86:
  87              	.LBB87:
  88              		.loc 2 627 0
  89 0012 6068     		ldr	r0, [r4, #4]
  90              	.LVL5:
  91              		.loc 2 629 0
  92 0014 4368     		ldr	r3, [r0, #4]
  93 0016 6360     		str	r3, [r4, #4]
  94              		.loc 2 630 0
  95 0018 1C60     		str	r4, [r3]
  96              	.LBE87:
  97              	.LBE86:
  98              		.loc 1 159 0
  99 001a FFF7FEFF 		bl	chSchReadyI
 100              	.LVL6:
 101              		.loc 1 158 0
 102 001e 0135     		adds	r5, r5, #1
 103              	.LVL7:
 104 0020 012D     		cmp	r5, #1
 105              		.loc 1 159 0
 106 0022 4662     		str	r6, [r0, #36]
 107              	.LVL8:
 108              		.loc 1 158 0
 109 0024 F5D1     		bne	.L5
 110              	.LVL9:
 111              	.L2:
 112 0026 70BD     		pop	{r4, r5, r6, pc}
 113              		.cfi_endproc
ARM GAS  /tmp/ccrxrg1p.s 			page 3


 114              	.LFE241:
 115              		.size	chSemResetI, .-chSemResetI
 116 0028 AFF30080 		.section	.text.chSemReset,"ax",%progbits
 116      AFF30080 
 117              		.align	2
 118              		.p2align 4,,15
 119              		.global	chSemReset
 120              		.thumb
 121              		.thumb_func
 122              		.type	chSemReset, %function
 123              	chSemReset:
 124              	.LFB240:
 125              		.loc 1 120 0
 126              		.cfi_startproc
 127              		@ args = 0, pretend = 0, frame = 0
 128              		@ frame_needed = 0, uses_anonymous_args = 0
 129              	.LVL10:
 130 0000 08B5     		push	{r3, lr}
 131              		.cfi_def_cfa_offset 8
 132              		.cfi_offset 3, -8
 133              		.cfi_offset 14, -4
 134              	.LBB88:
 135              	.LBB89:
 136              	.LBB90:
 137              	.LBB91:
 138              		.file 3 "../../../../../ChibiOS-RT/os/common/ext/CMSIS/include/cmsis_gcc.h"
 139              		.loc 3 264 0
 140 0002 2023     		movs	r3, #32
 141              	@ 264 "../../../../../ChibiOS-RT/os/common/ext/CMSIS/include/cmsis_gcc.h" 1
 142 0004 83F31188 		MSR basepri, r3
 143              	@ 0 "" 2
 144              		.thumb
 145              	.LBE91:
 146              	.LBE90:
 147              	.LBE89:
 148              	.LBE88:
 149              		.loc 1 123 0
 150 0008 FFF7FEFF 		bl	chSemResetI
 151              	.LVL11:
 152              		.loc 1 124 0
 153 000c FFF7FEFF 		bl	chSchRescheduleS
 154              	.LVL12:
 155              	.LBB92:
 156              	.LBB93:
 157              	.LBB94:
 158              	.LBB95:
 159              	.LBB96:
 160              		.loc 3 264 0
 161 0010 0023     		movs	r3, #0
 162              	@ 264 "../../../../../ChibiOS-RT/os/common/ext/CMSIS/include/cmsis_gcc.h" 1
 163 0012 83F31188 		MSR basepri, r3
 164              	@ 0 "" 2
 165              		.thumb
 166 0016 08BD     		pop	{r3, pc}
 167              	.LBE96:
 168              	.LBE95:
 169              	.LBE94:
ARM GAS  /tmp/ccrxrg1p.s 			page 4


 170              	.LBE93:
 171              	.LBE92:
 172              		.cfi_endproc
 173              	.LFE240:
 174              		.size	chSemReset, .-chSemReset
 175 0018 AFF30080 		.section	.text.chSemWaitS,"ax",%progbits
 175      AFF30080 
 176              		.align	2
 177              		.p2align 4,,15
 178              		.global	chSemWaitS
 179              		.thumb
 180              		.thumb_func
 181              		.type	chSemWaitS, %function
 182              	chSemWaitS:
 183              	.LFB243:
 184              		.loc 1 197 0
 185              		.cfi_startproc
 186              		@ args = 0, pretend = 0, frame = 0
 187              		@ frame_needed = 0, uses_anonymous_args = 0
 188              	.LVL13:
 189              		.loc 1 205 0
 190 0000 8268     		ldr	r2, [r0, #8]
 191 0002 013A     		subs	r2, r2, #1
 192 0004 002A     		cmp	r2, #0
 193              		.loc 1 197 0
 194 0006 10B5     		push	{r4, lr}
 195              		.cfi_def_cfa_offset 8
 196              		.cfi_offset 4, -8
 197              		.cfi_offset 14, -4
 198              		.loc 1 197 0
 199 0008 0346     		mov	r3, r0
 200              		.loc 1 205 0
 201 000a 8260     		str	r2, [r0, #8]
 202 000c 01DB     		blt	.L14
 203              		.loc 1 213 0
 204 000e 0020     		movs	r0, #0
 205              	.LVL14:
 206              		.loc 1 214 0
 207 0010 10BD     		pop	{r4, pc}
 208              	.LVL15:
 209              	.L14:
 210              		.loc 1 206 0
 211 0012 40F20004 		movw	r4, #:lower16:ch
 212 0016 C0F20004 		movt	r4, #:upper16:ch
 213              		.loc 1 208 0
 214 001a 0520     		movs	r0, #5
 215              	.LVL16:
 216              		.loc 1 206 0
 217 001c A269     		ldr	r2, [r4, #24]
 218 001e 5362     		str	r3, [r2, #36]
 219              	.LVL17:
 220              	.LBB97:
 221              	.LBB98:
 222              		.loc 2 612 0
 223 0020 5968     		ldr	r1, [r3, #4]
 224              		.loc 2 611 0
 225 0022 1360     		str	r3, [r2]
ARM GAS  /tmp/ccrxrg1p.s 			page 5


 226              		.loc 2 612 0
 227 0024 5160     		str	r1, [r2, #4]
 228              		.loc 2 613 0
 229 0026 0A60     		str	r2, [r1]
 230              		.loc 2 614 0
 231 0028 5A60     		str	r2, [r3, #4]
 232              	.LVL18:
 233              	.LBE98:
 234              	.LBE97:
 235              		.loc 1 208 0
 236 002a FFF7FEFF 		bl	chSchGoSleepS
 237              	.LVL19:
 238              		.loc 1 210 0
 239 002e A369     		ldr	r3, [r4, #24]
 240 0030 586A     		ldr	r0, [r3, #36]
 241 0032 10BD     		pop	{r4, pc}
 242              		.cfi_endproc
 243              	.LFE243:
 244              		.size	chSemWaitS, .-chSemWaitS
 245 0034 AFF30080 		.section	.text.chSemWait,"ax",%progbits
 245      AFF30080 
 245      AFF30080 
 246              		.align	2
 247              		.p2align 4,,15
 248              		.global	chSemWait
 249              		.thumb
 250              		.thumb_func
 251              		.type	chSemWait, %function
 252              	chSemWait:
 253              	.LFB242:
 254              		.loc 1 175 0
 255              		.cfi_startproc
 256              		@ args = 0, pretend = 0, frame = 0
 257              		@ frame_needed = 0, uses_anonymous_args = 0
 258              	.LVL20:
 259 0000 08B5     		push	{r3, lr}
 260              		.cfi_def_cfa_offset 8
 261              		.cfi_offset 3, -8
 262              		.cfi_offset 14, -4
 263              	.LBB99:
 264              	.LBB100:
 265              	.LBB101:
 266              	.LBB102:
 267              		.loc 3 264 0
 268 0002 2023     		movs	r3, #32
 269              	@ 264 "../../../../../ChibiOS-RT/os/common/ext/CMSIS/include/cmsis_gcc.h" 1
 270 0004 83F31188 		MSR basepri, r3
 271              	@ 0 "" 2
 272              		.thumb
 273              	.LBE102:
 274              	.LBE101:
 275              	.LBE100:
 276              	.LBE99:
 277              		.loc 1 179 0
 278 0008 FFF7FEFF 		bl	chSemWaitS
 279              	.LVL21:
 280              	.LBB103:
ARM GAS  /tmp/ccrxrg1p.s 			page 6


 281              	.LBB104:
 282              	.LBB105:
 283              	.LBB106:
 284              	.LBB107:
 285              		.loc 3 264 0
 286 000c 0023     		movs	r3, #0
 287              	@ 264 "../../../../../ChibiOS-RT/os/common/ext/CMSIS/include/cmsis_gcc.h" 1
 288 000e 83F31188 		MSR basepri, r3
 289              	@ 0 "" 2
 290              		.thumb
 291              	.LBE107:
 292              	.LBE106:
 293              	.LBE105:
 294              	.LBE104:
 295              	.LBE103:
 296              		.loc 1 183 0
 297 0012 08BD     		pop	{r3, pc}
 298              		.cfi_endproc
 299              	.LFE242:
 300              		.size	chSemWait, .-chSemWait
 301 0014 AFF30080 		.section	.text.chSemWaitTimeoutS,"ax",%progbits
 301      AFF30080 
 301      AFF30080 
 302              		.align	2
 303              		.p2align 4,,15
 304              		.global	chSemWaitTimeoutS
 305              		.thumb
 306              		.thumb_func
 307              		.type	chSemWaitTimeoutS, %function
 308              	chSemWaitTimeoutS:
 309              	.LFB245:
 310              		.loc 1 264 0
 311              		.cfi_startproc
 312              		@ args = 0, pretend = 0, frame = 0
 313              		@ frame_needed = 0, uses_anonymous_args = 0
 314              		@ link register save eliminated.
 315              	.LVL22:
 316 0000 0346     		mov	r3, r0
 317              		.loc 1 272 0
 318 0002 8068     		ldr	r0, [r0, #8]
 319              	.LVL23:
 320 0004 421E     		subs	r2, r0, #1
 321 0006 002A     		cmp	r2, #0
 322              		.loc 1 264 0
 323 0008 10B4     		push	{r4}
 324              		.cfi_def_cfa_offset 4
 325              		.cfi_offset 4, -4
 326              		.loc 1 284 0
 327 000a A8BF     		it	ge
 328 000c 0020     		movge	r0, #0
 329              		.loc 1 272 0
 330 000e 9A60     		str	r2, [r3, #8]
 331 0010 02DB     		blt	.L20
 332              	.L17:
 333              		.loc 1 285 0
 334 0012 5DF8044B 		ldr	r4, [sp], #4
 335 0016 7047     		bx	lr
ARM GAS  /tmp/ccrxrg1p.s 			page 7


 336              	.L20:
 337              		.loc 1 273 0
 338 0018 79B1     		cbz	r1, .L21
 339              		.loc 1 278 0
 340 001a 40F20002 		movw	r2, #:lower16:ch
 341 001e C0F20002 		movt	r2, #:upper16:ch
 342              		.loc 1 281 0
 343 0022 0520     		movs	r0, #5
 344              		.loc 1 278 0
 345 0024 9269     		ldr	r2, [r2, #24]
 346 0026 5362     		str	r3, [r2, #36]
 347              	.LVL24:
 348              	.LBB108:
 349              	.LBB109:
 350              		.loc 2 612 0
 351 0028 5C68     		ldr	r4, [r3, #4]
 352 002a 82E81800 		stmia	r2, {r3, r4}
 353              		.loc 2 613 0
 354 002e 2260     		str	r2, [r4]
 355              		.loc 2 614 0
 356 0030 5A60     		str	r2, [r3, #4]
 357              	.LVL25:
 358              	.LBE109:
 359              	.LBE108:
 360              		.loc 1 285 0
 361 0032 5DF8044B 		ldr	r4, [sp], #4
 362              		.loc 1 281 0
 363 0036 FFF7FEBF 		b	chSchGoSleepTimeoutS
 364              	.LVL26:
 365              	.L21:
 366              		.loc 1 274 0
 367 003a 9860     		str	r0, [r3, #8]
 368              		.loc 1 276 0
 369 003c 4FF0FF30 		mov	r0, #-1
 370 0040 E7E7     		b	.L17
 371              		.cfi_endproc
 372              	.LFE245:
 373              		.size	chSemWaitTimeoutS, .-chSemWaitTimeoutS
 374 0042 00BFAFF3 		.section	.text.chSemWaitTimeout,"ax",%progbits
 374      0080AFF3 
 374      0080AFF3 
 374      0080
 375              		.align	2
 376              		.p2align 4,,15
 377              		.global	chSemWaitTimeout
 378              		.thumb
 379              		.thumb_func
 380              		.type	chSemWaitTimeout, %function
 381              	chSemWaitTimeout:
 382              	.LFB244:
 383              		.loc 1 235 0
 384              		.cfi_startproc
 385              		@ args = 0, pretend = 0, frame = 0
 386              		@ frame_needed = 0, uses_anonymous_args = 0
 387              	.LVL27:
 388 0000 08B5     		push	{r3, lr}
 389              		.cfi_def_cfa_offset 8
ARM GAS  /tmp/ccrxrg1p.s 			page 8


 390              		.cfi_offset 3, -8
 391              		.cfi_offset 14, -4
 392              	.LBB110:
 393              	.LBB111:
 394              	.LBB112:
 395              	.LBB113:
 396              		.loc 3 264 0
 397 0002 2023     		movs	r3, #32
 398              	@ 264 "../../../../../ChibiOS-RT/os/common/ext/CMSIS/include/cmsis_gcc.h" 1
 399 0004 83F31188 		MSR basepri, r3
 400              	@ 0 "" 2
 401              		.thumb
 402              	.LBE113:
 403              	.LBE112:
 404              	.LBE111:
 405              	.LBE110:
 406              		.loc 1 239 0
 407 0008 FFF7FEFF 		bl	chSemWaitTimeoutS
 408              	.LVL28:
 409              	.LBB114:
 410              	.LBB115:
 411              	.LBB116:
 412              	.LBB117:
 413              	.LBB118:
 414              		.loc 3 264 0
 415 000c 0023     		movs	r3, #0
 416              	@ 264 "../../../../../ChibiOS-RT/os/common/ext/CMSIS/include/cmsis_gcc.h" 1
 417 000e 83F31188 		MSR basepri, r3
 418              	@ 0 "" 2
 419              		.thumb
 420              	.LBE118:
 421              	.LBE117:
 422              	.LBE116:
 423              	.LBE115:
 424              	.LBE114:
 425              		.loc 1 243 0
 426 0012 08BD     		pop	{r3, pc}
 427              		.cfi_endproc
 428              	.LFE244:
 429              		.size	chSemWaitTimeout, .-chSemWaitTimeout
 430 0014 AFF30080 		.section	.text.chSemSignal,"ax",%progbits
 430      AFF30080 
 430      AFF30080 
 431              		.align	2
 432              		.p2align 4,,15
 433              		.global	chSemSignal
 434              		.thumb
 435              		.thumb_func
 436              		.type	chSemSignal, %function
 437              	chSemSignal:
 438              	.LFB246:
 439              		.loc 1 294 0
 440              		.cfi_startproc
 441              		@ args = 0, pretend = 0, frame = 0
 442              		@ frame_needed = 0, uses_anonymous_args = 0
 443              	.LVL29:
 444 0000 08B5     		push	{r3, lr}
ARM GAS  /tmp/ccrxrg1p.s 			page 9


 445              		.cfi_def_cfa_offset 8
 446              		.cfi_offset 3, -8
 447              		.cfi_offset 14, -4
 448              	.LBB119:
 449              	.LBB120:
 450              	.LBB121:
 451              	.LBB122:
 452              		.loc 3 264 0
 453 0002 2022     		movs	r2, #32
 454              	.LBE122:
 455              	.LBE121:
 456              	.LBE120:
 457              	.LBE119:
 458              		.loc 1 294 0
 459 0004 0346     		mov	r3, r0
 460              	.LBB126:
 461              	.LBB125:
 462              	.LBB124:
 463              	.LBB123:
 464              		.loc 3 264 0
 465              	@ 264 "../../../../../ChibiOS-RT/os/common/ext/CMSIS/include/cmsis_gcc.h" 1
 466 0006 82F31188 		MSR basepri, r2
 467              	@ 0 "" 2
 468              		.thumb
 469              	.LBE123:
 470              	.LBE124:
 471              	.LBE125:
 472              	.LBE126:
 473              		.loc 1 302 0
 474 000a 8268     		ldr	r2, [r0, #8]
 475 000c 0132     		adds	r2, r2, #1
 476 000e 002A     		cmp	r2, #0
 477 0010 8260     		str	r2, [r0, #8]
 478 0012 03DD     		ble	.L25
 479              	.LVL30:
 480              	.LBB127:
 481              	.LBB128:
 482              	.LBB129:
 483              	.LBB130:
 484              	.LBB131:
 485              		.loc 3 264 0
 486 0014 0023     		movs	r3, #0
 487              	@ 264 "../../../../../ChibiOS-RT/os/common/ext/CMSIS/include/cmsis_gcc.h" 1
 488 0016 83F31188 		MSR basepri, r3
 489              	@ 0 "" 2
 490              		.thumb
 491 001a 08BD     		pop	{r3, pc}
 492              	.LVL31:
 493              	.L25:
 494              	.LBE131:
 495              	.LBE130:
 496              	.LBE129:
 497              	.LBE128:
 498              	.LBE127:
 499              	.LBB136:
 500              	.LBB137:
 501              		.loc 2 618 0
ARM GAS  /tmp/ccrxrg1p.s 			page 10


 502 001c 0068     		ldr	r0, [r0]
 503              	.LVL32:
 504              		.loc 2 620 0
 505 001e 0268     		ldr	r2, [r0]
 506              	.LBE137:
 507              	.LBE136:
 508              		.loc 1 303 0
 509 0020 0021     		movs	r1, #0
 510              	.LBB139:
 511              	.LBB138:
 512              		.loc 2 620 0
 513 0022 1A60     		str	r2, [r3]
 514              		.loc 2 621 0
 515 0024 5360     		str	r3, [r2, #4]
 516              	.LBE138:
 517              	.LBE139:
 518              		.loc 1 303 0
 519 0026 FFF7FEFF 		bl	chSchWakeupS
 520              	.LVL33:
 521              	.LBB140:
 522              	.LBB135:
 523              	.LBB134:
 524              	.LBB133:
 525              	.LBB132:
 526              		.loc 3 264 0
 527 002a 0023     		movs	r3, #0
 528              	@ 264 "../../../../../ChibiOS-RT/os/common/ext/CMSIS/include/cmsis_gcc.h" 1
 529 002c 83F31188 		MSR basepri, r3
 530              	@ 0 "" 2
 531              		.thumb
 532 0030 08BD     		pop	{r3, pc}
 533              	.LBE132:
 534              	.LBE133:
 535              	.LBE134:
 536              	.LBE135:
 537              	.LBE140:
 538              		.cfi_endproc
 539              	.LFE246:
 540              		.size	chSemSignal, .-chSemSignal
 541 0032 00BFAFF3 		.section	.text.chSemSignalI,"ax",%progbits
 541      0080AFF3 
 541      0080AFF3 
 541      0080
 542              		.align	2
 543              		.p2align 4,,15
 544              		.global	chSemSignalI
 545              		.thumb
 546              		.thumb_func
 547              		.type	chSemSignalI, %function
 548              	chSemSignalI:
 549              	.LFB247:
 550              		.loc 1 319 0
 551              		.cfi_startproc
 552              		@ args = 0, pretend = 0, frame = 0
 553              		@ frame_needed = 0, uses_anonymous_args = 0
 554              		@ link register save eliminated.
 555              	.LVL34:
ARM GAS  /tmp/ccrxrg1p.s 			page 11


 556              		.loc 1 327 0
 557 0000 8268     		ldr	r2, [r0, #8]
 558 0002 0132     		adds	r2, r2, #1
 559 0004 002A     		cmp	r2, #0
 560              		.loc 1 319 0
 561 0006 10B4     		push	{r4}
 562              		.cfi_def_cfa_offset 4
 563              		.cfi_offset 4, -4
 564              		.loc 1 319 0
 565 0008 0346     		mov	r3, r0
 566              		.loc 1 327 0
 567 000a 8260     		str	r2, [r0, #8]
 568 000c 02DD     		ble	.L28
 569              		.loc 1 334 0
 570 000e 5DF8044B 		ldr	r4, [sp], #4
 571 0012 7047     		bx	lr
 572              	.L28:
 573              	.LVL35:
 574              	.LBB141:
 575              	.LBB142:
 576              	.LBB143:
 577              		.loc 2 618 0
 578 0014 0268     		ldr	r2, [r0]
 579              	.LVL36:
 580              		.loc 2 620 0
 581 0016 1168     		ldr	r1, [r2]
 582              	.LBE143:
 583              	.LBE142:
 584              		.loc 1 331 0
 585 0018 0024     		movs	r4, #0
 586              	.LBB145:
 587              	.LBB144:
 588              		.loc 2 620 0
 589 001a 0160     		str	r1, [r0]
 590              		.loc 2 621 0
 591 001c 4B60     		str	r3, [r1, #4]
 592              	.LBE144:
 593              	.LBE145:
 594              		.loc 1 331 0
 595 001e 5462     		str	r4, [r2, #36]
 596              		.loc 1 332 0
 597 0020 1046     		mov	r0, r2
 598              	.LVL37:
 599              	.LBE141:
 600              		.loc 1 334 0
 601 0022 5DF8044B 		ldr	r4, [sp], #4
 602              	.LBB146:
 603              		.loc 1 332 0
 604 0026 FFF7FEBF 		b	chSchReadyI
 605              	.LVL38:
 606              	.LBE146:
 607              		.cfi_endproc
 608              	.LFE247:
 609              		.size	chSemSignalI, .-chSemSignalI
 610 002a 00BFAFF3 		.section	.text.chSemAddCounterI,"ax",%progbits
 610      0080
 611              		.align	2
ARM GAS  /tmp/ccrxrg1p.s 			page 12


 612              		.p2align 4,,15
 613              		.global	chSemAddCounterI
 614              		.thumb
 615              		.thumb_func
 616              		.type	chSemAddCounterI, %function
 617              	chSemAddCounterI:
 618              	.LFB248:
 619              		.loc 1 349 0
 620              		.cfi_startproc
 621              		@ args = 0, pretend = 0, frame = 0
 622              		@ frame_needed = 0, uses_anonymous_args = 0
 623              	.LVL39:
 624 0000 70B5     		push	{r4, r5, r6, lr}
 625              		.cfi_def_cfa_offset 16
 626              		.cfi_offset 4, -16
 627              		.cfi_offset 5, -12
 628              		.cfi_offset 6, -8
 629              		.cfi_offset 14, -4
 630              		.loc 1 357 0
 631 0002 0C1E     		subs	r4, r1, #0
 632              		.loc 1 349 0
 633 0004 0546     		mov	r5, r0
 634              		.loc 1 357 0
 635 0006 11DD     		ble	.L29
 636              		.loc 1 359 0
 637 0008 0026     		movs	r6, #0
 638 000a 01E0     		b	.L33
 639              	.LVL40:
 640              	.L31:
 641              		.loc 1 357 0
 642 000c 013C     		subs	r4, r4, #1
 643              	.LVL41:
 644 000e 0DD0     		beq	.L29
 645              	.LVL42:
 646              	.L33:
 647              		.loc 1 358 0
 648 0010 AB68     		ldr	r3, [r5, #8]
 649 0012 0133     		adds	r3, r3, #1
 650 0014 002B     		cmp	r3, #0
 651 0016 AB60     		str	r3, [r5, #8]
 652 0018 F8DC     		bgt	.L31
 653              	.LVL43:
 654              	.LBB147:
 655              	.LBB148:
 656              		.loc 2 618 0
 657 001a 2868     		ldr	r0, [r5]
 658              	.LVL44:
 659              		.loc 2 620 0
 660 001c 0368     		ldr	r3, [r0]
 661 001e 2B60     		str	r3, [r5]
 662              		.loc 2 621 0
 663 0020 5D60     		str	r5, [r3, #4]
 664              	.LBE148:
 665              	.LBE147:
 666              		.loc 1 359 0
 667 0022 FFF7FEFF 		bl	chSchReadyI
 668              	.LVL45:
ARM GAS  /tmp/ccrxrg1p.s 			page 13


 669              		.loc 1 357 0
 670 0026 013C     		subs	r4, r4, #1
 671              	.LVL46:
 672              		.loc 1 359 0
 673 0028 4662     		str	r6, [r0, #36]
 674              	.LVL47:
 675              		.loc 1 357 0
 676 002a F1D1     		bne	.L33
 677              	.LVL48:
 678              	.L29:
 679 002c 70BD     		pop	{r4, r5, r6, pc}
 680              		.cfi_endproc
 681              	.LFE248:
 682              		.size	chSemAddCounterI, .-chSemAddCounterI
 683 002e 00BF     		.section	.text.chSemSignalWait,"ax",%progbits
 684              		.align	2
 685              		.p2align 4,,15
 686              		.global	chSemSignalWait
 687              		.thumb
 688              		.thumb_func
 689              		.type	chSemSignalWait, %function
 690              	chSemSignalWait:
 691              	.LFB249:
 692              		.loc 1 378 0
 693              		.cfi_startproc
 694              		@ args = 0, pretend = 0, frame = 8
 695              		@ frame_needed = 0, uses_anonymous_args = 0
 696              	.LVL49:
 697 0000 10B5     		push	{r4, lr}
 698              		.cfi_def_cfa_offset 8
 699              		.cfi_offset 4, -8
 700              		.cfi_offset 14, -4
 701 0002 0346     		mov	r3, r0
 702 0004 82B0     		sub	sp, sp, #8
 703              		.cfi_def_cfa_offset 16
 704              	.LBB149:
 705              	.LBB150:
 706              	.LBB151:
 707              	.LBB152:
 708              		.loc 3 264 0
 709 0006 2022     		movs	r2, #32
 710              	@ 264 "../../../../../ChibiOS-RT/os/common/ext/CMSIS/include/cmsis_gcc.h" 1
 711 0008 82F31188 		MSR basepri, r2
 712              	@ 0 "" 2
 713              		.thumb
 714              	.LBE152:
 715              	.LBE151:
 716              	.LBE150:
 717              	.LBE149:
 718              		.loc 1 390 0
 719 000c 8268     		ldr	r2, [r0, #8]
 720 000e 0132     		adds	r2, r2, #1
 721 0010 002A     		cmp	r2, #0
 722 0012 8260     		str	r2, [r0, #8]
 723 0014 20DD     		ble	.L41
 724              	.LVL50:
 725              	.L38:
ARM GAS  /tmp/ccrxrg1p.s 			page 14


 726              		.loc 1 393 0
 727 0016 8B68     		ldr	r3, [r1, #8]
 728 0018 013B     		subs	r3, r3, #1
 729 001a 002B     		cmp	r3, #0
 730 001c 8B60     		str	r3, [r1, #8]
 731 001e 07DB     		blt	.L42
 732              		.loc 1 401 0
 733 0020 FFF7FEFF 		bl	chSchRescheduleS
 734              	.LVL51:
 735              		.loc 1 402 0
 736 0024 0020     		movs	r0, #0
 737              	.LVL52:
 738              	.LBB153:
 739              	.LBB154:
 740              	.LBB155:
 741              	.LBB156:
 742              	.LBB157:
 743              		.loc 3 264 0
 744 0026 0023     		movs	r3, #0
 745              	@ 264 "../../../../../ChibiOS-RT/os/common/ext/CMSIS/include/cmsis_gcc.h" 1
 746 0028 83F31188 		MSR basepri, r3
 747              	@ 0 "" 2
 748              		.thumb
 749              	.LBE157:
 750              	.LBE156:
 751              	.LBE155:
 752              	.LBE154:
 753              	.LBE153:
 754              		.loc 1 407 0
 755 002c 02B0     		add	sp, sp, #8
 756              		@ sp needed
 757 002e 10BD     		pop	{r4, pc}
 758              	.LVL53:
 759              	.L42:
 760              	.LBB162:
 761              		.loc 1 394 0
 762 0030 40F20003 		movw	r3, #:lower16:ch
 763 0034 C0F20003 		movt	r3, #:upper16:ch
 764              	.LBB163:
 765              	.LBB164:
 766              		.loc 2 612 0
 767 0038 4A68     		ldr	r2, [r1, #4]
 768              	.LBE164:
 769              	.LBE163:
 770              		.loc 1 394 0
 771 003a 9C69     		ldr	r4, [r3, #24]
 772              	.LVL54:
 773              		.loc 1 397 0
 774 003c 0520     		movs	r0, #5
 775              	.LBB166:
 776              	.LBB165:
 777              		.loc 2 612 0
 778 003e 84E80600 		stmia	r4, {r1, r2}
 779              		.loc 2 613 0
 780 0042 1460     		str	r4, [r2]
 781              		.loc 2 614 0
 782 0044 4C60     		str	r4, [r1, #4]
ARM GAS  /tmp/ccrxrg1p.s 			page 15


 783              	.LBE165:
 784              	.LBE166:
 785              		.loc 1 396 0
 786 0046 6162     		str	r1, [r4, #36]
 787              		.loc 1 397 0
 788 0048 FFF7FEFF 		bl	chSchGoSleepS
 789              	.LVL55:
 790              		.loc 1 398 0
 791 004c 606A     		ldr	r0, [r4, #36]
 792              	.LVL56:
 793              	.LBE162:
 794              	.LBB167:
 795              	.LBB161:
 796              	.LBB160:
 797              	.LBB159:
 798              	.LBB158:
 799              		.loc 3 264 0
 800 004e 0023     		movs	r3, #0
 801              	@ 264 "../../../../../ChibiOS-RT/os/common/ext/CMSIS/include/cmsis_gcc.h" 1
 802 0050 83F31188 		MSR basepri, r3
 803              	@ 0 "" 2
 804              		.thumb
 805              	.LBE158:
 806              	.LBE159:
 807              	.LBE160:
 808              	.LBE161:
 809              	.LBE167:
 810              		.loc 1 407 0
 811 0054 02B0     		add	sp, sp, #8
 812              		@ sp needed
 813 0056 10BD     		pop	{r4, pc}
 814              	.LVL57:
 815              	.L41:
 816              	.LBB168:
 817              	.LBB169:
 818              		.loc 2 618 0
 819 0058 0068     		ldr	r0, [r0]
 820              	.LVL58:
 821              		.loc 2 620 0
 822 005a 0268     		ldr	r2, [r0]
 823 005c 1A60     		str	r2, [r3]
 824              		.loc 2 621 0
 825 005e 5360     		str	r3, [r2, #4]
 826              	.LBE169:
 827              	.LBE168:
 828              		.loc 1 391 0
 829 0060 0191     		str	r1, [sp, #4]
 830 0062 FFF7FEFF 		bl	chSchReadyI
 831              	.LVL59:
 832 0066 0023     		movs	r3, #0
 833 0068 4362     		str	r3, [r0, #36]
 834 006a 0199     		ldr	r1, [sp, #4]
 835 006c D3E7     		b	.L38
 836              		.cfi_endproc
 837              	.LFE249:
 838              		.size	chSemSignalWait, .-chSemSignalWait
 839 006e 00BF     		.text
ARM GAS  /tmp/ccrxrg1p.s 			page 16


 840              	.Letext0:
 841              		.file 4 "/usr/include/newlib/machine/_default_types.h"
 842              		.file 5 "/usr/include/newlib/stdint.h"
 843              		.file 6 "../../../../../ChibiOS-RT/os/common/ports/ARMCMx/compilers/GCC/chtypes.h"
 844              		.file 7 "../../../../../ChibiOS-RT/os/rt/include/chsystypes.h"
 845              		.file 8 "../../../../../ChibiOS-RT/os/common/ports/ARMCMx/chcore.h"
 846              		.file 9 "../../../../../ChibiOS-RT/os/common/ports/ARMCMx/chcore_v7m.h"
 847              		.file 10 "../../../../../ChibiOS-RT/os/rt/include/chtrace.h"
 848              		.file 11 "../../../../../ChibiOS-RT/os/rt/include/chtm.h"
 849              		.file 12 "../../../../../ChibiOS-RT/os/rt/include/chsem.h"
 850              		.file 13 "../../../../../ChibiOS-RT/os/rt/include/chmtx.h"
 851              		.file 14 "../../../../../ChibiOS-RT/os/rt/include/chsys.h"
 852              		.file 15 "../../../../../ChibiOS-RT/os/common/ext/CMSIS/include/core_cm4.h"