ARM GAS  /tmp/ccBVRHu6.s 			page 1


   1              		.syntax unified
   2              		.cpu cortex-m4
   3              		.fpu softvfp
   4              		.eabi_attribute 20, 1
   5              		.eabi_attribute 21, 1
   6              		.eabi_attribute 23, 3
   7              		.eabi_attribute 24, 1
   8              		.eabi_attribute 25, 1
   9              		.eabi_attribute 26, 1
  10              		.eabi_attribute 30, 2
  11              		.eabi_attribute 34, 1
  12              		.eabi_attribute 18, 4
  13              		.thumb
  14              		.file	"chthreads.c"
  15              		.text
  16              	.Ltext0:
  17              		.cfi_sections	.debug_frame
  18              		.section	.text._thread_init,"ax",%progbits
  19              		.align	2
  20              		.p2align 4,,15
  21              		.global	_thread_init
  22              		.thumb
  23              		.thumb_func
  24              		.type	_thread_init, %function
  25              	_thread_init:
  26              	.LFB239:
  27              		.file 1 "../../../../../ChibiOS-RT/os/rt/src/chthreads.c"
  28              		.loc 1 88 0
  29              		.cfi_startproc
  30              		@ args = 0, pretend = 0, frame = 0
  31              		@ frame_needed = 0, uses_anonymous_args = 0
  32              		@ link register save eliminated.
  33              	.LVL0:
  34 0000 2DE9F003 		push	{r4, r5, r6, r7, r8, r9}
  35              		.cfi_def_cfa_offset 24
  36              		.cfi_offset 4, -24
  37              		.cfi_offset 5, -20
  38              		.cfi_offset 6, -16
  39              		.cfi_offset 7, -12
  40              		.cfi_offset 8, -8
  41              		.cfi_offset 9, -4
  42              		.loc 1 109 0
  43 0004 40F20004 		movw	r4, #:lower16:ch
  44 0008 C0F20004 		movt	r4, #:upper16:ch
  45              		.loc 1 92 0
  46 000c 0025     		movs	r5, #0
  47              		.loc 1 109 0
  48 000e 6669     		ldr	r6, [r4, #20]
  49              		.loc 1 92 0
  50 0010 80F82150 		strb	r5, [r0, #33]
  51              		.loc 1 117 0
  52 0014 00F12C07 		add	r7, r0, #44
  53              		.loc 1 91 0
  54 0018 4FF00209 		mov	r9, #2
  55              		.loc 1 107 0
  56 001c 4FF00108 		mov	r8, #1
  57              		.loc 1 114 0
ARM GAS  /tmp/ccBVRHu6.s 			page 2


  58 0020 00F1280C 		add	ip, r0, #40
  59              		.loc 1 109 0
  60 0024 0461     		str	r4, [r0, #16]
  61 0026 4661     		str	r6, [r0, #20]
  62              		.loc 1 90 0
  63 0028 8260     		str	r2, [r0, #8]
  64              		.loc 1 91 0
  65 002a 80F82090 		strb	r9, [r0, #32]
  66              		.loc 1 107 0
  67 002e 80F82280 		strb	r8, [r0, #34]
  68              		.loc 1 98 0
  69 0032 8563     		str	r5, [r0, #56]
  70              		.loc 1 101 0
  71 0034 4563     		str	r5, [r0, #52]
  72              		.loc 1 97 0
  73 0036 C263     		str	r2, [r0, #60]
  74              		.loc 1 108 0
  75 0038 8161     		str	r1, [r0, #24]
  76              		.loc 1 109 0
  77 003a 3061     		str	r0, [r6, #16]
  78 003c 6061     		str	r0, [r4, #20]
  79              	.LVL1:
  80              	.LBB243:
  81              	.LBB244:
  82              		.file 2 "../../../../../ChibiOS-RT/os/rt/include/chschd.h"
  83              		.loc 2 550 0
  84 003e C762     		str	r7, [r0, #44]
  85              		.loc 2 551 0
  86 0040 0763     		str	r7, [r0, #48]
  87              	.LBE244:
  88              	.LBE243:
  89              	.LBB245:
  90              	.LBB246:
  91              		.loc 2 512 0
  92 0042 C0F828C0 		str	ip, [r0, #40]
  93              	.LBE246:
  94              	.LBE245:
  95              		.loc 1 124 0
  96 0046 BDE8F003 		pop	{r4, r5, r6, r7, r8, r9}
  97              	.LVL2:
  98 004a 7047     		bx	lr
  99              		.cfi_endproc
 100              	.LFE239:
 101              		.size	_thread_init, .-_thread_init
 102 004c AFF30080 		.section	.text.chThdCreateSuspendedI,"ax",%progbits
 103              		.align	2
 104              		.p2align 4,,15
 105              		.global	chThdCreateSuspendedI
 106              		.thumb
 107              		.thumb_func
 108              		.type	chThdCreateSuspendedI, %function
 109              	chThdCreateSuspendedI:
 110              	.LFB240:
 111              		.loc 1 167 0
 112              		.cfi_startproc
 113              		@ args = 0, pretend = 0, frame = 0
 114              		@ frame_needed = 0, uses_anonymous_args = 0
ARM GAS  /tmp/ccBVRHu6.s 			page 3


 115              		@ link register save eliminated.
 116              	.LVL3:
 117 0000 2DE9F005 		push	{r4, r5, r6, r7, r8, r10}
 118              		.cfi_def_cfa_offset 24
 119              		.cfi_offset 4, -24
 120              		.cfi_offset 5, -20
 121              		.cfi_offset 6, -16
 122              		.cfi_offset 7, -12
 123              		.cfi_offset 8, -8
 124              		.cfi_offset 10, -4
 125              		.loc 1 181 0
 126 0004 8368     		ldr	r3, [r0, #8]
 127              		.loc 1 186 0
 128 0006 4468     		ldr	r4, [r0, #4]
 129              		.loc 1 190 0
 130 0008 4569     		ldr	r5, [r0, #20]
 131 000a 0169     		ldr	r1, [r0, #16]
 132              		.loc 1 193 0
 133 000c D0F80C80 		ldr	r8, [r0, #12]
 134              		.loc 1 190 0
 135 0010 43F8685C 		str	r5, [r3, #-104]
 136              	.LBB247:
 137              	.LBB248:
 138              		.loc 1 109 0
 139 0014 40F20002 		movw	r2, #:lower16:ch
 140              	.LBE248:
 141              	.LBE247:
 142              		.loc 1 193 0
 143 0018 0568     		ldr	r5, [r0]
 144              		.loc 1 186 0
 145 001a 43F82C4C 		str	r4, [r3, #-44]
 146              	.LBB259:
 147              	.LBB253:
 148              		.loc 1 92 0
 149 001e 0020     		movs	r0, #0
 150              	.LVL4:
 151              		.loc 1 109 0
 152 0020 C0F20002 		movt	r2, #:upper16:ch
 153              		.loc 1 91 0
 154 0024 0227     		movs	r7, #2
 155              		.loc 1 107 0
 156 0026 0124     		movs	r4, #1
 157              		.loc 1 91 0
 158 0028 03F8287C 		strb	r7, [r3, #-40]
 159              		.loc 1 107 0
 160 002c 03F8264C 		strb	r4, [r3, #-38]
 161              		.loc 1 92 0
 162 0030 03F8270C 		strb	r0, [r3, #-39]
 163              		.loc 1 109 0
 164 0034 5669     		ldr	r6, [r2, #20]
 165              	.LBE253:
 166              	.LBE259:
 167              		.loc 1 190 0
 168 0036 43F86C1C 		str	r1, [r3, #-108]
 169 003a 40F20004 		movw	r4, #:lower16:_port_thread_start
 170              		.loc 1 181 0
 171 003e A3F14801 		sub	r1, r3, #72
ARM GAS  /tmp/ccBVRHu6.s 			page 4


 172              	.LVL5:
 173              	.LBB260:
 174              	.LBB254:
 175              		.loc 1 117 0
 176 0042 A3F11C07 		sub	r7, r3, #28
 177              	.LBE254:
 178              	.LBE260:
 179              		.loc 1 190 0
 180 0046 A3F16C0A 		sub	r10, r3, #108
 181 004a C0F20004 		movt	r4, #:upper16:_port_thread_start
 182              	.LBB261:
 183              	.LBB255:
 184              		.loc 1 114 0
 185 004e A3F1200C 		sub	ip, r3, #32
 186              	.LBE255:
 187              	.LBE261:
 188              		.loc 1 193 0
 189 0052 43F8305C 		str	r5, [r3, #-48]
 190              	.LVL6:
 191              	.LBB262:
 192              	.LBB256:
 193              		.loc 1 90 0
 194 0056 43F8408C 		str	r8, [r3, #-64]
 195              		.loc 1 97 0
 196 005a 43F80C8C 		str	r8, [r3, #-12]
 197              	.LBE256:
 198              	.LBE262:
 199              		.loc 1 190 0
 200 005e 43F83CAC 		str	r10, [r3, #-60]
 201 0062 43F84C4C 		str	r4, [r3, #-76]
 202              	.LBB263:
 203              	.LBB257:
 204              		.loc 1 98 0
 205 0066 43F8100C 		str	r0, [r3, #-16]
 206              		.loc 1 101 0
 207 006a 43F8140C 		str	r0, [r3, #-20]
 208              		.loc 1 109 0
 209 006e 43F8346C 		str	r6, [r3, #-52]
 210 0072 43F8382C 		str	r2, [r3, #-56]
 211              	.LBE257:
 212              	.LBE263:
 213              		.loc 1 194 0
 214 0076 0846     		mov	r0, r1
 215              	.LBB264:
 216              	.LBB258:
 217              		.loc 1 109 0
 218 0078 3161     		str	r1, [r6, #16]
 219 007a 5161     		str	r1, [r2, #20]
 220              	.LVL7:
 221              	.LBB249:
 222              	.LBB250:
 223              		.loc 2 550 0
 224 007c 43F81C7C 		str	r7, [r3, #-28]
 225              		.loc 2 551 0
 226 0080 43F8187C 		str	r7, [r3, #-24]
 227              	.LBE250:
 228              	.LBE249:
ARM GAS  /tmp/ccBVRHu6.s 			page 5


 229              	.LBB251:
 230              	.LBB252:
 231              		.loc 2 512 0
 232 0084 43F820CC 		str	ip, [r3, #-32]
 233              	.LBE252:
 234              	.LBE251:
 235              	.LBE258:
 236              	.LBE264:
 237              		.loc 1 194 0
 238 0088 BDE8F005 		pop	{r4, r5, r6, r7, r8, r10}
 239              	.LVL8:
 240 008c 7047     		bx	lr
 241              		.cfi_endproc
 242              	.LFE240:
 243              		.size	chThdCreateSuspendedI, .-chThdCreateSuspendedI
 244 008e 00BF     		.section	.text.chThdCreateSuspended,"ax",%progbits
 245              		.align	2
 246              		.p2align 4,,15
 247              		.global	chThdCreateSuspended
 248              		.thumb
 249              		.thumb_func
 250              		.type	chThdCreateSuspended, %function
 251              	chThdCreateSuspended:
 252              	.LFB241:
 253              		.loc 1 217 0
 254              		.cfi_startproc
 255              		@ args = 0, pretend = 0, frame = 0
 256              		@ frame_needed = 0, uses_anonymous_args = 0
 257              	.LVL9:
 258 0000 08B5     		push	{r3, lr}
 259              		.cfi_def_cfa_offset 8
 260              		.cfi_offset 3, -8
 261              		.cfi_offset 14, -4
 262              	.LBB265:
 263              	.LBB266:
 264              	.LBB267:
 265              	.LBB268:
 266              		.file 3 "../../../../../ChibiOS-RT/os/common/ext/CMSIS/include/cmsis_gcc.h"
 267              		.loc 3 264 0
 268 0002 2023     		movs	r3, #32
 269              	@ 264 "../../../../../ChibiOS-RT/os/common/ext/CMSIS/include/cmsis_gcc.h" 1
 270 0004 83F31188 		MSR basepri, r3
 271              	@ 0 "" 2
 272              		.thumb
 273              	.LBE268:
 274              	.LBE267:
 275              	.LBE266:
 276              	.LBE265:
 277              		.loc 1 232 0
 278 0008 FFF7FEFF 		bl	chThdCreateSuspendedI
 279              	.LVL10:
 280              	.LBB269:
 281              	.LBB270:
 282              	.LBB271:
 283              	.LBB272:
 284              	.LBB273:
 285              		.loc 3 264 0
ARM GAS  /tmp/ccBVRHu6.s 			page 6


 286 000c 0023     		movs	r3, #0
 287              	@ 264 "../../../../../ChibiOS-RT/os/common/ext/CMSIS/include/cmsis_gcc.h" 1
 288 000e 83F31188 		MSR basepri, r3
 289              	@ 0 "" 2
 290              		.thumb
 291              	.LBE273:
 292              	.LBE272:
 293              	.LBE271:
 294              	.LBE270:
 295              	.LBE269:
 296              		.loc 1 236 0
 297 0012 08BD     		pop	{r3, pc}
 298              		.cfi_endproc
 299              	.LFE241:
 300              		.size	chThdCreateSuspended, .-chThdCreateSuspended
 301 0014 AFF30080 		.section	.text.chThdCreateI,"ax",%progbits
 301      AFF30080 
 301      AFF30080 
 302              		.align	2
 303              		.p2align 4,,15
 304              		.global	chThdCreateI
 305              		.thumb
 306              		.thumb_func
 307              		.type	chThdCreateI, %function
 308              	chThdCreateI:
 309              	.LFB242:
 310              		.loc 1 260 0
 311              		.cfi_startproc
 312              		@ args = 0, pretend = 0, frame = 0
 313              		@ frame_needed = 0, uses_anonymous_args = 0
 314              	.LVL11:
 315 0000 08B5     		push	{r3, lr}
 316              		.cfi_def_cfa_offset 8
 317              		.cfi_offset 3, -8
 318              		.cfi_offset 14, -4
 319              		.loc 1 262 0
 320 0002 FFF7FEFF 		bl	chThdCreateSuspendedI
 321              	.LVL12:
 322              		.loc 1 263 0
 323 0006 BDE80840 		pop	{r3, lr}
 324              		.loc 1 262 0
 325 000a FFF7FEBF 		b	chSchReadyI
 326              	.LVL13:
 327              		.cfi_endproc
 328              	.LFE242:
 329              		.size	chThdCreateI, .-chThdCreateI
 330 000e 00BF     		.section	.text.chThdCreate,"ax",%progbits
 331              		.align	2
 332              		.p2align 4,,15
 333              		.global	chThdCreate
 334              		.thumb
 335              		.thumb_func
 336              		.type	chThdCreate, %function
 337              	chThdCreate:
 338              	.LFB243:
 339              		.loc 1 281 0
 340              		.cfi_startproc
ARM GAS  /tmp/ccBVRHu6.s 			page 7


 341              		@ args = 0, pretend = 0, frame = 0
 342              		@ frame_needed = 0, uses_anonymous_args = 0
 343              	.LVL14:
 344 0000 10B5     		push	{r4, lr}
 345              		.cfi_def_cfa_offset 8
 346              		.cfi_offset 4, -8
 347              		.cfi_offset 14, -4
 348              	.LBB274:
 349              	.LBB275:
 350              	.LBB276:
 351              	.LBB277:
 352              		.loc 3 264 0
 353 0002 2023     		movs	r3, #32
 354              	@ 264 "../../../../../ChibiOS-RT/os/common/ext/CMSIS/include/cmsis_gcc.h" 1
 355 0004 83F31188 		MSR basepri, r3
 356              	@ 0 "" 2
 357              		.thumb
 358              	.LBE277:
 359              	.LBE276:
 360              	.LBE275:
 361              	.LBE274:
 362              		.loc 1 296 0
 363 0008 FFF7FEFF 		bl	chThdCreateSuspendedI
 364              	.LVL15:
 365              		.loc 1 297 0
 366 000c 0021     		movs	r1, #0
 367              		.loc 1 296 0
 368 000e 0446     		mov	r4, r0
 369              	.LVL16:
 370              		.loc 1 297 0
 371 0010 FFF7FEFF 		bl	chSchWakeupS
 372              	.LVL17:
 373              	.LBB278:
 374              	.LBB279:
 375              	.LBB280:
 376              	.LBB281:
 377              	.LBB282:
 378              		.loc 3 264 0
 379 0014 0023     		movs	r3, #0
 380              	@ 264 "../../../../../ChibiOS-RT/os/common/ext/CMSIS/include/cmsis_gcc.h" 1
 381 0016 83F31188 		MSR basepri, r3
 382              	@ 0 "" 2
 383              		.thumb
 384              	.LBE282:
 385              	.LBE281:
 386              	.LBE280:
 387              	.LBE279:
 388              	.LBE278:
 389              		.loc 1 301 0
 390 001a 2046     		mov	r0, r4
 391 001c 10BD     		pop	{r4, pc}
 392              		.cfi_endproc
 393              	.LFE243:
 394              		.size	chThdCreate, .-chThdCreate
 395 001e 00BF     		.section	.text.chThdCreateStatic,"ax",%progbits
 396              		.align	2
 397              		.p2align 4,,15
ARM GAS  /tmp/ccBVRHu6.s 			page 8


 398              		.global	chThdCreateStatic
 399              		.thumb
 400              		.thumb_func
 401              		.type	chThdCreateStatic, %function
 402              	chThdCreateStatic:
 403              	.LFB244:
 404              		.loc 1 324 0
 405              		.cfi_startproc
 406              		@ args = 4, pretend = 0, frame = 0
 407              		@ frame_needed = 0, uses_anonymous_args = 0
 408              	.LVL18:
 409 0000 2DE9F84F 		push	{r3, r4, r5, r6, r7, r8, r9, r10, fp, lr}
 410              		.cfi_def_cfa_offset 40
 411              		.cfi_offset 3, -40
 412              		.cfi_offset 4, -36
 413              		.cfi_offset 5, -32
 414              		.cfi_offset 6, -28
 415              		.cfi_offset 7, -24
 416              		.cfi_offset 8, -20
 417              		.cfi_offset 9, -16
 418              		.cfi_offset 10, -12
 419              		.cfi_offset 11, -8
 420              		.cfi_offset 14, -4
 421              		.loc 1 324 0
 422 0004 9846     		mov	r8, r3
 423 0006 9646     		mov	lr, r2
 424              	.LBB283:
 425              	.LBB284:
 426              	.LBB285:
 427              	.LBB286:
 428              		.loc 3 264 0
 429 0008 2023     		movs	r3, #32
 430              	.LVL19:
 431              	@ 264 "../../../../../ChibiOS-RT/os/common/ext/CMSIS/include/cmsis_gcc.h" 1
 432 000a 83F31188 		MSR basepri, r3
 433              	@ 0 "" 2
 434              		.thumb
 435              	.LBE286:
 436              	.LBE285:
 437              	.LBE284:
 438              	.LBE283:
 439              	.LBB287:
 440              	.LBB288:
 441              		.loc 1 109 0
 442 000e 40F20006 		movw	r6, #:lower16:ch
 443              	.LBE288:
 444              	.LBE287:
 445              		.loc 1 349 0
 446 0012 A1F14804 		sub	r4, r1, #72
 447 0016 0444     		add	r4, r4, r0
 448              	.LVL20:
 449              	.LBB301:
 450              	.LBB293:
 451              		.loc 1 109 0
 452 0018 C0F20006 		movt	r6, #:upper16:ch
 453              	.LBE293:
 454              	.LBE301:
ARM GAS  /tmp/ccBVRHu6.s 			page 9


 455              		.loc 1 354 0
 456 001c E061     		str	r0, [r4, #28]
 457              	.LBB302:
 458              	.LBB294:
 459              		.loc 1 109 0
 460 001e 7269     		ldr	r2, [r6, #20]
 461              	.LVL21:
 462              	.LBE294:
 463              	.LBE302:
 464              		.loc 1 358 0
 465 0020 0A98     		ldr	r0, [sp, #40]
 466              	.LVL22:
 467 0022 44F8248C 		str	r8, [r4, #-36]
 468 0026 40F20007 		movw	r7, #:lower16:_port_thread_start
 469              	.LBB303:
 470              	.LBB295:
 471              		.loc 1 108 0
 472 002a 40F20001 		movw	r1, #:lower16:.LC0
 473              	.LVL23:
 474              		.loc 1 92 0
 475 002e 0025     		movs	r5, #0
 476              		.loc 1 117 0
 477 0030 04F12C03 		add	r3, r4, #44
 478              		.loc 1 114 0
 479 0034 04F1280C 		add	ip, r4, #40
 480              	.LBE295:
 481              	.LBE303:
 482              		.loc 1 358 0
 483 0038 A4F1240A 		sub	r10, r4, #36
 484 003c C0F20007 		movt	r7, #:upper16:_port_thread_start
 485              	.LBB304:
 486              	.LBB296:
 487              		.loc 1 91 0
 488 0040 4FF00209 		mov	r9, #2
 489              		.loc 1 107 0
 490 0044 4FF0010B 		mov	fp, #1
 491              		.loc 1 108 0
 492 0048 C0F20001 		movt	r1, #:upper16:.LC0
 493              	.LBE296:
 494              	.LBE304:
 495              		.loc 1 358 0
 496 004c 44F8200C 		str	r0, [r4, #-32]
 497              	.LBB305:
 498              	.LBB297:
 499              		.loc 1 90 0
 500 0050 C4F808E0 		str	lr, [r4, #8]
 501              	.LBE297:
 502              	.LBE305:
 503              		.loc 1 358 0
 504 0054 C4F80CA0 		str	r10, [r4, #12]
 505 0058 44F8047C 		str	r7, [r4, #-4]
 506              	.LVL24:
 507              	.LBB306:
 508              	.LBB298:
 509              		.loc 1 108 0
 510 005c A161     		str	r1, [r4, #24]
 511              		.loc 1 109 0
ARM GAS  /tmp/ccBVRHu6.s 			page 10


 512 005e 2661     		str	r6, [r4, #16]
 513 0060 6261     		str	r2, [r4, #20]
 514              		.loc 1 97 0
 515 0062 C4F83CE0 		str	lr, [r4, #60]
 516              		.loc 1 91 0
 517 0066 84F82090 		strb	r9, [r4, #32]
 518              		.loc 1 107 0
 519 006a 84F822B0 		strb	fp, [r4, #34]
 520              		.loc 1 92 0
 521 006e 84F82150 		strb	r5, [r4, #33]
 522              		.loc 1 98 0
 523 0072 A563     		str	r5, [r4, #56]
 524              		.loc 1 101 0
 525 0074 6563     		str	r5, [r4, #52]
 526              	.LBE298:
 527              	.LBE306:
 528              		.loc 1 363 0
 529 0076 2046     		mov	r0, r4
 530              	.LBB307:
 531              	.LBB299:
 532              		.loc 1 109 0
 533 0078 1461     		str	r4, [r2, #16]
 534              	.LBE299:
 535              	.LBE307:
 536              		.loc 1 363 0
 537 007a 2946     		mov	r1, r5
 538              	.LBB308:
 539              	.LBB300:
 540              	.LBB289:
 541              	.LBB290:
 542              		.loc 2 512 0
 543 007c C4F828C0 		str	ip, [r4, #40]
 544              	.LBE290:
 545              	.LBE289:
 546              	.LBB291:
 547              	.LBB292:
 548              		.loc 2 550 0
 549 0080 E362     		str	r3, [r4, #44]
 550              		.loc 2 551 0
 551 0082 2363     		str	r3, [r4, #48]
 552              	.LBE292:
 553              	.LBE291:
 554              		.loc 1 109 0
 555 0084 7461     		str	r4, [r6, #20]
 556              	.LVL25:
 557              	.LBE300:
 558              	.LBE308:
 559              		.loc 1 363 0
 560 0086 FFF7FEFF 		bl	chSchWakeupS
 561              	.LVL26:
 562              	.LBB309:
 563              	.LBB310:
 564              	.LBB311:
 565              	.LBB312:
 566              	.LBB313:
 567              		.loc 3 264 0
 568              	@ 264 "../../../../../ChibiOS-RT/os/common/ext/CMSIS/include/cmsis_gcc.h" 1
ARM GAS  /tmp/ccBVRHu6.s 			page 11


 569 008a 85F31188 		MSR basepri, r5
 570              	@ 0 "" 2
 571              		.thumb
 572              	.LBE313:
 573              	.LBE312:
 574              	.LBE311:
 575              	.LBE310:
 576              	.LBE309:
 577              		.loc 1 367 0
 578 008e 2046     		mov	r0, r4
 579 0090 BDE8F88F 		pop	{r3, r4, r5, r6, r7, r8, r9, r10, fp, pc}
 580              		.cfi_endproc
 581              	.LFE244:
 582              		.size	chThdCreateStatic, .-chThdCreateStatic
 583 0094 AFF30080 		.section	.text.chThdStart,"ax",%progbits
 583      AFF30080 
 583      AFF30080 
 584              		.align	2
 585              		.p2align 4,,15
 586              		.global	chThdStart
 587              		.thumb
 588              		.thumb_func
 589              		.type	chThdStart, %function
 590              	chThdStart:
 591              	.LFB245:
 592              		.loc 1 378 0
 593              		.cfi_startproc
 594              		@ args = 0, pretend = 0, frame = 0
 595              		@ frame_needed = 0, uses_anonymous_args = 0
 596              	.LVL27:
 597 0000 08B5     		push	{r3, lr}
 598              		.cfi_def_cfa_offset 8
 599              		.cfi_offset 3, -8
 600              		.cfi_offset 14, -4
 601              	.LBB314:
 602              	.LBB315:
 603              	.LBB316:
 604              	.LBB317:
 605              		.loc 3 264 0
 606 0002 2023     		movs	r3, #32
 607              	@ 264 "../../../../../ChibiOS-RT/os/common/ext/CMSIS/include/cmsis_gcc.h" 1
 608 0004 83F31188 		MSR basepri, r3
 609              	@ 0 "" 2
 610              	.LVL28:
 611              		.thumb
 612              	.LBE317:
 613              	.LBE316:
 614              	.LBE315:
 615              	.LBE314:
 616              	.LBB318:
 617              	.LBB319:
 618              		.file 4 "../../../../../ChibiOS-RT/os/rt/include/chthreads.h"
 619              		.loc 4 366 0
 620 0008 FFF7FEFF 		bl	chSchReadyI
 621              	.LVL29:
 622              	.LBE319:
 623              	.LBE318:
ARM GAS  /tmp/ccBVRHu6.s 			page 12


 624              	.LBB320:
 625              	.LBB321:
 626              	.LBB322:
 627              	.LBB323:
 628              	.LBB324:
 629              		.loc 3 264 0
 630 000c 0023     		movs	r3, #0
 631              	@ 264 "../../../../../ChibiOS-RT/os/common/ext/CMSIS/include/cmsis_gcc.h" 1
 632 000e 83F31188 		MSR basepri, r3
 633              	@ 0 "" 2
 634              		.thumb
 635              	.LBE324:
 636              	.LBE323:
 637              	.LBE322:
 638              	.LBE321:
 639              	.LBE320:
 640              		.loc 1 385 0
 641 0012 08BD     		pop	{r3, pc}
 642              		.cfi_endproc
 643              	.LFE245:
 644              		.size	chThdStart, .-chThdStart
 645 0014 AFF30080 		.section	.text.chThdAddRef,"ax",%progbits
 645      AFF30080 
 645      AFF30080 
 646              		.align	2
 647              		.p2align 4,,15
 648              		.global	chThdAddRef
 649              		.thumb
 650              		.thumb_func
 651              		.type	chThdAddRef, %function
 652              	chThdAddRef:
 653              	.LFB246:
 654              		.loc 1 399 0
 655              		.cfi_startproc
 656              		@ args = 0, pretend = 0, frame = 0
 657              		@ frame_needed = 0, uses_anonymous_args = 0
 658              		@ link register save eliminated.
 659              	.LVL30:
 660              	.LBB325:
 661              	.LBB326:
 662              	.LBB327:
 663              	.LBB328:
 664              		.loc 3 264 0
 665 0000 2023     		movs	r3, #32
 666              	@ 264 "../../../../../ChibiOS-RT/os/common/ext/CMSIS/include/cmsis_gcc.h" 1
 667 0002 83F31188 		MSR basepri, r3
 668              	@ 0 "" 2
 669              		.thumb
 670              	.LBE328:
 671              	.LBE327:
 672              	.LBE326:
 673              	.LBE325:
 674              		.loc 1 403 0
 675 0006 90F82230 		ldrb	r3, [r0, #34]	@ zero_extendqisi2
 676 000a 0133     		adds	r3, r3, #1
 677 000c 80F82230 		strb	r3, [r0, #34]
 678              	.LVL31:
ARM GAS  /tmp/ccBVRHu6.s 			page 13


 679              	.LBB329:
 680              	.LBB330:
 681              	.LBB331:
 682              	.LBB332:
 683              	.LBB333:
 684              		.loc 3 264 0
 685 0010 0023     		movs	r3, #0
 686              	@ 264 "../../../../../ChibiOS-RT/os/common/ext/CMSIS/include/cmsis_gcc.h" 1
 687 0012 83F31188 		MSR basepri, r3
 688              	@ 0 "" 2
 689              		.thumb
 690              	.LBE333:
 691              	.LBE332:
 692              	.LBE331:
 693              	.LBE330:
 694              	.LBE329:
 695              		.loc 1 407 0
 696 0016 7047     		bx	lr
 697              		.cfi_endproc
 698              	.LFE246:
 699              		.size	chThdAddRef, .-chThdAddRef
 700 0018 AFF30080 		.section	.text.chThdRelease,"ax",%progbits
 700      AFF30080 
 701              		.align	2
 702              		.p2align 4,,15
 703              		.global	chThdRelease
 704              		.thumb
 705              		.thumb_func
 706              		.type	chThdRelease, %function
 707              	chThdRelease:
 708              	.LFB247:
 709              		.loc 1 425 0
 710              		.cfi_startproc
 711              		@ args = 0, pretend = 0, frame = 0
 712              		@ frame_needed = 0, uses_anonymous_args = 0
 713              		@ link register save eliminated.
 714              	.LVL32:
 715              		.loc 1 425 0
 716 0000 0346     		mov	r3, r0
 717              	.LBB334:
 718              	.LBB335:
 719              	.LBB336:
 720              	.LBB337:
 721              		.loc 3 264 0
 722 0002 2022     		movs	r2, #32
 723              	@ 264 "../../../../../ChibiOS-RT/os/common/ext/CMSIS/include/cmsis_gcc.h" 1
 724 0004 82F31188 		MSR basepri, r2
 725              	@ 0 "" 2
 726              		.thumb
 727              	.LBE337:
 728              	.LBE336:
 729              	.LBE335:
 730              	.LBE334:
 731              		.loc 1 429 0
 732 0008 90F82220 		ldrb	r2, [r0, #34]	@ zero_extendqisi2
 733 000c 013A     		subs	r2, r2, #1
 734 000e 80F82220 		strb	r2, [r0, #34]
ARM GAS  /tmp/ccBVRHu6.s 			page 14


 735              		.loc 1 434 0
 736 0012 026A     		ldr	r2, [r0, #32]
 737 0014 02F0FF12 		and	r2, r2, #16711935
 738 0018 0F2A     		cmp	r2, #15
 739 001a 03D0     		beq	.L15
 740              	.LVL33:
 741              	.LBB338:
 742              	.LBB339:
 743              	.LBB340:
 744              	.LBB341:
 745              	.LBB342:
 746              		.loc 3 264 0
 747 001c 0023     		movs	r3, #0
 748              	@ 264 "../../../../../ChibiOS-RT/os/common/ext/CMSIS/include/cmsis_gcc.h" 1
 749 001e 83F31188 		MSR basepri, r3
 750              	@ 0 "" 2
 751              		.thumb
 752 0022 7047     		bx	lr
 753              	.LVL34:
 754              	.L15:
 755              	.LBE342:
 756              	.LBE341:
 757              	.LBE340:
 758              	.LBE339:
 759              	.LBE338:
 760              		.loc 1 435 0
 761 0024 0169     		ldr	r1, [r0, #16]
 762 0026 4269     		ldr	r2, [r0, #20]
 763 0028 1161     		str	r1, [r2, #16]
 764 002a 0169     		ldr	r1, [r0, #16]
 765              	.LBB343:
 766              	.LBB344:
 767              	.LBB345:
 768              	.LBB346:
 769              	.LBB347:
 770              		.loc 3 264 0
 771 002c 0020     		movs	r0, #0
 772              	.LVL35:
 773              	.LBE347:
 774              	.LBE346:
 775              	.LBE345:
 776              	.LBE344:
 777              	.LBE343:
 778              		.loc 1 435 0
 779 002e 4A61     		str	r2, [r1, #20]
 780              	.LVL36:
 781              	.LBB352:
 782              	.LBB351:
 783              	.LBB350:
 784              	.LBB349:
 785              	.LBB348:
 786              		.loc 3 264 0
 787              	@ 264 "../../../../../ChibiOS-RT/os/common/ext/CMSIS/include/cmsis_gcc.h" 1
 788 0030 80F31188 		MSR basepri, r0
 789              	@ 0 "" 2
 790              		.thumb
 791              	.LBE348:
ARM GAS  /tmp/ccBVRHu6.s 			page 15


 792              	.LBE349:
 793              	.LBE350:
 794              	.LBE351:
 795              	.LBE352:
 796              		.loc 1 439 0
 797 0034 93F82120 		ldrb	r2, [r3, #33]	@ zero_extendqisi2
 798 0038 02F00302 		and	r2, r2, #3
 799 003c 012A     		cmp	r2, #1
 800 003e 02D0     		beq	.L12
 801 0040 022A     		cmp	r2, #2
 802 0042 03D0     		beq	.L13
 803 0044 7047     		bx	lr
 804              	.L12:
 805              	.LVL37:
 806              		.loc 1 442 0
 807 0046 D869     		ldr	r0, [r3, #28]
 808 0048 FFF7FEBF 		b	chHeapFree
 809              	.LVL38:
 810              	.L13:
 811              		.loc 1 447 0
 812 004c 186C     		ldr	r0, [r3, #64]
 813 004e D969     		ldr	r1, [r3, #28]
 814 0050 FFF7FEBF 		b	chPoolFree
 815              	.LVL39:
 816              		.cfi_endproc
 817              	.LFE247:
 818              		.size	chThdRelease, .-chThdRelease
 819 0054 AFF30080 		.section	.text.chThdExitS,"ax",%progbits
 819      AFF30080 
 819      AFF30080 
 820              		.align	2
 821              		.p2align 4,,15
 822              		.global	chThdExitS
 823              		.thumb
 824              		.thumb_func
 825              		.type	chThdExitS, %function
 826              	chThdExitS:
 827              	.LFB249:
 828              		.loc 1 499 0
 829              		.cfi_startproc
 830              		@ args = 0, pretend = 0, frame = 0
 831              		@ frame_needed = 0, uses_anonymous_args = 0
 832              	.LVL40:
 833 0000 38B5     		push	{r3, r4, r5, lr}
 834              		.cfi_def_cfa_offset 16
 835              		.cfi_offset 3, -16
 836              		.cfi_offset 4, -12
 837              		.cfi_offset 5, -8
 838              		.cfi_offset 14, -4
 839              		.loc 1 500 0
 840 0002 40F20003 		movw	r3, #:lower16:ch
 841 0006 C0F20003 		movt	r3, #:upper16:ch
 842 000a 9C69     		ldr	r4, [r3, #24]
 843              	.LVL41:
 844              	.LBB353:
 845              	.LBB354:
 846              		.loc 2 538 0
ARM GAS  /tmp/ccBVRHu6.s 			page 16


 847 000c A36A     		ldr	r3, [r4, #40]
 848              	.LBE354:
 849              	.LBE353:
 850              		.loc 1 503 0
 851 000e 6062     		str	r0, [r4, #36]
 852              		.loc 1 510 0
 853 0010 04F12805 		add	r5, r4, #40
 854              	.LVL42:
 855 0014 9D42     		cmp	r5, r3
 856 0016 07D0     		beq	.L20
 857              	.LVL43:
 858              	.L21:
 859              	.LBB356:
 860              	.LBB357:
 861              		.loc 2 592 0
 862 0018 1A68     		ldr	r2, [r3]
 863              	.LBE357:
 864              	.LBE356:
 865              		.loc 1 511 0
 866 001a 1846     		mov	r0, r3
 867              	.LBB359:
 868              	.LBB358:
 869              		.loc 2 592 0
 870 001c A262     		str	r2, [r4, #40]
 871              	.LBE358:
 872              	.LBE359:
 873              		.loc 1 511 0
 874 001e FFF7FEFF 		bl	chSchReadyI
 875              	.LVL44:
 876              	.LBB360:
 877              	.LBB355:
 878              		.loc 2 538 0
 879 0022 A36A     		ldr	r3, [r4, #40]
 880              	.LBE355:
 881              	.LBE360:
 882              		.loc 1 510 0
 883 0024 AB42     		cmp	r3, r5
 884 0026 F7D1     		bne	.L21
 885              	.LVL45:
 886              	.L20:
 887              		.loc 1 519 0
 888 0028 94F82230 		ldrb	r3, [r4, #34]	@ zero_extendqisi2
 889 002c 4BB9     		cbnz	r3, .L19
 890              		.loc 1 520 0 discriminator 1
 891 002e 94F82130 		ldrb	r3, [r4, #33]	@ zero_extendqisi2
 892              		.loc 1 519 0 discriminator 1
 893 0032 9B07     		lsls	r3, r3, #30
 894              		.loc 1 521 0 discriminator 1
 895 0034 01BF     		itttt	eq
 896 0036 2269     		ldreq	r2, [r4, #16]
 897 0038 6369     		ldreq	r3, [r4, #20]
 898 003a 1A61     		streq	r2, [r3, #16]
 899 003c 2269     		ldreq	r2, [r4, #16]
 900 003e 08BF     		it	eq
 901 0040 5361     		streq	r3, [r2, #20]
 902              	.L19:
 903              		.loc 1 531 0
ARM GAS  /tmp/ccBVRHu6.s 			page 17


 904 0042 0F20     		movs	r0, #15
 905              		.loc 1 535 0
 906 0044 BDE83840 		pop	{r3, r4, r5, lr}
 907              	.LVL46:
 908              		.loc 1 531 0
 909 0048 FFF7FEBF 		b	chSchGoSleepS
 910              	.LVL47:
 911              		.cfi_endproc
 912              	.LFE249:
 913              		.size	chThdExitS, .-chThdExitS
 914 004c AFF30080 		.section	.text.chThdExit,"ax",%progbits
 915              		.align	2
 916              		.p2align 4,,15
 917              		.global	chThdExit
 918              		.thumb
 919              		.thumb_func
 920              		.type	chThdExit, %function
 921              	chThdExit:
 922              	.LFB248:
 923              		.loc 1 475 0
 924              		.cfi_startproc
 925              		@ args = 0, pretend = 0, frame = 0
 926              		@ frame_needed = 0, uses_anonymous_args = 0
 927              		@ link register save eliminated.
 928              	.LVL48:
 929              	.LBB361:
 930              	.LBB362:
 931              	.LBB363:
 932              	.LBB364:
 933              		.loc 3 264 0
 934 0000 2023     		movs	r3, #32
 935              	@ 264 "../../../../../ChibiOS-RT/os/common/ext/CMSIS/include/cmsis_gcc.h" 1
 936 0002 83F31188 		MSR basepri, r3
 937              	@ 0 "" 2
 938              		.thumb
 939              	.LBE364:
 940              	.LBE363:
 941              	.LBE362:
 942              	.LBE361:
 943              		.loc 1 478 0
 944 0006 FFF7FEBF 		b	chThdExitS
 945              	.LVL49:
 946              		.cfi_endproc
 947              	.LFE248:
 948              		.size	chThdExit, .-chThdExit
 949 000a 00BFAFF3 		.section	.text.chThdWait,"ax",%progbits
 949      0080
 950              		.align	2
 951              		.p2align 4,,15
 952              		.global	chThdWait
 953              		.thumb
 954              		.thumb_func
 955              		.type	chThdWait, %function
 956              	chThdWait:
 957              	.LFB250:
 958              		.loc 1 557 0
 959              		.cfi_startproc
ARM GAS  /tmp/ccBVRHu6.s 			page 18


 960              		@ args = 0, pretend = 0, frame = 0
 961              		@ frame_needed = 0, uses_anonymous_args = 0
 962              	.LVL50:
 963 0000 38B5     		push	{r3, r4, r5, lr}
 964              		.cfi_def_cfa_offset 16
 965              		.cfi_offset 3, -16
 966              		.cfi_offset 4, -12
 967              		.cfi_offset 5, -8
 968              		.cfi_offset 14, -4
 969              		.loc 1 557 0
 970 0002 0446     		mov	r4, r0
 971              	.LBB365:
 972              	.LBB366:
 973              	.LBB367:
 974              	.LBB368:
 975              		.loc 3 264 0
 976 0004 2023     		movs	r3, #32
 977              	@ 264 "../../../../../ChibiOS-RT/os/common/ext/CMSIS/include/cmsis_gcc.h" 1
 978 0006 83F31188 		MSR basepri, r3
 979              	@ 0 "" 2
 980              		.thumb
 981              	.LBE368:
 982              	.LBE367:
 983              	.LBE366:
 984              	.LBE365:
 985              		.loc 1 568 0
 986 000a 90F82030 		ldrb	r3, [r0, #32]	@ zero_extendqisi2
 987 000e 0F2B     		cmp	r3, #15
 988 0010 0AD0     		beq	.L24
 989              		.loc 1 569 0
 990 0012 40F20003 		movw	r3, #:lower16:ch
 991 0016 C0F20003 		movt	r3, #:upper16:ch
 992              	.LBB369:
 993              	.LBB370:
 994              		.loc 2 585 0
 995 001a 826A     		ldr	r2, [r0, #40]
 996              	.LBE370:
 997              	.LBE369:
 998              		.loc 1 569 0
 999 001c 9B69     		ldr	r3, [r3, #24]
 1000              	.LVL51:
 1001              		.loc 1 570 0
 1002 001e 0920     		movs	r0, #9
 1003              	.LVL52:
 1004              	.LBB372:
 1005              	.LBB371:
 1006              		.loc 2 585 0
 1007 0020 1A60     		str	r2, [r3]
 1008              		.loc 2 586 0
 1009 0022 A362     		str	r3, [r4, #40]
 1010              	.LBE371:
 1011              	.LBE372:
 1012              		.loc 1 570 0
 1013 0024 FFF7FEFF 		bl	chSchGoSleepS
 1014              	.LVL53:
 1015              	.L24:
 1016              		.loc 1 572 0
ARM GAS  /tmp/ccBVRHu6.s 			page 19


 1017 0028 656A     		ldr	r5, [r4, #36]
 1018              	.LVL54:
 1019              	.LBB373:
 1020              	.LBB374:
 1021              	.LBB375:
 1022              	.LBB376:
 1023              	.LBB377:
 1024              		.loc 3 264 0
 1025 002a 0023     		movs	r3, #0
 1026              	@ 264 "../../../../../ChibiOS-RT/os/common/ext/CMSIS/include/cmsis_gcc.h" 1
 1027 002c 83F31188 		MSR basepri, r3
 1028              	@ 0 "" 2
 1029              		.thumb
 1030              	.LBE377:
 1031              	.LBE376:
 1032              	.LBE375:
 1033              	.LBE374:
 1034              	.LBE373:
 1035              		.loc 1 577 0
 1036 0030 2046     		mov	r0, r4
 1037 0032 FFF7FEFF 		bl	chThdRelease
 1038              	.LVL55:
 1039              		.loc 1 581 0
 1040 0036 2846     		mov	r0, r5
 1041 0038 38BD     		pop	{r3, r4, r5, pc}
 1042              		.cfi_endproc
 1043              	.LFE250:
 1044              		.size	chThdWait, .-chThdWait
 1045 003a 00BFAFF3 		.section	.text.chThdSetPriority,"ax",%progbits
 1045      0080
 1046              		.align	2
 1047              		.p2align 4,,15
 1048              		.global	chThdSetPriority
 1049              		.thumb
 1050              		.thumb_func
 1051              		.type	chThdSetPriority, %function
 1052              	chThdSetPriority:
 1053              	.LFB251:
 1054              		.loc 1 596 0
 1055              		.cfi_startproc
 1056              		@ args = 0, pretend = 0, frame = 0
 1057              		@ frame_needed = 0, uses_anonymous_args = 0
 1058              	.LVL56:
 1059 0000 10B5     		push	{r4, lr}
 1060              		.cfi_def_cfa_offset 8
 1061              		.cfi_offset 4, -8
 1062              		.cfi_offset 14, -4
 1063              	.LBB378:
 1064              	.LBB379:
 1065              	.LBB380:
 1066              	.LBB381:
 1067              		.loc 3 264 0
 1068 0002 2023     		movs	r3, #32
 1069              	@ 264 "../../../../../ChibiOS-RT/os/common/ext/CMSIS/include/cmsis_gcc.h" 1
 1070 0004 83F31188 		MSR basepri, r3
 1071              	@ 0 "" 2
 1072              		.thumb
ARM GAS  /tmp/ccBVRHu6.s 			page 20


 1073              	.LBE381:
 1074              	.LBE380:
 1075              	.LBE379:
 1076              	.LBE378:
 1077              		.loc 1 603 0
 1078 0008 40F20003 		movw	r3, #:lower16:ch
 1079 000c C0F20003 		movt	r3, #:upper16:ch
 1080 0010 9B69     		ldr	r3, [r3, #24]
 1081 0012 DC6B     		ldr	r4, [r3, #60]
 1082              	.LVL57:
 1083              		.loc 1 604 0
 1084 0014 9968     		ldr	r1, [r3, #8]
 1085 0016 8C42     		cmp	r4, r1
 1086 0018 01D0     		beq	.L29
 1087              		.loc 1 604 0 is_stmt 0 discriminator 1
 1088 001a 8142     		cmp	r1, r0
 1089 001c 00D2     		bcs	.L30
 1090              	.L29:
 1091              		.loc 1 605 0 is_stmt 1
 1092 001e 9860     		str	r0, [r3, #8]
 1093              	.L30:
 1094              		.loc 1 607 0
 1095 0020 D863     		str	r0, [r3, #60]
 1096              		.loc 1 612 0
 1097 0022 FFF7FEFF 		bl	chSchRescheduleS
 1098              	.LVL58:
 1099              	.LBB382:
 1100              	.LBB383:
 1101              	.LBB384:
 1102              	.LBB385:
 1103              	.LBB386:
 1104              		.loc 3 264 0
 1105 0026 0023     		movs	r3, #0
 1106              	@ 264 "../../../../../ChibiOS-RT/os/common/ext/CMSIS/include/cmsis_gcc.h" 1
 1107 0028 83F31188 		MSR basepri, r3
 1108              	@ 0 "" 2
 1109              		.thumb
 1110              	.LBE386:
 1111              	.LBE385:
 1112              	.LBE384:
 1113              	.LBE383:
 1114              	.LBE382:
 1115              		.loc 1 616 0
 1116 002c 2046     		mov	r0, r4
 1117 002e 10BD     		pop	{r4, pc}
 1118              		.cfi_endproc
 1119              	.LFE251:
 1120              		.size	chThdSetPriority, .-chThdSetPriority
 1121              		.section	.text.chThdTerminate,"ax",%progbits
 1122              		.align	2
 1123              		.p2align 4,,15
 1124              		.global	chThdTerminate
 1125              		.thumb
 1126              		.thumb_func
 1127              		.type	chThdTerminate, %function
 1128              	chThdTerminate:
 1129              	.LFB252:
ARM GAS  /tmp/ccBVRHu6.s 			page 21


 1130              		.loc 1 630 0
 1131              		.cfi_startproc
 1132              		@ args = 0, pretend = 0, frame = 0
 1133              		@ frame_needed = 0, uses_anonymous_args = 0
 1134              		@ link register save eliminated.
 1135              	.LVL59:
 1136              	.LBB387:
 1137              	.LBB388:
 1138              	.LBB389:
 1139              	.LBB390:
 1140              		.loc 3 264 0
 1141 0000 2023     		movs	r3, #32
 1142              	@ 264 "../../../../../ChibiOS-RT/os/common/ext/CMSIS/include/cmsis_gcc.h" 1
 1143 0002 83F31188 		MSR basepri, r3
 1144              	@ 0 "" 2
 1145              		.thumb
 1146              	.LBE390:
 1147              	.LBE389:
 1148              	.LBE388:
 1149              	.LBE387:
 1150              		.loc 1 633 0
 1151 0006 90F82130 		ldrb	r3, [r0, #33]	@ zero_extendqisi2
 1152 000a 43F00403 		orr	r3, r3, #4
 1153 000e 80F82130 		strb	r3, [r0, #33]
 1154              	.LVL60:
 1155              	.LBB391:
 1156              	.LBB392:
 1157              	.LBB393:
 1158              	.LBB394:
 1159              	.LBB395:
 1160              		.loc 3 264 0
 1161 0012 0023     		movs	r3, #0
 1162              	@ 264 "../../../../../ChibiOS-RT/os/common/ext/CMSIS/include/cmsis_gcc.h" 1
 1163 0014 83F31188 		MSR basepri, r3
 1164              	@ 0 "" 2
 1165              		.thumb
 1166 0018 7047     		bx	lr
 1167              	.LBE395:
 1168              	.LBE394:
 1169              	.LBE393:
 1170              	.LBE392:
 1171              	.LBE391:
 1172              		.cfi_endproc
 1173              	.LFE252:
 1174              		.size	chThdTerminate, .-chThdTerminate
 1175              		.section	.text.chThdSleep,"ax",%progbits
 1176              		.align	2
 1177              		.p2align 4,,15
 1178              		.global	chThdSleep
 1179              		.thumb
 1180              		.thumb_func
 1181              		.type	chThdSleep, %function
 1182              	chThdSleep:
 1183              	.LFB253:
 1184              		.loc 1 649 0
 1185              		.cfi_startproc
 1186              		@ args = 0, pretend = 0, frame = 0
ARM GAS  /tmp/ccBVRHu6.s 			page 22


 1187              		@ frame_needed = 0, uses_anonymous_args = 0
 1188              	.LVL61:
 1189 0000 08B5     		push	{r3, lr}
 1190              		.cfi_def_cfa_offset 8
 1191              		.cfi_offset 3, -8
 1192              		.cfi_offset 14, -4
 1193              		.loc 1 649 0
 1194 0002 0146     		mov	r1, r0
 1195              	.LBB396:
 1196              	.LBB397:
 1197              	.LBB398:
 1198              	.LBB399:
 1199              		.loc 3 264 0
 1200 0004 2023     		movs	r3, #32
 1201              	@ 264 "../../../../../ChibiOS-RT/os/common/ext/CMSIS/include/cmsis_gcc.h" 1
 1202 0006 83F31188 		MSR basepri, r3
 1203              	@ 0 "" 2
 1204              	.LVL62:
 1205              		.thumb
 1206              	.LBE399:
 1207              	.LBE398:
 1208              	.LBE397:
 1209              	.LBE396:
 1210              	.LBB400:
 1211              	.LBB401:
 1212              		.loc 4 385 0
 1213 000a 0820     		movs	r0, #8
 1214              	.LVL63:
 1215 000c FFF7FEFF 		bl	chSchGoSleepTimeoutS
 1216              	.LVL64:
 1217              	.LBE401:
 1218              	.LBE400:
 1219              	.LBB402:
 1220              	.LBB403:
 1221              	.LBB404:
 1222              	.LBB405:
 1223              	.LBB406:
 1224              		.loc 3 264 0
 1225 0010 0023     		movs	r3, #0
 1226              	@ 264 "../../../../../ChibiOS-RT/os/common/ext/CMSIS/include/cmsis_gcc.h" 1
 1227 0012 83F31188 		MSR basepri, r3
 1228              	@ 0 "" 2
 1229              		.thumb
 1230 0016 08BD     		pop	{r3, pc}
 1231              	.LBE406:
 1232              	.LBE405:
 1233              	.LBE404:
 1234              	.LBE403:
 1235              	.LBE402:
 1236              		.cfi_endproc
 1237              	.LFE253:
 1238              		.size	chThdSleep, .-chThdSleep
 1239 0018 AFF30080 		.section	.text.chThdSleepUntil,"ax",%progbits
 1239      AFF30080 
 1240              		.align	2
 1241              		.p2align 4,,15
 1242              		.global	chThdSleepUntil
ARM GAS  /tmp/ccBVRHu6.s 			page 23


 1243              		.thumb
 1244              		.thumb_func
 1245              		.type	chThdSleepUntil, %function
 1246              	chThdSleepUntil:
 1247              	.LFB254:
 1248              		.loc 1 669 0
 1249              		.cfi_startproc
 1250              		@ args = 0, pretend = 0, frame = 0
 1251              		@ frame_needed = 0, uses_anonymous_args = 0
 1252              	.LVL65:
 1253 0000 08B5     		push	{r3, lr}
 1254              		.cfi_def_cfa_offset 8
 1255              		.cfi_offset 3, -8
 1256              		.cfi_offset 14, -4
 1257              	.LBB407:
 1258              	.LBB408:
 1259              	.LBB409:
 1260              	.LBB410:
 1261              		.loc 3 264 0
 1262 0002 2023     		movs	r3, #32
 1263              	@ 264 "../../../../../ChibiOS-RT/os/common/ext/CMSIS/include/cmsis_gcc.h" 1
 1264 0004 83F31188 		MSR basepri, r3
 1265              	@ 0 "" 2
 1266              		.thumb
 1267              	.LBE410:
 1268              	.LBE409:
 1269              	.LBE408:
 1270              	.LBE407:
 1271              	.LBB411:
 1272              	.LBB412:
 1273              	.LBB413:
 1274              	.LBB414:
 1275              		.file 5 "../../../../../ChibiOS-RT/os/hal/ports/STM32/LLD/TIMv1/hal_st_lld.h"
 1276              		.loc 5 141 0
 1277 0008 4FF08043 		mov	r3, #1073741824
 1278 000c 5B6A     		ldr	r3, [r3, #36]
 1279              	.LVL66:
 1280              	.LBE414:
 1281              	.LBE413:
 1282              	.LBE412:
 1283              	.LBE411:
 1284              		.loc 1 673 0
 1285 000e C11A     		subs	r1, r0, r3
 1286              	.LVL67:
 1287 0010 02D0     		beq	.L34
 1288              	.LVL68:
 1289              	.LBB415:
 1290              	.LBB416:
 1291              		.loc 4 385 0
 1292 0012 0820     		movs	r0, #8
 1293 0014 FFF7FEFF 		bl	chSchGoSleepTimeoutS
 1294              	.LVL69:
 1295              	.L34:
 1296              	.LBE416:
 1297              	.LBE415:
 1298              	.LBB417:
 1299              	.LBB418:
ARM GAS  /tmp/ccBVRHu6.s 			page 24


 1300              	.LBB419:
 1301              	.LBB420:
 1302              	.LBB421:
 1303              		.loc 3 264 0
 1304 0018 0023     		movs	r3, #0
 1305              	@ 264 "../../../../../ChibiOS-RT/os/common/ext/CMSIS/include/cmsis_gcc.h" 1
 1306 001a 83F31188 		MSR basepri, r3
 1307              	@ 0 "" 2
 1308              		.thumb
 1309 001e 08BD     		pop	{r3, pc}
 1310              	.LBE421:
 1311              	.LBE420:
 1312              	.LBE419:
 1313              	.LBE418:
 1314              	.LBE417:
 1315              		.cfi_endproc
 1316              	.LFE254:
 1317              		.size	chThdSleepUntil, .-chThdSleepUntil
 1318              		.section	.text.chThdSleepUntilWindowed,"ax",%progbits
 1319              		.align	2
 1320              		.p2align 4,,15
 1321              		.global	chThdSleepUntilWindowed
 1322              		.thumb
 1323              		.thumb_func
 1324              		.type	chThdSleepUntilWindowed, %function
 1325              	chThdSleepUntilWindowed:
 1326              	.LFB255:
 1327              		.loc 1 693 0
 1328              		.cfi_startproc
 1329              		@ args = 0, pretend = 0, frame = 0
 1330              		@ frame_needed = 0, uses_anonymous_args = 0
 1331              	.LVL70:
 1332 0000 10B5     		push	{r4, lr}
 1333              		.cfi_def_cfa_offset 8
 1334              		.cfi_offset 4, -8
 1335              		.cfi_offset 14, -4
 1336              	.LBB422:
 1337              	.LBB423:
 1338              	.LBB424:
 1339              	.LBB425:
 1340              		.loc 3 264 0
 1341 0002 2023     		movs	r3, #32
 1342              	.LBE425:
 1343              	.LBE424:
 1344              	.LBE423:
 1345              	.LBE422:
 1346              		.loc 1 693 0
 1347 0004 0C46     		mov	r4, r1
 1348              	.LBB429:
 1349              	.LBB428:
 1350              	.LBB427:
 1351              	.LBB426:
 1352              		.loc 3 264 0
 1353              	@ 264 "../../../../../ChibiOS-RT/os/common/ext/CMSIS/include/cmsis_gcc.h" 1
 1354 0006 83F31188 		MSR basepri, r3
 1355              	@ 0 "" 2
 1356              		.thumb
ARM GAS  /tmp/ccBVRHu6.s 			page 25


 1357              	.LBE426:
 1358              	.LBE427:
 1359              	.LBE428:
 1360              	.LBE429:
 1361              	.LBB430:
 1362              	.LBB431:
 1363              	.LBB432:
 1364              	.LBB433:
 1365              		.loc 5 141 0
 1366 000a 4FF08042 		mov	r2, #1073741824
 1367              	.LBE433:
 1368              	.LBE432:
 1369              	.LBE431:
 1370              	.LBE430:
 1371              	.LBB437:
 1372              	.LBB438:
 1373              		.file 6 "../../../../../ChibiOS-RT/os/rt/include/chvt.h"
 1374              		.loc 6 288 0
 1375 000e 0B1A     		subs	r3, r1, r0
 1376              	.LBE438:
 1377              	.LBE437:
 1378              	.LBB440:
 1379              	.LBB436:
 1380              	.LBB435:
 1381              	.LBB434:
 1382              		.loc 5 141 0
 1383 0010 516A     		ldr	r1, [r2, #36]
 1384              	.LVL71:
 1385              	.LBE434:
 1386              	.LBE435:
 1387              	.LBE436:
 1388              	.LBE440:
 1389              	.LBB441:
 1390              	.LBB439:
 1391              		.loc 6 288 0
 1392 0012 081A     		subs	r0, r1, r0
 1393              	.LVL72:
 1394              	.LBE439:
 1395              	.LBE441:
 1396              		.loc 1 698 0
 1397 0014 9842     		cmp	r0, r3
 1398 0016 03D2     		bcs	.L39
 1399              	.LVL73:
 1400              	.LBB442:
 1401              	.LBB443:
 1402              		.loc 4 385 0
 1403 0018 611A     		subs	r1, r4, r1
 1404              	.LVL74:
 1405 001a 0820     		movs	r0, #8
 1406 001c FFF7FEFF 		bl	chSchGoSleepTimeoutS
 1407              	.LVL75:
 1408              	.L39:
 1409              	.LBE443:
 1410              	.LBE442:
 1411              	.LBB444:
 1412              	.LBB445:
 1413              	.LBB446:
ARM GAS  /tmp/ccBVRHu6.s 			page 26


 1414              	.LBB447:
 1415              	.LBB448:
 1416              		.loc 3 264 0
 1417 0020 0023     		movs	r3, #0
 1418              	@ 264 "../../../../../ChibiOS-RT/os/common/ext/CMSIS/include/cmsis_gcc.h" 1
 1419 0022 83F31188 		MSR basepri, r3
 1420              	@ 0 "" 2
 1421              		.thumb
 1422              	.LBE448:
 1423              	.LBE447:
 1424              	.LBE446:
 1425              	.LBE445:
 1426              	.LBE444:
 1427              		.loc 1 704 0
 1428 0026 2046     		mov	r0, r4
 1429 0028 10BD     		pop	{r4, pc}
 1430              		.cfi_endproc
 1431              	.LFE255:
 1432              		.size	chThdSleepUntilWindowed, .-chThdSleepUntilWindowed
 1433 002a 00BFAFF3 		.section	.text.chThdYield,"ax",%progbits
 1433      0080
 1434              		.align	2
 1435              		.p2align 4,,15
 1436              		.global	chThdYield
 1437              		.thumb
 1438              		.thumb_func
 1439              		.type	chThdYield, %function
 1440              	chThdYield:
 1441              	.LFB256:
 1442              		.loc 1 713 0
 1443              		.cfi_startproc
 1444              		@ args = 0, pretend = 0, frame = 0
 1445              		@ frame_needed = 0, uses_anonymous_args = 0
 1446              	.LVL76:
 1447 0000 08B5     		push	{r3, lr}
 1448              		.cfi_def_cfa_offset 8
 1449              		.cfi_offset 3, -8
 1450              		.cfi_offset 14, -4
 1451              	.LBB462:
 1452              	.LBB463:
 1453              	.LBB464:
 1454              	.LBB465:
 1455              		.loc 3 264 0
 1456 0002 2023     		movs	r3, #32
 1457              	@ 264 "../../../../../ChibiOS-RT/os/common/ext/CMSIS/include/cmsis_gcc.h" 1
 1458 0004 83F31188 		MSR basepri, r3
 1459              	@ 0 "" 2
 1460              		.thumb
 1461              	.LBE465:
 1462              	.LBE464:
 1463              	.LBE463:
 1464              	.LBE462:
 1465              	.LBB466:
 1466              	.LBB467:
 1467              	.LBB468:
 1468              	.LBB469:
 1469              		.loc 2 677 0
ARM GAS  /tmp/ccBVRHu6.s 			page 27


 1470 0008 40F20003 		movw	r3, #:lower16:ch
 1471 000c C0F20003 		movt	r3, #:upper16:ch
 1472 0010 1A68     		ldr	r2, [r3]
 1473 0012 9B69     		ldr	r3, [r3, #24]
 1474              	.LBE469:
 1475              	.LBE468:
 1476              		.loc 2 691 0
 1477 0014 9268     		ldr	r2, [r2, #8]
 1478 0016 9B68     		ldr	r3, [r3, #8]
 1479 0018 9A42     		cmp	r2, r3
 1480 001a 01D3     		bcc	.L41
 1481              		.loc 2 692 0
 1482 001c FFF7FEFF 		bl	chSchDoRescheduleBehind
 1483              	.LVL77:
 1484              	.L41:
 1485              	.LBE467:
 1486              	.LBE466:
 1487              	.LBB470:
 1488              	.LBB471:
 1489              	.LBB472:
 1490              	.LBB473:
 1491              	.LBB474:
 1492              		.loc 3 264 0
 1493 0020 0023     		movs	r3, #0
 1494              	@ 264 "../../../../../ChibiOS-RT/os/common/ext/CMSIS/include/cmsis_gcc.h" 1
 1495 0022 83F31188 		MSR basepri, r3
 1496              	@ 0 "" 2
 1497              		.thumb
 1498 0026 08BD     		pop	{r3, pc}
 1499              	.LBE474:
 1500              	.LBE473:
 1501              	.LBE472:
 1502              	.LBE471:
 1503              	.LBE470:
 1504              		.cfi_endproc
 1505              	.LFE256:
 1506              		.size	chThdYield, .-chThdYield
 1507 0028 AFF30080 		.section	.text.chThdSuspendS,"ax",%progbits
 1507      AFF30080 
 1508              		.align	2
 1509              		.p2align 4,,15
 1510              		.global	chThdSuspendS
 1511              		.thumb
 1512              		.thumb_func
 1513              		.type	chThdSuspendS, %function
 1514              	chThdSuspendS:
 1515              	.LFB257:
 1516              		.loc 1 730 0
 1517              		.cfi_startproc
 1518              		@ args = 0, pretend = 0, frame = 0
 1519              		@ frame_needed = 0, uses_anonymous_args = 0
 1520              	.LVL78:
 1521 0000 10B5     		push	{r4, lr}
 1522              		.cfi_def_cfa_offset 8
 1523              		.cfi_offset 4, -8
 1524              		.cfi_offset 14, -4
 1525              	.LBB475:
ARM GAS  /tmp/ccBVRHu6.s 			page 28


 1526              	.LBB476:
 1527              		.loc 4 277 0
 1528 0002 40F20004 		movw	r4, #:lower16:ch
 1529 0006 C0F20004 		movt	r4, #:upper16:ch
 1530              	.LBE476:
 1531              	.LBE475:
 1532              		.loc 1 730 0
 1533 000a 0246     		mov	r2, r0
 1534              	.LBB478:
 1535              	.LBB477:
 1536              		.loc 4 277 0
 1537 000c A369     		ldr	r3, [r4, #24]
 1538              	.LBE477:
 1539              	.LBE478:
 1540              		.loc 1 737 0
 1541 000e 0320     		movs	r0, #3
 1542              	.LVL79:
 1543              		.loc 1 735 0
 1544 0010 1360     		str	r3, [r2]
 1545              		.loc 1 736 0
 1546 0012 5A62     		str	r2, [r3, #36]
 1547              		.loc 1 737 0
 1548 0014 FFF7FEFF 		bl	chSchGoSleepS
 1549              	.LVL80:
 1550              		.loc 1 739 0
 1551 0018 A369     		ldr	r3, [r4, #24]
 1552              		.loc 1 740 0
 1553 001a 586A     		ldr	r0, [r3, #36]
 1554 001c 10BD     		pop	{r4, pc}
 1555              		.cfi_endproc
 1556              	.LFE257:
 1557              		.size	chThdSuspendS, .-chThdSuspendS
 1558 001e 00BF     		.section	.text.chThdSuspendTimeoutS,"ax",%progbits
 1559              		.align	2
 1560              		.p2align 4,,15
 1561              		.global	chThdSuspendTimeoutS
 1562              		.thumb
 1563              		.thumb_func
 1564              		.type	chThdSuspendTimeoutS, %function
 1565              	chThdSuspendTimeoutS:
 1566              	.LFB258:
 1567              		.loc 1 761 0
 1568              		.cfi_startproc
 1569              		@ args = 0, pretend = 0, frame = 0
 1570              		@ frame_needed = 0, uses_anonymous_args = 0
 1571              		@ link register save eliminated.
 1572              	.LVL81:
 1573              	.LBB479:
 1574              	.LBB480:
 1575              		.loc 4 277 0
 1576 0000 40F20003 		movw	r3, #:lower16:ch
 1577 0004 C0F20003 		movt	r3, #:upper16:ch
 1578              	.LBE480:
 1579              	.LBE479:
 1580              		.loc 1 761 0
 1581 0008 0246     		mov	r2, r0
 1582              	.LBB482:
ARM GAS  /tmp/ccBVRHu6.s 			page 29


 1583              	.LBB481:
 1584              		.loc 4 277 0
 1585 000a 9B69     		ldr	r3, [r3, #24]
 1586              	.LBE481:
 1587              	.LBE482:
 1588              		.loc 1 766 0
 1589 000c 21B1     		cbz	r1, .L44
 1590              		.loc 1 770 0
 1591 000e 0360     		str	r3, [r0]
 1592              		.loc 1 773 0
 1593 0010 0320     		movs	r0, #3
 1594              	.LVL82:
 1595              		.loc 1 771 0
 1596 0012 5A62     		str	r2, [r3, #36]
 1597              		.loc 1 773 0
 1598 0014 FFF7FEBF 		b	chSchGoSleepTimeoutS
 1599              	.LVL83:
 1600              	.L44:
 1601              		.loc 1 774 0
 1602 0018 4FF0FF30 		mov	r0, #-1
 1603              	.LVL84:
 1604 001c 7047     		bx	lr
 1605              		.cfi_endproc
 1606              	.LFE258:
 1607              		.size	chThdSuspendTimeoutS, .-chThdSuspendTimeoutS
 1608 001e 00BF     		.section	.text.chThdResumeI,"ax",%progbits
 1609              		.align	2
 1610              		.p2align 4,,15
 1611              		.global	chThdResumeI
 1612              		.thumb
 1613              		.thumb_func
 1614              		.type	chThdResumeI, %function
 1615              	chThdResumeI:
 1616              	.LFB259:
 1617              		.loc 1 786 0
 1618              		.cfi_startproc
 1619              		@ args = 0, pretend = 0, frame = 0
 1620              		@ frame_needed = 0, uses_anonymous_args = 0
 1621              		@ link register save eliminated.
 1622              	.LVL85:
 1623              		.loc 1 788 0
 1624 0000 0368     		ldr	r3, [r0]
 1625 0002 2BB1     		cbz	r3, .L45
 1626              	.LVL86:
 1627              	.LBB483:
 1628              		.loc 1 793 0
 1629 0004 0022     		movs	r2, #0
 1630 0006 0260     		str	r2, [r0]
 1631              		.loc 1 795 0
 1632 0008 1846     		mov	r0, r3
 1633              	.LVL87:
 1634              		.loc 1 794 0
 1635 000a 5962     		str	r1, [r3, #36]
 1636              		.loc 1 795 0
 1637 000c FFF7FEBF 		b	chSchReadyI
 1638              	.LVL88:
 1639              	.L45:
ARM GAS  /tmp/ccBVRHu6.s 			page 30


 1640 0010 7047     		bx	lr
 1641              	.LBE483:
 1642              		.cfi_endproc
 1643              	.LFE259:
 1644              		.size	chThdResumeI, .-chThdResumeI
 1645 0012 00BFAFF3 		.section	.text.chThdResumeS,"ax",%progbits
 1645      0080AFF3 
 1645      0080AFF3 
 1645      0080
 1646              		.align	2
 1647              		.p2align 4,,15
 1648              		.global	chThdResumeS
 1649              		.thumb
 1650              		.thumb_func
 1651              		.type	chThdResumeS, %function
 1652              	chThdResumeS:
 1653              	.LFB260:
 1654              		.loc 1 809 0
 1655              		.cfi_startproc
 1656              		@ args = 0, pretend = 0, frame = 0
 1657              		@ frame_needed = 0, uses_anonymous_args = 0
 1658              		@ link register save eliminated.
 1659              	.LVL89:
 1660              		.loc 1 809 0
 1661 0000 0346     		mov	r3, r0
 1662              		.loc 1 811 0
 1663 0002 0068     		ldr	r0, [r0]
 1664              	.LVL90:
 1665 0004 18B1     		cbz	r0, .L47
 1666              	.LVL91:
 1667              	.LBB484:
 1668              		.loc 1 816 0
 1669 0006 0022     		movs	r2, #0
 1670 0008 1A60     		str	r2, [r3]
 1671              		.loc 1 817 0
 1672 000a FFF7FEBF 		b	chSchWakeupS
 1673              	.LVL92:
 1674              	.L47:
 1675 000e 7047     		bx	lr
 1676              	.LBE484:
 1677              		.cfi_endproc
 1678              	.LFE260:
 1679              		.size	chThdResumeS, .-chThdResumeS
 1680              		.section	.text.chThdResume,"ax",%progbits
 1681              		.align	2
 1682              		.p2align 4,,15
 1683              		.global	chThdResume
 1684              		.thumb
 1685              		.thumb_func
 1686              		.type	chThdResume, %function
 1687              	chThdResume:
 1688              	.LFB261:
 1689              		.loc 1 831 0
 1690              		.cfi_startproc
 1691              		@ args = 0, pretend = 0, frame = 0
 1692              		@ frame_needed = 0, uses_anonymous_args = 0
 1693              	.LVL93:
ARM GAS  /tmp/ccBVRHu6.s 			page 31


 1694 0000 08B5     		push	{r3, lr}
 1695              		.cfi_def_cfa_offset 8
 1696              		.cfi_offset 3, -8
 1697              		.cfi_offset 14, -4
 1698              	.LBB485:
 1699              	.LBB486:
 1700              	.LBB487:
 1701              	.LBB488:
 1702              		.loc 3 264 0
 1703 0002 2022     		movs	r2, #32
 1704              	.LBE488:
 1705              	.LBE487:
 1706              	.LBE486:
 1707              	.LBE485:
 1708              		.loc 1 831 0
 1709 0004 0346     		mov	r3, r0
 1710              	.LBB492:
 1711              	.LBB491:
 1712              	.LBB490:
 1713              	.LBB489:
 1714              		.loc 3 264 0
 1715              	@ 264 "../../../../../ChibiOS-RT/os/common/ext/CMSIS/include/cmsis_gcc.h" 1
 1716 0006 82F31188 		MSR basepri, r2
 1717              	@ 0 "" 2
 1718              	.LVL94:
 1719              		.thumb
 1720              	.LBE489:
 1721              	.LBE490:
 1722              	.LBE491:
 1723              	.LBE492:
 1724              	.LBB493:
 1725              	.LBB494:
 1726              		.loc 1 811 0
 1727 000a 0068     		ldr	r0, [r0]
 1728              	.LVL95:
 1729 000c 18B1     		cbz	r0, .L50
 1730              	.LVL96:
 1731              	.LBB495:
 1732              		.loc 1 816 0
 1733 000e 0022     		movs	r2, #0
 1734 0010 1A60     		str	r2, [r3]
 1735              		.loc 1 817 0
 1736 0012 FFF7FEFF 		bl	chSchWakeupS
 1737              	.LVL97:
 1738              	.L50:
 1739              	.LBE495:
 1740              	.LBE494:
 1741              	.LBE493:
 1742              	.LBB496:
 1743              	.LBB497:
 1744              	.LBB498:
 1745              	.LBB499:
 1746              	.LBB500:
 1747              		.loc 3 264 0
 1748 0016 0023     		movs	r3, #0
 1749              	@ 264 "../../../../../ChibiOS-RT/os/common/ext/CMSIS/include/cmsis_gcc.h" 1
 1750 0018 83F31188 		MSR basepri, r3
ARM GAS  /tmp/ccBVRHu6.s 			page 32


 1751              	@ 0 "" 2
 1752              		.thumb
 1753 001c 08BD     		pop	{r3, pc}
 1754              	.LBE500:
 1755              	.LBE499:
 1756              	.LBE498:
 1757              	.LBE497:
 1758              	.LBE496:
 1759              		.cfi_endproc
 1760              	.LFE261:
 1761              		.size	chThdResume, .-chThdResume
 1762 001e 00BF     		.section	.text.chThdEnqueueTimeoutS,"ax",%progbits
 1763              		.align	2
 1764              		.p2align 4,,15
 1765              		.global	chThdEnqueueTimeoutS
 1766              		.thumb
 1767              		.thumb_func
 1768              		.type	chThdEnqueueTimeoutS, %function
 1769              	chThdEnqueueTimeoutS:
 1770              	.LFB262:
 1771              		.loc 1 861 0
 1772              		.cfi_startproc
 1773              		@ args = 0, pretend = 0, frame = 0
 1774              		@ frame_needed = 0, uses_anonymous_args = 0
 1775              		@ link register save eliminated.
 1776              	.LVL98:
 1777 0000 10B4     		push	{r4}
 1778              		.cfi_def_cfa_offset 4
 1779              		.cfi_offset 4, -4
 1780              		.loc 1 861 0
 1781 0002 0246     		mov	r2, r0
 1782              		.loc 1 863 0
 1783 0004 71B1     		cbz	r1, .L55
 1784              		.loc 1 867 0
 1785 0006 40F20003 		movw	r3, #:lower16:ch
 1786 000a C0F20003 		movt	r3, #:upper16:ch
 1787              	.LBB501:
 1788              	.LBB502:
 1789              		.loc 2 612 0
 1790 000e 4468     		ldr	r4, [r0, #4]
 1791              	.LBE502:
 1792              	.LBE501:
 1793              		.loc 1 867 0
 1794 0010 9B69     		ldr	r3, [r3, #24]
 1795              	.LVL99:
 1796              		.loc 1 869 0
 1797 0012 0420     		movs	r0, #4
 1798              	.LVL100:
 1799              	.LBB504:
 1800              	.LBB503:
 1801              		.loc 2 612 0
 1802 0014 83E81400 		stmia	r3, {r2, r4}
 1803              		.loc 2 613 0
 1804 0018 2360     		str	r3, [r4]
 1805              		.loc 2 614 0
 1806 001a 5360     		str	r3, [r2, #4]
 1807              	.LBE503:
ARM GAS  /tmp/ccBVRHu6.s 			page 33


 1808              	.LBE504:
 1809              		.loc 1 870 0
 1810 001c 5DF8044B 		ldr	r4, [sp], #4
 1811              		.loc 1 869 0
 1812 0020 FFF7FEBF 		b	chSchGoSleepTimeoutS
 1813              	.LVL101:
 1814              	.L55:
 1815              		.loc 1 870 0
 1816 0024 4FF0FF30 		mov	r0, #-1
 1817              	.LVL102:
 1818 0028 5DF8044B 		ldr	r4, [sp], #4
 1819 002c 7047     		bx	lr
 1820              		.cfi_endproc
 1821              	.LFE262:
 1822              		.size	chThdEnqueueTimeoutS, .-chThdEnqueueTimeoutS
 1823 002e 00BF     		.section	.text.chThdDequeueNextI,"ax",%progbits
 1824              		.align	2
 1825              		.p2align 4,,15
 1826              		.global	chThdDequeueNextI
 1827              		.thumb
 1828              		.thumb_func
 1829              		.type	chThdDequeueNextI, %function
 1830              	chThdDequeueNextI:
 1831              	.LFB263:
 1832              		.loc 1 881 0
 1833              		.cfi_startproc
 1834              		@ args = 0, pretend = 0, frame = 0
 1835              		@ frame_needed = 0, uses_anonymous_args = 0
 1836              		@ link register save eliminated.
 1837              	.LVL103:
 1838              	.LBB505:
 1839              	.LBB506:
 1840              		.loc 2 577 0
 1841 0000 0268     		ldr	r2, [r0]
 1842              	.LBE506:
 1843              	.LBE505:
 1844              		.loc 1 883 0
 1845 0002 9042     		cmp	r0, r2
 1846              		.loc 1 881 0
 1847 0004 10B4     		push	{r4}
 1848              		.cfi_def_cfa_offset 4
 1849              		.cfi_offset 4, -4
 1850              		.loc 1 881 0
 1851 0006 0346     		mov	r3, r0
 1852              	.LVL104:
 1853              		.loc 1 883 0
 1854 0008 08D0     		beq	.L56
 1855              	.LVL105:
 1856              	.LBB507:
 1857              	.LBB508:
 1858              	.LBB509:
 1859              	.LBB510:
 1860              		.loc 2 620 0
 1861 000a 1468     		ldr	r4, [r2]
 1862 000c 1C60     		str	r4, [r3]
 1863              		.loc 2 621 0
 1864 000e 6360     		str	r3, [r4, #4]
ARM GAS  /tmp/ccBVRHu6.s 			page 34


 1865              	.LBE510:
 1866              	.LBE509:
 1867              		.loc 4 438 0
 1868 0010 5162     		str	r1, [r2, #36]
 1869              		.loc 4 439 0
 1870 0012 1046     		mov	r0, r2
 1871              	.LVL106:
 1872              	.LBE508:
 1873              	.LBE507:
 1874              		.loc 1 886 0
 1875 0014 5DF8044B 		ldr	r4, [sp], #4
 1876              	.LBB512:
 1877              	.LBB511:
 1878              		.loc 4 439 0
 1879 0018 FFF7FEBF 		b	chSchReadyI
 1880              	.LVL107:
 1881              	.L56:
 1882              	.LBE511:
 1883              	.LBE512:
 1884              		.loc 1 886 0
 1885 001c 5DF8044B 		ldr	r4, [sp], #4
 1886 0020 7047     		bx	lr
 1887              		.cfi_endproc
 1888              	.LFE263:
 1889              		.size	chThdDequeueNextI, .-chThdDequeueNextI
 1890 0022 00BFAFF3 		.section	.text.chThdDequeueAllI,"ax",%progbits
 1890      0080AFF3 
 1890      0080AFF3 
 1890      0080
 1891              		.align	2
 1892              		.p2align 4,,15
 1893              		.global	chThdDequeueAllI
 1894              		.thumb
 1895              		.thumb_func
 1896              		.type	chThdDequeueAllI, %function
 1897              	chThdDequeueAllI:
 1898              	.LFB264:
 1899              		.loc 1 896 0
 1900              		.cfi_startproc
 1901              		@ args = 0, pretend = 0, frame = 0
 1902              		@ frame_needed = 0, uses_anonymous_args = 0
 1903              	.LVL108:
 1904 0000 38B5     		push	{r3, r4, r5, lr}
 1905              		.cfi_def_cfa_offset 16
 1906              		.cfi_offset 3, -16
 1907              		.cfi_offset 4, -12
 1908              		.cfi_offset 5, -8
 1909              		.cfi_offset 14, -4
 1910              	.LBB513:
 1911              	.LBB514:
 1912              		.loc 2 577 0
 1913 0002 0368     		ldr	r3, [r0]
 1914              	.LBE514:
 1915              	.LBE513:
 1916              		.loc 1 898 0
 1917 0004 9842     		cmp	r0, r3
 1918              		.loc 1 896 0
ARM GAS  /tmp/ccBVRHu6.s 			page 35


 1919 0006 0446     		mov	r4, r0
 1920              	.LVL109:
 1921 0008 0D46     		mov	r5, r1
 1922              		.loc 1 898 0
 1923 000a 09D0     		beq	.L58
 1924              	.LVL110:
 1925              	.L61:
 1926              	.LBB516:
 1927              	.LBB517:
 1928              	.LBB518:
 1929              	.LBB519:
 1930              		.loc 2 620 0
 1931 000c 1A68     		ldr	r2, [r3]
 1932              	.LBE519:
 1933              	.LBE518:
 1934              		.loc 4 439 0
 1935 000e 1846     		mov	r0, r3
 1936              	.LBB521:
 1937              	.LBB520:
 1938              		.loc 2 620 0
 1939 0010 2260     		str	r2, [r4]
 1940              		.loc 2 621 0
 1941 0012 5460     		str	r4, [r2, #4]
 1942              	.LBE520:
 1943              	.LBE521:
 1944              		.loc 4 438 0
 1945 0014 5D62     		str	r5, [r3, #36]
 1946              		.loc 4 439 0
 1947 0016 FFF7FEFF 		bl	chSchReadyI
 1948              	.LVL111:
 1949              	.LBE517:
 1950              	.LBE516:
 1951              	.LBB522:
 1952              	.LBB515:
 1953              		.loc 2 577 0
 1954 001a 2368     		ldr	r3, [r4]
 1955              	.LBE515:
 1956              	.LBE522:
 1957              		.loc 1 898 0
 1958 001c 9C42     		cmp	r4, r3
 1959 001e F5D1     		bne	.L61
 1960              	.LVL112:
 1961              	.L58:
 1962 0020 38BD     		pop	{r3, r4, r5, pc}
 1963              		.cfi_endproc
 1964              	.LFE264:
 1965              		.size	chThdDequeueAllI, .-chThdDequeueAllI
 1966 0022 00BFAFF3 		.section	.rodata.str1.4,"aMS",%progbits,1
 1966      0080AFF3 
 1966      0080AFF3 
 1966      0080
 1967              		.align	2
 1968              	.LC0:
 1969 0000 6E6F6E61 		.ascii	"noname\000"
 1969      6D6500
 1970 0007 00       		.text
 1971              	.Letext0:
ARM GAS  /tmp/ccBVRHu6.s 			page 36


 1972              		.file 7 "/usr/lib/gcc/arm-none-eabi/4.8.2/include/stddef.h"
 1973              		.file 8 "/usr/include/newlib/machine/_default_types.h"
 1974              		.file 9 "/usr/include/newlib/stdint.h"
 1975              		.file 10 "../../../../../ChibiOS-RT/os/common/ports/ARMCMx/compilers/GCC/chtypes.h"
 1976              		.file 11 "../../../../../ChibiOS-RT/os/rt/include/chsystypes.h"
 1977              		.file 12 "../../../../../ChibiOS-RT/os/common/ports/ARMCMx/chcore.h"
 1978              		.file 13 "../../../../../ChibiOS-RT/os/common/ports/ARMCMx/chcore_v7m.h"
 1979              		.file 14 "../../../../../ChibiOS-RT/os/hal/ports/STM32/LLD/TIMv1/stm32_tim.h"
 1980              		.file 15 "../../../../../ChibiOS-RT/os/rt/include/chtrace.h"
 1981              		.file 16 "../../../../../ChibiOS-RT/os/rt/include/chtm.h"
 1982              		.file 17 "../../../../../ChibiOS-RT/os/rt/include/chsem.h"
 1983              		.file 18 "../../../../../ChibiOS-RT/os/rt/include/chmtx.h"
 1984              		.file 19 "../../../../../ChibiOS-RT/os/common/oslib/include/chmemcore.h"
 1985              		.file 20 "../../../../../ChibiOS-RT/os/common/oslib/include/chmempools.h"
 1986              		.file 21 "../../../../../ChibiOS-RT/os/common/ports/ARMCMx/chcore_timer.h"
 1987              		.file 22 "../../../../../ChibiOS-RT/os/rt/include/chsys.h"
 1988              		.file 23 "../../../../../ChibiOS-RT/os/common/oslib/include/chheap.h"
 1989              		.file 24 "../../../../../ChibiOS-RT/os/common/ext/CMSIS/include/core_cm4.h"