ARM GAS  /tmp/ccyUnjRV.s 			page 1


   1              		.syntax unified
   2              		.cpu cortex-m4
   3              		.fpu softvfp
   4              		.eabi_attribute 20, 1
   5              		.eabi_attribute 21, 1
   6              		.eabi_attribute 23, 3
   7              		.eabi_attribute 24, 1
   8              		.eabi_attribute 25, 1
   9              		.eabi_attribute 26, 1
  10              		.eabi_attribute 30, 2
  11              		.eabi_attribute 34, 1
  12              		.eabi_attribute 18, 4
  13              		.thumb
  14              		.file	"chtrace.c"
  15              		.text
  16              	.Ltext0:
  17              		.cfi_sections	.debug_frame
  18              		.section	.text.trace_next,"ax",%progbits
  19              		.align	2
  20              		.p2align 4,,15
  21              		.thumb
  22              		.thumb_func
  23              		.type	trace_next, %function
  24              	trace_next:
  25              	.LFB239:
  26              		.file 1 "../../../../../ChibiOS-RT/os/rt/src/chtrace.c"
  27              		.loc 1 57 0
  28              		.cfi_startproc
  29              		@ args = 0, pretend = 0, frame = 0
  30              		@ frame_needed = 0, uses_anonymous_args = 0
  31              		@ link register save eliminated.
  32              		.loc 1 59 0
  33 0000 40F20003 		movw	r3, #:lower16:ch
  34 0004 C0F20003 		movt	r3, #:upper16:ch
  35              	.LBB89:
  36              	.LBB90:
  37              	.LBB91:
  38              	.LBB92:
  39              		.file 2 "../../../../../ChibiOS-RT/os/hal/ports/STM32/LLD/TIMv1/hal_st_lld.h"
  40              		.loc 2 141 0
  41 0008 4FF08041 		mov	r1, #1073741824
  42              	.LBE92:
  43              	.LBE91:
  44              	.LBE90:
  45              	.LBE89:
  46              		.loc 1 59 0
  47 000c 5A6B     		ldr	r2, [r3, #52]
  48              	.LBB96:
  49              	.LBB95:
  50              	.LBB94:
  51              	.LBB93:
  52              		.loc 2 141 0
  53 000e 486A     		ldr	r0, [r1, #36]
  54              	.LBE93:
  55              	.LBE94:
  56              	.LBE95:
  57              	.LBE96:
ARM GAS  /tmp/ccyUnjRV.s 			page 2


  58              		.loc 1 61 0
  59 0010 1168     		ldr	r1, [r2]
  60              		.loc 1 59 0
  61 0012 5060     		str	r0, [r2, #4]
  62              	.LBB97:
  63              	.LBB98:
  64              		.file 3 "../../../../../ChibiOS-RT/os/common/ports/ARMCMx/chcore_v7m.h"
  65              		.loc 3 708 0
  66 0014 4FF48050 		mov	r0, #4096
  67 0018 CEF20000 		movt	r0, 57344
  68 001c 4068     		ldr	r0, [r0, #4]
  69              	.LBE98:
  70              	.LBE97:
  71              		.loc 1 61 0
  72 001e 60F31F21 		bfi	r1, r0, #8, #24
  73 0022 42F8101B 		str	r1, [r2], #16
  74              		.loc 1 69 0
  75 0026 03F63801 		addw	r1, r3, #2104
  76 002a 8A42     		cmp	r2, r1
  77              		.loc 1 71 0
  78 002c 28BF     		it	cs
  79 002e 03F13802 		addcs	r2, r3, #56
  80 0032 5A63     		str	r2, [r3, #52]
  81 0034 7047     		bx	lr
  82              		.cfi_endproc
  83              	.LFE239:
  84              		.size	trace_next, .-trace_next
  85 0036 00BFAFF3 		.section	.text._trace_init,"ax",%progbits
  85      0080AFF3 
  85      0080
  86              		.align	2
  87              		.p2align 4,,15
  88              		.global	_trace_init
  89              		.thumb
  90              		.thumb_func
  91              		.type	_trace_init, %function
  92              	_trace_init:
  93              	.LFB240:
  94              		.loc 1 85 0
  95              		.cfi_startproc
  96              		@ args = 0, pretend = 0, frame = 0
  97              		@ frame_needed = 0, uses_anonymous_args = 0
  98              		@ link register save eliminated.
  99              		.loc 1 88 0
 100 0000 40F20000 		movw	r0, #:lower16:ch
 101 0004 C0F20000 		movt	r0, #:upper16:ch
 102              		.loc 1 89 0
 103 0008 8021     		movs	r1, #128
 104              		.loc 1 90 0
 105 000a 00F13802 		add	r2, r0, #56
 106              		.loc 1 88 0
 107 000e 0023     		movs	r3, #0
 108              		.loc 1 89 0
 109 0010 4186     		strh	r1, [r0, #50]	@ movhi
 110              		.loc 1 90 0
 111 0012 4263     		str	r2, [r0, #52]
 112              	.LVL0:
ARM GAS  /tmp/ccyUnjRV.s 			page 3


 113              		.loc 1 88 0
 114 0014 0386     		strh	r3, [r0, #48]	@ movhi
 115              	.LVL1:
 116              	.L7:
 117              		.loc 1 92 0 discriminator 2
 118 0016 DA1C     		adds	r2, r3, #3
 119 0018 00EB0212 		add	r2, r0, r2, lsl #4
 120              		.loc 1 91 0 discriminator 2
 121 001c 0133     		adds	r3, r3, #1
 122              	.LVL2:
 123              		.loc 1 92 0 discriminator 2
 124 001e 117A     		ldrb	r1, [r2, #8]	@ zero_extendqisi2
 125              		.loc 1 91 0 discriminator 2
 126 0020 802B     		cmp	r3, #128
 127              		.loc 1 92 0 discriminator 2
 128 0022 6FF30201 		bfc	r1, #0, #3
 129 0026 1172     		strb	r1, [r2, #8]
 130              		.loc 1 91 0 discriminator 2
 131 0028 F5D1     		bne	.L7
 132              		.loc 1 94 0
 133 002a 7047     		bx	lr
 134              		.cfi_endproc
 135              	.LFE240:
 136              		.size	_trace_init, .-_trace_init
 137 002c AFF30080 		.section	.text._trace_switch,"ax",%progbits
 138              		.align	2
 139              		.p2align 4,,15
 140              		.global	_trace_switch
 141              		.thumb
 142              		.thumb_func
 143              		.type	_trace_switch, %function
 144              	_trace_switch:
 145              	.LFB241:
 146              		.loc 1 104 0
 147              		.cfi_startproc
 148              		@ args = 0, pretend = 0, frame = 0
 149              		@ frame_needed = 0, uses_anonymous_args = 0
 150              		@ link register save eliminated.
 151              	.LVL3:
 152              		.loc 1 108 0
 153 0000 40F20003 		movw	r3, #:lower16:ch
 154 0004 C0F20003 		movt	r3, #:upper16:ch
 155              		.loc 1 104 0
 156 0008 10B4     		push	{r4}
 157              		.cfi_def_cfa_offset 4
 158              		.cfi_offset 4, -4
 159              		.loc 1 108 0
 160 000a 1A8E     		ldrh	r2, [r3, #48]
 161 000c D207     		lsls	r2, r2, #31
 162 000e 02D5     		bpl	.L12
 163              		.loc 1 115 0
 164 0010 5DF8044B 		ldr	r4, [sp], #4
 165 0014 7047     		bx	lr
 166              	.L12:
 167              		.loc 1 109 0
 168 0016 5A6B     		ldr	r2, [r3, #52]
 169              		.loc 1 111 0
ARM GAS  /tmp/ccyUnjRV.s 			page 4


 170 0018 9C69     		ldr	r4, [r3, #24]
 171              		.loc 1 109 0
 172 001a 1378     		ldrb	r3, [r2]	@ zero_extendqisi2
 173 001c 0120     		movs	r0, #1
 174              	.LVL4:
 175 001e 60F30203 		bfi	r3, r0, #0, #3
 176 0022 1370     		strb	r3, [r2]
 177              		.loc 1 110 0
 178 0024 91F82000 		ldrb	r0, [r1, #32]	@ zero_extendqisi2
 179              		.loc 1 111 0
 180 0028 9460     		str	r4, [r2, #8]
 181              		.loc 1 110 0
 182 002a 60F3C703 		bfi	r3, r0, #3, #5
 183 002e 1370     		strb	r3, [r2]
 184              		.loc 1 112 0
 185 0030 4B6A     		ldr	r3, [r1, #36]
 186 0032 D360     		str	r3, [r2, #12]
 187              		.loc 1 115 0
 188 0034 5DF8044B 		ldr	r4, [sp], #4
 189              		.loc 1 113 0
 190 0038 FFF7FEBF 		b	trace_next
 191              	.LVL5:
 192              		.cfi_endproc
 193              	.LFE241:
 194              		.size	_trace_switch, .-_trace_switch
 195 003c AFF30080 		.section	.text._trace_isr_enter,"ax",%progbits
 196              		.align	2
 197              		.p2align 4,,15
 198              		.global	_trace_isr_enter
 199              		.thumb
 200              		.thumb_func
 201              		.type	_trace_isr_enter, %function
 202              	_trace_isr_enter:
 203              	.LFB242:
 204              		.loc 1 124 0
 205              		.cfi_startproc
 206              		@ args = 0, pretend = 0, frame = 0
 207              		@ frame_needed = 0, uses_anonymous_args = 0
 208              	.LVL6:
 209 0000 08B5     		push	{r3, lr}
 210              		.cfi_def_cfa_offset 8
 211              		.cfi_offset 3, -8
 212              		.cfi_offset 14, -4
 213              		.loc 1 126 0
 214 0002 40F20003 		movw	r3, #:lower16:ch
 215 0006 C0F20003 		movt	r3, #:upper16:ch
 216 000a 1A8E     		ldrh	r2, [r3, #48]
 217 000c 9107     		lsls	r1, r2, #30
 218 000e 0BD4     		bmi	.L13
 219              	.LVL7:
 220              	.LBB99:
 221              	.LBB100:
 222              	.LBB101:
 223              	.LBB102:
 224              		.file 4 "../../../../../ChibiOS-RT/os/common/ext/CMSIS/include/cmsis_gcc.h"
 225              		.loc 4 264 0
 226 0010 2022     		movs	r2, #32
ARM GAS  /tmp/ccyUnjRV.s 			page 5


 227              	@ 264 "../../../../../ChibiOS-RT/os/common/ext/CMSIS/include/cmsis_gcc.h" 1
 228 0012 82F31188 		MSR basepri, r2
 229              	@ 0 "" 2
 230              		.thumb
 231              	.LBE102:
 232              	.LBE101:
 233              	.LBE100:
 234              	.LBE99:
 235              		.loc 1 128 0
 236 0016 5B6B     		ldr	r3, [r3, #52]
 237 0018 0222     		movs	r2, #2
 238              		.loc 1 130 0
 239 001a 9860     		str	r0, [r3, #8]
 240              		.loc 1 129 0
 241 001c 1A70     		strb	r2, [r3]
 242              		.loc 1 131 0
 243 001e FFF7FEFF 		bl	trace_next
 244              	.LVL8:
 245              	.LBB103:
 246              	.LBB104:
 247              	.LBB105:
 248              	.LBB106:
 249              		.loc 4 264 0
 250 0022 0023     		movs	r3, #0
 251              	@ 264 "../../../../../ChibiOS-RT/os/common/ext/CMSIS/include/cmsis_gcc.h" 1
 252 0024 83F31188 		MSR basepri, r3
 253              	@ 0 "" 2
 254              	.LVL9:
 255              		.thumb
 256              	.L13:
 257 0028 08BD     		pop	{r3, pc}
 258              	.LBE106:
 259              	.LBE105:
 260              	.LBE104:
 261              	.LBE103:
 262              		.cfi_endproc
 263              	.LFE242:
 264              		.size	_trace_isr_enter, .-_trace_isr_enter
 265 002a 00BFAFF3 		.section	.text._trace_isr_leave,"ax",%progbits
 265      0080
 266              		.align	2
 267              		.p2align 4,,15
 268              		.global	_trace_isr_leave
 269              		.thumb
 270              		.thumb_func
 271              		.type	_trace_isr_leave, %function
 272              	_trace_isr_leave:
 273              	.LFB243:
 274              		.loc 1 143 0
 275              		.cfi_startproc
 276              		@ args = 0, pretend = 0, frame = 0
 277              		@ frame_needed = 0, uses_anonymous_args = 0
 278              	.LVL10:
 279 0000 08B5     		push	{r3, lr}
 280              		.cfi_def_cfa_offset 8
 281              		.cfi_offset 3, -8
 282              		.cfi_offset 14, -4
ARM GAS  /tmp/ccyUnjRV.s 			page 6


 283              		.loc 1 145 0
 284 0002 40F20003 		movw	r3, #:lower16:ch
 285 0006 C0F20003 		movt	r3, #:upper16:ch
 286 000a 1A8E     		ldrh	r2, [r3, #48]
 287 000c 9207     		lsls	r2, r2, #30
 288 000e 0BD4     		bmi	.L15
 289              	.LVL11:
 290              	.LBB107:
 291              	.LBB108:
 292              	.LBB109:
 293              	.LBB110:
 294              		.loc 4 264 0
 295 0010 2022     		movs	r2, #32
 296              	@ 264 "../../../../../ChibiOS-RT/os/common/ext/CMSIS/include/cmsis_gcc.h" 1
 297 0012 82F31188 		MSR basepri, r2
 298              	@ 0 "" 2
 299              		.thumb
 300              	.LBE110:
 301              	.LBE109:
 302              	.LBE108:
 303              	.LBE107:
 304              		.loc 1 147 0
 305 0016 5B6B     		ldr	r3, [r3, #52]
 306 0018 0322     		movs	r2, #3
 307              		.loc 1 149 0
 308 001a 9860     		str	r0, [r3, #8]
 309              		.loc 1 148 0
 310 001c 1A70     		strb	r2, [r3]
 311              		.loc 1 150 0
 312 001e FFF7FEFF 		bl	trace_next
 313              	.LVL12:
 314              	.LBB111:
 315              	.LBB112:
 316              	.LBB113:
 317              	.LBB114:
 318              		.loc 4 264 0
 319 0022 0023     		movs	r3, #0
 320              	@ 264 "../../../../../ChibiOS-RT/os/common/ext/CMSIS/include/cmsis_gcc.h" 1
 321 0024 83F31188 		MSR basepri, r3
 322              	@ 0 "" 2
 323              	.LVL13:
 324              		.thumb
 325              	.L15:
 326 0028 08BD     		pop	{r3, pc}
 327              	.LBE114:
 328              	.LBE113:
 329              	.LBE112:
 330              	.LBE111:
 331              		.cfi_endproc
 332              	.LFE243:
 333              		.size	_trace_isr_leave, .-_trace_isr_leave
 334 002a 00BFAFF3 		.section	.text._trace_halt,"ax",%progbits
 334      0080
 335              		.align	2
 336              		.p2align 4,,15
 337              		.global	_trace_halt
 338              		.thumb
ARM GAS  /tmp/ccyUnjRV.s 			page 7


 339              		.thumb_func
 340              		.type	_trace_halt, %function
 341              	_trace_halt:
 342              	.LFB244:
 343              		.loc 1 162 0
 344              		.cfi_startproc
 345              		@ args = 0, pretend = 0, frame = 0
 346              		@ frame_needed = 0, uses_anonymous_args = 0
 347              		@ link register save eliminated.
 348              	.LVL14:
 349              		.loc 1 164 0
 350 0000 40F20003 		movw	r3, #:lower16:ch
 351 0004 C0F20003 		movt	r3, #:upper16:ch
 352 0008 1A8E     		ldrh	r2, [r3, #48]
 353 000a 02F00402 		and	r2, r2, #4
 354 000e 92B2     		uxth	r2, r2
 355 0010 02B1     		cbz	r2, .L19
 356 0012 7047     		bx	lr
 357              	.L19:
 358              		.loc 1 165 0
 359 0014 5B6B     		ldr	r3, [r3, #52]
 360 0016 1978     		ldrb	r1, [r3]	@ zero_extendqisi2
 361              		.loc 1 167 0
 362 0018 9860     		str	r0, [r3, #8]
 363              		.loc 1 165 0
 364 001a 0420     		movs	r0, #4
 365              	.LVL15:
 366 001c 60F30201 		bfi	r1, r0, #0, #3
 367              		.loc 1 166 0
 368 0020 62F3C701 		bfi	r1, r2, #3, #5
 369 0024 1970     		strb	r1, [r3]
 370              		.loc 1 168 0
 371 0026 FFF7FEBF 		b	trace_next
 372              	.LVL16:
 373              		.cfi_endproc
 374              	.LFE244:
 375              		.size	_trace_halt, .-_trace_halt
 376 002a 00BFAFF3 		.section	.text.chDbgWriteTraceI,"ax",%progbits
 376      0080
 377              		.align	2
 378              		.p2align 4,,15
 379              		.global	chDbgWriteTraceI
 380              		.thumb
 381              		.thumb_func
 382              		.type	chDbgWriteTraceI, %function
 383              	chDbgWriteTraceI:
 384              	.LFB245:
 385              		.loc 1 180 0
 386              		.cfi_startproc
 387              		@ args = 0, pretend = 0, frame = 0
 388              		@ frame_needed = 0, uses_anonymous_args = 0
 389              		@ link register save eliminated.
 390              	.LVL17:
 391              		.loc 1 184 0
 392 0000 40F20003 		movw	r3, #:lower16:ch
 393 0004 C0F20003 		movt	r3, #:upper16:ch
 394              		.loc 1 180 0
ARM GAS  /tmp/ccyUnjRV.s 			page 8


 395 0008 10B4     		push	{r4}
 396              		.cfi_def_cfa_offset 4
 397              		.cfi_offset 4, -4
 398              		.loc 1 184 0
 399 000a 1A8E     		ldrh	r2, [r3, #48]
 400 000c 02F00802 		and	r2, r2, #8
 401 0010 92B2     		uxth	r2, r2
 402 0012 12B1     		cbz	r2, .L22
 403              		.loc 1 191 0
 404 0014 5DF8044B 		ldr	r4, [sp], #4
 405 0018 7047     		bx	lr
 406              	.L22:
 407              		.loc 1 185 0
 408 001a 5B6B     		ldr	r3, [r3, #52]
 409 001c 1C78     		ldrb	r4, [r3]	@ zero_extendqisi2
 410              		.loc 1 187 0
 411 001e 9860     		str	r0, [r3, #8]
 412              		.loc 1 185 0
 413 0020 0520     		movs	r0, #5
 414              	.LVL18:
 415 0022 60F30204 		bfi	r4, r0, #0, #3
 416              		.loc 1 186 0
 417 0026 2046     		mov	r0, r4
 418 0028 62F3C700 		bfi	r0, r2, #3, #5
 419              		.loc 1 188 0
 420 002c D960     		str	r1, [r3, #12]
 421              		.loc 1 186 0
 422 002e 1870     		strb	r0, [r3]
 423              		.loc 1 191 0
 424 0030 5DF8044B 		ldr	r4, [sp], #4
 425              		.loc 1 189 0
 426 0034 FFF7FEBF 		b	trace_next
 427              	.LVL19:
 428              		.cfi_endproc
 429              	.LFE245:
 430              		.size	chDbgWriteTraceI, .-chDbgWriteTraceI
 431 0038 AFF30080 		.section	.text.chDbgWriteTrace,"ax",%progbits
 431      AFF30080 
 432              		.align	2
 433              		.p2align 4,,15
 434              		.global	chDbgWriteTrace
 435              		.thumb
 436              		.thumb_func
 437              		.type	chDbgWriteTrace, %function
 438              	chDbgWriteTrace:
 439              	.LFB246:
 440              		.loc 1 201 0
 441              		.cfi_startproc
 442              		@ args = 0, pretend = 0, frame = 0
 443              		@ frame_needed = 0, uses_anonymous_args = 0
 444              	.LVL20:
 445 0000 08B5     		push	{r3, lr}
 446              		.cfi_def_cfa_offset 8
 447              		.cfi_offset 3, -8
 448              		.cfi_offset 14, -4
 449              	.LBB115:
 450              	.LBB116:
ARM GAS  /tmp/ccyUnjRV.s 			page 9


 451              	.LBB117:
 452              	.LBB118:
 453              		.loc 4 264 0
 454 0002 2023     		movs	r3, #32
 455              	@ 264 "../../../../../ChibiOS-RT/os/common/ext/CMSIS/include/cmsis_gcc.h" 1
 456 0004 83F31188 		MSR basepri, r3
 457              	@ 0 "" 2
 458              		.thumb
 459              	.LBE118:
 460              	.LBE117:
 461              	.LBE116:
 462              	.LBE115:
 463              		.loc 1 204 0
 464 0008 FFF7FEFF 		bl	chDbgWriteTraceI
 465              	.LVL21:
 466              	.LBB119:
 467              	.LBB120:
 468              	.LBB121:
 469              	.LBB122:
 470              	.LBB123:
 471              		.loc 4 264 0
 472 000c 0023     		movs	r3, #0
 473              	@ 264 "../../../../../ChibiOS-RT/os/common/ext/CMSIS/include/cmsis_gcc.h" 1
 474 000e 83F31188 		MSR basepri, r3
 475              	@ 0 "" 2
 476              		.thumb
 477 0012 08BD     		pop	{r3, pc}
 478              	.LBE123:
 479              	.LBE122:
 480              	.LBE121:
 481              	.LBE120:
 482              	.LBE119:
 483              		.cfi_endproc
 484              	.LFE246:
 485              		.size	chDbgWriteTrace, .-chDbgWriteTrace
 486              		.section	.text.chDbgSuspendTraceI,"ax",%progbits
 487              		.align	2
 488              		.p2align 4,,15
 489              		.global	chDbgSuspendTraceI
 490              		.thumb
 491              		.thumb_func
 492              		.type	chDbgSuspendTraceI, %function
 493              	chDbgSuspendTraceI:
 494              	.LFB247:
 495              		.loc 1 215 0
 496              		.cfi_startproc
 497              		@ args = 0, pretend = 0, frame = 0
 498              		@ frame_needed = 0, uses_anonymous_args = 0
 499              		@ link register save eliminated.
 500              	.LVL22:
 501              		.loc 1 219 0
 502 0000 40F20003 		movw	r3, #:lower16:ch
 503 0004 C0F20003 		movt	r3, #:upper16:ch
 504 0008 1A8E     		ldrh	r2, [r3, #48]
 505 000a 1043     		orrs	r0, r0, r2
 506              	.LVL23:
 507 000c 1886     		strh	r0, [r3, #48]	@ movhi
ARM GAS  /tmp/ccyUnjRV.s 			page 10


 508 000e 7047     		bx	lr
 509              		.cfi_endproc
 510              	.LFE247:
 511              		.size	chDbgSuspendTraceI, .-chDbgSuspendTraceI
 512              		.section	.text.chDbgSuspendTrace,"ax",%progbits
 513              		.align	2
 514              		.p2align 4,,15
 515              		.global	chDbgSuspendTrace
 516              		.thumb
 517              		.thumb_func
 518              		.type	chDbgSuspendTrace, %function
 519              	chDbgSuspendTrace:
 520              	.LFB248:
 521              		.loc 1 229 0
 522              		.cfi_startproc
 523              		@ args = 0, pretend = 0, frame = 0
 524              		@ frame_needed = 0, uses_anonymous_args = 0
 525              		@ link register save eliminated.
 526              	.LVL24:
 527              	.LBB124:
 528              	.LBB125:
 529              	.LBB126:
 530              	.LBB127:
 531              		.loc 4 264 0
 532 0000 2023     		movs	r3, #32
 533              	@ 264 "../../../../../ChibiOS-RT/os/common/ext/CMSIS/include/cmsis_gcc.h" 1
 534 0002 83F31188 		MSR basepri, r3
 535              	@ 0 "" 2
 536              	.LVL25:
 537              		.thumb
 538              	.LBE127:
 539              	.LBE126:
 540              	.LBE125:
 541              	.LBE124:
 542              	.LBB128:
 543              	.LBB129:
 544              		.loc 1 219 0
 545 0006 40F20003 		movw	r3, #:lower16:ch
 546 000a C0F20003 		movt	r3, #:upper16:ch
 547              	.LBE129:
 548              	.LBE128:
 549              	.LBB131:
 550              	.LBB132:
 551              	.LBB133:
 552              	.LBB134:
 553              	.LBB135:
 554              		.loc 4 264 0
 555 000e 0022     		movs	r2, #0
 556              	.LBE135:
 557              	.LBE134:
 558              	.LBE133:
 559              	.LBE132:
 560              	.LBE131:
 561              	.LBB140:
 562              	.LBB130:
 563              		.loc 1 219 0
 564 0010 198E     		ldrh	r1, [r3, #48]
ARM GAS  /tmp/ccyUnjRV.s 			page 11


 565 0012 0843     		orrs	r0, r0, r1
 566              	.LVL26:
 567 0014 1886     		strh	r0, [r3, #48]	@ movhi
 568              	.LVL27:
 569              	.LBE130:
 570              	.LBE140:
 571              	.LBB141:
 572              	.LBB139:
 573              	.LBB138:
 574              	.LBB137:
 575              	.LBB136:
 576              		.loc 4 264 0
 577              	@ 264 "../../../../../ChibiOS-RT/os/common/ext/CMSIS/include/cmsis_gcc.h" 1
 578 0016 82F31188 		MSR basepri, r2
 579              	@ 0 "" 2
 580              		.thumb
 581 001a 7047     		bx	lr
 582              	.LBE136:
 583              	.LBE137:
 584              	.LBE138:
 585              	.LBE139:
 586              	.LBE141:
 587              		.cfi_endproc
 588              	.LFE248:
 589              		.size	chDbgSuspendTrace, .-chDbgSuspendTrace
 590 001c AFF30080 		.section	.text.chDbgResumeTraceI,"ax",%progbits
 591              		.align	2
 592              		.p2align 4,,15
 593              		.global	chDbgResumeTraceI
 594              		.thumb
 595              		.thumb_func
 596              		.type	chDbgResumeTraceI, %function
 597              	chDbgResumeTraceI:
 598              	.LFB249:
 599              		.loc 1 243 0
 600              		.cfi_startproc
 601              		@ args = 0, pretend = 0, frame = 0
 602              		@ frame_needed = 0, uses_anonymous_args = 0
 603              		@ link register save eliminated.
 604              	.LVL28:
 605              		.loc 1 247 0
 606 0000 40F20003 		movw	r3, #:lower16:ch
 607 0004 C0F20003 		movt	r3, #:upper16:ch
 608 0008 1A8E     		ldrh	r2, [r3, #48]
 609 000a 22EA0000 		bic	r0, r2, r0
 610              	.LVL29:
 611 000e 1886     		strh	r0, [r3, #48]	@ movhi
 612 0010 7047     		bx	lr
 613              		.cfi_endproc
 614              	.LFE249:
 615              		.size	chDbgResumeTraceI, .-chDbgResumeTraceI
 616              		.section	.text.chDbgResumeTrace,"ax",%progbits
 617              		.align	2
 618              		.p2align 4,,15
 619              		.global	chDbgResumeTrace
 620              		.thumb
 621              		.thumb_func
ARM GAS  /tmp/ccyUnjRV.s 			page 12


 622              		.type	chDbgResumeTrace, %function
 623              	chDbgResumeTrace:
 624              	.LFB250:
 625              		.loc 1 257 0
 626              		.cfi_startproc
 627              		@ args = 0, pretend = 0, frame = 0
 628              		@ frame_needed = 0, uses_anonymous_args = 0
 629              		@ link register save eliminated.
 630              	.LVL30:
 631              	.LBB142:
 632              	.LBB143:
 633              	.LBB144:
 634              	.LBB145:
 635              		.loc 4 264 0
 636 0000 2023     		movs	r3, #32
 637              	@ 264 "../../../../../ChibiOS-RT/os/common/ext/CMSIS/include/cmsis_gcc.h" 1
 638 0002 83F31188 		MSR basepri, r3
 639              	@ 0 "" 2
 640              	.LVL31:
 641              		.thumb
 642              	.LBE145:
 643              	.LBE144:
 644              	.LBE143:
 645              	.LBE142:
 646              	.LBB146:
 647              	.LBB147:
 648              		.loc 1 247 0
 649 0006 40F20003 		movw	r3, #:lower16:ch
 650 000a C0F20003 		movt	r3, #:upper16:ch
 651              	.LBE147:
 652              	.LBE146:
 653              	.LBB149:
 654              	.LBB150:
 655              	.LBB151:
 656              	.LBB152:
 657              	.LBB153:
 658              		.loc 4 264 0
 659 000e 0022     		movs	r2, #0
 660              	.LBE153:
 661              	.LBE152:
 662              	.LBE151:
 663              	.LBE150:
 664              	.LBE149:
 665              	.LBB158:
 666              	.LBB148:
 667              		.loc 1 247 0
 668 0010 198E     		ldrh	r1, [r3, #48]
 669 0012 21EA0000 		bic	r0, r1, r0
 670              	.LVL32:
 671 0016 1886     		strh	r0, [r3, #48]	@ movhi
 672              	.LVL33:
 673              	.LBE148:
 674              	.LBE158:
 675              	.LBB159:
 676              	.LBB157:
 677              	.LBB156:
 678              	.LBB155:
ARM GAS  /tmp/ccyUnjRV.s 			page 13


 679              	.LBB154:
 680              		.loc 4 264 0
 681              	@ 264 "../../../../../ChibiOS-RT/os/common/ext/CMSIS/include/cmsis_gcc.h" 1
 682 0018 82F31188 		MSR basepri, r2
 683              	@ 0 "" 2
 684              		.thumb
 685 001c 7047     		bx	lr
 686              	.LBE154:
 687              	.LBE155:
 688              	.LBE156:
 689              	.LBE157:
 690              	.LBE159:
 691              		.cfi_endproc
 692              	.LFE250:
 693              		.size	chDbgResumeTrace, .-chDbgResumeTrace
 694 001e 00BF     		.text
 695              	.Letext0:
 696              		.file 5 "/usr/include/newlib/machine/_default_types.h"
 697              		.file 6 "/usr/include/newlib/stdint.h"
 698              		.file 7 "../../../../../ChibiOS-RT/os/common/ports/ARMCMx/compilers/GCC/chtypes.h"
 699              		.file 8 "../../../../../ChibiOS-RT/os/rt/include/chsystypes.h"
 700              		.file 9 "../../../../../ChibiOS-RT/os/rt/include/chschd.h"
 701              		.file 10 "../../../../../ChibiOS-RT/os/common/ext/CMSIS/include/core_cm4.h"
 702              		.file 11 "../../../../../ChibiOS-RT/os/common/ports/ARMCMx/chcore.h"
 703              		.file 12 "../../../../../ChibiOS-RT/os/hal/ports/STM32/LLD/TIMv1/stm32_tim.h"
 704              		.file 13 "../../../../../ChibiOS-RT/os/rt/include/chtrace.h"
 705              		.file 14 "../../../../../ChibiOS-RT/os/rt/include/chtm.h"
 706              		.file 15 "../../../../../ChibiOS-RT/os/rt/include/chsem.h"
 707              		.file 16 "../../../../../ChibiOS-RT/os/rt/include/chmtx.h"
 708              		.file 17 "../../../../../ChibiOS-RT/os/common/ports/ARMCMx/chcore_timer.h"
 709              		.file 18 "../../../../../ChibiOS-RT/os/rt/include/chvt.h"
 710              		.file 19 "../../../../../ChibiOS-RT/os/rt/include/chsys.h"