ARM GAS  /tmp/cckHiXx1.s 			page 1


   1              		.syntax unified
   2              		.cpu cortex-m4
   3              		.fpu softvfp
   4              		.eabi_attribute 20, 1
   5              		.eabi_attribute 21, 1
   6              		.eabi_attribute 23, 3
   7              		.eabi_attribute 24, 1
   8              		.eabi_attribute 25, 1
   9              		.eabi_attribute 26, 1
  10              		.eabi_attribute 30, 2
  11              		.eabi_attribute 34, 1
  12              		.eabi_attribute 18, 4
  13              		.thumb
  14              		.file	"chvt.c"
  15              		.text
  16              	.Ltext0:
  17              		.cfi_sections	.debug_frame
  18              		.section	.text._vt_init,"ax",%progbits
  19              		.align	2
  20              		.p2align 4,,15
  21              		.global	_vt_init
  22              		.thumb
  23              		.thumb_func
  24              		.type	_vt_init, %function
  25              	_vt_init:
  26              	.LFB239:
  27              		.file 1 "../../../../../ChibiOS-RT/os/rt/src/chvt.c"
  28              		.loc 1 61 0
  29              		.cfi_startproc
  30              		@ args = 0, pretend = 0, frame = 0
  31              		@ frame_needed = 0, uses_anonymous_args = 0
  32              		@ link register save eliminated.
  33              		.loc 1 63 0
  34 0000 40F20003 		movw	r3, #:lower16:ch
  35 0004 C0F20003 		movt	r3, #:upper16:ch
  36 0008 03F11C02 		add	r2, r3, #28
  37              		.loc 1 65 0
  38 000c 4FF0FF30 		mov	r0, #-1
  39              		.loc 1 69 0
  40 0010 0021     		movs	r1, #0
  41              		.loc 1 65 0
  42 0012 5862     		str	r0, [r3, #36]
  43              		.loc 1 69 0
  44 0014 9962     		str	r1, [r3, #40]
  45              		.loc 1 63 0
  46 0016 DA61     		str	r2, [r3, #28]
  47              		.loc 1 64 0
  48 0018 1A62     		str	r2, [r3, #32]
  49 001a 7047     		bx	lr
  50              		.cfi_endproc
  51              	.LFE239:
  52              		.size	_vt_init, .-_vt_init
  53 001c AFF30080 		.section	.text.chVTDoSetI,"ax",%progbits
  54              		.align	2
  55              		.p2align 4,,15
  56              		.global	chVTDoSetI
  57              		.thumb
ARM GAS  /tmp/cckHiXx1.s 			page 2


  58              		.thumb_func
  59              		.type	chVTDoSetI, %function
  60              	chVTDoSetI:
  61              	.LFB240:
  62              		.loc 1 96 0
  63              		.cfi_startproc
  64              		@ args = 0, pretend = 0, frame = 0
  65              		@ frame_needed = 0, uses_anonymous_args = 0
  66              	.LVL0:
  67 0000 F8B5     		push	{r3, r4, r5, r6, r7, lr}
  68              		.cfi_def_cfa_offset 24
  69              		.cfi_offset 3, -24
  70              		.cfi_offset 4, -20
  71              		.cfi_offset 5, -16
  72              		.cfi_offset 6, -12
  73              		.cfi_offset 7, -8
  74              		.cfi_offset 14, -4
  75              	.LBB27:
  76              		.loc 1 117 0
  77 0002 40F20006 		movw	r6, #:lower16:ch
  78 0006 C0F20006 		movt	r6, #:upper16:ch
  79 000a 3446     		mov	r4, r6
  80              		.loc 1 113 0
  81 000c 0129     		cmp	r1, #1
  82 000e 98BF     		it	ls
  83 0010 0221     		movls	r1, #2
  84              	.LVL1:
  85              		.loc 1 117 0
  86 0012 54F81C7F 		ldr	r7, [r4, #28]!
  87              	.LBE27:
  88              		.loc 1 103 0
  89 0016 0361     		str	r3, [r0, #16]
  90              	.LBB42:
  91              	.LBB28:
  92              	.LBB29:
  93              	.LBB30:
  94              	.LBB31:
  95              		.file 2 "../../../../../ChibiOS-RT/os/hal/ports/STM32/LLD/TIMv1/hal_st_lld.h"
  96              		.loc 2 141 0
  97 0018 4FF08043 		mov	r3, #1073741824
  98              	.LVL2:
  99              	.LBE31:
 100              	.LBE30:
 101              	.LBE29:
 102              	.LBE28:
 103              		.loc 1 117 0
 104 001c A742     		cmp	r7, r4
 105              	.LBE42:
 106              		.loc 1 96 0
 107 001e 0546     		mov	r5, r0
 108              		.loc 1 104 0
 109 0020 C260     		str	r2, [r0, #12]
 110              	.LBB43:
 111              	.LBB35:
 112              	.LBB34:
 113              	.LBB33:
 114              	.LBB32:
ARM GAS  /tmp/cckHiXx1.s 			page 3


 115              		.loc 2 141 0
 116 0022 586A     		ldr	r0, [r3, #36]
 117              	.LVL3:
 118              	.LBE32:
 119              	.LBE33:
 120              	.LBE34:
 121              	.LBE35:
 122              		.loc 1 117 0
 123 0024 1ED0     		beq	.L10
 124              		.loc 1 136 0
 125 0026 B46A     		ldr	r4, [r6, #40]
 126              		.loc 1 137 0
 127 0028 BB68     		ldr	r3, [r7, #8]
 128              		.loc 1 136 0
 129 002a 0844     		add	r0, r0, r1
 130 002c 041B     		subs	r4, r0, r4
 131              	.LVL4:
 132              		.loc 1 137 0
 133 002e 9C42     		cmp	r4, r3
 134 0030 15D3     		bcc	.L11
 135              	.LVL5:
 136              	.L5:
 137              	.LBE43:
 138              		.loc 1 150 0
 139 0032 F369     		ldr	r3, [r6, #28]
 140              	.LVL6:
 141              		.loc 1 151 0
 142 0034 9A68     		ldr	r2, [r3, #8]
 143 0036 9442     		cmp	r4, r2
 144 0038 04D9     		bls	.L6
 145              	.L7:
 146              		.loc 1 153 0
 147 003a 1B68     		ldr	r3, [r3]
 148              	.LVL7:
 149              		.loc 1 152 0
 150 003c A41A     		subs	r4, r4, r2
 151              	.LVL8:
 152              		.loc 1 151 0
 153 003e 9A68     		ldr	r2, [r3, #8]
 154 0040 A242     		cmp	r2, r4
 155 0042 FAD3     		bcc	.L7
 156              	.L6:
 157              		.loc 1 158 0
 158 0044 5A68     		ldr	r2, [r3, #4]
 159              		.loc 1 157 0
 160 0046 2B60     		str	r3, [r5]
 161              		.loc 1 158 0
 162 0048 6A60     		str	r2, [r5, #4]
 163              		.loc 1 159 0
 164 004a 1560     		str	r5, [r2]
 165              		.loc 1 160 0
 166 004c 5D60     		str	r5, [r3, #4]
 167              		.loc 1 161 0
 168 004e AC60     		str	r4, [r5, #8]
 169              		.loc 1 165 0
 170 0050 9A68     		ldr	r2, [r3, #8]
 171              		.loc 1 166 0
ARM GAS  /tmp/cckHiXx1.s 			page 4


 172 0052 4FF0FF31 		mov	r1, #-1
 173              		.loc 1 165 0
 174 0056 141B     		subs	r4, r2, r4
 175              	.LVL9:
 176 0058 9C60     		str	r4, [r3, #8]
 177              	.LVL10:
 178              		.loc 1 166 0
 179 005a 7162     		str	r1, [r6, #36]
 180 005c F8BD     		pop	{r3, r4, r5, r6, r7, pc}
 181              	.LVL11:
 182              	.L11:
 183              	.LBB44:
 184              	.LBB36:
 185              	.LBB37:
 186              		.file 3 "../../../../../ChibiOS-RT/os/common/ports/ARMCMx/chcore_timer.h"
 187              		.loc 3 95 0
 188 005e FFF7FEFF 		bl	stSetAlarm
 189              	.LVL12:
 190 0062 E6E7     		b	.L5
 191              	.LVL13:
 192              	.L10:
 193              	.LBE37:
 194              	.LBE36:
 195              		.loc 1 121 0
 196 0064 B062     		str	r0, [r6, #40]
 197              		.loc 1 122 0
 198 0066 F561     		str	r5, [r6, #28]
 199              		.loc 1 123 0
 200 0068 3562     		str	r5, [r6, #32]
 201              	.LBB38:
 202              	.LBB39:
 203              		.loc 3 73 0
 204 006a 0844     		add	r0, r0, r1
 205              	.LBE39:
 206              	.LBE38:
 207              		.loc 1 124 0
 208 006c 2F60     		str	r7, [r5]
 209              		.loc 1 125 0
 210 006e 6F60     		str	r7, [r5, #4]
 211              		.loc 1 126 0
 212 0070 A960     		str	r1, [r5, #8]
 213              	.LVL14:
 214              	.LBE44:
 215              		.loc 1 167 0
 216 0072 BDE8F840 		pop	{r3, r4, r5, r6, r7, lr}
 217              	.LVL15:
 218              	.LBB45:
 219              	.LBB41:
 220              	.LBB40:
 221              		.loc 3 73 0
 222 0076 FFF7FEBF 		b	stStartAlarm
 223              	.LVL16:
 224              	.LBE40:
 225              	.LBE41:
 226              	.LBE45:
 227              		.cfi_endproc
 228              	.LFE240:
ARM GAS  /tmp/cckHiXx1.s 			page 5


 229              		.size	chVTDoSetI, .-chVTDoSetI
 230 007a 00BFAFF3 		.section	.text.chVTDoResetI,"ax",%progbits
 230      0080
 231              		.align	2
 232              		.p2align 4,,15
 233              		.global	chVTDoResetI
 234              		.thumb
 235              		.thumb_func
 236              		.type	chVTDoResetI, %function
 237              	chVTDoResetI:
 238              	.LFB241:
 239              		.loc 1 177 0
 240              		.cfi_startproc
 241              		@ args = 0, pretend = 0, frame = 0
 242              		@ frame_needed = 0, uses_anonymous_args = 0
 243              		@ link register save eliminated.
 244              	.LVL17:
 245              		.loc 1 201 0
 246 0000 40F20003 		movw	r3, #:lower16:ch
 247 0004 C0F20003 		movt	r3, #:upper16:ch
 248              		.loc 1 177 0
 249 0008 10B4     		push	{r4}
 250              		.cfi_def_cfa_offset 4
 251              		.cfi_offset 4, -4
 252              		.loc 1 201 0
 253 000a DA69     		ldr	r2, [r3, #28]
 254 000c 8242     		cmp	r2, r0
 255 000e 10D0     		beq	.L13
 256              		.loc 1 203 0
 257 0010 0268     		ldr	r2, [r0]
 258 0012 4168     		ldr	r1, [r0, #4]
 259 0014 0A60     		str	r2, [r1]
 260              		.loc 1 204 0
 261 0016 0268     		ldr	r2, [r0]
 262              		.loc 1 208 0
 263 0018 1C33     		adds	r3, r3, #28
 264              		.loc 1 205 0
 265 001a 0024     		movs	r4, #0
 266              		.loc 1 208 0
 267 001c 9A42     		cmp	r2, r3
 268              		.loc 1 204 0
 269 001e 5160     		str	r1, [r2, #4]
 270              		.loc 1 205 0
 271 0020 C460     		str	r4, [r0, #12]
 272              		.loc 1 208 0
 273 0022 03D0     		beq	.L12
 274              		.loc 1 209 0
 275 0024 8168     		ldr	r1, [r0, #8]
 276 0026 9368     		ldr	r3, [r2, #8]
 277 0028 0B44     		add	r3, r3, r1
 278 002a 9360     		str	r3, [r2, #8]
 279              	.LVL18:
 280              	.L12:
 281              		.loc 1 255 0
 282 002c 5DF8044B 		ldr	r4, [sp], #4
 283 0030 7047     		bx	lr
 284              	.LVL19:
ARM GAS  /tmp/cckHiXx1.s 			page 6


 285              	.L13:
 286              		.loc 1 215 0
 287 0032 1168     		ldr	r1, [r2]
 288 0034 1846     		mov	r0, r3
 289              	.LVL20:
 290              		.loc 1 217 0
 291 0036 0024     		movs	r4, #0
 292              		.loc 1 215 0
 293 0038 40F81C1F 		str	r1, [r0, #28]!
 294              		.loc 1 220 0
 295 003c 8142     		cmp	r1, r0
 296              		.loc 1 216 0
 297 003e 4860     		str	r0, [r1, #4]
 298              		.loc 1 217 0
 299 0040 D460     		str	r4, [r2, #12]
 300              		.loc 1 220 0
 301 0042 13D0     		beq	.L20
 302              		.loc 1 227 0
 303 0044 9468     		ldr	r4, [r2, #8]
 304 0046 8868     		ldr	r0, [r1, #8]
 305              		.loc 1 236 0
 306 0048 9A6A     		ldr	r2, [r3, #40]
 307              		.loc 1 227 0
 308 004a 2318     		adds	r3, r4, r0
 309              	.LBB46:
 310              	.LBB47:
 311              	.LBB48:
 312              	.LBB49:
 313              		.loc 2 141 0
 314 004c 4FF08040 		mov	r0, #1073741824
 315              	.LBE49:
 316              	.LBE48:
 317              	.LBE47:
 318              	.LBE46:
 319              		.loc 1 227 0
 320 0050 8B60     		str	r3, [r1, #8]
 321              	.LBB53:
 322              	.LBB52:
 323              	.LBB51:
 324              	.LBB50:
 325              		.loc 2 141 0
 326 0052 406A     		ldr	r0, [r0, #36]
 327              	.LBE50:
 328              	.LBE51:
 329              	.LBE52:
 330              	.LBE53:
 331              		.loc 1 236 0
 332 0054 821A     		subs	r2, r0, r2
 333              	.LVL21:
 334              		.loc 1 240 0
 335 0056 9342     		cmp	r3, r2
 336 0058 E8D9     		bls	.L12
 337              		.loc 1 245 0
 338 005a 9B1A     		subs	r3, r3, r2
 339              	.LVL22:
 340              		.loc 1 250 0
 341 005c 012B     		cmp	r3, #1
ARM GAS  /tmp/cckHiXx1.s 			page 7


 342 005e 98BF     		it	ls
 343 0060 0223     		movls	r3, #2
 344              	.LVL23:
 345              	.LBB54:
 346              	.LBB55:
 347              		.loc 3 95 0
 348 0062 1844     		add	r0, r0, r3
 349              	.LVL24:
 350              	.LBE55:
 351              	.LBE54:
 352              		.loc 1 255 0
 353 0064 5DF8044B 		ldr	r4, [sp], #4
 354              	.LBB57:
 355              	.LBB56:
 356              		.loc 3 95 0
 357 0068 FFF7FEBF 		b	stSetAlarm
 358              	.LVL25:
 359              	.L20:
 360              	.LBE56:
 361              	.LBE57:
 362              		.loc 1 255 0
 363 006c 5DF8044B 		ldr	r4, [sp], #4
 364              	.LBB58:
 365              	.LBB59:
 366              		.loc 3 83 0
 367 0070 FFF7FEBF 		b	stStopAlarm
 368              	.LVL26:
 369              	.LBE59:
 370              	.LBE58:
 371              		.cfi_endproc
 372              	.LFE241:
 373              		.size	chVTDoResetI, .-chVTDoResetI
 374 0074 AFF30080 		.text
 374      AFF30080 
 374      AFF30080 
 375              	.Letext0:
 376              		.file 4 "/usr/include/newlib/machine/_default_types.h"
 377              		.file 5 "/usr/include/newlib/stdint.h"
 378              		.file 6 "../../../../../ChibiOS-RT/os/common/ports/ARMCMx/compilers/GCC/chtypes.h"
 379              		.file 7 "../../../../../ChibiOS-RT/os/rt/include/chsystypes.h"
 380              		.file 8 "../../../../../ChibiOS-RT/os/rt/include/chschd.h"
 381              		.file 9 "../../../../../ChibiOS-RT/os/common/ports/ARMCMx/chcore.h"
 382              		.file 10 "../../../../../ChibiOS-RT/os/common/ports/ARMCMx/chcore_v7m.h"
 383              		.file 11 "../../../../../ChibiOS-RT/os/hal/ports/STM32/LLD/TIMv1/stm32_tim.h"
 384              		.file 12 "../../../../../ChibiOS-RT/os/rt/include/chtrace.h"
 385              		.file 13 "../../../../../ChibiOS-RT/os/rt/include/chtm.h"
 386              		.file 14 "../../../../../ChibiOS-RT/os/rt/include/chsem.h"
 387              		.file 15 "../../../../../ChibiOS-RT/os/rt/include/chmtx.h"
 388              		.file 16 "../../../../../ChibiOS-RT/os/rt/include/chvt.h"
 389              		.file 17 "../../../../../ChibiOS-RT/os/hal/include/hal_st.h"
 390              		.file 18 "../../../../../ChibiOS-RT/os/common/ext/CMSIS/include/core_cm4.h"