ARM GAS  /tmp/ccsZYQEd.s 			page 1


   1              		.syntax unified
   2              		.cpu cortex-m4
   3              		.fpu softvfp
   4              		.eabi_attribute 20, 1
   5              		.eabi_attribute 21, 1
   6              		.eabi_attribute 23, 3
   7              		.eabi_attribute 24, 1
   8              		.eabi_attribute 25, 1
   9              		.eabi_attribute 26, 1
  10              		.eabi_attribute 30, 2
  11              		.eabi_attribute 34, 1
  12              		.eabi_attribute 18, 4
  13              		.thumb
  14              		.file	"hal_queues.c"
  15              		.text
  16              	.Ltext0:
  17              		.cfi_sections	.debug_frame
  18              		.section	.text.iqObjectInit,"ax",%progbits
  19              		.align	2
  20              		.p2align 4,,15
  21              		.global	iqObjectInit
  22              		.thumb
  23              		.thumb_func
  24              		.type	iqObjectInit, %function
  25              	iqObjectInit:
  26              	.LFB270:
  27              		.file 1 "../../../../../ChibiOS-RT/os/hal/src/hal_queues.c"
  28              		.loc 1 56 0
  29              		.cfi_startproc
  30              		@ args = 4, pretend = 0, frame = 0
  31              		@ frame_needed = 0, uses_anonymous_args = 0
  32              		@ link register save eliminated.
  33              	.LVL0:
  34 0000 30B4     		push	{r4, r5}
  35              		.cfi_def_cfa_offset 8
  36              		.cfi_offset 4, -8
  37              		.cfi_offset 5, -4
  38              		.loc 1 56 0
  39 0002 029C     		ldr	r4, [sp, #8]
  40              	.LBB207:
  41              	.LBB208:
  42              	.LBB209:
  43              	.LBB210:
  44              		.file 2 "../../../../../ChibiOS-RT/os/rt/include/chschd.h"
  45              		.loc 2 550 0
  46 0004 0060     		str	r0, [r0]
  47              	.LBE210:
  48              	.LBE209:
  49              	.LBE208:
  50              	.LBE207:
  51              		.loc 1 59 0
  52 0006 0025     		movs	r5, #0
  53              		.loc 1 63 0
  54 0008 0A44     		add	r2, r2, r1
  55              	.LVL1:
  56              		.loc 1 59 0
  57 000a 8560     		str	r5, [r0, #8]
ARM GAS  /tmp/ccsZYQEd.s 			page 2


  58              		.loc 1 65 0
  59 000c 0462     		str	r4, [r0, #32]
  60              		.loc 1 63 0
  61 000e 0261     		str	r2, [r0, #16]
  62              	.LBB214:
  63              	.LBB213:
  64              	.LBB212:
  65              	.LBB211:
  66              		.loc 2 551 0
  67 0010 4060     		str	r0, [r0, #4]
  68              	.LBE211:
  69              	.LBE212:
  70              	.LBE213:
  71              	.LBE214:
  72              		.loc 1 60 0
  73 0012 C160     		str	r1, [r0, #12]
  74              		.loc 1 61 0
  75 0014 8161     		str	r1, [r0, #24]
  76              		.loc 1 62 0
  77 0016 4161     		str	r1, [r0, #20]
  78              		.loc 1 64 0
  79 0018 C361     		str	r3, [r0, #28]
  80              		.loc 1 66 0
  81 001a 30BC     		pop	{r4, r5}
  82              	.LVL2:
  83 001c 7047     		bx	lr
  84              		.cfi_endproc
  85              	.LFE270:
  86              		.size	iqObjectInit, .-iqObjectInit
  87 001e 00BF     		.section	.text.iqResetI,"ax",%progbits
  88              		.align	2
  89              		.p2align 4,,15
  90              		.global	iqResetI
  91              		.thumb
  92              		.thumb_func
  93              		.type	iqResetI, %function
  94              	iqResetI:
  95              	.LFB271:
  96              		.loc 1 79 0
  97              		.cfi_startproc
  98              		@ args = 0, pretend = 0, frame = 0
  99              		@ frame_needed = 0, uses_anonymous_args = 0
 100              		@ link register save eliminated.
 101              	.LVL3:
 102              		.loc 1 83 0
 103 0000 C268     		ldr	r2, [r0, #12]
 104              		.loc 1 85 0
 105 0002 0021     		movs	r1, #0
 106 0004 8160     		str	r1, [r0, #8]
 107              	.LVL4:
 108              		.loc 1 83 0
 109 0006 8261     		str	r2, [r0, #24]
 110              		.loc 1 84 0
 111 0008 4261     		str	r2, [r0, #20]
 112              	.LBB215:
 113              	.LBB216:
 114              		.file 3 "../../../../../ChibiOS-RT/os/hal/osal/rt/osal.h"
ARM GAS  /tmp/ccsZYQEd.s 			page 3


 115              		.loc 3 810 0
 116 000a 6FF00101 		mvn	r1, #1
 117 000e FFF7FEBF 		b	chThdDequeueAllI
 118              	.LVL5:
 119              	.LBE216:
 120              	.LBE215:
 121              		.cfi_endproc
 122              	.LFE271:
 123              		.size	iqResetI, .-iqResetI
 124 0012 00BFAFF3 		.section	.text.iqPutI,"ax",%progbits
 124      0080AFF3 
 124      0080AFF3 
 124      0080
 125              		.align	2
 126              		.p2align 4,,15
 127              		.global	iqPutI
 128              		.thumb
 129              		.thumb_func
 130              		.type	iqPutI, %function
 131              	iqPutI:
 132              	.LFB272:
 133              		.loc 1 102 0
 134              		.cfi_startproc
 135              		@ args = 0, pretend = 0, frame = 0
 136              		@ frame_needed = 0, uses_anonymous_args = 0
 137              	.LVL6:
 138              		.loc 1 106 0
 139 0000 4369     		ldr	r3, [r0, #20]
 140 0002 8269     		ldr	r2, [r0, #24]
 141 0004 9342     		cmp	r3, r2
 142              		.loc 1 102 0
 143 0006 10B5     		push	{r4, lr}
 144              		.cfi_def_cfa_offset 8
 145              		.cfi_offset 4, -8
 146              		.cfi_offset 14, -4
 147              		.loc 1 106 0
 148 0008 10D0     		beq	.L11
 149              	.L4:
 150              		.loc 1 110 0
 151 000a 8468     		ldr	r4, [r0, #8]
 152              		.loc 1 111 0
 153 000c 5A1C     		adds	r2, r3, #1
 154              		.loc 1 110 0
 155 000e 0134     		adds	r4, r4, #1
 156              		.loc 1 111 0
 157 0010 4261     		str	r2, [r0, #20]
 158              		.loc 1 110 0
 159 0012 8460     		str	r4, [r0, #8]
 160              		.loc 1 111 0
 161 0014 1970     		strb	r1, [r3]
 162              		.loc 1 112 0
 163 0016 4269     		ldr	r2, [r0, #20]
 164 0018 0369     		ldr	r3, [r0, #16]
 165 001a 9A42     		cmp	r2, r3
 166 001c 01D3     		bcc	.L7
 167              		.loc 1 113 0
 168 001e C368     		ldr	r3, [r0, #12]
ARM GAS  /tmp/ccsZYQEd.s 			page 4


 169 0020 4361     		str	r3, [r0, #20]
 170              	.L7:
 171              	.LVL7:
 172              	.LBB217:
 173              	.LBB218:
 174              		.loc 3 797 0
 175 0022 0021     		movs	r1, #0
 176              	.LVL8:
 177 0024 FFF7FEFF 		bl	chThdDequeueNextI
 178              	.LVL9:
 179              	.LBE218:
 180              	.LBE217:
 181              		.loc 1 118 0
 182 0028 0020     		movs	r0, #0
 183 002a 10BD     		pop	{r4, pc}
 184              	.LVL10:
 185              	.L11:
 186              		.loc 1 106 0 discriminator 1
 187 002c 8268     		ldr	r2, [r0, #8]
 188 002e 002A     		cmp	r2, #0
 189 0030 EBD0     		beq	.L4
 190              		.loc 1 107 0
 191 0032 4FF0FF30 		mov	r0, #-1
 192              	.LVL11:
 193 0036 10BD     		pop	{r4, pc}
 194              		.cfi_endproc
 195              	.LFE272:
 196              		.size	iqPutI, .-iqPutI
 197 0038 AFF30080 		.section	.text.iqGetTimeout,"ax",%progbits
 197      AFF30080 
 198              		.align	2
 199              		.p2align 4,,15
 200              		.global	iqGetTimeout
 201              		.thumb
 202              		.thumb_func
 203              		.type	iqGetTimeout, %function
 204              	iqGetTimeout:
 205              	.LFB273:
 206              		.loc 1 141 0
 207              		.cfi_startproc
 208              		@ args = 0, pretend = 0, frame = 0
 209              		@ frame_needed = 0, uses_anonymous_args = 0
 210              	.LVL12:
 211 0000 70B5     		push	{r4, r5, r6, lr}
 212              		.cfi_def_cfa_offset 16
 213              		.cfi_offset 4, -16
 214              		.cfi_offset 5, -12
 215              		.cfi_offset 6, -8
 216              		.cfi_offset 14, -4
 217              	.LBB219:
 218              	.LBB220:
 219              	.LBB221:
 220              	.LBB222:
 221              	.LBB223:
 222              		.file 4 "../../../../../ChibiOS-RT/os/common/ext/CMSIS/include/cmsis_gcc.h"
 223              		.loc 4 264 0
 224 0002 2023     		movs	r3, #32
ARM GAS  /tmp/ccsZYQEd.s 			page 5


 225              	.LBE223:
 226              	.LBE222:
 227              	.LBE221:
 228              	.LBE220:
 229              	.LBE219:
 230              		.loc 1 141 0
 231 0004 0446     		mov	r4, r0
 232 0006 0E46     		mov	r6, r1
 233              	.LBB228:
 234              	.LBB227:
 235              	.LBB226:
 236              	.LBB225:
 237              	.LBB224:
 238              		.loc 4 264 0
 239              	@ 264 "../../../../../ChibiOS-RT/os/common/ext/CMSIS/include/cmsis_gcc.h" 1
 240 0008 83F31188 		MSR basepri, r3
 241              	@ 0 "" 2
 242              		.thumb
 243 000c 03E0     		b	.L13
 244              	.LVL13:
 245              	.L16:
 246              	.LBE224:
 247              	.LBE225:
 248              	.LBE226:
 249              	.LBE227:
 250              	.LBE228:
 251              	.LBB229:
 252              	.LBB230:
 253              	.LBB231:
 254              		.loc 3 784 0
 255 000e FFF7FEFF 		bl	chThdEnqueueTimeoutS
 256              	.LVL14:
 257              	.LBE231:
 258              	.LBE230:
 259              		.loc 1 149 0
 260 0012 0028     		cmp	r0, #0
 261 0014 1BDB     		blt	.L22
 262              	.LVL15:
 263              	.L13:
 264              	.LBE229:
 265              		.loc 1 147 0 discriminator 1
 266 0016 A568     		ldr	r5, [r4, #8]
 267              	.LBB240:
 268              	.LBB233:
 269              	.LBB232:
 270              		.loc 3 784 0 discriminator 1
 271 0018 2046     		mov	r0, r4
 272 001a 3146     		mov	r1, r6
 273              	.LBE232:
 274              	.LBE233:
 275              	.LBE240:
 276              		.loc 1 147 0 discriminator 1
 277 001c 002D     		cmp	r5, #0
 278 001e F6D0     		beq	.L16
 279              	.LVL16:
 280              		.loc 1 157 0
 281 0020 A269     		ldr	r2, [r4, #24]
ARM GAS  /tmp/ccsZYQEd.s 			page 6


 282              		.loc 1 158 0
 283 0022 2169     		ldr	r1, [r4, #16]
 284              	.LVL17:
 285              		.loc 1 156 0
 286 0024 A068     		ldr	r0, [r4, #8]
 287              	.LVL18:
 288              		.loc 1 157 0
 289 0026 531C     		adds	r3, r2, #1
 290              		.loc 1 158 0
 291 0028 8B42     		cmp	r3, r1
 292              		.loc 1 157 0
 293 002a A361     		str	r3, [r4, #24]
 294              		.loc 1 156 0
 295 002c 00F1FF30 		add	r0, r0, #-1
 296              		.loc 1 159 0
 297 0030 28BF     		it	cs
 298 0032 E368     		ldrcs	r3, [r4, #12]
 299              		.loc 1 156 0
 300 0034 A060     		str	r0, [r4, #8]
 301              		.loc 1 157 0
 302 0036 1578     		ldrb	r5, [r2]	@ zero_extendqisi2
 303              	.LVL19:
 304              		.loc 1 159 0
 305 0038 28BF     		it	cs
 306 003a A361     		strcs	r3, [r4, #24]
 307              	.LVL20:
 308              		.loc 1 163 0
 309 003c E369     		ldr	r3, [r4, #28]
 310 003e 0BB1     		cbz	r3, .L18
 311              		.loc 1 164 0
 312 0040 2046     		mov	r0, r4
 313 0042 9847     		blx	r3
 314              	.LVL21:
 315              	.L18:
 316              	.LBB241:
 317              	.LBB242:
 318              	.LBB243:
 319              	.LBB244:
 320              	.LBB245:
 321              	.LBB246:
 322              		.loc 4 264 0
 323 0044 0023     		movs	r3, #0
 324              	@ 264 "../../../../../ChibiOS-RT/os/common/ext/CMSIS/include/cmsis_gcc.h" 1
 325 0046 83F31188 		MSR basepri, r3
 326              	@ 0 "" 2
 327              		.thumb
 328              	.LBE246:
 329              	.LBE245:
 330              	.LBE244:
 331              	.LBE243:
 332              	.LBE242:
 333              	.LBE241:
 334              		.loc 1 169 0
 335 004a 2846     		mov	r0, r5
 336              		.loc 1 170 0
 337 004c 70BD     		pop	{r4, r5, r6, pc}
 338              	.LVL22:
ARM GAS  /tmp/ccsZYQEd.s 			page 7


 339              	.L22:
 340              	.LBB247:
 341              	.LBB234:
 342              	.LBB235:
 343              	.LBB236:
 344              	.LBB237:
 345              	.LBB238:
 346              	.LBB239:
 347              		.loc 4 264 0
 348              	@ 264 "../../../../../ChibiOS-RT/os/common/ext/CMSIS/include/cmsis_gcc.h" 1
 349 004e 85F31188 		MSR basepri, r5
 350              	@ 0 "" 2
 351              		.thumb
 352              	.LBE239:
 353              	.LBE238:
 354              	.LBE237:
 355              	.LBE236:
 356              	.LBE235:
 357              	.LBE234:
 358              		.loc 1 151 0
 359 0052 70BD     		pop	{r4, r5, r6, pc}
 360              	.LBE247:
 361              		.cfi_endproc
 362              	.LFE273:
 363              		.size	iqGetTimeout, .-iqGetTimeout
 364 0054 AFF30080 		.section	.text.iqReadTimeout,"ax",%progbits
 364      AFF30080 
 364      AFF30080 
 365              		.align	2
 366              		.p2align 4,,15
 367              		.global	iqReadTimeout
 368              		.thumb
 369              		.thumb_func
 370              		.type	iqReadTimeout, %function
 371              	iqReadTimeout:
 372              	.LFB274:
 373              		.loc 1 197 0
 374              		.cfi_startproc
 375              		@ args = 0, pretend = 0, frame = 8
 376              		@ frame_needed = 0, uses_anonymous_args = 0
 377              	.LVL23:
 378 0000 2DE9F04F 		push	{r4, r5, r6, r7, r8, r9, r10, fp, lr}
 379              		.cfi_def_cfa_offset 36
 380              		.cfi_offset 4, -36
 381              		.cfi_offset 5, -32
 382              		.cfi_offset 6, -28
 383              		.cfi_offset 7, -24
 384              		.cfi_offset 8, -20
 385              		.cfi_offset 9, -16
 386              		.cfi_offset 10, -12
 387              		.cfi_offset 11, -8
 388              		.cfi_offset 14, -4
 389 0004 9846     		mov	r8, r3
 390 0006 83B0     		sub	sp, sp, #12
 391              		.cfi_def_cfa_offset 48
 392              		.loc 1 197 0
 393 0008 0446     		mov	r4, r0
ARM GAS  /tmp/ccsZYQEd.s 			page 8


 394 000a 8B46     		mov	fp, r1
 395 000c 1546     		mov	r5, r2
 396              		.loc 1 199 0
 397 000e C769     		ldr	r7, [r0, #28]
 398              	.LVL24:
 399              	.LBB248:
 400              	.LBB249:
 401              	.LBB250:
 402              	.LBB251:
 403              	.LBB252:
 404              		.loc 4 264 0
 405 0010 2023     		movs	r3, #32
 406              	.LVL25:
 407              	@ 264 "../../../../../ChibiOS-RT/os/common/ext/CMSIS/include/cmsis_gcc.h" 1
 408 0012 83F31188 		MSR basepri, r3
 409              	@ 0 "" 2
 410              		.thumb
 411              	.LBE252:
 412              	.LBE251:
 413              	.LBE250:
 414              	.LBE249:
 415              	.LBE248:
 416              	.LBB253:
 417              	.LBB254:
 418              	.LBB255:
 419              	.LBB256:
 420              	.LBB257:
 421              		.file 5 "../../../../../ChibiOS-RT/os/hal/ports/STM32/LLD/TIMv1/hal_st_lld.h"
 422              		.loc 5 141 0
 423 0016 4FF08043 		mov	r3, #1073741824
 424              	.LBE257:
 425              	.LBE256:
 426              	.LBE255:
 427              	.LBE254:
 428              	.LBE253:
 429              		.loc 1 200 0
 430 001a 0026     		movs	r6, #0
 431              	.LBB262:
 432              	.LBB261:
 433              	.LBB260:
 434              	.LBB259:
 435              	.LBB258:
 436              		.loc 5 141 0
 437 001c 5A6A     		ldr	r2, [r3, #36]
 438              	.LVL26:
 439              	.LBE258:
 440              	.LBE259:
 441              	.LBE260:
 442              	.LBE261:
 443              	.LBE262:
 444              		.loc 1 209 0
 445 001e 4244     		add	r2, r8, r2
 446 0020 0192     		str	r2, [sp, #4]
 447              	.LVL27:
 448              	.LBB263:
 449              		.loc 1 218 0
 450 0022 08F1FF3A 		add	r10, r8, #-1
ARM GAS  /tmp/ccsZYQEd.s 			page 9


 451              	.LBE263:
 452              	.LBB280:
 453              	.LBB281:
 454              	.LBB282:
 455              	.LBB283:
 456              	.LBB284:
 457              	.LBB285:
 458              		.loc 4 264 0
 459 0026 B146     		mov	r9, r6
 460              	.LVL28:
 461              	.L24:
 462              	.LBE285:
 463              	.LBE284:
 464              	.LBE283:
 465              	.LBE282:
 466              	.LBE281:
 467              	.LBE280:
 468              		.loc 1 213 0 discriminator 1
 469 0028 A368     		ldr	r3, [r4, #8]
 470 002a 03B3     		cbz	r3, .L30
 471              	.L44:
 472              		.loc 1 244 0
 473 002c A369     		ldr	r3, [r4, #24]
 474              		.loc 1 243 0
 475 002e A168     		ldr	r1, [r4, #8]
 476              		.loc 1 244 0
 477 0030 5A1C     		adds	r2, r3, #1
 478              		.loc 1 243 0
 479 0032 0139     		subs	r1, r1, #1
 480              		.loc 1 244 0
 481 0034 A261     		str	r2, [r4, #24]
 482              		.loc 1 243 0
 483 0036 A160     		str	r1, [r4, #8]
 484              		.loc 1 244 0
 485 0038 1B78     		ldrb	r3, [r3]	@ zero_extendqisi2
 486 003a 8BF80030 		strb	r3, [fp]
 487              		.loc 1 245 0
 488 003e 2369     		ldr	r3, [r4, #16]
 489 0040 A269     		ldr	r2, [r4, #24]
 490 0042 9A42     		cmp	r2, r3
 491              		.loc 1 246 0
 492 0044 28BF     		it	cs
 493 0046 E368     		ldrcs	r3, [r4, #12]
 494              		.loc 1 244 0
 495 0048 0BF1010B 		add	fp, fp, #1
 496              	.LVL29:
 497              		.loc 1 246 0
 498 004c 28BF     		it	cs
 499 004e A361     		strcs	r3, [r4, #24]
 500              		.loc 1 250 0
 501 0050 0FB1     		cbz	r7, .L32
 502              		.loc 1 251 0
 503 0052 2046     		mov	r0, r4
 504 0054 B847     		blx	r7
 505              	.LVL30:
 506              	.L32:
 507              	.LBB291:
ARM GAS  /tmp/ccsZYQEd.s 			page 10


 508              	.LBB290:
 509              	.LBB289:
 510              	.LBB288:
 511              	.LBB287:
 512              	.LBB286:
 513              		.loc 4 264 0
 514              	@ 264 "../../../../../ChibiOS-RT/os/common/ext/CMSIS/include/cmsis_gcc.h" 1
 515 0056 89F31188 		MSR basepri, r9
 516              	@ 0 "" 2
 517              		.thumb
 518              	.LBE286:
 519              	.LBE287:
 520              	.LBE288:
 521              	.LBE289:
 522              	.LBE290:
 523              	.LBE291:
 524              		.loc 1 258 0
 525 005a 013D     		subs	r5, r5, #1
 526              	.LVL31:
 527              		.loc 1 257 0
 528 005c 06F10106 		add	r6, r6, #1
 529              	.LVL32:
 530              		.loc 1 258 0
 531 0060 17D0     		beq	.L28
 532              	.LVL33:
 533              	.LBB292:
 534              	.LBB293:
 535              	.LBB294:
 536              	.LBB295:
 537              	.LBB296:
 538              		.loc 4 264 0
 539 0062 2023     		movs	r3, #32
 540              	@ 264 "../../../../../ChibiOS-RT/os/common/ext/CMSIS/include/cmsis_gcc.h" 1
 541 0064 83F31188 		MSR basepri, r3
 542              	@ 0 "" 2
 543              	.LVL34:
 544              		.thumb
 545              	.LBE296:
 546              	.LBE295:
 547              	.LBE294:
 548              	.LBE293:
 549              	.LBE292:
 550              		.loc 1 213 0
 551 0068 A368     		ldr	r3, [r4, #8]
 552 006a 002B     		cmp	r3, #0
 553 006c DED1     		bne	.L44
 554              	.LVL35:
 555              	.L30:
 556              	.LBB297:
 557              		.loc 1 218 0
 558 006e 1AF1030F 		cmn	r10, #3
 559 0072 12D8     		bhi	.L45
 560              	.LBB264:
 561              	.LBB265:
 562              	.LBB266:
 563              	.LBB267:
 564              	.LBB268:
ARM GAS  /tmp/ccsZYQEd.s 			page 11


 565              	.LBB269:
 566              		.loc 5 141 0
 567 0074 4FF08042 		mov	r2, #1073741824
 568 0078 516A     		ldr	r1, [r2, #36]
 569              	.LBE269:
 570              	.LBE268:
 571              	.LBE267:
 572              	.LBE266:
 573              	.LBE265:
 574              		.loc 1 222 0
 575 007a 019A     		ldr	r2, [sp, #4]
 576 007c 511A     		subs	r1, r2, r1
 577              	.LVL36:
 578              		.loc 1 227 0
 579 007e 8845     		cmp	r8, r1
 580 0080 05D3     		bcc	.L43
 581              	.LVL37:
 582              	.LBB270:
 583              	.LBB271:
 584              		.loc 3 784 0
 585 0082 2046     		mov	r0, r4
 586 0084 FFF7FEFF 		bl	chThdEnqueueTimeoutS
 587              	.LVL38:
 588              	.LBE271:
 589              	.LBE270:
 590              	.LBE264:
 591              		.loc 1 236 0
 592 0088 0028     		cmp	r0, #0
 593 008a CDD0     		beq	.L24
 594              	.LVL39:
 595              	.L46:
 596              	.LBB272:
 597              	.LBB273:
 598              	.LBB274:
 599              	.LBB275:
 600              	.LBB276:
 601              	.LBB277:
 602              		.loc 4 264 0
 603 008c 0023     		movs	r3, #0
 604              	.LVL40:
 605              	.L43:
 606              	@ 264 "../../../../../ChibiOS-RT/os/common/ext/CMSIS/include/cmsis_gcc.h" 1
 607 008e 83F31188 		MSR basepri, r3
 608              	@ 0 "" 2
 609              	.LVL41:
 610              		.thumb
 611              	.L28:
 612              	.LBE277:
 613              	.LBE276:
 614              	.LBE275:
 615              	.LBE274:
 616              	.LBE273:
 617              	.LBE272:
 618              	.LBE297:
 619              		.loc 1 264 0
 620 0092 3046     		mov	r0, r6
 621 0094 03B0     		add	sp, sp, #12
ARM GAS  /tmp/ccsZYQEd.s 			page 12


 622              		@ sp needed
 623 0096 BDE8F08F 		pop	{r4, r5, r6, r7, r8, r9, r10, fp, pc}
 624              	.LVL42:
 625              	.L45:
 626              	.LBB298:
 627              	.LBB278:
 628              	.LBB279:
 629              		.loc 3 784 0
 630 009a 2046     		mov	r0, r4
 631 009c 4146     		mov	r1, r8
 632 009e FFF7FEFF 		bl	chThdEnqueueTimeoutS
 633              	.LVL43:
 634              	.LBE279:
 635              	.LBE278:
 636              		.loc 1 236 0
 637 00a2 0028     		cmp	r0, #0
 638 00a4 C0D0     		beq	.L24
 639 00a6 F1E7     		b	.L46
 640              	.LBE298:
 641              		.cfi_endproc
 642              	.LFE274:
 643              		.size	iqReadTimeout, .-iqReadTimeout
 644 00a8 AFF30080 		.section	.text.oqObjectInit,"ax",%progbits
 644      AFF30080 
 645              		.align	2
 646              		.p2align 4,,15
 647              		.global	oqObjectInit
 648              		.thumb
 649              		.thumb_func
 650              		.type	oqObjectInit, %function
 651              	oqObjectInit:
 652              	.LFB275:
 653              		.loc 1 282 0
 654              		.cfi_startproc
 655              		@ args = 4, pretend = 0, frame = 0
 656              		@ frame_needed = 0, uses_anonymous_args = 0
 657              		@ link register save eliminated.
 658              	.LVL44:
 659 0000 30B4     		push	{r4, r5}
 660              		.cfi_def_cfa_offset 8
 661              		.cfi_offset 4, -8
 662              		.cfi_offset 5, -4
 663              		.loc 1 282 0
 664 0002 029C     		ldr	r4, [sp, #8]
 665              	.LBB299:
 666              	.LBB300:
 667              	.LBB301:
 668              	.LBB302:
 669              		.loc 2 550 0
 670 0004 0060     		str	r0, [r0]
 671              	.LBE302:
 672              	.LBE301:
 673              	.LBE300:
 674              	.LBE299:
 675              		.loc 1 289 0
 676 0006 8D18     		adds	r5, r1, r2
 677 0008 0561     		str	r5, [r0, #16]
ARM GAS  /tmp/ccsZYQEd.s 			page 13


 678              		.loc 1 291 0
 679 000a 0462     		str	r4, [r0, #32]
 680              	.LBB306:
 681              	.LBB305:
 682              	.LBB304:
 683              	.LBB303:
 684              		.loc 2 551 0
 685 000c 4060     		str	r0, [r0, #4]
 686              	.LBE303:
 687              	.LBE304:
 688              	.LBE305:
 689              	.LBE306:
 690              		.loc 1 285 0
 691 000e 8260     		str	r2, [r0, #8]
 692              		.loc 1 286 0
 693 0010 C160     		str	r1, [r0, #12]
 694              		.loc 1 287 0
 695 0012 8161     		str	r1, [r0, #24]
 696              		.loc 1 288 0
 697 0014 4161     		str	r1, [r0, #20]
 698              		.loc 1 290 0
 699 0016 C361     		str	r3, [r0, #28]
 700              		.loc 1 292 0
 701 0018 30BC     		pop	{r4, r5}
 702              	.LVL45:
 703 001a 7047     		bx	lr
 704              		.cfi_endproc
 705              	.LFE275:
 706              		.size	oqObjectInit, .-oqObjectInit
 707 001c AFF30080 		.section	.text.oqResetI,"ax",%progbits
 708              		.align	2
 709              		.p2align 4,,15
 710              		.global	oqResetI
 711              		.thumb
 712              		.thumb_func
 713              		.type	oqResetI, %function
 714              	oqResetI:
 715              	.LFB276:
 716              		.loc 1 305 0
 717              		.cfi_startproc
 718              		@ args = 0, pretend = 0, frame = 0
 719              		@ frame_needed = 0, uses_anonymous_args = 0
 720              		@ link register save eliminated.
 721              	.LVL46:
 722              		.loc 1 309 0
 723 0000 C268     		ldr	r2, [r0, #12]
 724              		.loc 1 305 0
 725 0002 10B4     		push	{r4}
 726              		.cfi_def_cfa_offset 4
 727              		.cfi_offset 4, -4
 728              		.loc 1 311 0
 729 0004 0469     		ldr	r4, [r0, #16]
 730              		.loc 1 309 0
 731 0006 8261     		str	r2, [r0, #24]
 732              		.loc 1 311 0
 733 0008 A41A     		subs	r4, r4, r2
 734 000a 8460     		str	r4, [r0, #8]
ARM GAS  /tmp/ccsZYQEd.s 			page 14


 735              	.LVL47:
 736              	.LBB307:
 737              	.LBB308:
 738              		.loc 3 810 0
 739 000c 6FF00101 		mvn	r1, #1
 740              	.LBE308:
 741              	.LBE307:
 742              		.loc 1 310 0
 743 0010 4261     		str	r2, [r0, #20]
 744              		.loc 1 313 0
 745 0012 5DF8044B 		ldr	r4, [sp], #4
 746              	.LBB310:
 747              	.LBB309:
 748              		.loc 3 810 0
 749 0016 FFF7FEBF 		b	chThdDequeueAllI
 750              	.LVL48:
 751              	.LBE309:
 752              	.LBE310:
 753              		.cfi_endproc
 754              	.LFE276:
 755              		.size	oqResetI, .-oqResetI
 756 001a 00BFAFF3 		.section	.text.oqPutTimeout,"ax",%progbits
 756      0080
 757              		.align	2
 758              		.p2align 4,,15
 759              		.global	oqPutTimeout
 760              		.thumb
 761              		.thumb_func
 762              		.type	oqPutTimeout, %function
 763              	oqPutTimeout:
 764              	.LFB277:
 765              		.loc 1 337 0
 766              		.cfi_startproc
 767              		@ args = 0, pretend = 0, frame = 0
 768              		@ frame_needed = 0, uses_anonymous_args = 0
 769              	.LVL49:
 770 0000 F8B5     		push	{r3, r4, r5, r6, r7, lr}
 771              		.cfi_def_cfa_offset 24
 772              		.cfi_offset 3, -24
 773              		.cfi_offset 4, -20
 774              		.cfi_offset 5, -16
 775              		.cfi_offset 6, -12
 776              		.cfi_offset 7, -8
 777              		.cfi_offset 14, -4
 778              		.loc 1 337 0
 779 0002 0446     		mov	r4, r0
 780 0004 0F46     		mov	r7, r1
 781 0006 1646     		mov	r6, r2
 782              	.LBB311:
 783              	.LBB312:
 784              	.LBB313:
 785              	.LBB314:
 786              	.LBB315:
 787              		.loc 4 264 0
 788 0008 2023     		movs	r3, #32
 789              	@ 264 "../../../../../ChibiOS-RT/os/common/ext/CMSIS/include/cmsis_gcc.h" 1
 790 000a 83F31188 		MSR basepri, r3
ARM GAS  /tmp/ccsZYQEd.s 			page 15


 791              	@ 0 "" 2
 792              		.thumb
 793 000e 03E0     		b	.L50
 794              	.LVL50:
 795              	.L53:
 796              	.LBE315:
 797              	.LBE314:
 798              	.LBE313:
 799              	.LBE312:
 800              	.LBE311:
 801              	.LBB316:
 802              	.LBB317:
 803              	.LBB318:
 804              		.loc 3 784 0
 805 0010 FFF7FEFF 		bl	chThdEnqueueTimeoutS
 806              	.LVL51:
 807              	.LBE318:
 808              	.LBE317:
 809              		.loc 1 344 0
 810 0014 0028     		cmp	r0, #0
 811 0016 1ADB     		blt	.L59
 812              	.LVL52:
 813              	.L50:
 814              	.LBE316:
 815              		.loc 1 342 0 discriminator 1
 816 0018 A568     		ldr	r5, [r4, #8]
 817              	.LBB327:
 818              	.LBB320:
 819              	.LBB319:
 820              		.loc 3 784 0 discriminator 1
 821 001a 2046     		mov	r0, r4
 822 001c 3146     		mov	r1, r6
 823              	.LBE319:
 824              	.LBE320:
 825              	.LBE327:
 826              		.loc 1 342 0 discriminator 1
 827 001e 002D     		cmp	r5, #0
 828 0020 F6D0     		beq	.L53
 829              	.LVL53:
 830              		.loc 1 352 0
 831 0022 6369     		ldr	r3, [r4, #20]
 832              		.loc 1 351 0
 833 0024 A168     		ldr	r1, [r4, #8]
 834              	.LVL54:
 835              		.loc 1 352 0
 836 0026 5A1C     		adds	r2, r3, #1
 837              		.loc 1 351 0
 838 0028 0139     		subs	r1, r1, #1
 839              		.loc 1 352 0
 840 002a 6261     		str	r2, [r4, #20]
 841              		.loc 1 351 0
 842 002c A160     		str	r1, [r4, #8]
 843              		.loc 1 352 0
 844 002e 1F70     		strb	r7, [r3]
 845              		.loc 1 353 0
 846 0030 2369     		ldr	r3, [r4, #16]
 847 0032 6269     		ldr	r2, [r4, #20]
ARM GAS  /tmp/ccsZYQEd.s 			page 16


 848 0034 9A42     		cmp	r2, r3
 849              		.loc 1 354 0
 850 0036 24BF     		itt	cs
 851 0038 E368     		ldrcs	r3, [r4, #12]
 852 003a 6361     		strcs	r3, [r4, #20]
 853              		.loc 1 358 0
 854 003c E369     		ldr	r3, [r4, #28]
 855 003e 0BB1     		cbz	r3, .L55
 856              		.loc 1 359 0
 857 0040 2046     		mov	r0, r4
 858              	.LVL55:
 859 0042 9847     		blx	r3
 860              	.LVL56:
 861              	.L55:
 862              	.LBB328:
 863              	.LBB329:
 864              	.LBB330:
 865              	.LBB331:
 866              	.LBB332:
 867              	.LBB333:
 868              		.loc 4 264 0
 869 0044 0023     		movs	r3, #0
 870              	@ 264 "../../../../../ChibiOS-RT/os/common/ext/CMSIS/include/cmsis_gcc.h" 1
 871 0046 83F31188 		MSR basepri, r3
 872              	@ 0 "" 2
 873              		.thumb
 874              	.LBE333:
 875              	.LBE332:
 876              	.LBE331:
 877              	.LBE330:
 878              	.LBE329:
 879              	.LBE328:
 880              		.loc 1 364 0
 881 004a 0020     		movs	r0, #0
 882              		.loc 1 365 0
 883 004c F8BD     		pop	{r3, r4, r5, r6, r7, pc}
 884              	.LVL57:
 885              	.L59:
 886              	.LBB334:
 887              	.LBB321:
 888              	.LBB322:
 889              	.LBB323:
 890              	.LBB324:
 891              	.LBB325:
 892              	.LBB326:
 893              		.loc 4 264 0
 894              	@ 264 "../../../../../ChibiOS-RT/os/common/ext/CMSIS/include/cmsis_gcc.h" 1
 895 004e 85F31188 		MSR basepri, r5
 896              	@ 0 "" 2
 897              		.thumb
 898              	.LBE326:
 899              	.LBE325:
 900              	.LBE324:
 901              	.LBE323:
 902              	.LBE322:
 903              	.LBE321:
 904              		.loc 1 346 0
ARM GAS  /tmp/ccsZYQEd.s 			page 17


 905 0052 F8BD     		pop	{r3, r4, r5, r6, r7, pc}
 906              	.LBE334:
 907              		.cfi_endproc
 908              	.LFE277:
 909              		.size	oqPutTimeout, .-oqPutTimeout
 910 0054 AFF30080 		.section	.text.oqGetI,"ax",%progbits
 910      AFF30080 
 910      AFF30080 
 911              		.align	2
 912              		.p2align 4,,15
 913              		.global	oqGetI
 914              		.thumb
 915              		.thumb_func
 916              		.type	oqGetI, %function
 917              	oqGetI:
 918              	.LFB278:
 919              		.loc 1 377 0
 920              		.cfi_startproc
 921              		@ args = 0, pretend = 0, frame = 0
 922              		@ frame_needed = 0, uses_anonymous_args = 0
 923              	.LVL58:
 924              		.loc 1 382 0
 925 0000 8369     		ldr	r3, [r0, #24]
 926 0002 4269     		ldr	r2, [r0, #20]
 927 0004 9A42     		cmp	r2, r3
 928              		.loc 1 377 0
 929 0006 10B5     		push	{r4, lr}
 930              		.cfi_def_cfa_offset 8
 931              		.cfi_offset 4, -8
 932              		.cfi_offset 14, -4
 933              		.loc 1 382 0
 934 0008 0FD0     		beq	.L67
 935              	.L61:
 936              		.loc 1 386 0
 937 000a 8468     		ldr	r4, [r0, #8]
 938              		.loc 1 388 0
 939 000c 0169     		ldr	r1, [r0, #16]
 940              		.loc 1 386 0
 941 000e 0134     		adds	r4, r4, #1
 942              		.loc 1 387 0
 943 0010 5A1C     		adds	r2, r3, #1
 944              		.loc 1 386 0
 945 0012 8460     		str	r4, [r0, #8]
 946              		.loc 1 387 0
 947 0014 8261     		str	r2, [r0, #24]
 948              		.loc 1 388 0
 949 0016 8A42     		cmp	r2, r1
 950              		.loc 1 387 0
 951 0018 1C78     		ldrb	r4, [r3]	@ zero_extendqisi2
 952              	.LVL59:
 953              		.loc 1 388 0
 954 001a 01D3     		bcc	.L64
 955              		.loc 1 389 0
 956 001c C368     		ldr	r3, [r0, #12]
 957              	.LVL60:
 958 001e 8361     		str	r3, [r0, #24]
 959              	.LVL61:
ARM GAS  /tmp/ccsZYQEd.s 			page 18


 960              	.L64:
 961              	.LBB335:
 962              	.LBB336:
 963              		.loc 3 797 0
 964 0020 0021     		movs	r1, #0
 965 0022 FFF7FEFF 		bl	chThdDequeueNextI
 966              	.LVL62:
 967              	.LBE336:
 968              	.LBE335:
 969              		.loc 1 394 0
 970 0026 2046     		mov	r0, r4
 971 0028 10BD     		pop	{r4, pc}
 972              	.LVL63:
 973              	.L67:
 974              		.loc 1 382 0 discriminator 1
 975 002a 8268     		ldr	r2, [r0, #8]
 976 002c 002A     		cmp	r2, #0
 977 002e ECD0     		beq	.L61
 978              		.loc 1 383 0
 979 0030 4FF0FF30 		mov	r0, #-1
 980              	.LVL64:
 981 0034 10BD     		pop	{r4, pc}
 982              		.cfi_endproc
 983              	.LFE278:
 984              		.size	oqGetI, .-oqGetI
 985 0036 00BFAFF3 		.section	.text.oqWriteTimeout,"ax",%progbits
 985      0080AFF3 
 985      0080
 986              		.align	2
 987              		.p2align 4,,15
 988              		.global	oqWriteTimeout
 989              		.thumb
 990              		.thumb_func
 991              		.type	oqWriteTimeout, %function
 992              	oqWriteTimeout:
 993              	.LFB279:
 994              		.loc 1 422 0
 995              		.cfi_startproc
 996              		@ args = 0, pretend = 0, frame = 8
 997              		@ frame_needed = 0, uses_anonymous_args = 0
 998              	.LVL65:
 999 0000 2DE9F04F 		push	{r4, r5, r6, r7, r8, r9, r10, fp, lr}
 1000              		.cfi_def_cfa_offset 36
 1001              		.cfi_offset 4, -36
 1002              		.cfi_offset 5, -32
 1003              		.cfi_offset 6, -28
 1004              		.cfi_offset 7, -24
 1005              		.cfi_offset 8, -20
 1006              		.cfi_offset 9, -16
 1007              		.cfi_offset 10, -12
 1008              		.cfi_offset 11, -8
 1009              		.cfi_offset 14, -4
 1010 0004 9846     		mov	r8, r3
 1011 0006 83B0     		sub	sp, sp, #12
 1012              		.cfi_def_cfa_offset 48
 1013              		.loc 1 422 0
 1014 0008 0446     		mov	r4, r0
ARM GAS  /tmp/ccsZYQEd.s 			page 19


 1015 000a 8B46     		mov	fp, r1
 1016 000c 1546     		mov	r5, r2
 1017              		.loc 1 424 0
 1018 000e C769     		ldr	r7, [r0, #28]
 1019              	.LVL66:
 1020              	.LBB337:
 1021              	.LBB338:
 1022              	.LBB339:
 1023              	.LBB340:
 1024              	.LBB341:
 1025              		.loc 4 264 0
 1026 0010 2023     		movs	r3, #32
 1027              	.LVL67:
 1028              	@ 264 "../../../../../ChibiOS-RT/os/common/ext/CMSIS/include/cmsis_gcc.h" 1
 1029 0012 83F31188 		MSR basepri, r3
 1030              	@ 0 "" 2
 1031              		.thumb
 1032              	.LBE341:
 1033              	.LBE340:
 1034              	.LBE339:
 1035              	.LBE338:
 1036              	.LBE337:
 1037              	.LBB342:
 1038              	.LBB343:
 1039              	.LBB344:
 1040              	.LBB345:
 1041              	.LBB346:
 1042              		.loc 5 141 0
 1043 0016 4FF08043 		mov	r3, #1073741824
 1044              	.LBE346:
 1045              	.LBE345:
 1046              	.LBE344:
 1047              	.LBE343:
 1048              	.LBE342:
 1049              		.loc 1 425 0
 1050 001a 0026     		movs	r6, #0
 1051              	.LBB351:
 1052              	.LBB350:
 1053              	.LBB349:
 1054              	.LBB348:
 1055              	.LBB347:
 1056              		.loc 5 141 0
 1057 001c 5A6A     		ldr	r2, [r3, #36]
 1058              	.LVL68:
 1059              	.LBE347:
 1060              	.LBE348:
 1061              	.LBE349:
 1062              	.LBE350:
 1063              	.LBE351:
 1064              		.loc 1 434 0
 1065 001e 4244     		add	r2, r8, r2
 1066 0020 0192     		str	r2, [sp, #4]
 1067              	.LVL69:
 1068              	.LBB352:
 1069              		.loc 1 442 0
 1070 0022 08F1FF3A 		add	r10, r8, #-1
 1071              	.LBB353:
ARM GAS  /tmp/ccsZYQEd.s 			page 20


 1072              	.LBB354:
 1073              	.LBB355:
 1074              	.LBB356:
 1075              	.LBB357:
 1076              	.LBB358:
 1077              		.loc 4 264 0
 1078 0026 B146     		mov	r9, r6
 1079              	.LVL70:
 1080              	.L69:
 1081              	.LBE358:
 1082              	.LBE357:
 1083              	.LBE356:
 1084              	.LBE355:
 1085              	.LBE354:
 1086              	.LBE353:
 1087              		.loc 1 439 0 discriminator 1
 1088 0028 A368     		ldr	r3, [r4, #8]
 1089 002a 03B3     		cbz	r3, .L75
 1090              	.L89:
 1091              		.loc 1 468 0
 1092 002c 6369     		ldr	r3, [r4, #20]
 1093              		.loc 1 467 0
 1094 002e A168     		ldr	r1, [r4, #8]
 1095              		.loc 1 468 0
 1096 0030 5A1C     		adds	r2, r3, #1
 1097              		.loc 1 467 0
 1098 0032 0139     		subs	r1, r1, #1
 1099              		.loc 1 468 0
 1100 0034 6261     		str	r2, [r4, #20]
 1101              		.loc 1 467 0
 1102 0036 A160     		str	r1, [r4, #8]
 1103              		.loc 1 468 0
 1104 0038 9BF80020 		ldrb	r2, [fp]	@ zero_extendqisi2
 1105 003c 1A70     		strb	r2, [r3]
 1106              		.loc 1 469 0
 1107 003e 2369     		ldr	r3, [r4, #16]
 1108 0040 6269     		ldr	r2, [r4, #20]
 1109 0042 9A42     		cmp	r2, r3
 1110              		.loc 1 470 0
 1111 0044 28BF     		it	cs
 1112 0046 E368     		ldrcs	r3, [r4, #12]
 1113              		.loc 1 468 0
 1114 0048 0BF1010B 		add	fp, fp, #1
 1115              	.LVL71:
 1116              		.loc 1 470 0
 1117 004c 28BF     		it	cs
 1118 004e 6361     		strcs	r3, [r4, #20]
 1119              		.loc 1 474 0
 1120 0050 0FB1     		cbz	r7, .L77
 1121              		.loc 1 475 0
 1122 0052 2046     		mov	r0, r4
 1123 0054 B847     		blx	r7
 1124              	.LVL72:
 1125              	.L77:
 1126              	.LBB364:
 1127              	.LBB363:
 1128              	.LBB362:
ARM GAS  /tmp/ccsZYQEd.s 			page 21


 1129              	.LBB361:
 1130              	.LBB360:
 1131              	.LBB359:
 1132              		.loc 4 264 0
 1133              	@ 264 "../../../../../ChibiOS-RT/os/common/ext/CMSIS/include/cmsis_gcc.h" 1
 1134 0056 89F31188 		MSR basepri, r9
 1135              	@ 0 "" 2
 1136              		.thumb
 1137              	.LBE359:
 1138              	.LBE360:
 1139              	.LBE361:
 1140              	.LBE362:
 1141              	.LBE363:
 1142              	.LBE364:
 1143              		.loc 1 482 0
 1144 005a 013D     		subs	r5, r5, #1
 1145              	.LVL73:
 1146              		.loc 1 481 0
 1147 005c 06F10106 		add	r6, r6, #1
 1148              	.LVL74:
 1149              		.loc 1 482 0
 1150 0060 17D0     		beq	.L73
 1151              	.LVL75:
 1152              	.LBB365:
 1153              	.LBB366:
 1154              	.LBB367:
 1155              	.LBB368:
 1156              	.LBB369:
 1157              		.loc 4 264 0
 1158 0062 2023     		movs	r3, #32
 1159              	@ 264 "../../../../../ChibiOS-RT/os/common/ext/CMSIS/include/cmsis_gcc.h" 1
 1160 0064 83F31188 		MSR basepri, r3
 1161              	@ 0 "" 2
 1162              	.LVL76:
 1163              		.thumb
 1164              	.LBE369:
 1165              	.LBE368:
 1166              	.LBE367:
 1167              	.LBE366:
 1168              	.LBE365:
 1169              		.loc 1 439 0
 1170 0068 A368     		ldr	r3, [r4, #8]
 1171 006a 002B     		cmp	r3, #0
 1172 006c DED1     		bne	.L89
 1173              	.LVL77:
 1174              	.L75:
 1175              		.loc 1 442 0
 1176 006e 1AF1030F 		cmn	r10, #3
 1177 0072 12D8     		bhi	.L90
 1178              	.LBB370:
 1179              	.LBB371:
 1180              	.LBB372:
 1181              	.LBB373:
 1182              	.LBB374:
 1183              	.LBB375:
 1184              		.loc 5 141 0
 1185 0074 4FF08042 		mov	r2, #1073741824
ARM GAS  /tmp/ccsZYQEd.s 			page 22


 1186 0078 516A     		ldr	r1, [r2, #36]
 1187              	.LBE375:
 1188              	.LBE374:
 1189              	.LBE373:
 1190              	.LBE372:
 1191              	.LBE371:
 1192              		.loc 1 446 0
 1193 007a 019A     		ldr	r2, [sp, #4]
 1194 007c 511A     		subs	r1, r2, r1
 1195              	.LVL78:
 1196              		.loc 1 451 0
 1197 007e 8845     		cmp	r8, r1
 1198 0080 05D3     		bcc	.L88
 1199              	.LVL79:
 1200              	.LBB376:
 1201              	.LBB377:
 1202              		.loc 3 784 0
 1203 0082 2046     		mov	r0, r4
 1204 0084 FFF7FEFF 		bl	chThdEnqueueTimeoutS
 1205              	.LVL80:
 1206              	.LBE377:
 1207              	.LBE376:
 1208              	.LBE370:
 1209              		.loc 1 460 0
 1210 0088 0028     		cmp	r0, #0
 1211 008a CDD0     		beq	.L69
 1212              	.LVL81:
 1213              	.L91:
 1214              	.LBB378:
 1215              	.LBB379:
 1216              	.LBB380:
 1217              	.LBB381:
 1218              	.LBB382:
 1219              	.LBB383:
 1220              		.loc 4 264 0
 1221 008c 0023     		movs	r3, #0
 1222              	.LVL82:
 1223              	.L88:
 1224              	@ 264 "../../../../../ChibiOS-RT/os/common/ext/CMSIS/include/cmsis_gcc.h" 1
 1225 008e 83F31188 		MSR basepri, r3
 1226              	@ 0 "" 2
 1227              	.LVL83:
 1228              		.thumb
 1229              	.L73:
 1230              	.LBE383:
 1231              	.LBE382:
 1232              	.LBE381:
 1233              	.LBE380:
 1234              	.LBE379:
 1235              	.LBE378:
 1236              	.LBE352:
 1237              		.loc 1 488 0
 1238 0092 3046     		mov	r0, r6
 1239 0094 03B0     		add	sp, sp, #12
 1240              		@ sp needed
 1241 0096 BDE8F08F 		pop	{r4, r5, r6, r7, r8, r9, r10, fp, pc}
 1242              	.LVL84:
ARM GAS  /tmp/ccsZYQEd.s 			page 23


 1243              	.L90:
 1244              	.LBB386:
 1245              	.LBB384:
 1246              	.LBB385:
 1247              		.loc 3 784 0
 1248 009a 2046     		mov	r0, r4
 1249 009c 4146     		mov	r1, r8
 1250 009e FFF7FEFF 		bl	chThdEnqueueTimeoutS
 1251              	.LVL85:
 1252              	.LBE385:
 1253              	.LBE384:
 1254              		.loc 1 460 0
 1255 00a2 0028     		cmp	r0, #0
 1256 00a4 C0D0     		beq	.L69
 1257 00a6 F1E7     		b	.L91
 1258              	.LBE386:
 1259              		.cfi_endproc
 1260              	.LFE279:
 1261              		.size	oqWriteTimeout, .-oqWriteTimeout
 1262 00a8 AFF30080 		.text
 1262      AFF30080 
 1263              	.Letext0:
 1264              		.file 6 "/usr/lib/gcc/arm-none-eabi/4.8.2/include/stddef.h"
 1265              		.file 7 "/usr/include/newlib/machine/_default_types.h"
 1266              		.file 8 "/usr/include/newlib/stdint.h"
 1267              		.file 9 "../../../../../ChibiOS-RT/os/common/ports/ARMCMx/compilers/GCC/chtypes.h"
 1268              		.file 10 "../../../../../ChibiOS-RT/os/rt/include/chsystypes.h"
 1269              		.file 11 "../../../../../ChibiOS-RT/os/common/ports/ARMCMx/chcore.h"
 1270              		.file 12 "../../../../../ChibiOS-RT/os/common/ports/ARMCMx/chcore_v7m.h"
 1271              		.file 13 "../../../../../ChibiOS-RT/os/hal/ports/STM32/LLD/TIMv1/stm32_tim.h"
 1272              		.file 14 "../../../../../ChibiOS-RT/os/rt/include/chtrace.h"
 1273              		.file 15 "../../../../../ChibiOS-RT/os/rt/include/chtm.h"
 1274              		.file 16 "../../../../../ChibiOS-RT/os/rt/include/chsem.h"
 1275              		.file 17 "../../../../../ChibiOS-RT/os/rt/include/chmtx.h"
 1276              		.file 18 "../../../../../ChibiOS-RT/os/hal/include/hal_queues.h"
 1277              		.file 19 "../../../../../ChibiOS-RT/os/common/ports/ARMCMx/chcore_timer.h"
 1278              		.file 20 "../../../../../ChibiOS-RT/os/rt/include/chsys.h"
 1279              		.file 21 "../../../../../ChibiOS-RT/os/rt/include/chvt.h"
 1280              		.file 22 "../../../../../ChibiOS-RT/os/rt/include/chthreads.h"
 1281              		.file 23 "../../../../../ChibiOS-RT/os/common/ext/CMSIS/include/core_cm4.h"