ARM GAS  /tmp/cczdLhzH.s 			page 1


   1              		.syntax unified
   2              		.cpu cortex-m4
   3              		.fpu softvfp
   4              		.eabi_attribute 20, 1
   5              		.eabi_attribute 21, 1
   6              		.eabi_attribute 23, 3
   7              		.eabi_attribute 24, 1
   8              		.eabi_attribute 25, 1
   9              		.eabi_attribute 26, 1
  10              		.eabi_attribute 30, 2
  11              		.eabi_attribute 34, 1
  12              		.eabi_attribute 18, 4
  13              		.thumb
  14              		.file	"hal_pal.c"
  15              		.text
  16              	.Ltext0:
  17              		.cfi_sections	.debug_frame
  18              		.section	.text.palReadBus,"ax",%progbits
  19              		.align	2
  20              		.p2align 4,,15
  21              		.global	palReadBus
  22              		.thumb
  23              		.thumb_func
  24              		.type	palReadBus, %function
  25              	palReadBus:
  26              	.LFB270:
  27              		.file 1 "../../../../../ChibiOS-RT/os/hal/src/hal_pal.c"
  28              		.loc 1 65 0
  29              		.cfi_startproc
  30              		@ args = 0, pretend = 0, frame = 0
  31              		@ frame_needed = 0, uses_anonymous_args = 0
  32              		@ link register save eliminated.
  33              	.LVL0:
  34              		.loc 1 69 0
  35 0000 0368     		ldr	r3, [r0]
  36 0002 8268     		ldr	r2, [r0, #8]
  37 0004 1969     		ldr	r1, [r3, #16]
  38 0006 4368     		ldr	r3, [r0, #4]
  39 0008 21FA02F0 		lsr	r0, r1, r2
  40              	.LVL1:
  41              		.loc 1 70 0
  42 000c 1840     		ands	r0, r0, r3
  43 000e 7047     		bx	lr
  44              		.cfi_endproc
  45              	.LFE270:
  46              		.size	palReadBus, .-palReadBus
  47              		.section	.text.palWriteBus,"ax",%progbits
  48              		.align	2
  49              		.p2align 4,,15
  50              		.global	palWriteBus
  51              		.thumb
  52              		.thumb_func
  53              		.type	palWriteBus, %function
  54              	palWriteBus:
  55              	.LFB271:
  56              		.loc 1 90 0
  57              		.cfi_startproc
ARM GAS  /tmp/cczdLhzH.s 			page 2


  58              		@ args = 0, pretend = 0, frame = 0
  59              		@ frame_needed = 0, uses_anonymous_args = 0
  60              		@ link register save eliminated.
  61              	.LVL2:
  62              		.loc 1 94 0
  63 0000 0DC8     		ldmia	r0, {r0, r2, r3}
  64              	.LVL3:
  65              		.loc 1 90 0
  66 0002 30B4     		push	{r4, r5}
  67              		.cfi_def_cfa_offset 8
  68              		.cfi_offset 4, -8
  69              		.cfi_offset 5, -4
  70              		.loc 1 94 0
  71 0004 22EA0105 		bic	r5, r2, r1
  72 0008 03F11004 		add	r4, r3, #16
  73 000c 0A40     		ands	r2, r2, r1
  74 000e 02FA03F3 		lsl	r3, r2, r3
  75 0012 05FA04F2 		lsl	r2, r5, r4
  76 0016 1343     		orrs	r3, r3, r2
  77 0018 8361     		str	r3, [r0, #24]
  78              		.loc 1 95 0
  79 001a 30BC     		pop	{r4, r5}
  80 001c 7047     		bx	lr
  81              		.cfi_endproc
  82              	.LFE271:
  83              		.size	palWriteBus, .-palWriteBus
  84 001e 00BF     		.section	.text.palSetBusMode,"ax",%progbits
  85              		.align	2
  86              		.p2align 4,,15
  87              		.global	palSetBusMode
  88              		.thumb
  89              		.thumb_func
  90              		.type	palSetBusMode, %function
  91              	palSetBusMode:
  92              	.LFB272:
  93              		.loc 1 113 0
  94              		.cfi_startproc
  95              		@ args = 0, pretend = 0, frame = 0
  96              		@ frame_needed = 0, uses_anonymous_args = 0
  97              		@ link register save eliminated.
  98              	.LVL4:
  99 0000 10B4     		push	{r4}
 100              		.cfi_def_cfa_offset 4
 101              		.cfi_offset 4, -4
 102              		.loc 1 113 0
 103 0002 0A46     		mov	r2, r1
 104              		.loc 1 117 0
 105 0004 4468     		ldr	r4, [r0, #4]
 106 0006 8168     		ldr	r1, [r0, #8]
 107              	.LVL5:
 108 0008 0068     		ldr	r0, [r0]
 109              	.LVL6:
 110 000a 04FA01F1 		lsl	r1, r4, r1
 111              		.loc 1 118 0
 112 000e 5DF8044B 		ldr	r4, [sp], #4
 113              		.loc 1 117 0
 114 0012 FFF7FEBF 		b	_pal_lld_setgroupmode
ARM GAS  /tmp/cczdLhzH.s 			page 3


 115              	.LVL7:
 116              		.cfi_endproc
 117              	.LFE272:
 118              		.size	palSetBusMode, .-palSetBusMode
 119 0016 00BFAFF3 		.text
 119      0080AFF3 
 119      0080
 120              	.Letext0:
 121              		.file 2 "/usr/include/newlib/machine/_default_types.h"
 122              		.file 3 "/usr/include/newlib/stdint.h"
 123              		.file 4 "../../../../../ChibiOS-RT/os/common/ports/ARMCMx/compilers/GCC/chtypes.h"
 124              		.file 5 "../../../../../ChibiOS-RT/os/rt/include/chsystypes.h"
 125              		.file 6 "../../../../../ChibiOS-RT/os/rt/include/chschd.h"
 126              		.file 7 "../../../../../ChibiOS-RT/os/common/ports/ARMCMx/chcore.h"
 127              		.file 8 "../../../../../ChibiOS-RT/os/common/ports/ARMCMx/chcore_v7m.h"
 128              		.file 9 "../../../../../ChibiOS-RT/os/rt/include/chtrace.h"
 129              		.file 10 "../../../../../ChibiOS-RT/os/rt/include/chtm.h"
 130              		.file 11 "../../../../../ChibiOS-RT/os/rt/include/chsem.h"
 131              		.file 12 "../../../../../ChibiOS-RT/os/rt/include/chmtx.h"
 132              		.file 13 "../../../../../ChibiOS-RT/os/hal/ports/STM32/LLD/GPIOv2/hal_pal_lld.h"
 133              		.file 14 "../../../../../ChibiOS-RT/os/hal/include/hal_pal.h"
 134              		.file 15 "../../../../../ChibiOS-RT/os/common/ext/CMSIS/include/core_cm4.h"