ARM GAS  /tmp/ccNN9Ekw.s 			page 1


   1              		.syntax unified
   2              		.cpu cortex-m4
   3              		.fpu softvfp
   4              		.eabi_attribute 20, 1
   5              		.eabi_attribute 21, 1
   6              		.eabi_attribute 23, 3
   7              		.eabi_attribute 24, 1
   8              		.eabi_attribute 25, 1
   9              		.eabi_attribute 26, 1
  10              		.eabi_attribute 30, 2
  11              		.eabi_attribute 34, 1
  12              		.eabi_attribute 18, 4
  13              		.thumb
  14              		.file	"hal_adc_lld.c"
  15              		.text
  16              	.Ltext0:
  17              		.cfi_sections	.debug_frame
  18              		.section	.text.adc_lld_init,"ax",%progbits
  19              		.align	2
  20              		.p2align 4,,15
  21              		.global	adc_lld_init
  22              		.thumb
  23              		.thumb_func
  24              		.type	adc_lld_init, %function
  25              	adc_lld_init:
  26              	.LFB272:
  27              		.file 1 "../../../../../ChibiOS-RT/os/hal/ports/STM32/LLD/ADCv2/hal_adc_lld.c"
  28              		.loc 1 171 0
  29              		.cfi_startproc
  30              		@ args = 0, pretend = 0, frame = 0
  31              		@ frame_needed = 0, uses_anonymous_args = 0
  32 0000 38B5     		push	{r3, r4, r5, lr}
  33              		.cfi_def_cfa_offset 16
  34              		.cfi_offset 3, -16
  35              		.cfi_offset 4, -12
  36              		.cfi_offset 5, -8
  37              		.cfi_offset 14, -4
  38              		.loc 1 175 0
  39 0002 40F20004 		movw	r4, #:lower16:.LANCHOR0
  40 0006 C0F20004 		movt	r4, #:upper16:.LANCHOR0
  41 000a 2046     		mov	r0, r4
  42 000c FFF7FEFF 		bl	adcObjectInit
  43              	.LVL0:
  44              		.loc 1 177 0
  45 0010 084D     		ldr	r5, .L2
  46              		.loc 1 176 0
  47 0012 4FF40052 		mov	r2, #8192
  48              		.loc 1 178 0
  49 0016 42F61643 		movw	r3, #11286
  50 001a C0F20203 		movt	r3, 2
  51              		.loc 1 176 0
  52 001e C4F20102 		movt	r2, 16385
  53 0022 A262     		str	r2, [r4, #40]
  54              		.loc 1 177 0
  55 0024 E562     		str	r5, [r4, #44]
  56              		.loc 1 178 0
  57 0026 2363     		str	r3, [r4, #48]
ARM GAS  /tmp/ccNN9Ekw.s 			page 2


  58              		.loc 1 214 0
  59 0028 1220     		movs	r0, #18
  60 002a 0621     		movs	r1, #6
  61              		.loc 1 215 0
  62 002c BDE83840 		pop	{r3, r4, r5, lr}
  63              		.loc 1 214 0
  64 0030 FFF7FEBF 		b	nvicEnableVector
  65              	.LVL1:
  66              	.L3:
  67              		.align	2
  68              	.L2:
  69 0034 90000000 		.word	_stm32_dma_streams+144
  70              		.cfi_endproc
  71              	.LFE272:
  72              		.size	adc_lld_init, .-adc_lld_init
  73 0038 AFF30080 		.section	.text.adc_lld_start,"ax",%progbits
  73      AFF30080 
  74              		.align	2
  75              		.p2align 4,,15
  76              		.global	adc_lld_start
  77              		.thumb
  78              		.thumb_func
  79              		.type	adc_lld_start, %function
  80              	adc_lld_start:
  81              	.LFB273:
  82              		.loc 1 224 0
  83              		.cfi_startproc
  84              		@ args = 0, pretend = 0, frame = 0
  85              		@ frame_needed = 0, uses_anonymous_args = 0
  86              	.LVL2:
  87              		.loc 1 227 0
  88 0000 0378     		ldrb	r3, [r0]	@ zero_extendqisi2
  89 0002 012B     		cmp	r3, #1
  90              		.loc 1 224 0
  91 0004 10B5     		push	{r4, lr}
  92              		.cfi_def_cfa_offset 8
  93              		.cfi_offset 4, -8
  94              		.cfi_offset 14, -4
  95              		.loc 1 224 0
  96 0006 0446     		mov	r4, r0
  97              		.loc 1 227 0
  98 0008 00D0     		beq	.L8
  99 000a 10BD     		pop	{r4, pc}
 100              	.L8:
 101              		.loc 1 229 0
 102 000c 40F20003 		movw	r3, #:lower16:.LANCHOR0
 103 0010 C0F20003 		movt	r3, #:upper16:.LANCHOR0
 104 0014 9842     		cmp	r0, r3
 105 0016 10D0     		beq	.L9
 106              	.LVL3:
 107              	.L6:
 108              		.loc 1 269 0
 109 0018 4FF40C52 		mov	r2, #8960
 110 001c C4F20102 		movt	r2, 16385
 111              		.loc 1 274 0
 112 0020 A36A     		ldr	r3, [r4, #40]
 113              		.loc 1 269 0
ARM GAS  /tmp/ccNN9Ekw.s 			page 3


 114 0022 5468     		ldr	r4, [r2, #4]
 115              	.LVL4:
 116 0024 04F44004 		and	r4, r4, #12582912
 117              		.loc 1 274 0
 118 0028 0021     		movs	r1, #0
 119              		.loc 1 269 0
 120 002a 44F48034 		orr	r4, r4, #65536
 121              		.loc 1 276 0
 122 002e 0120     		movs	r0, #1
 123              		.loc 1 269 0
 124 0030 5460     		str	r4, [r2, #4]
 125              		.loc 1 274 0
 126 0032 5960     		str	r1, [r3, #4]
 127              		.loc 1 275 0
 128 0034 9960     		str	r1, [r3, #8]
 129              		.loc 1 276 0
 130 0036 9860     		str	r0, [r3, #8]
 131 0038 10BD     		pop	{r4, pc}
 132              	.LVL5:
 133              	.L9:
 134              	.LBB85:
 135              		.loc 1 231 0
 136 003a 40F20002 		movw	r2, #:lower16:adc_lld_serve_rx_interrupt
 137 003e C0F20002 		movt	r2, #:upper16:adc_lld_serve_rx_interrupt
 138 0042 0621     		movs	r1, #6
 139 0044 2346     		mov	r3, r4
 140 0046 C06A     		ldr	r0, [r0, #44]
 141              	.LVL6:
 142 0048 FFF7FEFF 		bl	dmaStreamAllocate
 143              	.LVL7:
 144              		.loc 1 236 0
 145 004c E36A     		ldr	r3, [r4, #44]
 146 004e 42F24C02 		movw	r2, #8268
 147 0052 1968     		ldr	r1, [r3]
 148              		.loc 1 237 0
 149 0054 4FF46053 		mov	r3, #14336
 150              		.loc 1 236 0
 151 0058 C4F20102 		movt	r2, 16385
 152              		.loc 1 237 0
 153 005c C4F20203 		movt	r3, 16386
 154              		.loc 1 236 0
 155 0060 8A60     		str	r2, [r1, #8]
 156              		.loc 1 237 0
 157 0062 5A6C     		ldr	r2, [r3, #68]
 158 0064 42F48072 		orr	r2, r2, #256
 159 0068 5A64     		str	r2, [r3, #68]
 160 006a D5E7     		b	.L6
 161              	.LBE85:
 162              		.cfi_endproc
 163              	.LFE273:
 164              		.size	adc_lld_start, .-adc_lld_start
 165 006c AFF30080 		.section	.text.adc_lld_stop,"ax",%progbits
 166              		.align	2
 167              		.p2align 4,,15
 168              		.global	adc_lld_stop
 169              		.thumb
 170              		.thumb_func
ARM GAS  /tmp/ccNN9Ekw.s 			page 4


 171              		.type	adc_lld_stop, %function
 172              	adc_lld_stop:
 173              	.LFB274:
 174              		.loc 1 287 0
 175              		.cfi_startproc
 176              		@ args = 0, pretend = 0, frame = 0
 177              		@ frame_needed = 0, uses_anonymous_args = 0
 178              	.LVL8:
 179              		.loc 1 290 0
 180 0000 0378     		ldrb	r3, [r0]	@ zero_extendqisi2
 181 0002 022B     		cmp	r3, #2
 182              		.loc 1 287 0
 183 0004 10B5     		push	{r4, lr}
 184              		.cfi_def_cfa_offset 8
 185              		.cfi_offset 4, -8
 186              		.cfi_offset 14, -4
 187              		.loc 1 287 0
 188 0006 0446     		mov	r4, r0
 189              		.loc 1 290 0
 190 0008 00D0     		beq	.L14
 191 000a 10BD     		pop	{r4, pc}
 192              	.L14:
 193              		.loc 1 291 0
 194 000c C06A     		ldr	r0, [r0, #44]
 195              	.LVL9:
 196 000e FFF7FEFF 		bl	dmaStreamRelease
 197              	.LVL10:
 198              		.loc 1 296 0
 199 0012 40F20003 		movw	r3, #:lower16:.LANCHOR0
 200 0016 C0F20003 		movt	r3, #:upper16:.LANCHOR0
 201 001a 9C42     		cmp	r4, r3
 202              		.loc 1 292 0
 203 001c A26A     		ldr	r2, [r4, #40]
 204              		.loc 1 297 0
 205 001e 08BF     		it	eq
 206 0020 4FF46053 		moveq	r3, #14336
 207              		.loc 1 292 0
 208 0024 4FF00001 		mov	r1, #0
 209              		.loc 1 297 0
 210 0028 08BF     		it	eq
 211 002a C4F20203 		movteq	r3, 16386
 212              		.loc 1 292 0
 213 002e 5160     		str	r1, [r2, #4]
 214              		.loc 1 293 0
 215 0030 9160     		str	r1, [r2, #8]
 216              		.loc 1 297 0
 217 0032 02BF     		ittt	eq
 218 0034 5A6C     		ldreq	r2, [r3, #68]
 219 0036 22F48072 		biceq	r2, r2, #256
 220 003a 5A64     		streq	r2, [r3, #68]
 221 003c 10BD     		pop	{r4, pc}
 222              		.cfi_endproc
 223              	.LFE274:
 224              		.size	adc_lld_stop, .-adc_lld_stop
 225 003e 00BF     		.section	.text.adc_lld_start_conversion,"ax",%progbits
 226              		.align	2
 227              		.p2align 4,,15
ARM GAS  /tmp/ccNN9Ekw.s 			page 5


 228              		.global	adc_lld_start_conversion
 229              		.thumb
 230              		.thumb_func
 231              		.type	adc_lld_start_conversion, %function
 232              	adc_lld_start_conversion:
 233              	.LFB275:
 234              		.loc 1 319 0
 235              		.cfi_startproc
 236              		@ args = 0, pretend = 0, frame = 0
 237              		@ frame_needed = 0, uses_anonymous_args = 0
 238              		@ link register save eliminated.
 239              	.LVL11:
 240              		.loc 1 322 0
 241 0000 0369     		ldr	r3, [r0, #16]
 242              	.LVL12:
 243              		.loc 1 325 0
 244 0002 026B     		ldr	r2, [r0, #48]
 245              	.LVL13:
 246              		.loc 1 326 0
 247 0004 1978     		ldrb	r1, [r3]	@ zero_extendqisi2
 248              		.loc 1 319 0
 249 0006 2DE9F003 		push	{r4, r5, r6, r7, r8, r9}
 250              		.cfi_def_cfa_offset 24
 251              		.cfi_offset 4, -24
 252              		.cfi_offset 5, -20
 253              		.cfi_offset 6, -16
 254              		.cfi_offset 7, -12
 255              		.cfi_offset 8, -8
 256              		.cfi_offset 9, -4
 257              		.loc 1 328 0
 258 000a C568     		ldr	r5, [r0, #12]
 259              		.loc 1 326 0
 260 000c 29B1     		cbz	r1, .L17
 261              	.LVL14:
 262              		.loc 1 328 0
 263 000e 012D     		cmp	r5, #1
 264              		.loc 1 327 0
 265 0010 94BF     		ite	ls
 266 0012 42F48072 		orrls	r2, r2, #256
 267              	.LVL15:
 268              		.loc 1 331 0
 269 0016 42F48472 		orrhi	r2, r2, #264
 270              	.LVL16:
 271              	.L17:
 272              		.loc 1 334 0
 273 001a C16A     		ldr	r1, [r0, #44]
 274              		.loc 1 335 0
 275 001c 5E88     		ldrh	r6, [r3, #2]
 276              		.loc 1 334 0
 277 001e 0968     		ldr	r1, [r1]
 278 0020 8468     		ldr	r4, [r0, #8]
 279              		.loc 1 349 0
 280 0022 D3F80C80 		ldr	r8, [r3, #12]
 281              		.loc 1 334 0
 282 0026 CC60     		str	r4, [r1, #12]
 283              		.loc 1 335 0
 284 0028 06FB05F4 		mul	r4, r6, r5
ARM GAS  /tmp/ccNN9Ekw.s 			page 6


 285 002c 4C60     		str	r4, [r1, #4]
 286              		.loc 1 337 0
 287 002e 0A60     		str	r2, [r1]
 288              		.loc 1 338 0
 289 0030 D1F80090 		ldr	r9, [r1]
 290              		.loc 1 343 0
 291 0034 9F69     		ldr	r7, [r3, #24]
 292              		.loc 1 344 0
 293 0036 DE69     		ldr	r6, [r3, #28]
 294              		.loc 1 345 0
 295 0038 1D6A     		ldr	r5, [r3, #32]
 296              		.loc 1 346 0
 297 003a 5C6A     		ldr	r4, [r3, #36]
 298              		.loc 1 342 0
 299 003c D3F814C0 		ldr	ip, [r3, #20]
 300              		.loc 1 352 0
 301 0040 1B69     		ldr	r3, [r3, #16]
 302              	.LVL17:
 303              		.loc 1 341 0
 304 0042 826A     		ldr	r2, [r0, #40]
 305              	.LVL18:
 306              		.loc 1 338 0
 307 0044 49F00109 		orr	r9, r9, #1
 308 0048 C1F80090 		str	r9, [r1]
 309              	.LVL19:
 310              		.loc 1 356 0
 311 004c 5900     		lsls	r1, r3, #1
 312              		.loc 1 358 0
 313 004e 44BF     		itt	mi
 314 0050 23F08041 		bicmi	r1, r3, #1073741824
 315 0054 21F00201 		bicmi	r1, r1, #2
 316              		.loc 1 349 0
 317 0058 48F08060 		orr	r0, r8, #67108864
 318              	.LVL20:
 319              		.loc 1 358 0
 320 005c 46BF     		itte	mi
 321 005e 41F44071 		orrmi	r1, r1, #768
 322              		.loc 1 361 0
 323 0062 43F44073 		orrmi	r3, r3, #768
 324              	.LVL21:
 325              		.loc 1 352 0
 326 0066 43F44073 		orrpl	r3, r3, #768
 327              		.loc 1 341 0
 328 006a 4FF00008 		mov	r8, #0
 329              		.loc 1 349 0
 330 006e 40F48070 		orr	r0, r0, #256
 331              		.loc 1 358 0
 332 0072 46BF     		itte	mi
 333 0074 41F00301 		orrmi	r1, r1, #3
 334              		.loc 1 361 0
 335 0078 43F00303 		orrmi	r3, r3, #3
 336              		.loc 1 352 0
 337 007c 43F00103 		orrpl	r3, r3, #1
 338              		.loc 1 341 0
 339 0080 C2F80080 		str	r8, [r2]
 340              		.loc 1 342 0
 341 0084 C2F80CC0 		str	ip, [r2, #12]
ARM GAS  /tmp/ccNN9Ekw.s 			page 7


 342              		.loc 1 343 0
 343 0088 1761     		str	r7, [r2, #16]
 344              		.loc 1 344 0
 345 008a D662     		str	r6, [r2, #44]
 346              		.loc 1 345 0
 347 008c 1563     		str	r5, [r2, #48]
 348              		.loc 1 346 0
 349 008e 5463     		str	r4, [r2, #52]
 350              		.loc 1 349 0
 351 0090 5060     		str	r0, [r2, #4]
 352              		.loc 1 365 0
 353 0092 BDE8F003 		pop	{r4, r5, r6, r7, r8, r9}
 354              		.loc 1 358 0
 355 0096 48BF     		it	mi
 356 0098 9160     		strmi	r1, [r2, #8]
 357              		.loc 1 364 0
 358 009a 9360     		str	r3, [r2, #8]
 359              	.LVL22:
 360              		.loc 1 365 0
 361 009c 7047     		bx	lr
 362              		.cfi_endproc
 363              	.LFE275:
 364              		.size	adc_lld_start_conversion, .-adc_lld_start_conversion
 365 009e 00BF     		.section	.text.adc_lld_stop_conversion,"ax",%progbits
 366              		.align	2
 367              		.p2align 4,,15
 368              		.global	adc_lld_stop_conversion
 369              		.thumb
 370              		.thumb_func
 371              		.type	adc_lld_stop_conversion, %function
 372              	adc_lld_stop_conversion:
 373              	.LFB276:
 374              		.loc 1 374 0
 375              		.cfi_startproc
 376              		@ args = 0, pretend = 0, frame = 0
 377              		@ frame_needed = 0, uses_anonymous_args = 0
 378              		@ link register save eliminated.
 379              	.LVL23:
 380              		.loc 1 376 0
 381 0000 C16A     		ldr	r1, [r0, #44]
 382 0002 0A68     		ldr	r2, [r1]
 383 0004 1368     		ldr	r3, [r2]
 384 0006 23F01F03 		bic	r3, r3, #31
 385              		.loc 1 374 0
 386 000a 10B4     		push	{r4}
 387              		.cfi_def_cfa_offset 4
 388              		.cfi_offset 4, -4
 389              		.loc 1 376 0
 390 000c 1360     		str	r3, [r2]
 391              	.L23:
 392              		.loc 1 376 0 is_stmt 0 discriminator 1
 393 000e 1368     		ldr	r3, [r2]
 394 0010 13F00103 		ands	r3, r3, #1
 395 0014 FBD1     		bne	.L23
 396              		.loc 1 376 0 discriminator 2
 397 0016 0C7A     		ldrb	r4, [r1, #8]	@ zero_extendqisi2
 398              		.loc 1 377 0 is_stmt 1 discriminator 2
ARM GAS  /tmp/ccNN9Ekw.s 			page 8


 399 0018 826A     		ldr	r2, [r0, #40]
 400              		.loc 1 376 0 discriminator 2
 401 001a 4868     		ldr	r0, [r1, #4]
 402              	.LVL24:
 403 001c 3D21     		movs	r1, #61
 404 001e 01FA04F4 		lsl	r4, r1, r4
 405              		.loc 1 379 0 discriminator 2
 406 0022 0121     		movs	r1, #1
 407              		.loc 1 376 0 discriminator 2
 408 0024 0460     		str	r4, [r0]
 409              		.loc 1 377 0 discriminator 2
 410 0026 5360     		str	r3, [r2, #4]
 411              		.loc 1 380 0 discriminator 2
 412 0028 5DF8044B 		ldr	r4, [sp], #4
 413              		.loc 1 378 0 discriminator 2
 414 002c 9360     		str	r3, [r2, #8]
 415              		.loc 1 379 0 discriminator 2
 416 002e 9160     		str	r1, [r2, #8]
 417              		.loc 1 380 0 discriminator 2
 418 0030 7047     		bx	lr
 419              		.cfi_endproc
 420              	.LFE276:
 421              		.size	adc_lld_stop_conversion, .-adc_lld_stop_conversion
 422 0032 00BFAFF3 		.section	.text.Vector88,"ax",%progbits
 422      0080AFF3 
 422      0080AFF3 
 422      0080
 423              		.align	2
 424              		.p2align 4,,15
 425              		.global	Vector88
 426              		.thumb
 427              		.thumb_func
 428              		.type	Vector88, %function
 429              	Vector88:
 430              	.LFB271:
 431              		.loc 1 111 0
 432              		.cfi_startproc
 433              		@ args = 0, pretend = 0, frame = 0
 434              		@ frame_needed = 0, uses_anonymous_args = 0
 435              		.loc 1 114 0
 436 0000 40F20000 		movw	r0, #:lower16:.LANCHOR1
 437 0004 C0F20000 		movt	r0, #:upper16:.LANCHOR1
 438              		.loc 1 111 0
 439 0008 10B5     		push	{r4, lr}
 440              		.cfi_def_cfa_offset 8
 441              		.cfi_offset 4, -8
 442              		.cfi_offset 14, -4
 443              		.loc 1 114 0
 444 000a FFF7FEFF 		bl	_trace_isr_enter
 445              	.LVL25:
 446              		.loc 1 117 0
 447 000e 4FF40053 		mov	r3, #8192
 448 0012 C4F20103 		movt	r3, 16385
 449              		.loc 1 118 0
 450 0016 0021     		movs	r1, #0
 451              		.loc 1 117 0
 452 0018 1A68     		ldr	r2, [r3]
ARM GAS  /tmp/ccNN9Ekw.s 			page 9


 453              	.LVL26:
 454              		.loc 1 118 0
 455 001a 1960     		str	r1, [r3]
 456              		.loc 1 121 0
 457 001c 9006     		lsls	r0, r2, #26
 458 001e 26D5     		bpl	.L25
 459              		.loc 1 121 0 is_stmt 0 discriminator 1
 460 0020 40F20004 		movw	r4, #:lower16:.LANCHOR0
 461 0024 C0F20004 		movt	r4, #:upper16:.LANCHOR0
 462 0028 E36A     		ldr	r3, [r4, #44]
 463 002a 1B68     		ldr	r3, [r3]
 464 002c 5B68     		ldr	r3, [r3, #4]
 465 002e F3B1     		cbz	r3, .L25
 466              		.loc 1 124 0 is_stmt 1
 467 0030 2369     		ldr	r3, [r4, #16]
 468 0032 E3B1     		cbz	r3, .L25
 469              		.loc 1 125 0
 470 0034 2046     		mov	r0, r4
 471 0036 FFF7FEFF 		bl	adc_lld_stop_conversion
 472              	.LVL27:
 473 003a 2369     		ldr	r3, [r4, #16]
 474 003c 9B68     		ldr	r3, [r3, #8]
 475 003e 4BB1     		cbz	r3, .L27
 476              		.loc 1 125 0 is_stmt 0 discriminator 1
 477 0040 0522     		movs	r2, #5
 478 0042 2270     		strb	r2, [r4]
 479 0044 2046     		mov	r0, r4
 480 0046 0121     		movs	r1, #1
 481 0048 9847     		blx	r3
 482              	.LVL28:
 483 004a 2378     		ldrb	r3, [r4]	@ zero_extendqisi2
 484 004c 052B     		cmp	r3, #5
 485 004e 04BF     		itt	eq
 486 0050 0223     		moveq	r3, #2
 487 0052 2370     		strbeq	r3, [r4]
 488              	.L27:
 489              		.loc 1 125 0 discriminator 2
 490 0054 0023     		movs	r3, #0
 491 0056 2361     		str	r3, [r4, #16]
 492              	.LVL29:
 493              	.LBB86:
 494              	.LBB87:
 495              	.LBB88:
 496              	.LBB89:
 497              	.LBB90:
 498              	.LBB91:
 499              		.file 2 "../../../../../ChibiOS-RT/os/common/ext/CMSIS/include/cmsis_gcc.h"
 500              		.loc 2 264 0 is_stmt 1 discriminator 2
 501 0058 2023     		movs	r3, #32
 502              	@ 264 "../../../../../ChibiOS-RT/os/common/ext/CMSIS/include/cmsis_gcc.h" 1
 503 005a 83F31188 		MSR basepri, r3
 504              	@ 0 "" 2
 505              	.LVL30:
 506              		.thumb
 507              	.LBE91:
 508              	.LBE90:
 509              	.LBE89:
ARM GAS  /tmp/ccNN9Ekw.s 			page 10


 510              	.LBE88:
 511              	.LBE87:
 512              	.LBE86:
 513              	.LBB92:
 514              	.LBB93:
 515              		.file 3 "../../../../../ChibiOS-RT/os/hal/osal/rt/osal.h"
 516              		.loc 3 728 0 discriminator 2
 517 005e 0948     		ldr	r0, .L38
 518 0060 4FF0FF31 		mov	r1, #-1
 519 0064 FFF7FEFF 		bl	chThdResumeI
 520              	.LVL31:
 521              	.LBE93:
 522              	.LBE92:
 523              	.LBB94:
 524              	.LBB95:
 525              	.LBB96:
 526              	.LBB97:
 527              	.LBB98:
 528              	.LBB99:
 529              		.loc 2 264 0 discriminator 2
 530 0068 0023     		movs	r3, #0
 531              	@ 264 "../../../../../ChibiOS-RT/os/common/ext/CMSIS/include/cmsis_gcc.h" 1
 532 006a 83F31188 		MSR basepri, r3
 533              	@ 0 "" 2
 534              	.LVL32:
 535              		.thumb
 536              	.L25:
 537              	.LBE99:
 538              	.LBE98:
 539              	.LBE97:
 540              	.LBE96:
 541              	.LBE95:
 542              	.LBE94:
 543              		.loc 1 158 0
 544 006e 40F20000 		movw	r0, #:lower16:.LANCHOR1
 545 0072 C0F20000 		movt	r0, #:upper16:.LANCHOR1
 546 0076 FFF7FEFF 		bl	_trace_isr_leave
 547              	.LVL33:
 548              		.loc 1 159 0
 549 007a BDE81040 		pop	{r4, lr}
 550              		.loc 1 158 0
 551 007e FFF7FEBF 		b	_port_irq_epilogue
 552              	.LVL34:
 553              	.L39:
 554 0082 00BF     		.align	2
 555              	.L38:
 556 0084 14000000 		.word	.LANCHOR0+20
 557              		.cfi_endproc
 558              	.LFE271:
 559              		.size	Vector88, .-Vector88
 560 0088 AFF30080 		.section	.text.adc_lld_serve_rx_interrupt,"ax",%progbits
 560      AFF30080 
 561              		.align	2
 562              		.p2align 4,,15
 563              		.thumb
 564              		.thumb_func
 565              		.type	adc_lld_serve_rx_interrupt, %function
ARM GAS  /tmp/ccNN9Ekw.s 			page 11


 566              	adc_lld_serve_rx_interrupt:
 567              	.LFB270:
 568              		.loc 1 75 0
 569              		.cfi_startproc
 570              		@ args = 0, pretend = 0, frame = 0
 571              		@ frame_needed = 0, uses_anonymous_args = 0
 572              	.LVL35:
 573              		.loc 1 78 0
 574 0000 11F00C0F 		tst	r1, #12
 575              		.loc 1 75 0
 576 0004 38B5     		push	{r3, r4, r5, lr}
 577              		.cfi_def_cfa_offset 16
 578              		.cfi_offset 3, -16
 579              		.cfi_offset 4, -12
 580              		.cfi_offset 5, -8
 581              		.cfi_offset 14, -4
 582              		.loc 1 75 0
 583 0006 0446     		mov	r4, r0
 584              		.loc 1 78 0
 585 0008 1ED1     		bne	.L63
 586              		.loc 1 86 0
 587 000a 0369     		ldr	r3, [r0, #16]
 588 000c DBB1     		cbz	r3, .L40
 589              		.loc 1 88 0
 590 000e 8A06     		lsls	r2, r1, #26
 591 0010 11D5     		bpl	.L46
 592              		.loc 1 90 0
 593 0012 1D78     		ldrb	r5, [r3]	@ zero_extendqisi2
 594 0014 002D     		cmp	r5, #0
 595 0016 35D0     		beq	.L47
 596              		.loc 1 90 0 is_stmt 0 discriminator 1
 597 0018 5D68     		ldr	r5, [r3, #4]
 598 001a A5B1     		cbz	r5, .L40
 599 001c C268     		ldr	r2, [r0, #12]
 600 001e 012A     		cmp	r2, #1
 601              	.LBB100:
 602 0020 85BF     		ittet	hi
 603 0022 5988     		ldrhhi	r1, [r3, #2]
 604              	.LVL36:
 605 0024 8368     		ldrhi	r3, [r0, #8]
 606              	.LBE100:
 607 0026 8168     		ldrls	r1, [r0, #8]
 608              	.LBB101:
 609 0028 5208     		lsrhi	r2, r2, #1
 610              	.LVL37:
 611 002a 84BF     		itt	hi
 612 002c 5143     		mulhi	r1, r1, r2
 613 002e 03EB4101 		addhi	r1, r3, r1, lsl #1
 614              	.LBE101:
 615 0032 A847     		blx	r5
 616              	.LVL38:
 617 0034 38BD     		pop	{r3, r4, r5, pc}
 618              	.LVL39:
 619              	.L46:
 620              		.loc 1 92 0 is_stmt 1
 621 0036 CD06     		lsls	r5, r1, #27
 622 0038 05D5     		bpl	.L40
ARM GAS  /tmp/ccNN9Ekw.s 			page 12


 623              		.loc 1 94 0
 624 003a 5B68     		ldr	r3, [r3, #4]
 625 003c 1BB1     		cbz	r3, .L40
 626              		.loc 1 94 0 is_stmt 0 discriminator 1
 627 003e C268     		ldr	r2, [r0, #12]
 628 0040 8168     		ldr	r1, [r0, #8]
 629              	.LVL40:
 630 0042 5208     		lsrs	r2, r2, #1
 631 0044 9847     		blx	r3
 632              	.LVL41:
 633              	.L40:
 634 0046 38BD     		pop	{r3, r4, r5, pc}
 635              	.LVL42:
 636              	.L63:
 637              		.loc 1 81 0 is_stmt 1
 638 0048 FFF7FEFF 		bl	adc_lld_stop_conversion
 639              	.LVL43:
 640 004c 2369     		ldr	r3, [r4, #16]
 641 004e 9B68     		ldr	r3, [r3, #8]
 642 0050 4BB1     		cbz	r3, .L43
 643              		.loc 1 81 0 is_stmt 0 discriminator 1
 644 0052 0522     		movs	r2, #5
 645 0054 2270     		strb	r2, [r4]
 646 0056 2046     		mov	r0, r4
 647 0058 0021     		movs	r1, #0
 648 005a 9847     		blx	r3
 649              	.LVL44:
 650 005c 2378     		ldrb	r3, [r4]	@ zero_extendqisi2
 651 005e 052B     		cmp	r3, #5
 652 0060 04BF     		itt	eq
 653 0062 0223     		moveq	r3, #2
 654 0064 2370     		strbeq	r3, [r4]
 655              	.L43:
 656              		.loc 1 81 0 discriminator 2
 657 0066 0023     		movs	r3, #0
 658 0068 2361     		str	r3, [r4, #16]
 659              	.LVL45:
 660              	.LBB102:
 661              	.LBB103:
 662              	.LBB104:
 663              	.LBB105:
 664              	.LBB106:
 665              	.LBB107:
 666              		.loc 2 264 0 is_stmt 1 discriminator 2
 667 006a 2023     		movs	r3, #32
 668              	@ 264 "../../../../../ChibiOS-RT/os/common/ext/CMSIS/include/cmsis_gcc.h" 1
 669 006c 83F31188 		MSR basepri, r3
 670              	@ 0 "" 2
 671              	.LVL46:
 672              		.thumb
 673              	.LBE107:
 674              	.LBE106:
 675              	.LBE105:
 676              	.LBE104:
 677              	.LBE103:
 678              	.LBE102:
 679              	.LBB108:
ARM GAS  /tmp/ccNN9Ekw.s 			page 13


 680              	.LBB109:
 681              		.loc 3 728 0 discriminator 2
 682 0070 4FF0FF31 		mov	r1, #-1
 683 0074 04F11400 		add	r0, r4, #20
 684              	.LVL47:
 685 0078 FFF7FEFF 		bl	chThdResumeI
 686              	.LVL48:
 687              	.LBE109:
 688              	.LBE108:
 689              	.LBB110:
 690              	.LBB111:
 691              	.LBB112:
 692              	.LBB113:
 693              	.LBB114:
 694              	.LBB115:
 695              		.loc 2 264 0 discriminator 2
 696 007c 0023     		movs	r3, #0
 697              	@ 264 "../../../../../ChibiOS-RT/os/common/ext/CMSIS/include/cmsis_gcc.h" 1
 698 007e 83F31188 		MSR basepri, r3
 699              	@ 0 "" 2
 700              		.thumb
 701 0082 38BD     		pop	{r3, r4, r5, pc}
 702              	.LVL49:
 703              	.L47:
 704              	.LBE115:
 705              	.LBE114:
 706              	.LBE113:
 707              	.LBE112:
 708              	.LBE111:
 709              	.LBE110:
 710              		.loc 1 90 0 discriminator 2
 711 0084 FFF7FEFF 		bl	adc_lld_stop_conversion
 712              	.LVL50:
 713 0088 2369     		ldr	r3, [r4, #16]
 714 008a 5B68     		ldr	r3, [r3, #4]
 715 008c C3B1     		cbz	r3, .L49
 716              		.loc 1 90 0 is_stmt 0 discriminator 1
 717 008e 0422     		movs	r2, #4
 718 0090 2270     		strb	r2, [r4]
 719 0092 2046     		mov	r0, r4
 720 0094 A168     		ldr	r1, [r4, #8]
 721 0096 E268     		ldr	r2, [r4, #12]
 722 0098 9847     		blx	r3
 723              	.LVL51:
 724 009a 2378     		ldrb	r3, [r4]	@ zero_extendqisi2
 725 009c 042B     		cmp	r3, #4
 726 009e 0BD0     		beq	.L64
 727              	.L50:
 728              	.LVL52:
 729              	.LBB116:
 730              	.LBB117:
 731              	.LBB118:
 732              	.LBB119:
 733              	.LBB120:
 734              	.LBB121:
 735              		.loc 2 264 0 is_stmt 1 discriminator 1
 736 00a0 2023     		movs	r3, #32
ARM GAS  /tmp/ccNN9Ekw.s 			page 14


 737              	@ 264 "../../../../../ChibiOS-RT/os/common/ext/CMSIS/include/cmsis_gcc.h" 1
 738 00a2 83F31188 		MSR basepri, r3
 739              	@ 0 "" 2
 740              	.LVL53:
 741              		.thumb
 742              	.LBE121:
 743              	.LBE120:
 744              	.LBE119:
 745              	.LBE118:
 746              	.LBE117:
 747              	.LBE116:
 748              	.LBB122:
 749              	.LBB123:
 750              		.loc 3 728 0 discriminator 1
 751 00a6 0021     		movs	r1, #0
 752 00a8 04F11400 		add	r0, r4, #20
 753              	.LVL54:
 754 00ac FFF7FEFF 		bl	chThdResumeI
 755              	.LVL55:
 756              	.LBE123:
 757              	.LBE122:
 758              	.LBB124:
 759              	.LBB125:
 760              	.LBB126:
 761              	.LBB127:
 762              	.LBB128:
 763              	.LBB129:
 764              		.loc 2 264 0 discriminator 1
 765 00b0 0023     		movs	r3, #0
 766              	@ 264 "../../../../../ChibiOS-RT/os/common/ext/CMSIS/include/cmsis_gcc.h" 1
 767 00b2 83F31188 		MSR basepri, r3
 768              	@ 0 "" 2
 769              		.thumb
 770 00b6 38BD     		pop	{r3, r4, r5, pc}
 771              	.LVL56:
 772              	.L64:
 773              	.LBE129:
 774              	.LBE128:
 775              	.LBE127:
 776              	.LBE126:
 777              	.LBE125:
 778              	.LBE124:
 779              		.loc 1 90 0 discriminator 1
 780 00b8 0223     		movs	r3, #2
 781 00ba 2561     		str	r5, [r4, #16]
 782 00bc 2370     		strb	r3, [r4]
 783 00be EFE7     		b	.L50
 784              	.L49:
 785              		.loc 1 90 0 is_stmt 0 discriminator 2
 786 00c0 0222     		movs	r2, #2
 787 00c2 2361     		str	r3, [r4, #16]
 788 00c4 2270     		strb	r2, [r4]
 789 00c6 EBE7     		b	.L50
 790              		.cfi_endproc
 791              	.LFE270:
 792              		.size	adc_lld_serve_rx_interrupt, .-adc_lld_serve_rx_interrupt
 793 00c8 AFF30080 		.section	.text.adcSTM32EnableTSVREFE,"ax",%progbits
ARM GAS  /tmp/ccNN9Ekw.s 			page 15


 793      AFF30080 
 794              		.align	2
 795              		.p2align 4,,15
 796              		.global	adcSTM32EnableTSVREFE
 797              		.thumb
 798              		.thumb_func
 799              		.type	adcSTM32EnableTSVREFE, %function
 800              	adcSTM32EnableTSVREFE:
 801              	.LFB277:
 802              		.loc 1 388 0 is_stmt 1
 803              		.cfi_startproc
 804              		@ args = 0, pretend = 0, frame = 0
 805              		@ frame_needed = 0, uses_anonymous_args = 0
 806              		@ link register save eliminated.
 807              		.loc 1 390 0
 808 0000 4FF40C53 		mov	r3, #8960
 809 0004 C4F20103 		movt	r3, 16385
 810 0008 5A68     		ldr	r2, [r3, #4]
 811 000a 42F40002 		orr	r2, r2, #8388608
 812 000e 5A60     		str	r2, [r3, #4]
 813 0010 7047     		bx	lr
 814              		.cfi_endproc
 815              	.LFE277:
 816              		.size	adcSTM32EnableTSVREFE, .-adcSTM32EnableTSVREFE
 817 0012 00BFAFF3 		.section	.text.adcSTM32DisableTSVREFE,"ax",%progbits
 817      0080AFF3 
 817      0080AFF3 
 817      0080
 818              		.align	2
 819              		.p2align 4,,15
 820              		.global	adcSTM32DisableTSVREFE
 821              		.thumb
 822              		.thumb_func
 823              		.type	adcSTM32DisableTSVREFE, %function
 824              	adcSTM32DisableTSVREFE:
 825              	.LFB278:
 826              		.loc 1 399 0
 827              		.cfi_startproc
 828              		@ args = 0, pretend = 0, frame = 0
 829              		@ frame_needed = 0, uses_anonymous_args = 0
 830              		@ link register save eliminated.
 831              		.loc 1 401 0
 832 0000 4FF40C53 		mov	r3, #8960
 833 0004 C4F20103 		movt	r3, 16385
 834 0008 5A68     		ldr	r2, [r3, #4]
 835 000a 22F40002 		bic	r2, r2, #8388608
 836 000e 5A60     		str	r2, [r3, #4]
 837 0010 7047     		bx	lr
 838              		.cfi_endproc
 839              	.LFE278:
 840              		.size	adcSTM32DisableTSVREFE, .-adcSTM32DisableTSVREFE
 841 0012 00BFAFF3 		.section	.text.adcSTM32EnableVBATE,"ax",%progbits
 841      0080AFF3 
 841      0080AFF3 
 841      0080
 842              		.align	2
 843              		.p2align 4,,15
ARM GAS  /tmp/ccNN9Ekw.s 			page 16


 844              		.global	adcSTM32EnableVBATE
 845              		.thumb
 846              		.thumb_func
 847              		.type	adcSTM32EnableVBATE, %function
 848              	adcSTM32EnableVBATE:
 849              	.LFB279:
 850              		.loc 1 410 0
 851              		.cfi_startproc
 852              		@ args = 0, pretend = 0, frame = 0
 853              		@ frame_needed = 0, uses_anonymous_args = 0
 854              		@ link register save eliminated.
 855              		.loc 1 412 0
 856 0000 4FF40C53 		mov	r3, #8960
 857 0004 C4F20103 		movt	r3, 16385
 858 0008 5A68     		ldr	r2, [r3, #4]
 859 000a 42F48002 		orr	r2, r2, #4194304
 860 000e 5A60     		str	r2, [r3, #4]
 861 0010 7047     		bx	lr
 862              		.cfi_endproc
 863              	.LFE279:
 864              		.size	adcSTM32EnableVBATE, .-adcSTM32EnableVBATE
 865 0012 00BFAFF3 		.section	.text.adcSTM32DisableVBATE,"ax",%progbits
 865      0080AFF3 
 865      0080AFF3 
 865      0080
 866              		.align	2
 867              		.p2align 4,,15
 868              		.global	adcSTM32DisableVBATE
 869              		.thumb
 870              		.thumb_func
 871              		.type	adcSTM32DisableVBATE, %function
 872              	adcSTM32DisableVBATE:
 873              	.LFB280:
 874              		.loc 1 421 0
 875              		.cfi_startproc
 876              		@ args = 0, pretend = 0, frame = 0
 877              		@ frame_needed = 0, uses_anonymous_args = 0
 878              		@ link register save eliminated.
 879              		.loc 1 423 0
 880 0000 4FF40C53 		mov	r3, #8960
 881 0004 C4F20103 		movt	r3, 16385
 882 0008 5A68     		ldr	r2, [r3, #4]
 883 000a 22F48002 		bic	r2, r2, #4194304
 884 000e 5A60     		str	r2, [r3, #4]
 885 0010 7047     		bx	lr
 886              		.cfi_endproc
 887              	.LFE280:
 888              		.size	adcSTM32DisableVBATE, .-adcSTM32DisableVBATE
 889              		.global	ADCD1
 890 0012 00BFAFF3 		.section	.rodata.__func__.7598,"a",%progbits
 890      0080AFF3 
 890      0080AFF3 
 890      0080
 891              		.align	2
 892              		.set	.LANCHOR1,. + 0
 893              		.type	__func__.7598, %object
 894              		.size	__func__.7598, 9
ARM GAS  /tmp/ccNN9Ekw.s 			page 17


 895              	__func__.7598:
 896 0000 56656374 		.ascii	"Vector88\000"
 896      6F723838 
 896      00
 897 0009 000000   		.section	.bss.ADCD1,"aw",%nobits
 898              		.align	2
 899              		.set	.LANCHOR0,. + 0
 900              		.type	ADCD1, %object
 901              		.size	ADCD1, 52
 902              	ADCD1:
 903 0000 00000000 		.space	52
 903      00000000 
 903      00000000 
 903      00000000 
 903      00000000 
 904              		.text
 905              	.Letext0:
 906              		.file 4 "/usr/lib/gcc/arm-none-eabi/4.8.2/include/stddef.h"
 907              		.file 5 "/usr/include/newlib/machine/_default_types.h"
 908              		.file 6 "/usr/include/newlib/stdint.h"
 909              		.file 7 "../../../../../ChibiOS-RT/os/common/ports/ARMCMx/compilers/GCC/chtypes.h"
 910              		.file 8 "../../../../../ChibiOS-RT/os/rt/include/chsystypes.h"
 911              		.file 9 "../../../../../ChibiOS-RT/os/rt/include/chschd.h"
 912              		.file 10 "../../../../../ChibiOS-RT/os/common/ext/CMSIS/ST/STM32F4xx/stm32f401xe.h"
 913              		.file 11 "../../../../../ChibiOS-RT/os/common/ports/ARMCMx/chcore.h"
 914              		.file 12 "../../../../../ChibiOS-RT/os/common/ports/ARMCMx/chcore_v7m.h"
 915              		.file 13 "../../../../../ChibiOS-RT/os/rt/include/chtrace.h"
 916              		.file 14 "../../../../../ChibiOS-RT/os/rt/include/chtm.h"
 917              		.file 15 "../../../../../ChibiOS-RT/os/rt/include/chsem.h"
 918              		.file 16 "../../../../../ChibiOS-RT/os/rt/include/chmtx.h"
 919              		.file 17 "../../../../../ChibiOS-RT/os/hal/ports/STM32/LLD/DMAv2/stm32_dma.h"
 920              		.file 18 "../../../../../ChibiOS-RT/os/hal/include/hal_adc.h"
 921              		.file 19 "../../../../../ChibiOS-RT/os/hal/ports/STM32/LLD/ADCv2/hal_adc_lld.h"
 922              		.file 20 "../../../../../ChibiOS-RT/os/rt/include/chsys.h"
 923              		.file 21 "../../../../../ChibiOS-RT/os/common/ext/CMSIS/include/core_cm4.h"
 924              		.file 22 "../../../../../ChibiOS-RT/os/hal/ports/common/ARMCMx/nvic.h"
 925              		.file 23 "../../../../../ChibiOS-RT/os/rt/include/chthreads.h"