ARM GAS  /tmp/ccQyeFPN.s 			page 1


   1              		.syntax unified
   2              		.cpu cortex-m4
   3              		.fpu softvfp
   4              		.eabi_attribute 20, 1
   5              		.eabi_attribute 21, 1
   6              		.eabi_attribute 23, 3
   7              		.eabi_attribute 24, 1
   8              		.eabi_attribute 25, 1
   9              		.eabi_attribute 26, 1
  10              		.eabi_attribute 30, 2
  11              		.eabi_attribute 34, 1
  12              		.eabi_attribute 18, 4
  13              		.thumb
  14              		.file	"hal_pwm.c"
  15              		.text
  16              	.Ltext0:
  17              		.cfi_sections	.debug_frame
  18              		.section	.text.pwmInit,"ax",%progbits
  19              		.align	2
  20              		.p2align 4,,15
  21              		.global	pwmInit
  22              		.thumb
  23              		.thumb_func
  24              		.type	pwmInit, %function
  25              	pwmInit:
  26              	.LFB270:
  27              		.file 1 "../../../../../ChibiOS-RT/os/hal/src/hal_pwm.c"
  28              		.loc 1 56 0
  29              		.cfi_startproc
  30              		@ args = 0, pretend = 0, frame = 0
  31              		@ frame_needed = 0, uses_anonymous_args = 0
  32              		@ link register save eliminated.
  33              		.loc 1 58 0
  34 0000 FFF7FEBF 		b	pwm_lld_init
  35              	.LVL0:
  36              		.cfi_endproc
  37              	.LFE270:
  38              		.size	pwmInit, .-pwmInit
  39 0004 AFF30080 		.section	.text.pwmObjectInit,"ax",%progbits
  39      AFF30080 
  39      AFF30080 
  40              		.align	2
  41              		.p2align 4,,15
  42              		.global	pwmObjectInit
  43              		.thumb
  44              		.thumb_func
  45              		.type	pwmObjectInit, %function
  46              	pwmObjectInit:
  47              	.LFB271:
  48              		.loc 1 68 0
  49              		.cfi_startproc
  50              		@ args = 0, pretend = 0, frame = 0
  51              		@ frame_needed = 0, uses_anonymous_args = 0
  52              		@ link register save eliminated.
  53              	.LVL1:
  54              		.loc 1 71 0
  55 0000 0023     		movs	r3, #0
ARM GAS  /tmp/ccQyeFPN.s 			page 2


  56              		.loc 1 70 0
  57 0002 0122     		movs	r2, #1
  58 0004 0270     		strb	r2, [r0]
  59              		.loc 1 71 0
  60 0006 4360     		str	r3, [r0, #4]
  61              		.loc 1 72 0
  62 0008 C360     		str	r3, [r0, #12]
  63              		.loc 1 73 0
  64 000a 0374     		strb	r3, [r0, #16]
  65 000c 7047     		bx	lr
  66              		.cfi_endproc
  67              	.LFE271:
  68              		.size	pwmObjectInit, .-pwmObjectInit
  69 000e 00BF     		.section	.text.pwmStart,"ax",%progbits
  70              		.align	2
  71              		.p2align 4,,15
  72              		.global	pwmStart
  73              		.thumb
  74              		.thumb_func
  75              		.type	pwmStart, %function
  76              	pwmStart:
  77              	.LFB272:
  78              		.loc 1 89 0
  79              		.cfi_startproc
  80              		@ args = 0, pretend = 0, frame = 0
  81              		@ frame_needed = 0, uses_anonymous_args = 0
  82              	.LVL2:
  83 0000 10B5     		push	{r4, lr}
  84              		.cfi_def_cfa_offset 8
  85              		.cfi_offset 4, -8
  86              		.cfi_offset 14, -4
  87              	.LBB141:
  88              	.LBB142:
  89              	.LBB143:
  90              	.LBB144:
  91              	.LBB145:
  92              		.file 2 "../../../../../ChibiOS-RT/os/common/ext/CMSIS/include/cmsis_gcc.h"
  93              		.loc 2 264 0
  94 0002 2023     		movs	r3, #32
  95              	.LBE145:
  96              	.LBE144:
  97              	.LBE143:
  98              	.LBE142:
  99              	.LBE141:
 100              		.loc 1 89 0
 101 0004 0446     		mov	r4, r0
 102              	.LBB150:
 103              	.LBB149:
 104              	.LBB148:
 105              	.LBB147:
 106              	.LBB146:
 107              		.loc 2 264 0
 108              	@ 264 "../../../../../ChibiOS-RT/os/common/ext/CMSIS/include/cmsis_gcc.h" 1
 109 0006 83F31188 		MSR basepri, r3
 110              	@ 0 "" 2
 111              		.thumb
 112              	.LBE146:
ARM GAS  /tmp/ccQyeFPN.s 			page 3


 113              	.LBE147:
 114              	.LBE148:
 115              	.LBE149:
 116              	.LBE150:
 117              		.loc 1 97 0
 118 000a 4B68     		ldr	r3, [r1, #4]
 119              		.loc 1 96 0
 120 000c 4160     		str	r1, [r0, #4]
 121              		.loc 1 97 0
 122 000e 8360     		str	r3, [r0, #8]
 123              		.loc 1 98 0
 124 0010 FFF7FEFF 		bl	pwm_lld_start
 125              	.LVL3:
 126              		.loc 1 100 0
 127 0014 0222     		movs	r2, #2
 128              		.loc 1 99 0
 129 0016 0023     		movs	r3, #0
 130              		.loc 1 100 0
 131 0018 2270     		strb	r2, [r4]
 132              	.LVL4:
 133              		.loc 1 99 0
 134 001a E360     		str	r3, [r4, #12]
 135              	.LBB151:
 136              	.LBB152:
 137              	.LBB153:
 138              	.LBB154:
 139              	.LBB155:
 140              	.LBB156:
 141              		.loc 2 264 0
 142              	@ 264 "../../../../../ChibiOS-RT/os/common/ext/CMSIS/include/cmsis_gcc.h" 1
 143 001c 83F31188 		MSR basepri, r3
 144              	@ 0 "" 2
 145              		.thumb
 146 0020 10BD     		pop	{r4, pc}
 147              	.LBE156:
 148              	.LBE155:
 149              	.LBE154:
 150              	.LBE153:
 151              	.LBE152:
 152              	.LBE151:
 153              		.cfi_endproc
 154              	.LFE272:
 155              		.size	pwmStart, .-pwmStart
 156 0022 00BFAFF3 		.section	.text.pwmStop,"ax",%progbits
 156      0080AFF3 
 156      0080AFF3 
 156      0080
 157              		.align	2
 158              		.p2align 4,,15
 159              		.global	pwmStop
 160              		.thumb
 161              		.thumb_func
 162              		.type	pwmStop, %function
 163              	pwmStop:
 164              	.LFB273:
 165              		.loc 1 111 0
 166              		.cfi_startproc
ARM GAS  /tmp/ccQyeFPN.s 			page 4


 167              		@ args = 0, pretend = 0, frame = 0
 168              		@ frame_needed = 0, uses_anonymous_args = 0
 169              	.LVL5:
 170 0000 10B5     		push	{r4, lr}
 171              		.cfi_def_cfa_offset 8
 172              		.cfi_offset 4, -8
 173              		.cfi_offset 14, -4
 174              	.LBB157:
 175              	.LBB158:
 176              	.LBB159:
 177              	.LBB160:
 178              	.LBB161:
 179              		.loc 2 264 0
 180 0002 2023     		movs	r3, #32
 181              	.LBE161:
 182              	.LBE160:
 183              	.LBE159:
 184              	.LBE158:
 185              	.LBE157:
 186              		.loc 1 111 0
 187 0004 0446     		mov	r4, r0
 188              	.LBB166:
 189              	.LBB165:
 190              	.LBB164:
 191              	.LBB163:
 192              	.LBB162:
 193              		.loc 2 264 0
 194              	@ 264 "../../../../../ChibiOS-RT/os/common/ext/CMSIS/include/cmsis_gcc.h" 1
 195 0006 83F31188 		MSR basepri, r3
 196              	@ 0 "" 2
 197              		.thumb
 198              	.LBE162:
 199              	.LBE163:
 200              	.LBE164:
 201              	.LBE165:
 202              	.LBE166:
 203              		.loc 1 118 0
 204 000a FFF7FEFF 		bl	pwm_lld_stop
 205              	.LVL6:
 206              		.loc 1 120 0
 207 000e 0122     		movs	r2, #1
 208              		.loc 1 119 0
 209 0010 0023     		movs	r3, #0
 210              		.loc 1 120 0
 211 0012 2270     		strb	r2, [r4]
 212              	.LVL7:
 213              		.loc 1 119 0
 214 0014 E360     		str	r3, [r4, #12]
 215              	.LBB167:
 216              	.LBB168:
 217              	.LBB169:
 218              	.LBB170:
 219              	.LBB171:
 220              	.LBB172:
 221              		.loc 2 264 0
 222              	@ 264 "../../../../../ChibiOS-RT/os/common/ext/CMSIS/include/cmsis_gcc.h" 1
 223 0016 83F31188 		MSR basepri, r3
ARM GAS  /tmp/ccQyeFPN.s 			page 5


 224              	@ 0 "" 2
 225              		.thumb
 226 001a 10BD     		pop	{r4, pc}
 227              	.LBE172:
 228              	.LBE171:
 229              	.LBE170:
 230              	.LBE169:
 231              	.LBE168:
 232              	.LBE167:
 233              		.cfi_endproc
 234              	.LFE273:
 235              		.size	pwmStop, .-pwmStop
 236 001c AFF30080 		.section	.text.pwmChangePeriod,"ax",%progbits
 237              		.align	2
 238              		.p2align 4,,15
 239              		.global	pwmChangePeriod
 240              		.thumb
 241              		.thumb_func
 242              		.type	pwmChangePeriod, %function
 243              	pwmChangePeriod:
 244              	.LFB274:
 245              		.loc 1 139 0
 246              		.cfi_startproc
 247              		@ args = 0, pretend = 0, frame = 0
 248              		@ frame_needed = 0, uses_anonymous_args = 0
 249              		@ link register save eliminated.
 250              	.LVL8:
 251              	.LBB173:
 252              	.LBB174:
 253              	.LBB175:
 254              	.LBB176:
 255              	.LBB177:
 256              		.loc 2 264 0
 257 0000 2023     		movs	r3, #32
 258              	@ 264 "../../../../../ChibiOS-RT/os/common/ext/CMSIS/include/cmsis_gcc.h" 1
 259 0002 83F31188 		MSR basepri, r3
 260              	@ 0 "" 2
 261              		.thumb
 262              	.LBE177:
 263              	.LBE176:
 264              	.LBE175:
 265              	.LBE174:
 266              	.LBE173:
 267              		.loc 1 145 0
 268 0006 8369     		ldr	r3, [r0, #24]
 269 0008 8160     		str	r1, [r0, #8]
 270 000a 0139     		subs	r1, r1, #1
 271              	.LVL9:
 272 000c D962     		str	r1, [r3, #44]
 273              	.LVL10:
 274              	.LBB178:
 275              	.LBB179:
 276              	.LBB180:
 277              	.LBB181:
 278              	.LBB182:
 279              	.LBB183:
 280              		.loc 2 264 0
ARM GAS  /tmp/ccQyeFPN.s 			page 6


 281 000e 0023     		movs	r3, #0
 282              	@ 264 "../../../../../ChibiOS-RT/os/common/ext/CMSIS/include/cmsis_gcc.h" 1
 283 0010 83F31188 		MSR basepri, r3
 284              	@ 0 "" 2
 285              		.thumb
 286 0014 7047     		bx	lr
 287              	.LBE183:
 288              	.LBE182:
 289              	.LBE181:
 290              	.LBE180:
 291              	.LBE179:
 292              	.LBE178:
 293              		.cfi_endproc
 294              	.LFE274:
 295              		.size	pwmChangePeriod, .-pwmChangePeriod
 296 0016 00BFAFF3 		.section	.text.pwmEnableChannel,"ax",%progbits
 296      0080AFF3 
 296      0080
 297              		.align	2
 298              		.p2align 4,,15
 299              		.global	pwmEnableChannel
 300              		.thumb
 301              		.thumb_func
 302              		.type	pwmEnableChannel, %function
 303              	pwmEnableChannel:
 304              	.LFB275:
 305              		.loc 1 165 0
 306              		.cfi_startproc
 307              		@ args = 0, pretend = 0, frame = 0
 308              		@ frame_needed = 0, uses_anonymous_args = 0
 309              	.LVL11:
 310 0000 10B5     		push	{r4, lr}
 311              		.cfi_def_cfa_offset 8
 312              		.cfi_offset 4, -8
 313              		.cfi_offset 14, -4
 314              	.LBB184:
 315              	.LBB185:
 316              	.LBB186:
 317              	.LBB187:
 318              	.LBB188:
 319              		.loc 2 264 0
 320 0002 2023     		movs	r3, #32
 321              	@ 264 "../../../../../ChibiOS-RT/os/common/ext/CMSIS/include/cmsis_gcc.h" 1
 322 0004 83F31188 		MSR basepri, r3
 323              	@ 0 "" 2
 324              		.thumb
 325              	.LBE188:
 326              	.LBE187:
 327              	.LBE186:
 328              	.LBE185:
 329              	.LBE184:
 330              		.loc 1 173 0
 331 0008 0124     		movs	r4, #1
 332 000a C368     		ldr	r3, [r0, #12]
 333 000c 8C40     		lsls	r4, r4, r1
 334 000e 2343     		orrs	r3, r3, r4
 335 0010 C360     		str	r3, [r0, #12]
ARM GAS  /tmp/ccQyeFPN.s 			page 7


 336 0012 FFF7FEFF 		bl	pwm_lld_enable_channel
 337              	.LVL12:
 338              	.LBB189:
 339              	.LBB190:
 340              	.LBB191:
 341              	.LBB192:
 342              	.LBB193:
 343              	.LBB194:
 344              		.loc 2 264 0
 345 0016 0023     		movs	r3, #0
 346              	@ 264 "../../../../../ChibiOS-RT/os/common/ext/CMSIS/include/cmsis_gcc.h" 1
 347 0018 83F31188 		MSR basepri, r3
 348              	@ 0 "" 2
 349              		.thumb
 350 001c 10BD     		pop	{r4, pc}
 351              	.LBE194:
 352              	.LBE193:
 353              	.LBE192:
 354              	.LBE191:
 355              	.LBE190:
 356              	.LBE189:
 357              		.cfi_endproc
 358              	.LFE275:
 359              		.size	pwmEnableChannel, .-pwmEnableChannel
 360 001e 00BF     		.section	.text.pwmDisableChannel,"ax",%progbits
 361              		.align	2
 362              		.p2align 4,,15
 363              		.global	pwmDisableChannel
 364              		.thumb
 365              		.thumb_func
 366              		.type	pwmDisableChannel, %function
 367              	pwmDisableChannel:
 368              	.LFB276:
 369              		.loc 1 192 0
 370              		.cfi_startproc
 371              		@ args = 0, pretend = 0, frame = 0
 372              		@ frame_needed = 0, uses_anonymous_args = 0
 373              	.LVL13:
 374 0000 08B5     		push	{r3, lr}
 375              		.cfi_def_cfa_offset 8
 376              		.cfi_offset 3, -8
 377              		.cfi_offset 14, -4
 378              	.LBB195:
 379              	.LBB196:
 380              	.LBB197:
 381              	.LBB198:
 382              	.LBB199:
 383              		.loc 2 264 0
 384 0002 2023     		movs	r3, #32
 385              	@ 264 "../../../../../ChibiOS-RT/os/common/ext/CMSIS/include/cmsis_gcc.h" 1
 386 0004 83F31188 		MSR basepri, r3
 387              	@ 0 "" 2
 388              		.thumb
 389              	.LBE199:
 390              	.LBE198:
 391              	.LBE197:
 392              	.LBE196:
ARM GAS  /tmp/ccQyeFPN.s 			page 8


 393              	.LBE195:
 394              		.loc 1 200 0
 395 0008 0122     		movs	r2, #1
 396 000a C368     		ldr	r3, [r0, #12]
 397 000c 8A40     		lsls	r2, r2, r1
 398 000e 23EA0203 		bic	r3, r3, r2
 399 0012 C360     		str	r3, [r0, #12]
 400 0014 FFF7FEFF 		bl	pwm_lld_disable_channel
 401              	.LVL14:
 402              	.LBB200:
 403              	.LBB201:
 404              	.LBB202:
 405              	.LBB203:
 406              	.LBB204:
 407              	.LBB205:
 408              		.loc 2 264 0
 409 0018 0023     		movs	r3, #0
 410              	@ 264 "../../../../../ChibiOS-RT/os/common/ext/CMSIS/include/cmsis_gcc.h" 1
 411 001a 83F31188 		MSR basepri, r3
 412              	@ 0 "" 2
 413              		.thumb
 414 001e 08BD     		pop	{r3, pc}
 415              	.LBE205:
 416              	.LBE204:
 417              	.LBE203:
 418              	.LBE202:
 419              	.LBE201:
 420              	.LBE200:
 421              		.cfi_endproc
 422              	.LFE276:
 423              		.size	pwmDisableChannel, .-pwmDisableChannel
 424              		.section	.text.pwmEnablePeriodicNotification,"ax",%progbits
 425              		.align	2
 426              		.p2align 4,,15
 427              		.global	pwmEnablePeriodicNotification
 428              		.thumb
 429              		.thumb_func
 430              		.type	pwmEnablePeriodicNotification, %function
 431              	pwmEnablePeriodicNotification:
 432              	.LFB277:
 433              		.loc 1 214 0
 434              		.cfi_startproc
 435              		@ args = 0, pretend = 0, frame = 0
 436              		@ frame_needed = 0, uses_anonymous_args = 0
 437              	.LVL15:
 438 0000 08B5     		push	{r3, lr}
 439              		.cfi_def_cfa_offset 8
 440              		.cfi_offset 3, -8
 441              		.cfi_offset 14, -4
 442              	.LBB206:
 443              	.LBB207:
 444              	.LBB208:
 445              	.LBB209:
 446              	.LBB210:
 447              		.loc 2 264 0
 448 0002 2023     		movs	r3, #32
 449              	@ 264 "../../../../../ChibiOS-RT/os/common/ext/CMSIS/include/cmsis_gcc.h" 1
ARM GAS  /tmp/ccQyeFPN.s 			page 9


 450 0004 83F31188 		MSR basepri, r3
 451              	@ 0 "" 2
 452              		.thumb
 453              	.LBE210:
 454              	.LBE209:
 455              	.LBE208:
 456              	.LBE207:
 457              	.LBE206:
 458              		.loc 1 223 0
 459 0008 FFF7FEFF 		bl	pwm_lld_enable_periodic_notification
 460              	.LVL16:
 461              	.LBB211:
 462              	.LBB212:
 463              	.LBB213:
 464              	.LBB214:
 465              	.LBB215:
 466              	.LBB216:
 467              		.loc 2 264 0
 468 000c 0023     		movs	r3, #0
 469              	@ 264 "../../../../../ChibiOS-RT/os/common/ext/CMSIS/include/cmsis_gcc.h" 1
 470 000e 83F31188 		MSR basepri, r3
 471              	@ 0 "" 2
 472              		.thumb
 473 0012 08BD     		pop	{r3, pc}
 474              	.LBE216:
 475              	.LBE215:
 476              	.LBE214:
 477              	.LBE213:
 478              	.LBE212:
 479              	.LBE211:
 480              		.cfi_endproc
 481              	.LFE277:
 482              		.size	pwmEnablePeriodicNotification, .-pwmEnablePeriodicNotification
 483 0014 AFF30080 		.section	.text.pwmDisablePeriodicNotification,"ax",%progbits
 483      AFF30080 
 483      AFF30080 
 484              		.align	2
 485              		.p2align 4,,15
 486              		.global	pwmDisablePeriodicNotification
 487              		.thumb
 488              		.thumb_func
 489              		.type	pwmDisablePeriodicNotification, %function
 490              	pwmDisablePeriodicNotification:
 491              	.LFB278:
 492              		.loc 1 237 0
 493              		.cfi_startproc
 494              		@ args = 0, pretend = 0, frame = 0
 495              		@ frame_needed = 0, uses_anonymous_args = 0
 496              	.LVL17:
 497 0000 08B5     		push	{r3, lr}
 498              		.cfi_def_cfa_offset 8
 499              		.cfi_offset 3, -8
 500              		.cfi_offset 14, -4
 501              	.LBB217:
 502              	.LBB218:
 503              	.LBB219:
 504              	.LBB220:
ARM GAS  /tmp/ccQyeFPN.s 			page 10


 505              	.LBB221:
 506              		.loc 2 264 0
 507 0002 2023     		movs	r3, #32
 508              	@ 264 "../../../../../ChibiOS-RT/os/common/ext/CMSIS/include/cmsis_gcc.h" 1
 509 0004 83F31188 		MSR basepri, r3
 510              	@ 0 "" 2
 511              		.thumb
 512              	.LBE221:
 513              	.LBE220:
 514              	.LBE219:
 515              	.LBE218:
 516              	.LBE217:
 517              		.loc 1 246 0
 518 0008 FFF7FEFF 		bl	pwm_lld_disable_periodic_notification
 519              	.LVL18:
 520              	.LBB222:
 521              	.LBB223:
 522              	.LBB224:
 523              	.LBB225:
 524              	.LBB226:
 525              	.LBB227:
 526              		.loc 2 264 0
 527 000c 0023     		movs	r3, #0
 528              	@ 264 "../../../../../ChibiOS-RT/os/common/ext/CMSIS/include/cmsis_gcc.h" 1
 529 000e 83F31188 		MSR basepri, r3
 530              	@ 0 "" 2
 531              		.thumb
 532 0012 08BD     		pop	{r3, pc}
 533              	.LBE227:
 534              	.LBE226:
 535              	.LBE225:
 536              	.LBE224:
 537              	.LBE223:
 538              	.LBE222:
 539              		.cfi_endproc
 540              	.LFE278:
 541              		.size	pwmDisablePeriodicNotification, .-pwmDisablePeriodicNotification
 542 0014 AFF30080 		.section	.text.pwmEnableChannelNotification,"ax",%progbits
 542      AFF30080 
 542      AFF30080 
 543              		.align	2
 544              		.p2align 4,,15
 545              		.global	pwmEnableChannelNotification
 546              		.thumb
 547              		.thumb_func
 548              		.type	pwmEnableChannelNotification, %function
 549              	pwmEnableChannelNotification:
 550              	.LFB279:
 551              		.loc 1 262 0
 552              		.cfi_startproc
 553              		@ args = 0, pretend = 0, frame = 0
 554              		@ frame_needed = 0, uses_anonymous_args = 0
 555              	.LVL19:
 556 0000 08B5     		push	{r3, lr}
 557              		.cfi_def_cfa_offset 8
 558              		.cfi_offset 3, -8
 559              		.cfi_offset 14, -4
ARM GAS  /tmp/ccQyeFPN.s 			page 11


 560              	.LBB228:
 561              	.LBB229:
 562              	.LBB230:
 563              	.LBB231:
 564              	.LBB232:
 565              		.loc 2 264 0
 566 0002 2023     		movs	r3, #32
 567              	@ 264 "../../../../../ChibiOS-RT/os/common/ext/CMSIS/include/cmsis_gcc.h" 1
 568 0004 83F31188 		MSR basepri, r3
 569              	@ 0 "" 2
 570              		.thumb
 571              	.LBE232:
 572              	.LBE231:
 573              	.LBE230:
 574              	.LBE229:
 575              	.LBE228:
 576              		.loc 1 274 0
 577 0008 FFF7FEFF 		bl	pwm_lld_enable_channel_notification
 578              	.LVL20:
 579              	.LBB233:
 580              	.LBB234:
 581              	.LBB235:
 582              	.LBB236:
 583              	.LBB237:
 584              	.LBB238:
 585              		.loc 2 264 0
 586 000c 0023     		movs	r3, #0
 587              	@ 264 "../../../../../ChibiOS-RT/os/common/ext/CMSIS/include/cmsis_gcc.h" 1
 588 000e 83F31188 		MSR basepri, r3
 589              	@ 0 "" 2
 590              		.thumb
 591 0012 08BD     		pop	{r3, pc}
 592              	.LBE238:
 593              	.LBE237:
 594              	.LBE236:
 595              	.LBE235:
 596              	.LBE234:
 597              	.LBE233:
 598              		.cfi_endproc
 599              	.LFE279:
 600              		.size	pwmEnableChannelNotification, .-pwmEnableChannelNotification
 601 0014 AFF30080 		.section	.text.pwmDisableChannelNotification,"ax",%progbits
 601      AFF30080 
 601      AFF30080 
 602              		.align	2
 603              		.p2align 4,,15
 604              		.global	pwmDisableChannelNotification
 605              		.thumb
 606              		.thumb_func
 607              		.type	pwmDisableChannelNotification, %function
 608              	pwmDisableChannelNotification:
 609              	.LFB280:
 610              		.loc 1 290 0
 611              		.cfi_startproc
 612              		@ args = 0, pretend = 0, frame = 0
 613              		@ frame_needed = 0, uses_anonymous_args = 0
 614              	.LVL21:
ARM GAS  /tmp/ccQyeFPN.s 			page 12


 615 0000 08B5     		push	{r3, lr}
 616              		.cfi_def_cfa_offset 8
 617              		.cfi_offset 3, -8
 618              		.cfi_offset 14, -4
 619              	.LBB239:
 620              	.LBB240:
 621              	.LBB241:
 622              	.LBB242:
 623              	.LBB243:
 624              		.loc 2 264 0
 625 0002 2023     		movs	r3, #32
 626              	@ 264 "../../../../../ChibiOS-RT/os/common/ext/CMSIS/include/cmsis_gcc.h" 1
 627 0004 83F31188 		MSR basepri, r3
 628              	@ 0 "" 2
 629              		.thumb
 630              	.LBE243:
 631              	.LBE242:
 632              	.LBE241:
 633              	.LBE240:
 634              	.LBE239:
 635              		.loc 1 302 0
 636 0008 FFF7FEFF 		bl	pwm_lld_disable_channel_notification
 637              	.LVL22:
 638              	.LBB244:
 639              	.LBB245:
 640              	.LBB246:
 641              	.LBB247:
 642              	.LBB248:
 643              	.LBB249:
 644              		.loc 2 264 0
 645 000c 0023     		movs	r3, #0
 646              	@ 264 "../../../../../ChibiOS-RT/os/common/ext/CMSIS/include/cmsis_gcc.h" 1
 647 000e 83F31188 		MSR basepri, r3
 648              	@ 0 "" 2
 649              		.thumb
 650 0012 08BD     		pop	{r3, pc}
 651              	.LBE249:
 652              	.LBE248:
 653              	.LBE247:
 654              	.LBE246:
 655              	.LBE245:
 656              	.LBE244:
 657              		.cfi_endproc
 658              	.LFE280:
 659              		.size	pwmDisableChannelNotification, .-pwmDisableChannelNotification
 660 0014 AFF30080 		.text
 660      AFF30080 
 660      AFF30080 
 661              	.Letext0:
 662              		.file 3 "/usr/include/newlib/machine/_default_types.h"
 663              		.file 4 "/usr/include/newlib/stdint.h"
 664              		.file 5 "../../../../../ChibiOS-RT/os/common/ports/ARMCMx/compilers/GCC/chtypes.h"
 665              		.file 6 "../../../../../ChibiOS-RT/os/rt/include/chsystypes.h"
 666              		.file 7 "../../../../../ChibiOS-RT/os/rt/include/chschd.h"
 667              		.file 8 "../../../../../ChibiOS-RT/os/common/ports/ARMCMx/chcore.h"
 668              		.file 9 "../../../../../ChibiOS-RT/os/common/ports/ARMCMx/chcore_v7m.h"
 669              		.file 10 "../../../../../ChibiOS-RT/os/hal/ports/STM32/LLD/TIMv1/stm32_tim.h"
ARM GAS  /tmp/ccQyeFPN.s 			page 13


 670              		.file 11 "../../../../../ChibiOS-RT/os/rt/include/chtrace.h"
 671              		.file 12 "../../../../../ChibiOS-RT/os/rt/include/chtm.h"
 672              		.file 13 "../../../../../ChibiOS-RT/os/rt/include/chsem.h"
 673              		.file 14 "../../../../../ChibiOS-RT/os/rt/include/chmtx.h"
 674              		.file 15 "../../../../../ChibiOS-RT/os/hal/include/hal_pwm.h"
 675              		.file 16 "../../../../../ChibiOS-RT/os/hal/ports/STM32/LLD/TIMv1/hal_pwm_lld.h"
 676              		.file 17 "../../../../../ChibiOS-RT/os/rt/include/chsys.h"
 677              		.file 18 "../../../../../ChibiOS-RT/os/hal/osal/rt/osal.h"
 678              		.file 19 "../../../../../ChibiOS-RT/os/common/ext/CMSIS/include/core_cm4.h"