ARM GAS  /tmp/ccH1FG48.s 			page 1


   1              		.syntax unified
   2              		.cpu cortex-m4
   3              		.fpu softvfp
   4              		.eabi_attribute 20, 1
   5              		.eabi_attribute 21, 1
   6              		.eabi_attribute 23, 3
   7              		.eabi_attribute 24, 1
   8              		.eabi_attribute 25, 1
   9              		.eabi_attribute 26, 1
  10              		.eabi_attribute 30, 2
  11              		.eabi_attribute 34, 1
  12              		.eabi_attribute 18, 4
  13              		.thumb
  14              		.file	"hal_uart_lld.c"
  15              		.text
  16              	.Ltext0:
  17              		.cfi_sections	.debug_frame
  18              		.section	.text.usart_stop,"ax",%progbits
  19              		.align	2
  20              		.p2align 4,,15
  21              		.thumb
  22              		.thumb_func
  23              		.type	usart_stop, %function
  24              	usart_stop:
  25              	.LFB272:
  26              		.file 1 "../../../../../ChibiOS-RT/os/hal/ports/STM32/LLD/USARTv1/hal_uart_lld.c"
  27              		.loc 1 180 0
  28              		.cfi_startproc
  29              		@ args = 0, pretend = 0, frame = 0
  30              		@ frame_needed = 0, uses_anonymous_args = 0
  31              		@ link register save eliminated.
  32              	.LVL0:
  33 0000 30B4     		push	{r4, r5}
  34              		.cfi_def_cfa_offset 8
  35              		.cfi_offset 4, -8
  36              		.cfi_offset 5, -4
  37              		.loc 1 183 0
  38 0002 0469     		ldr	r4, [r0, #16]
  39 0004 2268     		ldr	r2, [r4]
  40 0006 1368     		ldr	r3, [r2]
  41 0008 23F01F03 		bic	r3, r3, #31
  42 000c 1360     		str	r3, [r2]
  43              	.L3:
  44              		.loc 1 183 0 is_stmt 0 discriminator 1
  45 000e 1368     		ldr	r3, [r2]
  46 0010 DB07     		lsls	r3, r3, #31
  47 0012 FCD4     		bmi	.L3
  48              		.loc 1 183 0 discriminator 2
  49 0014 257A     		ldrb	r5, [r4, #8]	@ zero_extendqisi2
  50              		.loc 1 184 0 is_stmt 1 discriminator 2
  51 0016 4169     		ldr	r1, [r0, #20]
  52              		.loc 1 183 0 discriminator 2
  53 0018 6368     		ldr	r3, [r4, #4]
  54              		.loc 1 184 0 discriminator 2
  55 001a 0A68     		ldr	r2, [r1]
  56              		.loc 1 183 0 discriminator 2
  57 001c 3D24     		movs	r4, #61
ARM GAS  /tmp/ccH1FG48.s 			page 2


  58 001e AC40     		lsls	r4, r4, r5
  59 0020 1C60     		str	r4, [r3]
  60              		.loc 1 184 0 discriminator 2
  61 0022 1368     		ldr	r3, [r2]
  62 0024 23F01F03 		bic	r3, r3, #31
  63 0028 1360     		str	r3, [r2]
  64              	.L5:
  65              		.loc 1 184 0 is_stmt 0 discriminator 1
  66 002a 1368     		ldr	r3, [r2]
  67 002c 13F00103 		ands	r3, r3, #1
  68 0030 FBD1     		bne	.L5
  69              		.loc 1 184 0 discriminator 2
  70 0032 0C7A     		ldrb	r4, [r1, #8]	@ zero_extendqisi2
  71              		.loc 1 187 0 is_stmt 1 discriminator 2
  72 0034 8268     		ldr	r2, [r0, #8]
  73              		.loc 1 184 0 discriminator 2
  74 0036 4968     		ldr	r1, [r1, #4]
  75 0038 3D20     		movs	r0, #61
  76              	.LVL1:
  77 003a A040     		lsls	r0, r0, r4
  78 003c 0860     		str	r0, [r1]
  79              		.loc 1 190 0 discriminator 2
  80 003e 30BC     		pop	{r4, r5}
  81              		.loc 1 187 0 discriminator 2
  82 0040 D360     		str	r3, [r2, #12]
  83              		.loc 1 188 0 discriminator 2
  84 0042 1361     		str	r3, [r2, #16]
  85              		.loc 1 189 0 discriminator 2
  86 0044 5361     		str	r3, [r2, #20]
  87              		.loc 1 190 0 discriminator 2
  88 0046 7047     		bx	lr
  89              		.cfi_endproc
  90              	.LFE272:
  91              		.size	usart_stop, .-usart_stop
  92 0048 AFF30080 		.section	.text.uart_lld_serve_tx_end_irq,"ax",%progbits
  92      AFF30080 
  93              		.align	2
  94              		.p2align 4,,15
  95              		.thumb
  96              		.thumb_func
  97              		.type	uart_lld_serve_tx_end_irq, %function
  98              	uart_lld_serve_tx_end_irq:
  99              	.LFB275:
 100              		.loc 1 271 0
 101              		.cfi_startproc
 102              		@ args = 0, pretend = 0, frame = 0
 103              		@ frame_needed = 0, uses_anonymous_args = 0
 104              	.LVL2:
 105              		.loc 1 275 0
 106 0000 11F00C0F 		tst	r1, #12
 107              		.loc 1 271 0
 108 0004 10B5     		push	{r4, lr}
 109              		.cfi_def_cfa_offset 8
 110              		.cfi_offset 4, -8
 111              		.cfi_offset 14, -4
 112              		.loc 1 271 0
 113 0006 0446     		mov	r4, r0
ARM GAS  /tmp/ccH1FG48.s 			page 3


 114              		.loc 1 275 0
 115 0008 1BD1     		bne	.L20
 116              	.LVL3:
 117              	.L8:
 118              		.loc 1 282 0
 119 000a 6169     		ldr	r1, [r4, #20]
 120 000c 0A68     		ldr	r2, [r1]
 121 000e 1368     		ldr	r3, [r2]
 122 0010 23F01F03 		bic	r3, r3, #31
 123 0014 1360     		str	r3, [r2]
 124              	.L10:
 125              		.loc 1 282 0 is_stmt 0 discriminator 1
 126 0016 1368     		ldr	r3, [r2]
 127 0018 D807     		lsls	r0, r3, #31
 128 001a FCD4     		bmi	.L10
 129              		.loc 1 285 0 is_stmt 1 discriminator 2
 130 001c 6368     		ldr	r3, [r4, #4]
 131              		.loc 1 282 0 discriminator 2
 132 001e 0A7A     		ldrb	r2, [r1, #8]	@ zero_extendqisi2
 133              		.loc 1 285 0 discriminator 2
 134 0020 1B68     		ldr	r3, [r3]
 135              		.loc 1 282 0 discriminator 2
 136 0022 4968     		ldr	r1, [r1, #4]
 137 0024 3D20     		movs	r0, #61
 138 0026 9040     		lsls	r0, r0, r2
 139              		.loc 1 285 0 discriminator 2
 140 0028 0222     		movs	r2, #2
 141              		.loc 1 282 0 discriminator 2
 142 002a 0860     		str	r0, [r1]
 143              		.loc 1 285 0 discriminator 2
 144 002c 6270     		strb	r2, [r4, #1]
 145 002e 2BB1     		cbz	r3, .L13
 146              		.loc 1 285 0 is_stmt 0 discriminator 1
 147 0030 2046     		mov	r0, r4
 148 0032 9847     		blx	r3
 149              	.LVL4:
 150 0034 6378     		ldrb	r3, [r4, #1]	@ zero_extendqisi2
 151 0036 022B     		cmp	r3, #2
 152 0038 00D0     		beq	.L13
 153 003a 10BD     		pop	{r4, pc}
 154              	.LVL5:
 155              	.L13:
 156              		.loc 1 285 0
 157 003c 0023     		movs	r3, #0
 158 003e 6370     		strb	r3, [r4, #1]
 159 0040 10BD     		pop	{r4, pc}
 160              	.LVL6:
 161              	.L20:
 162              	.LBB16:
 163              	.LBB17:
 164              		.file 2 "../../../../../ChibiOS-RT/os/hal/osal/rt/osal.h"
 165              		.loc 2 462 0 is_stmt 1
 166 0042 40F20000 		movw	r0, #:lower16:.LC0
 167              	.LVL7:
 168 0046 C0F20000 		movt	r0, #:upper16:.LC0
 169 004a FFF7FEFF 		bl	chSysHalt
 170              	.LVL8:
ARM GAS  /tmp/ccH1FG48.s 			page 4


 171 004e DCE7     		b	.L8
 172              	.LBE17:
 173              	.LBE16:
 174              		.cfi_endproc
 175              	.LFE275:
 176              		.size	uart_lld_serve_tx_end_irq, .-uart_lld_serve_tx_end_irq
 177              		.section	.text.uart_lld_serve_rx_end_irq,"ax",%progbits
 178              		.align	2
 179              		.p2align 4,,15
 180              		.thumb
 181              		.thumb_func
 182              		.type	uart_lld_serve_rx_end_irq, %function
 183              	uart_lld_serve_rx_end_irq:
 184              	.LFB274:
 185              		.loc 1 241 0
 186              		.cfi_startproc
 187              		@ args = 0, pretend = 0, frame = 0
 188              		@ frame_needed = 0, uses_anonymous_args = 0
 189              	.LVL9:
 190              		.loc 1 245 0
 191 0000 11F00C0F 		tst	r1, #12
 192              		.loc 1 241 0
 193 0004 70B5     		push	{r4, r5, r6, lr}
 194              		.cfi_def_cfa_offset 16
 195              		.cfi_offset 4, -16
 196              		.cfi_offset 5, -12
 197              		.cfi_offset 6, -8
 198              		.cfi_offset 14, -4
 199              		.loc 1 241 0
 200 0006 0446     		mov	r4, r0
 201              		.loc 1 245 0
 202 0008 3BD1     		bne	.L36
 203              	.LVL10:
 204              	.L22:
 205              		.loc 1 252 0
 206 000a A378     		ldrb	r3, [r4, #2]	@ zero_extendqisi2
 207 000c 43B9     		cbnz	r3, .L23
 208              		.loc 1 255 0
 209 000e 6368     		ldr	r3, [r4, #4]
 210 0010 DB68     		ldr	r3, [r3, #12]
 211 0012 002B     		cmp	r3, #0
 212 0014 34D0     		beq	.L21
 213              		.loc 1 255 0 is_stmt 0 discriminator 1
 214 0016 218B     		ldrh	r1, [r4, #24]
 215 0018 2046     		mov	r0, r4
 216 001a 89B2     		uxth	r1, r1
 217 001c 9847     		blx	r3
 218              	.LVL11:
 219 001e 70BD     		pop	{r4, r5, r6, pc}
 220              	.LVL12:
 221              	.L23:
 222              	.LBB26:
 223              	.LBB27:
 224              		.loc 1 260 0 is_stmt 1
 225 0020 2169     		ldr	r1, [r4, #16]
 226 0022 0A68     		ldr	r2, [r1]
 227 0024 1368     		ldr	r3, [r2]
ARM GAS  /tmp/ccH1FG48.s 			page 5


 228 0026 23F01F03 		bic	r3, r3, #31
 229 002a 1360     		str	r3, [r2]
 230              	.L27:
 231 002c 1368     		ldr	r3, [r2]
 232 002e DD07     		lsls	r5, r3, #31
 233 0030 FCD4     		bmi	.L27
 234              		.loc 1 261 0
 235 0032 6068     		ldr	r0, [r4, #4]
 236              		.loc 1 260 0
 237 0034 0E7A     		ldrb	r6, [r1, #8]	@ zero_extendqisi2
 238 0036 4D68     		ldr	r5, [r1, #4]
 239              		.loc 1 261 0
 240 0038 8368     		ldr	r3, [r0, #8]
 241              		.loc 1 260 0
 242 003a 3D21     		movs	r1, #61
 243 003c 01FA06F6 		lsl	r6, r1, r6
 244              		.loc 1 261 0
 245 0040 0221     		movs	r1, #2
 246              		.loc 1 260 0
 247 0042 2E60     		str	r6, [r5]
 248              		.loc 1 261 0
 249 0044 A170     		strb	r1, [r4, #2]
 250 0046 3BB1     		cbz	r3, .L28
 251 0048 2046     		mov	r0, r4
 252 004a 9847     		blx	r3
 253              	.LVL13:
 254 004c A378     		ldrb	r3, [r4, #2]	@ zero_extendqisi2
 255 004e 022B     		cmp	r3, #2
 256 0050 16D1     		bne	.L21
 257 0052 2369     		ldr	r3, [r4, #16]
 258 0054 6068     		ldr	r0, [r4, #4]
 259 0056 1A68     		ldr	r2, [r3]
 260              	.L28:
 261              	.LBB28:
 262              	.LBB29:
 263              		.loc 1 164 0
 264 0058 C168     		ldr	r1, [r0, #12]
 265              		.loc 1 170 0
 266 005a E368     		ldr	r3, [r4, #12]
 267              		.loc 1 165 0
 268 005c 0029     		cmp	r1, #0
 269 005e 14BF     		ite	ne
 270 0060 4FF48871 		movne	r1, #272
 271 0064 4FF48071 		moveq	r1, #256
 272              		.loc 1 170 0
 273 0068 0B43     		orrs	r3, r3, r1
 274              	.LBE29:
 275              	.LBE28:
 276              		.loc 1 261 0
 277 006a 0025     		movs	r5, #0
 278              	.LBB32:
 279              	.LBB30:
 280              		.loc 1 169 0
 281 006c 0121     		movs	r1, #1
 282              		.loc 1 168 0
 283 006e 04F11800 		add	r0, r4, #24
 284              	.LBE30:
ARM GAS  /tmp/ccH1FG48.s 			page 6


 285              	.LBE32:
 286              		.loc 1 261 0
 287 0072 A570     		strb	r5, [r4, #2]
 288              	.LVL14:
 289              	.LBB33:
 290              	.LBB31:
 291              		.loc 1 168 0
 292 0074 D060     		str	r0, [r2, #12]
 293              		.loc 1 169 0
 294 0076 5160     		str	r1, [r2, #4]
 295              		.loc 1 170 0
 296 0078 1360     		str	r3, [r2]
 297              		.loc 1 171 0
 298 007a 1368     		ldr	r3, [r2]
 299 007c 0B43     		orrs	r3, r3, r1
 300 007e 1360     		str	r3, [r2]
 301              	.LVL15:
 302              	.L21:
 303 0080 70BD     		pop	{r4, r5, r6, pc}
 304              	.LVL16:
 305              	.L36:
 306              	.LBE31:
 307              	.LBE33:
 308              	.LBE27:
 309              	.LBE26:
 310              	.LBB34:
 311              	.LBB35:
 312              		.loc 2 462 0
 313 0082 40F20000 		movw	r0, #:lower16:.LC0
 314              	.LVL17:
 315 0086 C0F20000 		movt	r0, #:upper16:.LC0
 316 008a FFF7FEFF 		bl	chSysHalt
 317              	.LVL18:
 318 008e BCE7     		b	.L22
 319              	.LBE35:
 320              	.LBE34:
 321              		.cfi_endproc
 322              	.LFE274:
 323              		.size	uart_lld_serve_rx_end_irq, .-uart_lld_serve_rx_end_irq
 324              		.section	.text.VectorD4,"ax",%progbits
 325              		.align	2
 326              		.p2align 4,,15
 327              		.global	VectorD4
 328              		.thumb
 329              		.thumb_func
 330              		.type	VectorD4, %function
 331              	VectorD4:
 332              	.LFB277:
 333              		.loc 1 330 0
 334              		.cfi_startproc
 335              		@ args = 0, pretend = 0, frame = 0
 336              		@ frame_needed = 0, uses_anonymous_args = 0
 337 0000 F8B5     		push	{r3, r4, r5, r6, r7, lr}
 338              		.cfi_def_cfa_offset 24
 339              		.cfi_offset 3, -24
 340              		.cfi_offset 4, -20
 341              		.cfi_offset 5, -16
ARM GAS  /tmp/ccH1FG48.s 			page 7


 342              		.cfi_offset 6, -12
 343              		.cfi_offset 7, -8
 344              		.cfi_offset 14, -4
 345              	.LBB40:
 346              	.LBB41:
 347              		.loc 1 295 0
 348 0002 40F20005 		movw	r5, #:lower16:.LANCHOR1
 349              	.LBE41:
 350              	.LBE40:
 351              		.loc 1 332 0
 352 0006 40F20000 		movw	r0, #:lower16:.LANCHOR0
 353              	.LBB48:
 354              	.LBB46:
 355              		.loc 1 295 0
 356 000a C0F20005 		movt	r5, #:upper16:.LANCHOR1
 357              	.LBE46:
 358              	.LBE48:
 359              		.loc 1 332 0
 360 000e C0F20000 		movt	r0, #:upper16:.LANCHOR0
 361 0012 FFF7FEFF 		bl	_trace_isr_enter
 362              	.LVL19:
 363              	.LBB49:
 364              	.LBB47:
 365              		.loc 1 295 0
 366 0016 AC68     		ldr	r4, [r5, #8]
 367              	.LVL20:
 368              		.loc 1 296 0
 369 0018 E768     		ldr	r7, [r4, #12]
 370              	.LVL21:
 371              		.loc 1 298 0
 372 001a 2668     		ldr	r6, [r4]
 373              	.LVL22:
 374              		.loc 1 299 0
 375 001c 6368     		ldr	r3, [r4, #4]
 376              		.loc 1 301 0
 377 001e 40F20F13 		movw	r3, #271
 378 0022 3340     		ands	r3, r3, r6
 379 0024 03B3     		cbz	r3, .L39
 380              		.loc 1 304 0
 381 0026 6B68     		ldr	r3, [r5, #4]
 382 0028 1A69     		ldr	r2, [r3, #16]
 383              		.loc 1 303 0
 384 002a 6FF48073 		mvn	r3, #256
 385 002e 2360     		str	r3, [r4]
 386              		.loc 1 304 0
 387 0030 D2B1     		cbz	r2, .L39
 388              		.loc 1 298 0
 389 0032 B3B2     		uxth	r3, r6
 390              	.LVL23:
 391              	.LBB42:
 392              	.LBB43:
 393              		.loc 1 139 0
 394 0034 13F0080F 		tst	r3, #8
 395 0038 14BF     		ite	ne
 396 003a 1021     		movne	r1, #16
 397 003c 0021     		moveq	r1, #0
 398              	.LVL24:
ARM GAS  /tmp/ccH1FG48.s 			page 8


 399              		.loc 1 143 0
 400 003e D807     		lsls	r0, r3, #31
 401              		.loc 1 144 0
 402 0040 48BF     		it	mi
 403 0042 41F00401 		orrmi	r1, r1, #4
 404              	.LVL25:
 405              		.loc 1 145 0
 406 0046 9807     		lsls	r0, r3, #30
 407              		.loc 1 146 0
 408 0048 48BF     		it	mi
 409 004a 41F00801 		orrmi	r1, r1, #8
 410              	.LVL26:
 411              		.loc 1 147 0
 412 004e 5807     		lsls	r0, r3, #29
 413              		.loc 1 148 0
 414 0050 48BF     		it	mi
 415 0052 41F02001 		orrmi	r1, r1, #32
 416              	.LVL27:
 417              		.loc 1 149 0
 418 0056 D805     		lsls	r0, r3, #23
 419              	.LBE43:
 420              	.LBE42:
 421              		.loc 1 304 0
 422 0058 40F20000 		movw	r0, #:lower16:.LANCHOR1
 423              	.LBB45:
 424              	.LBB44:
 425              		.loc 1 150 0
 426 005c 48BF     		it	mi
 427 005e 41F04001 		orrmi	r1, r1, #64
 428              	.LVL28:
 429              	.LBE44:
 430              	.LBE45:
 431              		.loc 1 304 0
 432 0062 C0F20000 		movt	r0, #:upper16:.LANCHOR1
 433 0066 9047     		blx	r2
 434              	.LVL29:
 435              	.L39:
 436              		.loc 1 307 0
 437 0068 7306     		lsls	r3, r6, #25
 438 006a 0FD5     		bpl	.L47
 439 006c 7E06     		lsls	r6, r7, #25
 440              	.LVL30:
 441 006e 0DD5     		bpl	.L47
 442              		.loc 1 313 0
 443 0070 6B68     		ldr	r3, [r5, #4]
 444 0072 5B68     		ldr	r3, [r3, #4]
 445              		.loc 1 310 0
 446 0074 27F04007 		bic	r7, r7, #64
 447              	.LVL31:
 448              		.loc 1 309 0
 449 0078 6FF04002 		mvn	r2, #64
 450 007c 2260     		str	r2, [r4]
 451              		.loc 1 310 0
 452 007e E760     		str	r7, [r4, #12]
 453              		.loc 1 313 0
 454 0080 23B1     		cbz	r3, .L47
 455 0082 40F20000 		movw	r0, #:lower16:.LANCHOR1
ARM GAS  /tmp/ccH1FG48.s 			page 9


 456 0086 C0F20000 		movt	r0, #:upper16:.LANCHOR1
 457 008a 9847     		blx	r3
 458              	.LVL32:
 459              	.L47:
 460              	.LBE47:
 461              	.LBE49:
 462              		.loc 1 336 0
 463 008c 40F20000 		movw	r0, #:lower16:.LANCHOR0
 464 0090 C0F20000 		movt	r0, #:upper16:.LANCHOR0
 465 0094 FFF7FEFF 		bl	_trace_isr_leave
 466              	.LVL33:
 467              		.loc 1 337 0
 468 0098 BDE8F840 		pop	{r3, r4, r5, r6, r7, lr}
 469              	.LVL34:
 470              		.loc 1 336 0
 471 009c FFF7FEBF 		b	_port_irq_epilogue
 472              	.LVL35:
 473              		.cfi_endproc
 474              	.LFE277:
 475              		.size	VectorD4, .-VectorD4
 476              		.section	.text.uart_lld_init,"ax",%progbits
 477              		.align	2
 478              		.p2align 4,,15
 479              		.global	uart_lld_init
 480              		.thumb
 481              		.thumb_func
 482              		.type	uart_lld_init, %function
 483              	uart_lld_init:
 484              	.LFB278:
 485              		.loc 1 444 0
 486              		.cfi_startproc
 487              		@ args = 0, pretend = 0, frame = 0
 488              		@ frame_needed = 0, uses_anonymous_args = 0
 489 0000 10B5     		push	{r4, lr}
 490              		.cfi_def_cfa_offset 8
 491              		.cfi_offset 4, -8
 492              		.cfi_offset 14, -4
 493              		.loc 1 447 0
 494 0002 40F20004 		movw	r4, #:lower16:.LANCHOR1
 495 0006 C0F20004 		movt	r4, #:upper16:.LANCHOR1
 496 000a 2046     		mov	r0, r4
 497 000c FFF7FEFF 		bl	uartObjectInit
 498              	.LVL36:
 499              		.loc 1 450 0
 500 0010 064B     		ldr	r3, .L72
 501              		.loc 1 448 0
 502 0012 4FF48052 		mov	r2, #4096
 503 0016 C4F20102 		movt	r2, 16385
 504              		.loc 1 449 0
 505 001a 0620     		movs	r0, #6
 506              		.loc 1 451 0
 507 001c 03F11801 		add	r1, r3, #24
 508              		.loc 1 448 0
 509 0020 A260     		str	r2, [r4, #8]
 510              		.loc 1 449 0
 511 0022 E060     		str	r0, [r4, #12]
 512              		.loc 1 450 0
ARM GAS  /tmp/ccH1FG48.s 			page 10


 513 0024 2361     		str	r3, [r4, #16]
 514              		.loc 1 451 0
 515 0026 6161     		str	r1, [r4, #20]
 516 0028 10BD     		pop	{r4, pc}
 517              	.L73:
 518 002a 00BF     		.align	2
 519              	.L72:
 520 002c 9C000000 		.word	_stm32_dma_streams+156
 521              		.cfi_endproc
 522              	.LFE278:
 523              		.size	uart_lld_init, .-uart_lld_init
 524              		.section	.text.uart_lld_start,"ax",%progbits
 525              		.align	2
 526              		.p2align 4,,15
 527              		.global	uart_lld_start
 528              		.thumb
 529              		.thumb_func
 530              		.type	uart_lld_start, %function
 531              	uart_lld_start:
 532              	.LFB279:
 533              		.loc 1 501 0
 534              		.cfi_startproc
 535              		@ args = 0, pretend = 0, frame = 0
 536              		@ frame_needed = 0, uses_anonymous_args = 0
 537              	.LVL37:
 538              		.loc 1 503 0
 539 0000 0378     		ldrb	r3, [r0]	@ zero_extendqisi2
 540 0002 012B     		cmp	r3, #1
 541              		.loc 1 501 0
 542 0004 2DE9F041 		push	{r4, r5, r6, r7, r8, lr}
 543              		.cfi_def_cfa_offset 24
 544              		.cfi_offset 4, -24
 545              		.cfi_offset 5, -20
 546              		.cfi_offset 6, -16
 547              		.cfi_offset 7, -12
 548              		.cfi_offset 8, -8
 549              		.cfi_offset 14, -4
 550              		.loc 1 501 0
 551 0008 0446     		mov	r4, r0
 552              		.loc 1 503 0
 553 000a 51D0     		beq	.L75
 554 000c 8568     		ldr	r5, [r0, #8]
 555              	.LVL38:
 556              	.L76:
 557              		.loc 1 645 0
 558 000e 0023     		movs	r3, #0
 559 0010 A370     		strb	r3, [r4, #2]
 560              		.loc 1 646 0
 561 0012 6370     		strb	r3, [r4, #1]
 562              	.LVL39:
 563              	.LBB55:
 564              	.LBB56:
 565              		.loc 1 203 0
 566 0014 2046     		mov	r0, r4
 567 0016 FFF7FEFF 		bl	usart_stop
 568              	.LVL40:
 569              		.loc 1 207 0
ARM GAS  /tmp/ccH1FG48.s 			page 11


 570 001a A268     		ldr	r2, [r4, #8]
 571 001c 4FF4A051 		mov	r1, #5120
 572 0020 4FF48053 		mov	r3, #4096
 573 0024 C4F20101 		movt	r1, 16385
 574 0028 C4F20103 		movt	r3, 16385
 575 002c 9A42     		cmp	r2, r3
 576 002e 18BF     		it	ne
 577 0030 8A42     		cmpne	r2, r1
 578              		.loc 1 211 0
 579 0032 6368     		ldr	r3, [r4, #4]
 580 0034 06BF     		itte	eq
 581 0036 4FF43D42 		moveq	r2, #48384
 582 003a 5969     		ldreq	r1, [r3, #20]
 583              		.loc 1 213 0
 584 003c 5969     		ldrne	r1, [r3, #20]
 585              	.LBB57:
 586              	.LBB58:
 587              		.loc 1 164 0
 588 003e D868     		ldr	r0, [r3, #12]
 589              	.LBE58:
 590              	.LBE57:
 591              		.loc 1 222 0
 592 0040 5F8B     		ldrh	r7, [r3, #26]
 593              		.loc 1 223 0
 594 0042 9E8B     		ldrh	r6, [r3, #28]
 595              		.loc 1 213 0
 596 0044 16BF     		itet	ne
 597 0046 4DF68062 		movwne	r2, #56960
 598              		.loc 1 211 0
 599 004a C0F20152 		movteq	r2, 1281
 600              		.loc 1 213 0
 601 004e C0F28022 		movtne	r2, 640
 602 0052 B2FBF1F2 		udiv	r2, r2, r1
 603 0056 AA60     		str	r2, [r5, #8]
 604              		.loc 1 229 0
 605 0058 1A8B     		ldrh	r2, [r3, #24]
 606              	.LBB66:
 607              	.LBB59:
 608              		.loc 1 168 0
 609 005a 2369     		ldr	r3, [r4, #16]
 610              	.LBE59:
 611              	.LBE66:
 612              		.loc 1 216 0
 613 005c 2968     		ldr	r1, [r5]
 614              	.LBB67:
 615              	.LBB60:
 616              		.loc 1 168 0
 617 005e 1B68     		ldr	r3, [r3]
 618              	.LBE60:
 619              	.LBE67:
 620              		.loc 1 217 0
 621 0060 6968     		ldr	r1, [r5, #4]
 622              		.loc 1 229 0
 623 0062 42F40452 		orr	r2, r2, #8448
 624 0066 42F00C02 		orr	r2, r2, #12
 625 006a 1FFA82F8 		uxth	r8, r2
 626              	.LBB68:
ARM GAS  /tmp/ccH1FG48.s 			page 12


 627              	.LBB61:
 628              		.loc 1 170 0
 629 006e E268     		ldr	r2, [r4, #12]
 630              		.loc 1 165 0
 631 0070 0028     		cmp	r0, #0
 632 0072 14BF     		ite	ne
 633 0074 4FF48870 		movne	r0, #272
 634 0078 4FF48070 		moveq	r0, #256
 635              	.LBE61:
 636              	.LBE68:
 637              		.loc 1 222 0
 638 007c 47F04007 		orr	r7, r7, #64
 639              		.loc 1 223 0
 640 0080 46F0C106 		orr	r6, r6, #193
 641              	.LBB69:
 642              	.LBB62:
 643              		.loc 1 170 0
 644 0084 40EA0201 		orr	r1, r0, r2
 645              	.LBE62:
 646              	.LBE69:
 647              		.loc 1 222 0
 648 0088 BFB2     		uxth	r7, r7
 649              	.LBB70:
 650              	.LBB63:
 651              		.loc 1 169 0
 652 008a 0120     		movs	r0, #1
 653              	.LBE63:
 654              	.LBE70:
 655              		.loc 1 218 0
 656 008c 4FF0000C 		mov	ip, #0
 657              		.loc 1 223 0
 658 0090 B6B2     		uxth	r6, r6
 659              	.LBB71:
 660              	.LBB64:
 661              		.loc 1 168 0
 662 0092 1834     		adds	r4, r4, #24
 663              	.LVL41:
 664              	.LBE64:
 665              	.LBE71:
 666              		.loc 1 218 0
 667 0094 C5F800C0 		str	ip, [r5]
 668              		.loc 1 222 0
 669 0098 2F61     		str	r7, [r5, #16]
 670              		.loc 1 223 0
 671 009a 6E61     		str	r6, [r5, #20]
 672              	.LVL42:
 673              		.loc 1 229 0
 674 009c C5F80C80 		str	r8, [r5, #12]
 675              	.LVL43:
 676              	.LBB72:
 677              	.LBB65:
 678              		.loc 1 168 0
 679 00a0 DC60     		str	r4, [r3, #12]
 680              		.loc 1 169 0
 681 00a2 5860     		str	r0, [r3, #4]
 682              		.loc 1 170 0
 683 00a4 1960     		str	r1, [r3]
ARM GAS  /tmp/ccH1FG48.s 			page 13


 684              		.loc 1 171 0
 685 00a6 1A68     		ldr	r2, [r3]
 686 00a8 0243     		orrs	r2, r2, r0
 687 00aa 1A60     		str	r2, [r3]
 688 00ac BDE8F081 		pop	{r4, r5, r6, r7, r8, pc}
 689              	.LVL44:
 690              	.L75:
 691              	.LBE65:
 692              	.LBE72:
 693              	.LBE56:
 694              	.LBE55:
 695              		.loc 1 505 0
 696 00b0 40F20003 		movw	r3, #:lower16:.LANCHOR1
 697 00b4 C0F20003 		movt	r3, #:upper16:.LANCHOR1
 698 00b8 9842     		cmp	r0, r3
 699 00ba 15D0     		beq	.L83
 700              	.LVL45:
 701              	.L77:
 702              		.loc 1 638 0
 703 00bc 6368     		ldr	r3, [r4, #4]
 704              		.loc 1 640 0
 705 00be 2269     		ldr	r2, [r4, #16]
 706              		.loc 1 638 0
 707 00c0 1B8B     		ldrh	r3, [r3, #24]
 708              		.loc 1 640 0
 709 00c2 A568     		ldr	r5, [r4, #8]
 710 00c4 1068     		ldr	r0, [r2]
 711              		.loc 1 638 0
 712 00c6 03F4A053 		and	r3, r3, #5120
 713 00ca B3F5805F 		cmp	r3, #4096
 714              		.loc 1 639 0
 715 00ce 02BF     		ittt	eq
 716 00d0 E368     		ldreq	r3, [r4, #12]
 717 00d2 43F42053 		orreq	r3, r3, #10240
 718 00d6 E360     		streq	r3, [r4, #12]
 719              		.loc 1 641 0
 720 00d8 6369     		ldr	r3, [r4, #20]
 721 00da 1968     		ldr	r1, [r3]
 722              		.loc 1 642 0
 723 00dc 0022     		movs	r2, #0
 724              		.loc 1 640 0
 725 00de 2B1D     		adds	r3, r5, #4
 726 00e0 8360     		str	r3, [r0, #8]
 727              		.loc 1 641 0
 728 00e2 8B60     		str	r3, [r1, #8]
 729              		.loc 1 642 0
 730 00e4 2283     		strh	r2, [r4, #24]	@ movhi
 731 00e6 92E7     		b	.L76
 732              	.LVL46:
 733              	.L83:
 734              	.LBB73:
 735              		.loc 1 507 0
 736 00e8 40F20002 		movw	r2, #:lower16:uart_lld_serve_rx_end_irq
 737 00ec C0F20002 		movt	r2, #:upper16:uart_lld_serve_rx_end_irq
 738 00f0 0C21     		movs	r1, #12
 739 00f2 2346     		mov	r3, r4
 740 00f4 0069     		ldr	r0, [r0, #16]
ARM GAS  /tmp/ccH1FG48.s 			page 14


 741              	.LVL47:
 742 00f6 FFF7FEFF 		bl	dmaStreamAllocate
 743              	.LVL48:
 744              		.loc 1 512 0
 745 00fa 40F20002 		movw	r2, #:lower16:uart_lld_serve_tx_end_irq
 746 00fe C0F20002 		movt	r2, #:upper16:uart_lld_serve_tx_end_irq
 747 0102 0C21     		movs	r1, #12
 748 0104 2346     		mov	r3, r4
 749 0106 6069     		ldr	r0, [r4, #20]
 750 0108 FFF7FEFF 		bl	dmaStreamAllocate
 751              	.LVL49:
 752              		.loc 1 517 0
 753 010c 4FF46053 		mov	r3, #14336
 754 0110 C4F20203 		movt	r3, 16386
 755              		.loc 1 518 0
 756 0114 2520     		movs	r0, #37
 757              		.loc 1 517 0
 758 0116 5A6C     		ldr	r2, [r3, #68]
 759 0118 42F01002 		orr	r2, r2, #16
 760 011c 5A64     		str	r2, [r3, #68]
 761              		.loc 1 518 0
 762 011e 0C21     		movs	r1, #12
 763 0120 FFF7FEFF 		bl	nvicEnableVector
 764              	.LVL50:
 765              		.loc 1 519 0
 766 0124 E368     		ldr	r3, [r4, #12]
 767 0126 43F00063 		orr	r3, r3, #134217728
 768 012a E360     		str	r3, [r4, #12]
 769 012c C6E7     		b	.L77
 770              	.LBE73:
 771              		.cfi_endproc
 772              	.LFE279:
 773              		.size	uart_lld_start, .-uart_lld_start
 774 012e 00BF     		.section	.text.uart_lld_stop,"ax",%progbits
 775              		.align	2
 776              		.p2align 4,,15
 777              		.global	uart_lld_stop
 778              		.thumb
 779              		.thumb_func
 780              		.type	uart_lld_stop, %function
 781              	uart_lld_stop:
 782              	.LFB280:
 783              		.loc 1 657 0
 784              		.cfi_startproc
 785              		@ args = 0, pretend = 0, frame = 0
 786              		@ frame_needed = 0, uses_anonymous_args = 0
 787              	.LVL51:
 788              		.loc 1 659 0
 789 0000 0378     		ldrb	r3, [r0]	@ zero_extendqisi2
 790 0002 022B     		cmp	r3, #2
 791              		.loc 1 657 0
 792 0004 10B5     		push	{r4, lr}
 793              		.cfi_def_cfa_offset 8
 794              		.cfi_offset 4, -8
 795              		.cfi_offset 14, -4
 796              		.loc 1 657 0
 797 0006 0446     		mov	r4, r0
ARM GAS  /tmp/ccH1FG48.s 			page 15


 798              		.loc 1 659 0
 799 0008 00D0     		beq	.L88
 800              	.LVL52:
 801              	.L84:
 802 000a 10BD     		pop	{r4, pc}
 803              	.LVL53:
 804              	.L88:
 805              		.loc 1 660 0
 806 000c FFF7FEFF 		bl	usart_stop
 807              	.LVL54:
 808              		.loc 1 661 0
 809 0010 2069     		ldr	r0, [r4, #16]
 810 0012 FFF7FEFF 		bl	dmaStreamRelease
 811              	.LVL55:
 812              		.loc 1 662 0
 813 0016 6069     		ldr	r0, [r4, #20]
 814 0018 FFF7FEFF 		bl	dmaStreamRelease
 815              	.LVL56:
 816              		.loc 1 665 0
 817 001c 40F20003 		movw	r3, #:lower16:.LANCHOR1
 818 0020 C0F20003 		movt	r3, #:upper16:.LANCHOR1
 819 0024 9C42     		cmp	r4, r3
 820 0026 F0D1     		bne	.L84
 821              		.loc 1 666 0
 822 0028 2520     		movs	r0, #37
 823 002a FFF7FEFF 		bl	nvicDisableVector
 824              	.LVL57:
 825              		.loc 1 667 0
 826 002e 4FF46053 		mov	r3, #14336
 827 0032 C4F20203 		movt	r3, 16386
 828 0036 5A6C     		ldr	r2, [r3, #68]
 829 0038 22F01002 		bic	r2, r2, #16
 830 003c 5A64     		str	r2, [r3, #68]
 831              		.loc 1 668 0
 832 003e E4E7     		b	.L84
 833              		.cfi_endproc
 834              	.LFE280:
 835              		.size	uart_lld_stop, .-uart_lld_stop
 836              		.section	.text.uart_lld_start_send,"ax",%progbits
 837              		.align	2
 838              		.p2align 4,,15
 839              		.global	uart_lld_start_send
 840              		.thumb
 841              		.thumb_func
 842              		.type	uart_lld_start_send, %function
 843              	uart_lld_start_send:
 844              	.LFB281:
 845              		.loc 1 725 0
 846              		.cfi_startproc
 847              		@ args = 0, pretend = 0, frame = 0
 848              		@ frame_needed = 0, uses_anonymous_args = 0
 849              		@ link register save eliminated.
 850              	.LVL58:
 851 0000 30B4     		push	{r4, r5}
 852              		.cfi_def_cfa_offset 8
 853              		.cfi_offset 4, -8
 854              		.cfi_offset 5, -4
ARM GAS  /tmp/ccH1FG48.s 			page 16


 855              		.loc 1 728 0
 856 0002 4369     		ldr	r3, [r0, #20]
 857              		.loc 1 735 0
 858 0004 4468     		ldr	r4, [r0, #4]
 859              		.loc 1 730 0
 860 0006 C568     		ldr	r5, [r0, #12]
 861              		.loc 1 728 0
 862 0008 1B68     		ldr	r3, [r3]
 863              		.loc 1 735 0
 864 000a 6468     		ldr	r4, [r4, #4]
 865              		.loc 1 728 0
 866 000c DA60     		str	r2, [r3, #12]
 867              		.loc 1 730 0
 868 000e 45F48A65 		orr	r5, r5, #1104
 869              		.loc 1 729 0
 870 0012 5960     		str	r1, [r3, #4]
 871              		.loc 1 730 0
 872 0014 1D60     		str	r5, [r3]
 873              		.loc 1 735 0
 874 0016 3CB1     		cbz	r4, .L90
 875              		.loc 1 736 0
 876 0018 8268     		ldr	r2, [r0, #8]
 877              	.LVL59:
 878 001a 6FF04001 		mvn	r1, #64
 879              	.LVL60:
 880 001e 1160     		str	r1, [r2]
 881              		.loc 1 737 0
 882 0020 D168     		ldr	r1, [r2, #12]
 883 0022 41F04001 		orr	r1, r1, #64
 884 0026 D160     		str	r1, [r2, #12]
 885              	.L90:
 886              		.loc 1 741 0
 887 0028 1A68     		ldr	r2, [r3]
 888 002a 42F00102 		orr	r2, r2, #1
 889 002e 1A60     		str	r2, [r3]
 890              		.loc 1 742 0
 891 0030 30BC     		pop	{r4, r5}
 892 0032 7047     		bx	lr
 893              		.cfi_endproc
 894              	.LFE281:
 895              		.size	uart_lld_start_send, .-uart_lld_start_send
 896 0034 AFF30080 		.section	.text.uart_lld_stop_send,"ax",%progbits
 896      AFF30080 
 896      AFF30080 
 897              		.align	2
 898              		.p2align 4,,15
 899              		.global	uart_lld_stop_send
 900              		.thumb
 901              		.thumb_func
 902              		.type	uart_lld_stop_send, %function
 903              	uart_lld_stop_send:
 904              	.LFB282:
 905              		.loc 1 755 0
 906              		.cfi_startproc
 907              		@ args = 0, pretend = 0, frame = 0
 908              		@ frame_needed = 0, uses_anonymous_args = 0
 909              		@ link register save eliminated.
ARM GAS  /tmp/ccH1FG48.s 			page 17


 910              	.LVL61:
 911              		.loc 1 757 0
 912 0000 4169     		ldr	r1, [r0, #20]
 913 0002 0A68     		ldr	r2, [r1]
 914 0004 1368     		ldr	r3, [r2]
 915 0006 23F01F03 		bic	r3, r3, #31
 916 000a 1360     		str	r3, [r2]
 917              	.L96:
 918              		.loc 1 757 0 is_stmt 0 discriminator 1
 919 000c 1368     		ldr	r3, [r2]
 920 000e DB07     		lsls	r3, r3, #31
 921 0010 FCD4     		bmi	.L96
 922              		.loc 1 757 0 discriminator 2
 923 0012 087A     		ldrb	r0, [r1, #8]	@ zero_extendqisi2
 924              	.LVL62:
 925 0014 4B68     		ldr	r3, [r1, #4]
 926 0016 3D21     		movs	r1, #61
 927 0018 8140     		lsls	r1, r1, r0
 928 001a 1960     		str	r1, [r3]
 929              		.loc 1 759 0 is_stmt 1 discriminator 2
 930 001c 5068     		ldr	r0, [r2, #4]
 931              		.loc 1 760 0 discriminator 2
 932 001e 7047     		bx	lr
 933              		.cfi_endproc
 934              	.LFE282:
 935              		.size	uart_lld_stop_send, .-uart_lld_stop_send
 936              		.section	.text.uart_lld_start_receive,"ax",%progbits
 937              		.align	2
 938              		.p2align 4,,15
 939              		.global	uart_lld_start_receive
 940              		.thumb
 941              		.thumb_func
 942              		.type	uart_lld_start_receive, %function
 943              	uart_lld_start_receive:
 944              	.LFB283:
 945              		.loc 1 773 0
 946              		.cfi_startproc
 947              		@ args = 0, pretend = 0, frame = 0
 948              		@ frame_needed = 0, uses_anonymous_args = 0
 949              		@ link register save eliminated.
 950              	.LVL63:
 951 0000 70B4     		push	{r4, r5, r6}
 952              		.cfi_def_cfa_offset 12
 953              		.cfi_offset 4, -12
 954              		.cfi_offset 5, -8
 955              		.cfi_offset 6, -4
 956              		.loc 1 776 0
 957 0002 0569     		ldr	r5, [r0, #16]
 958 0004 2C68     		ldr	r4, [r5]
 959 0006 2368     		ldr	r3, [r4]
 960 0008 23F01F03 		bic	r3, r3, #31
 961 000c 2360     		str	r3, [r4]
 962              	.L99:
 963              		.loc 1 776 0 is_stmt 0 discriminator 1
 964 000e 2368     		ldr	r3, [r4]
 965 0010 DE07     		lsls	r6, r3, #31
 966 0012 FCD4     		bmi	.L99
ARM GAS  /tmp/ccH1FG48.s 			page 18


 967              		.loc 1 776 0 discriminator 2
 968 0014 2E7A     		ldrb	r6, [r5, #8]	@ zero_extendqisi2
 969 0016 6B68     		ldr	r3, [r5, #4]
 970 0018 3D25     		movs	r5, #61
 971 001a B540     		lsls	r5, r5, r6
 972 001c 1D60     		str	r5, [r3]
 973              		.loc 1 781 0 is_stmt 1 discriminator 2
 974 001e C368     		ldr	r3, [r0, #12]
 975              		.loc 1 779 0 discriminator 2
 976 0020 E260     		str	r2, [r4, #12]
 977              		.loc 1 781 0 discriminator 2
 978 0022 43F48263 		orr	r3, r3, #1040
 979              		.loc 1 780 0 discriminator 2
 980 0026 6160     		str	r1, [r4, #4]
 981              		.loc 1 781 0 discriminator 2
 982 0028 2360     		str	r3, [r4]
 983              		.loc 1 785 0 discriminator 2
 984 002a 2368     		ldr	r3, [r4]
 985 002c 43F00103 		orr	r3, r3, #1
 986 0030 2360     		str	r3, [r4]
 987              		.loc 1 786 0 discriminator 2
 988 0032 70BC     		pop	{r4, r5, r6}
 989 0034 7047     		bx	lr
 990              		.cfi_endproc
 991              	.LFE283:
 992              		.size	uart_lld_start_receive, .-uart_lld_start_receive
 993 0036 00BFAFF3 		.section	.text.uart_lld_stop_receive,"ax",%progbits
 993      0080AFF3 
 993      0080
 994              		.align	2
 995              		.p2align 4,,15
 996              		.global	uart_lld_stop_receive
 997              		.thumb
 998              		.thumb_func
 999              		.type	uart_lld_stop_receive, %function
 1000              	uart_lld_stop_receive:
 1001              	.LFB284:
 1002              		.loc 1 799 0
 1003              		.cfi_startproc
 1004              		@ args = 0, pretend = 0, frame = 0
 1005              		@ frame_needed = 0, uses_anonymous_args = 0
 1006              		@ link register save eliminated.
 1007              	.LVL64:
 1008 0000 0146     		mov	r1, r0
 1009              		.loc 1 802 0
 1010 0002 0069     		ldr	r0, [r0, #16]
 1011              	.LVL65:
 1012 0004 0268     		ldr	r2, [r0]
 1013 0006 1368     		ldr	r3, [r2]
 1014 0008 23F01F03 		bic	r3, r3, #31
 1015              		.loc 1 799 0
 1016 000c 30B4     		push	{r4, r5}
 1017              		.cfi_def_cfa_offset 8
 1018              		.cfi_offset 4, -8
 1019              		.cfi_offset 5, -4
 1020              		.loc 1 802 0
 1021 000e 1360     		str	r3, [r2]
ARM GAS  /tmp/ccH1FG48.s 			page 19


 1022              	.L102:
 1023              		.loc 1 802 0 is_stmt 0 discriminator 1
 1024 0010 1368     		ldr	r3, [r2]
 1025 0012 DB07     		lsls	r3, r3, #31
 1026 0014 FCD4     		bmi	.L102
 1027              		.loc 1 802 0 discriminator 2
 1028 0016 047A     		ldrb	r4, [r0, #8]	@ zero_extendqisi2
 1029              	.LBB74:
 1030              	.LBB75:
 1031              		.loc 1 164 0 is_stmt 1 discriminator 2
 1032 0018 4B68     		ldr	r3, [r1, #4]
 1033              	.LBE75:
 1034              	.LBE74:
 1035              		.loc 1 802 0 discriminator 2
 1036 001a 4068     		ldr	r0, [r0, #4]
 1037 001c 3D25     		movs	r5, #61
 1038 001e 05FA04F4 		lsl	r4, r5, r4
 1039 0022 0460     		str	r4, [r0]
 1040              	.LBB78:
 1041              	.LBB76:
 1042              		.loc 1 164 0 discriminator 2
 1043 0024 DC68     		ldr	r4, [r3, #12]
 1044              		.loc 1 170 0 discriminator 2
 1045 0026 CB68     		ldr	r3, [r1, #12]
 1046              	.LBE76:
 1047              	.LBE78:
 1048              		.loc 1 803 0 discriminator 2
 1049 0028 5068     		ldr	r0, [r2, #4]
 1050              	.LVL66:
 1051              	.LBB79:
 1052              	.LBB77:
 1053              		.loc 1 165 0 discriminator 2
 1054 002a 002C     		cmp	r4, #0
 1055 002c 14BF     		ite	ne
 1056 002e 4FF48874 		movne	r4, #272
 1057 0032 4FF48074 		moveq	r4, #256
 1058              	.LVL67:
 1059              		.loc 1 170 0 discriminator 2
 1060 0036 2343     		orrs	r3, r3, r4
 1061              		.loc 1 168 0 discriminator 2
 1062 0038 1831     		adds	r1, r1, #24
 1063              	.LVL68:
 1064              		.loc 1 169 0 discriminator 2
 1065 003a 0124     		movs	r4, #1
 1066              	.LVL69:
 1067              		.loc 1 168 0 discriminator 2
 1068 003c D160     		str	r1, [r2, #12]
 1069              		.loc 1 169 0 discriminator 2
 1070 003e 5460     		str	r4, [r2, #4]
 1071              		.loc 1 170 0 discriminator 2
 1072 0040 1360     		str	r3, [r2]
 1073              		.loc 1 171 0 discriminator 2
 1074 0042 1368     		ldr	r3, [r2]
 1075 0044 2343     		orrs	r3, r3, r4
 1076 0046 1360     		str	r3, [r2]
 1077              	.LBE77:
 1078              	.LBE79:
ARM GAS  /tmp/ccH1FG48.s 			page 20


 1079              		.loc 1 807 0 discriminator 2
 1080 0048 30BC     		pop	{r4, r5}
 1081 004a 7047     		bx	lr
 1082              		.cfi_endproc
 1083              	.LFE284:
 1084              		.size	uart_lld_stop_receive, .-uart_lld_stop_receive
 1085              		.global	UARTD1
 1086 004c AFF30080 		.section	.bss.UARTD1,"aw",%nobits
 1087              		.align	2
 1088              		.set	.LANCHOR1,. + 0
 1089              		.type	UARTD1, %object
 1090              		.size	UARTD1, 28
 1091              	UARTD1:
 1092 0000 00000000 		.space	28
 1092      00000000 
 1092      00000000 
 1092      00000000 
 1092      00000000 
 1093              		.section	.rodata.str1.4,"aMS",%progbits,1
 1094              		.align	2
 1095              	.LC0:
 1096 0000 444D4120 		.ascii	"DMA failure\000"
 1096      6661696C 
 1096      75726500 
 1097              		.section	.rodata.__func__.7633,"a",%progbits
 1098              		.align	2
 1099              		.set	.LANCHOR0,. + 0
 1100              		.type	__func__.7633, %object
 1101              		.size	__func__.7633, 9
 1102              	__func__.7633:
 1103 0000 56656374 		.ascii	"VectorD4\000"
 1103      6F724434 
 1103      00
 1104 0009 000000   		.text
 1105              	.Letext0:
 1106              		.file 3 "/usr/lib/gcc/arm-none-eabi/4.8.2/include/stddef.h"
 1107              		.file 4 "/usr/include/newlib/machine/_default_types.h"
 1108              		.file 5 "/usr/include/newlib/stdint.h"
 1109              		.file 6 "../../../../../ChibiOS-RT/os/common/ports/ARMCMx/compilers/GCC/chtypes.h"
 1110              		.file 7 "../../../../../ChibiOS-RT/os/rt/include/chsystypes.h"
 1111              		.file 8 "../../../../../ChibiOS-RT/os/rt/include/chschd.h"
 1112              		.file 9 "../../../../../ChibiOS-RT/os/common/ext/CMSIS/ST/STM32F4xx/stm32f401xe.h"
 1113              		.file 10 "../../../../../ChibiOS-RT/os/common/ports/ARMCMx/chcore.h"
 1114              		.file 11 "../../../../../ChibiOS-RT/os/common/ports/ARMCMx/chcore_v7m.h"
 1115              		.file 12 "../../../../../ChibiOS-RT/os/rt/include/chtrace.h"
 1116              		.file 13 "../../../../../ChibiOS-RT/os/rt/include/chtm.h"
 1117              		.file 14 "../../../../../ChibiOS-RT/os/rt/include/chsem.h"
 1118              		.file 15 "../../../../../ChibiOS-RT/os/rt/include/chmtx.h"
 1119              		.file 16 "../../../../../ChibiOS-RT/os/hal/ports/STM32/LLD/DMAv2/stm32_dma.h"
 1120              		.file 17 "../../../../../ChibiOS-RT/os/hal/include/hal_uart.h"
 1121              		.file 18 "../../../../../ChibiOS-RT/os/hal/ports/STM32/LLD/USARTv1/hal_uart_lld.h"
 1122              		.file 19 "../../../../../ChibiOS-RT/os/common/ext/CMSIS/include/core_cm4.h"
 1123              		.file 20 "../../../../../ChibiOS-RT/os/rt/include/chsys.h"
 1124              		.file 21 "../../../../../ChibiOS-RT/os/hal/ports/common/ARMCMx/nvic.h"