ARM GAS  /tmp/cczdLhzH.s 			page 1


   1              		.syntax unified
   2              		.cpu cortex-m4
   3              		.fpu softvfp
   4              		.eabi_attribute 20, 1
   5              		.eabi_attribute 21, 1
   6              		.eabi_attribute 23, 3
   7              		.eabi_attribute 24, 1
   8              		.eabi_attribute 25, 1
   9              		.eabi_attribute 26, 1
  10              		.eabi_attribute 30, 2
  11              		.eabi_attribute 34, 1
  12              		.eabi_attribute 18, 4
  13              		.thumb
  14              		.file	"hal_pal.c"
  15              		.text
  16              	.Ltext0:
  17              		.cfi_sections	.debug_frame
  18              		.section	.text.palReadBus,"ax",%progbits
  19              		.align	2
  20              		.p2align 4,,15
  21              		.global	palReadBus
  22              		.thumb
  23              		.thumb_func
  24              		.type	palReadBus, %function
  25              	palReadBus:
  26              	.LFB270:
  27              		.file 1 "../../../../../ChibiOS-RT/os/hal/src/hal_pal.c"
  28              		.loc 1 65 0
  29              		.cfi_startproc
  30              		@ args = 0, pretend = 0, frame = 0
  31              		@ frame_needed = 0, uses_anonymous_args = 0
  32              		@ link register save eliminated.
  33              	.LVL0:
  34              		.loc 1 69 0
  35 0000 0368     		ldr	r3, [r0]
  36 0002 8268     		ldr	r2, [r0, #8]
  37 0004 1969     		ldr	r1, [r3, #16]
  38 0006 4368     		ldr	r3, [r0, #4]
  39 0008 21FA02F0 		lsr	r0, r1, r2
  40              	.LVL1:
  41              		.loc 1 70 0
  42 000c 1840     		ands	r0, r0, r3
  43 000e 7047     		bx	lr
  44              		.cfi_endproc
  45              	.LFE270:
  46              		.size	palReadBus, .-palReadBus
  47              		.section	.text.palWriteBus,"ax",%progbits
  48              		.align	2
  49              		.p2align 4,,15
  50              		.global	palWriteBus
  51              		.thumb
  52              		.thumb_func
  53              		.type	palWriteBus, %function
  54              	palWriteBus:
  55              	.LFB271:
  56              		.loc 1 90 0
  57              		.cfi_startproc
ARM GAS  /tmp/cczdLhzH.s 			page 2


  58              		@ args = 0, pretend = 0, frame = 0
  59              		@ frame_needed = 0, uses_anonymous_args = 0
  60              		@ link register save eliminated.
  61              	.LVL2:
  62              		.loc 1 94 0
  63 0000 0DC8     		ldmia	r0, {r0, r2, r3}
  64              	.LVL3:
  65              		.loc 1 90 0
  66 0002 30B4     		push	{r4, r5}
  67              		.cfi_def_cfa_offset 8
  68              		.cfi_offset 4, -8
  69              		.cfi_offset 5, -4
  70              		.loc 1 94 0
  71 0004 22EA0105 		bic	r5, r2, r1
  72 0008 03F11004 		add	r4, r3, #16
  73 000c 0A40     		ands	r2, r2, r1
  74 000e 02FA03F3 		lsl	r3, r2, r3
  75 0012 05FA04F2 		lsl	r2, r5, r4
  76 0016 1343     		orrs	r3, r3, r2
  77 0018 8361     		str	r3, [r0, #24]
  78              		.loc 1 95 0
  79 001a 30BC     		pop	{r4, r5}
  80 001c 7047     		bx	lr
  81              		.cfi_endproc
  82              	.LFE271:
  83              		.size	palWriteBus, .-palWriteBus
  84 001e 00BF     		.section	.text.palSetBusMode,"ax",%progbits
  85              		.align	2
  86              		.p2align 4,,15
  87              		.global	palSetBusMode
  88              		.thumb
  89              		.thumb_func
  90              		.type	palSetBusMode, %function
  91              	palSetBusMode:
  92              	.LFB272:
  93              		.loc 1 113 0
  94              		.cfi_startproc
  95              		@ args = 0, pretend = 0, frame = 0
  96              		@ frame_needed = 0, uses_anonymous_args = 0
  97              		@ link register save eliminated.
  98              	.LVL4:
  99 0000 10B4     		push	{r4}
 100              		.cfi_def_cfa_offset 4
 101              		.cfi_offset 4, -4
 102              		.loc 1 113 0
 103 0002 0A46     		mov	r2, r1
 104              		.loc 1 117 0
 105 0004 4468     		ldr	r4, [r0, #4]
 106 0006 8168     		ldr	r1, [r0, #8]
 107              	.LVL5:
 108 0008 0068     		ldr	r0, [r0]
 109              	.LVL6:
 110 000a 04FA01F1 		lsl	r1, r4, r1
 111              		.loc 1 118 0
 112 000e 5DF8044B 		ldr	r4, [sp], #4
 113              		.loc 1 117 0
 114 0012 FFF7FEBF 		b	_pal_lld_setgroupmode
ARM GAS  /tmp/cczdLhzH.s 			page 3


 115              	.LVL7:
 116              		.cfi_endproc
 117              	.LFE272:
 118              		.size	palSetBusMode, .-palSetBusMode
 119 0016 00BFAFF3 		.text
 119      0080AFF3 
 119      0080
 120              	.Letext0:
 121              		.file 2 "/usr/include/newlib/machine/_default_types.h"
 122              		.file 3 "/usr/include/newlib/stdint.h"
 123              		.file 4 "../../../../../ChibiOS-RT/os/common/ports/ARMCMx/compilers/GCC/chtypes.h"
 124              		.file 5 "../../../../../ChibiOS-RT/os/rt/include/chsystypes.h"
 125              		.file 6 "../../../../../ChibiOS-RT/os/rt/include/chschd.h"
 126              		.file 7 "../../../../../ChibiOS-RT/os/common/ports/ARMCMx/chcore.h"
 127              		.file 8 "../../../../../ChibiOS-RT/os/common/ports/ARMCMx/chcore_v7m.h"
 128              		.file 9 "../../../../../ChibiOS-RT/os/rt/include/chtrace.h"
 129              		.file 10 "../../../../../ChibiOS-RT/os/rt/include/chtm.h"
 130              		.file 11 "../../../../../ChibiOS-RT/os/rt/include/chsem.h"
 131              		.file 12 "../../../../../ChibiOS-RT/os/rt/include/chmtx.h"
 132              		.file 13 "../../../../../ChibiOS-RT/os/hal/ports/STM32/LLD/GPIOv2/hal_pal_lld.h"
 133              		.file 14 "../../../../../ChibiOS-RT/os/hal/include/hal_pal.h"
 134              		.file 15 "../../../../../ChibiOS-RT/os/common/ext/CMSIS/include/core_cm4.h"
 135              		.section	.debug_info,"",%progbits
 136              	.Ldebug_info0:
 137 0000 F1090000 		.4byte	0x9f1
 138 0004 0400     		.2byte	0x4
 139 0006 00000000 		.4byte	.Ldebug_abbrev0
 140 000a 04       		.byte	0x4
 141 000b 01       		.uleb128 0x1
 142 000c 6C000000 		.4byte	.LASF127
 143 0010 01       		.byte	0x1
 144 0011 93010000 		.4byte	.LASF128
 145 0015 90020000 		.4byte	.LASF129
 146 0019 00000000 		.4byte	.Ldebug_ranges0+0
 147 001d 00000000 		.4byte	0
 148 0021 00000000 		.4byte	.Ldebug_line0
 149 0025 02       		.uleb128 0x2
 150 0026 04       		.byte	0x4
 151 0027 05       		.byte	0x5
 152 0028 696E7400 		.ascii	"int\000"
 153 002c 03       		.uleb128 0x3
 154 002d 04       		.byte	0x4
 155 002e 07       		.byte	0x7
 156 002f 83020000 		.4byte	.LASF0
 157 0033 03       		.uleb128 0x3
 158 0034 01       		.byte	0x1
 159 0035 06       		.byte	0x6
 160 0036 D0010000 		.4byte	.LASF1
 161 003a 04       		.uleb128 0x4
 162 003b 2E000000 		.4byte	.LASF4
 163 003f 02       		.byte	0x2
 164 0040 1C       		.byte	0x1c
 165 0041 45000000 		.4byte	0x45
 166 0045 03       		.uleb128 0x3
 167 0046 01       		.byte	0x1
 168 0047 08       		.byte	0x8
 169 0048 A8040000 		.4byte	.LASF2
ARM GAS  /tmp/cczdLhzH.s 			page 4


 170 004c 03       		.uleb128 0x3
 171 004d 02       		.byte	0x2
 172 004e 05       		.byte	0x5
 173 004f B6040000 		.4byte	.LASF3
 174 0053 04       		.uleb128 0x4
 175 0054 57050000 		.4byte	.LASF5
 176 0058 02       		.byte	0x2
 177 0059 26       		.byte	0x26
 178 005a 5E000000 		.4byte	0x5e
 179 005e 03       		.uleb128 0x3
 180 005f 02       		.byte	0x2
 181 0060 07       		.byte	0x7
 182 0061 3D030000 		.4byte	.LASF6
 183 0065 04       		.uleb128 0x4
 184 0066 97030000 		.4byte	.LASF7
 185 006a 02       		.byte	0x2
 186 006b 37       		.byte	0x37
 187 006c 70000000 		.4byte	0x70
 188 0070 03       		.uleb128 0x3
 189 0071 04       		.byte	0x4
 190 0072 05       		.byte	0x5
 191 0073 F8010000 		.4byte	.LASF8
 192 0077 04       		.uleb128 0x4
 193 0078 38020000 		.4byte	.LASF9
 194 007c 02       		.byte	0x2
 195 007d 38       		.byte	0x38
 196 007e 82000000 		.4byte	0x82
 197 0082 03       		.uleb128 0x3
 198 0083 04       		.byte	0x4
 199 0084 07       		.byte	0x7
 200 0085 15030000 		.4byte	.LASF10
 201 0089 03       		.uleb128 0x3
 202 008a 08       		.byte	0x8
 203 008b 05       		.byte	0x5
 204 008c C2010000 		.4byte	.LASF11
 205 0090 04       		.uleb128 0x4
 206 0091 BA030000 		.4byte	.LASF12
 207 0095 02       		.byte	0x2
 208 0096 4E       		.byte	0x4e
 209 0097 9B000000 		.4byte	0x9b
 210 009b 03       		.uleb128 0x3
 211 009c 08       		.byte	0x8
 212 009d 07       		.byte	0x7
 213 009e 0F010000 		.4byte	.LASF13
 214 00a2 04       		.uleb128 0x4
 215 00a3 E3050000 		.4byte	.LASF14
 216 00a7 03       		.byte	0x3
 217 00a8 2A       		.byte	0x2a
 218 00a9 3A000000 		.4byte	0x3a
 219 00ad 04       		.uleb128 0x4
 220 00ae 20020000 		.4byte	.LASF15
 221 00b2 03       		.byte	0x3
 222 00b3 36       		.byte	0x36
 223 00b4 53000000 		.4byte	0x53
 224 00b8 04       		.uleb128 0x4
 225 00b9 A0040000 		.4byte	.LASF16
 226 00bd 03       		.byte	0x3
ARM GAS  /tmp/cczdLhzH.s 			page 5


 227 00be 41       		.byte	0x41
 228 00bf 65000000 		.4byte	0x65
 229 00c3 04       		.uleb128 0x4
 230 00c4 1A050000 		.4byte	.LASF17
 231 00c8 03       		.byte	0x3
 232 00c9 42       		.byte	0x42
 233 00ca 77000000 		.4byte	0x77
 234 00ce 04       		.uleb128 0x4
 235 00cf 25000000 		.4byte	.LASF18
 236 00d3 03       		.byte	0x3
 237 00d4 4E       		.byte	0x4e
 238 00d5 90000000 		.4byte	0x90
 239 00d9 04       		.uleb128 0x4
 240 00da DF040000 		.4byte	.LASF19
 241 00de 03       		.byte	0x3
 242 00df 60       		.byte	0x60
 243 00e0 2C000000 		.4byte	0x2c
 244 00e4 04       		.uleb128 0x4
 245 00e5 B0050000 		.4byte	.LASF20
 246 00e9 04       		.byte	0x4
 247 00ea 39       		.byte	0x39
 248 00eb C3000000 		.4byte	0xc3
 249 00ef 04       		.uleb128 0x4
 250 00f0 75030000 		.4byte	.LASF21
 251 00f4 04       		.byte	0x4
 252 00f5 3C       		.byte	0x3c
 253 00f6 A2000000 		.4byte	0xa2
 254 00fa 04       		.uleb128 0x4
 255 00fb 01020000 		.4byte	.LASF22
 256 00ff 04       		.byte	0x4
 257 0100 3D       		.byte	0x3d
 258 0101 A2000000 		.4byte	0xa2
 259 0105 04       		.uleb128 0x4
 260 0106 60040000 		.4byte	.LASF23
 261 010a 04       		.byte	0x4
 262 010b 3E       		.byte	0x3e
 263 010c A2000000 		.4byte	0xa2
 264 0110 04       		.uleb128 0x4
 265 0111 82040000 		.4byte	.LASF24
 266 0115 04       		.byte	0x4
 267 0116 40       		.byte	0x40
 268 0117 C3000000 		.4byte	0xc3
 269 011b 04       		.uleb128 0x4
 270 011c 5A030000 		.4byte	.LASF25
 271 0120 04       		.byte	0x4
 272 0121 41       		.byte	0x41
 273 0122 B8000000 		.4byte	0xb8
 274 0126 04       		.uleb128 0x4
 275 0127 8B030000 		.4byte	.LASF26
 276 012b 04       		.byte	0x4
 277 012c 43       		.byte	0x43
 278 012d C3000000 		.4byte	0xc3
 279 0131 04       		.uleb128 0x4
 280 0132 74020000 		.4byte	.LASF27
 281 0136 04       		.byte	0x4
 282 0137 45       		.byte	0x45
 283 0138 B8000000 		.4byte	0xb8
ARM GAS  /tmp/cczdLhzH.s 			page 6


 284 013c 04       		.uleb128 0x4
 285 013d 6B050000 		.4byte	.LASF28
 286 0141 05       		.byte	0x5
 287 0142 33       		.byte	0x33
 288 0143 C3000000 		.4byte	0xc3
 289 0147 04       		.uleb128 0x4
 290 0148 62050000 		.4byte	.LASF29
 291 014c 05       		.byte	0x5
 292 014d 3F       		.byte	0x3f
 293 014e 52010000 		.4byte	0x152
 294 0152 05       		.uleb128 0x5
 295 0153 50030000 		.4byte	.LASF47
 296 0157 44       		.byte	0x44
 297 0158 06       		.byte	0x6
 298 0159 9A       		.byte	0x9a
 299 015a 30020000 		.4byte	0x230
 300 015e 06       		.uleb128 0x6
 301 015f 31030000 		.4byte	.LASF30
 302 0163 06       		.byte	0x6
 303 0164 9B       		.byte	0x9b
 304 0165 65020000 		.4byte	0x265
 305 0169 00       		.byte	0
 306 016a 06       		.uleb128 0x6
 307 016b 34040000 		.4byte	.LASF31
 308 016f 06       		.byte	0x6
 309 0170 9C       		.byte	0x9c
 310 0171 10010000 		.4byte	0x110
 311 0175 08       		.byte	0x8
 312 0176 07       		.uleb128 0x7
 313 0177 63747800 		.ascii	"ctx\000"
 314 017b 06       		.byte	0x6
 315 017c 9D       		.byte	0x9d
 316 017d 73040000 		.4byte	0x473
 317 0181 0C       		.byte	0xc
 318 0182 06       		.uleb128 0x6
 319 0183 AC030000 		.4byte	.LASF32
 320 0187 06       		.byte	0x6
 321 0188 9F       		.byte	0x9f
 322 0189 3B020000 		.4byte	0x23b
 323 018d 10       		.byte	0x10
 324 018e 06       		.uleb128 0x6
 325 018f 4C050000 		.4byte	.LASF33
 326 0193 06       		.byte	0x6
 327 0194 A0       		.byte	0xa0
 328 0195 3B020000 		.4byte	0x23b
 329 0199 14       		.byte	0x14
 330 019a 06       		.uleb128 0x6
 331 019b 2C030000 		.4byte	.LASF34
 332 019f 06       		.byte	0x6
 333 01a0 A7       		.byte	0xa7
 334 01a1 43050000 		.4byte	0x543
 335 01a5 18       		.byte	0x18
 336 01a6 06       		.uleb128 0x6
 337 01a7 40050000 		.4byte	.LASF35
 338 01ab 06       		.byte	0x6
 339 01ac B0       		.byte	0xb0
 340 01ad 5C070000 		.4byte	0x75c
ARM GAS  /tmp/cczdLhzH.s 			page 7


 341 01b1 1C       		.byte	0x1c
 342 01b2 06       		.uleb128 0x6
 343 01b3 ED010000 		.4byte	.LASF36
 344 01b7 06       		.byte	0x6
 345 01b8 B5       		.byte	0xb5
 346 01b9 FA000000 		.4byte	0xfa
 347 01bd 20       		.byte	0x20
 348 01be 06       		.uleb128 0x6
 349 01bf EB050000 		.4byte	.LASF37
 350 01c3 06       		.byte	0x6
 351 01c4 B9       		.byte	0xb9
 352 01c5 EF000000 		.4byte	0xef
 353 01c9 21       		.byte	0x21
 354 01ca 06       		.uleb128 0x6
 355 01cb 68040000 		.4byte	.LASF38
 356 01cf 06       		.byte	0x6
 357 01d0 BE       		.byte	0xbe
 358 01d1 05010000 		.4byte	0x105
 359 01d5 22       		.byte	0x22
 360 01d6 08       		.uleb128 0x8
 361 01d7 7500     		.ascii	"u\000"
 362 01d9 06       		.byte	0x6
 363 01da 0F01     		.2byte	0x10f
 364 01dc 91060000 		.4byte	0x691
 365 01e0 24       		.byte	0x24
 366 01e1 09       		.uleb128 0x9
 367 01e2 51020000 		.4byte	.LASF39
 368 01e6 06       		.byte	0x6
 369 01e7 1401     		.2byte	0x114
 370 01e9 41020000 		.4byte	0x241
 371 01ed 28       		.byte	0x28
 372 01ee 09       		.uleb128 0x9
 373 01ef 7A020000 		.4byte	.LASF40
 374 01f3 06       		.byte	0x6
 375 01f4 1A01     		.2byte	0x11a
 376 01f6 65020000 		.4byte	0x265
 377 01fa 2C       		.byte	0x2c
 378 01fb 09       		.uleb128 0x9
 379 01fc 60030000 		.4byte	.LASF41
 380 0200 06       		.byte	0x6
 381 0201 2001     		.2byte	0x120
 382 0203 26010000 		.4byte	0x126
 383 0207 34       		.byte	0x34
 384 0208 09       		.uleb128 0x9
 385 0209 14060000 		.4byte	.LASF42
 386 020d 06       		.byte	0x6
 387 020e 2701     		.2byte	0x127
 388 0210 56070000 		.4byte	0x756
 389 0214 38       		.byte	0x38
 390 0215 09       		.uleb128 0x9
 391 0216 C5030000 		.4byte	.LASF43
 392 021a 06       		.byte	0x6
 393 021b 2B01     		.2byte	0x12b
 394 021d 10010000 		.4byte	0x110
 395 0221 3C       		.byte	0x3c
 396 0222 09       		.uleb128 0x9
 397 0223 37030000 		.4byte	.LASF44
ARM GAS  /tmp/cczdLhzH.s 			page 8


 398 0227 06       		.byte	0x6
 399 0228 3201     		.2byte	0x132
 400 022a 18030000 		.4byte	0x318
 401 022e 40       		.byte	0x40
 402 022f 00       		.byte	0
 403 0230 04       		.uleb128 0x4
 404 0231 D7030000 		.4byte	.LASF45
 405 0235 05       		.byte	0x5
 406 0236 44       		.byte	0x44
 407 0237 3B020000 		.4byte	0x23b
 408 023b 0A       		.uleb128 0xa
 409 023c 04       		.byte	0x4
 410 023d 47010000 		.4byte	0x147
 411 0241 04       		.uleb128 0x4
 412 0242 F8050000 		.4byte	.LASF46
 413 0246 05       		.byte	0x5
 414 0247 49       		.byte	0x49
 415 0248 4C020000 		.4byte	0x24c
 416 024c 05       		.uleb128 0x5
 417 024d 2A050000 		.4byte	.LASF48
 418 0251 04       		.byte	0x4
 419 0252 06       		.byte	0x6
 420 0253 88       		.byte	0x88
 421 0254 65020000 		.4byte	0x265
 422 0258 06       		.uleb128 0x6
 423 0259 7D010000 		.4byte	.LASF49
 424 025d 06       		.byte	0x6
 425 025e 89       		.byte	0x89
 426 025f 3B020000 		.4byte	0x23b
 427 0263 00       		.byte	0
 428 0264 00       		.byte	0
 429 0265 04       		.uleb128 0x4
 430 0266 C4050000 		.4byte	.LASF50
 431 026a 05       		.byte	0x5
 432 026b 50       		.byte	0x50
 433 026c 70020000 		.4byte	0x270
 434 0270 05       		.uleb128 0x5
 435 0271 82010000 		.4byte	.LASF51
 436 0275 08       		.byte	0x8
 437 0276 06       		.byte	0x6
 438 0277 8F       		.byte	0x8f
 439 0278 95020000 		.4byte	0x295
 440 027c 06       		.uleb128 0x6
 441 027d 7D010000 		.4byte	.LASF49
 442 0281 06       		.byte	0x6
 443 0282 90       		.byte	0x90
 444 0283 3B020000 		.4byte	0x23b
 445 0287 00       		.byte	0
 446 0288 06       		.uleb128 0x6
 447 0289 00000000 		.4byte	.LASF52
 448 028d 06       		.byte	0x6
 449 028e 91       		.byte	0x91
 450 028f 3B020000 		.4byte	0x23b
 451 0293 04       		.byte	0x4
 452 0294 00       		.byte	0
 453 0295 04       		.uleb128 0x4
 454 0296 05000000 		.4byte	.LASF53
ARM GAS  /tmp/cczdLhzH.s 			page 9


 455 029a 05       		.byte	0x5
 456 029b 57       		.byte	0x57
 457 029c A0020000 		.4byte	0x2a0
 458 02a0 0B       		.uleb128 0xb
 459 02a1 7D030000 		.4byte	.LASF54
 460 02a5 1C       		.byte	0x1c
 461 02a6 06       		.byte	0x6
 462 02a7 6A01     		.2byte	0x16a
 463 02a9 FC020000 		.4byte	0x2fc
 464 02ad 09       		.uleb128 0x9
 465 02ae 31030000 		.4byte	.LASF30
 466 02b2 06       		.byte	0x6
 467 02b3 6B01     		.2byte	0x16b
 468 02b5 65020000 		.4byte	0x265
 469 02b9 00       		.byte	0
 470 02ba 09       		.uleb128 0x9
 471 02bb 34040000 		.4byte	.LASF31
 472 02bf 06       		.byte	0x6
 473 02c0 6C01     		.2byte	0x16c
 474 02c2 10010000 		.4byte	0x110
 475 02c6 08       		.byte	0x8
 476 02c7 08       		.uleb128 0x8
 477 02c8 63747800 		.ascii	"ctx\000"
 478 02cc 06       		.byte	0x6
 479 02cd 6E01     		.2byte	0x16e
 480 02cf 73040000 		.4byte	0x473
 481 02d3 0C       		.byte	0xc
 482 02d4 09       		.uleb128 0x9
 483 02d5 AC030000 		.4byte	.LASF32
 484 02d9 06       		.byte	0x6
 485 02da 7101     		.2byte	0x171
 486 02dc 3B020000 		.4byte	0x23b
 487 02e0 10       		.byte	0x10
 488 02e1 09       		.uleb128 0x9
 489 02e2 4C050000 		.4byte	.LASF33
 490 02e6 06       		.byte	0x6
 491 02e7 7201     		.2byte	0x172
 492 02e9 3B020000 		.4byte	0x23b
 493 02ed 14       		.byte	0x14
 494 02ee 09       		.uleb128 0x9
 495 02ef 39040000 		.4byte	.LASF55
 496 02f3 06       		.byte	0x6
 497 02f4 7501     		.2byte	0x175
 498 02f6 3B020000 		.4byte	0x23b
 499 02fa 18       		.byte	0x18
 500 02fb 00       		.byte	0
 501 02fc 04       		.uleb128 0x4
 502 02fd 75050000 		.4byte	.LASF56
 503 0301 05       		.byte	0x5
 504 0302 5C       		.byte	0x5c
 505 0303 07030000 		.4byte	0x307
 506 0307 0A       		.uleb128 0xa
 507 0308 04       		.byte	0x4
 508 0309 0D030000 		.4byte	0x30d
 509 030d 0C       		.uleb128 0xc
 510 030e 18030000 		.4byte	0x318
 511 0312 0D       		.uleb128 0xd
ARM GAS  /tmp/cczdLhzH.s 			page 10


 512 0313 18030000 		.4byte	0x318
 513 0317 00       		.byte	0
 514 0318 0E       		.uleb128 0xe
 515 0319 04       		.byte	0x4
 516 031a 04       		.uleb128 0x4
 517 031b 6D040000 		.4byte	.LASF57
 518 031f 05       		.byte	0x5
 519 0320 61       		.byte	0x61
 520 0321 25030000 		.4byte	0x325
 521 0325 0B       		.uleb128 0xb
 522 0326 FC040000 		.4byte	.LASF58
 523 032a 14       		.byte	0x14
 524 032b 06       		.byte	0x6
 525 032c 4501     		.2byte	0x145
 526 032e 74030000 		.4byte	0x374
 527 0332 09       		.uleb128 0x9
 528 0333 7D010000 		.4byte	.LASF49
 529 0337 06       		.byte	0x6
 530 0338 4601     		.2byte	0x146
 531 033a 62070000 		.4byte	0x762
 532 033e 00       		.byte	0
 533 033f 09       		.uleb128 0x9
 534 0340 00000000 		.4byte	.LASF52
 535 0344 06       		.byte	0x6
 536 0345 4701     		.2byte	0x147
 537 0347 62070000 		.4byte	0x762
 538 034b 04       		.byte	0x4
 539 034c 09       		.uleb128 0x9
 540 034d 18000000 		.4byte	.LASF59
 541 0351 06       		.byte	0x6
 542 0352 4801     		.2byte	0x148
 543 0354 3C010000 		.4byte	0x13c
 544 0358 08       		.byte	0x8
 545 0359 09       		.uleb128 0x9
 546 035a 1B020000 		.4byte	.LASF60
 547 035e 06       		.byte	0x6
 548 035f 4901     		.2byte	0x149
 549 0361 FC020000 		.4byte	0x2fc
 550 0365 0C       		.byte	0xc
 551 0366 08       		.uleb128 0x8
 552 0367 70617200 		.ascii	"par\000"
 553 036b 06       		.byte	0x6
 554 036c 4B01     		.2byte	0x14b
 555 036e 18030000 		.4byte	0x318
 556 0372 10       		.byte	0x10
 557 0373 00       		.byte	0
 558 0374 04       		.uleb128 0x4
 559 0375 5A010000 		.4byte	.LASF61
 560 0379 05       		.byte	0x5
 561 037a 66       		.byte	0x66
 562 037b 7F030000 		.4byte	0x37f
 563 037f 0B       		.uleb128 0xb
 564 0380 EA030000 		.4byte	.LASF62
 565 0384 10       		.byte	0x10
 566 0385 06       		.byte	0x6
 567 0386 5501     		.2byte	0x155
 568 0388 C1030000 		.4byte	0x3c1
ARM GAS  /tmp/cczdLhzH.s 			page 11


 569 038c 09       		.uleb128 0x9
 570 038d 7D010000 		.4byte	.LASF49
 571 0391 06       		.byte	0x6
 572 0392 5601     		.2byte	0x156
 573 0394 62070000 		.4byte	0x762
 574 0398 00       		.byte	0
 575 0399 09       		.uleb128 0x9
 576 039a 00000000 		.4byte	.LASF52
 577 039e 06       		.byte	0x6
 578 039f 5801     		.2byte	0x158
 579 03a1 62070000 		.4byte	0x762
 580 03a5 04       		.byte	0x4
 581 03a6 09       		.uleb128 0x9
 582 03a7 18000000 		.4byte	.LASF59
 583 03ab 06       		.byte	0x6
 584 03ac 5A01     		.2byte	0x15a
 585 03ae 3C010000 		.4byte	0x13c
 586 03b2 08       		.byte	0x8
 587 03b3 09       		.uleb128 0x9
 588 03b4 C0040000 		.4byte	.LASF63
 589 03b8 06       		.byte	0x6
 590 03b9 6201     		.2byte	0x162
 591 03bb 3C010000 		.4byte	0x13c
 592 03bf 0C       		.byte	0xc
 593 03c0 00       		.byte	0
 594 03c1 04       		.uleb128 0x4
 595 03c2 4B000000 		.4byte	.LASF64
 596 03c6 05       		.byte	0x5
 597 03c7 6B       		.byte	0x6b
 598 03c8 CC030000 		.4byte	0x3cc
 599 03cc 0F       		.uleb128 0xf
 600 03cd 8A040000 		.4byte	.LASF65
 601 03d1 0C08     		.2byte	0x80c
 602 03d3 06       		.byte	0x6
 603 03d4 7C01     		.2byte	0x17c
 604 03d6 F5030000 		.4byte	0x3f5
 605 03da 09       		.uleb128 0x9
 606 03db 7E050000 		.4byte	.LASF66
 607 03df 06       		.byte	0x6
 608 03e0 8401     		.2byte	0x184
 609 03e2 68070000 		.4byte	0x768
 610 03e6 00       		.byte	0
 611 03e7 09       		.uleb128 0x9
 612 03e8 07060000 		.4byte	.LASF67
 613 03ec 06       		.byte	0x6
 614 03ed 9301     		.2byte	0x193
 615 03ef 66060000 		.4byte	0x666
 616 03f3 04       		.byte	0x4
 617 03f4 00       		.byte	0
 618 03f5 04       		.uleb128 0x4
 619 03f6 69030000 		.4byte	.LASF68
 620 03fa 05       		.byte	0x5
 621 03fb 70       		.byte	0x70
 622 03fc 00040000 		.4byte	0x400
 623 0400 0F       		.uleb128 0xf
 624 0401 D5040000 		.4byte	.LASF69
 625 0405 8008     		.2byte	0x880
ARM GAS  /tmp/cczdLhzH.s 			page 12


 626 0407 06       		.byte	0x6
 627 0408 9C01     		.2byte	0x19c
 628 040a 51040000 		.4byte	0x451
 629 040e 09       		.uleb128 0x9
 630 040f DD050000 		.4byte	.LASF70
 631 0413 06       		.byte	0x6
 632 0414 A001     		.2byte	0x1a0
 633 0416 95020000 		.4byte	0x295
 634 041a 00       		.byte	0
 635 041b 09       		.uleb128 0x9
 636 041c E6010000 		.4byte	.LASF71
 637 0420 06       		.byte	0x6
 638 0421 A401     		.2byte	0x1a4
 639 0423 74030000 		.4byte	0x374
 640 0427 1C       		.byte	0x1c
 641 0428 08       		.uleb128 0x8
 642 0429 64626700 		.ascii	"dbg\000"
 643 042d 06       		.byte	0x6
 644 042e A801     		.2byte	0x1a8
 645 0430 C1030000 		.4byte	0x3c1
 646 0434 2C       		.byte	0x2c
 647 0435 10       		.uleb128 0x10
 648 0436 47010000 		.4byte	.LASF72
 649 043a 06       		.byte	0x6
 650 043b AC01     		.2byte	0x1ac
 651 043d 47010000 		.4byte	0x147
 652 0441 3808     		.2byte	0x838
 653 0443 11       		.uleb128 0x11
 654 0444 746D00   		.ascii	"tm\000"
 655 0447 06       		.byte	0x6
 656 0448 B101     		.2byte	0x1b1
 657 044a 86060000 		.4byte	0x686
 658 044e 7C08     		.2byte	0x87c
 659 0450 00       		.byte	0
 660 0451 03       		.uleb128 0x3
 661 0452 04       		.byte	0x4
 662 0453 07       		.byte	0x7
 663 0454 CE030000 		.4byte	.LASF73
 664 0458 12       		.uleb128 0x12
 665 0459 C3000000 		.4byte	0xc3
 666 045d 04       		.uleb128 0x4
 667 045e 48020000 		.4byte	.LASF74
 668 0462 07       		.byte	0x7
 669 0463 65       		.byte	0x65
 670 0464 18030000 		.4byte	0x318
 671 0468 04       		.uleb128 0x4
 672 0469 A1030000 		.4byte	.LASF75
 673 046d 07       		.byte	0x7
 674 046e 6D       		.byte	0x6d
 675 046f CE000000 		.4byte	0xce
 676 0473 05       		.uleb128 0x5
 677 0474 11040000 		.4byte	.LASF76
 678 0478 04       		.byte	0x4
 679 0479 07       		.byte	0x7
 680 047a 89       		.byte	0x89
 681 047b 8B040000 		.4byte	0x48b
 682 047f 07       		.uleb128 0x7
ARM GAS  /tmp/cczdLhzH.s 			page 13


 683 0480 737000   		.ascii	"sp\000"
 684 0483 07       		.byte	0x7
 685 0484 8A       		.byte	0x8a
 686 0485 07050000 		.4byte	0x507
 687 0489 00       		.byte	0
 688 048a 00       		.byte	0
 689 048b 0B       		.uleb128 0xb
 690 048c 3F000000 		.4byte	.LASF77
 691 0490 24       		.byte	0x24
 692 0491 08       		.byte	0x8
 693 0492 5901     		.2byte	0x159
 694 0494 07050000 		.4byte	0x507
 695 0498 08       		.uleb128 0x8
 696 0499 723400   		.ascii	"r4\000"
 697 049c 08       		.byte	0x8
 698 049d 6C01     		.2byte	0x16c
 699 049f 5D040000 		.4byte	0x45d
 700 04a3 00       		.byte	0
 701 04a4 08       		.uleb128 0x8
 702 04a5 723500   		.ascii	"r5\000"
 703 04a8 08       		.byte	0x8
 704 04a9 6D01     		.2byte	0x16d
 705 04ab 5D040000 		.4byte	0x45d
 706 04af 04       		.byte	0x4
 707 04b0 08       		.uleb128 0x8
 708 04b1 723600   		.ascii	"r6\000"
 709 04b4 08       		.byte	0x8
 710 04b5 6E01     		.2byte	0x16e
 711 04b7 5D040000 		.4byte	0x45d
 712 04bb 08       		.byte	0x8
 713 04bc 08       		.uleb128 0x8
 714 04bd 723700   		.ascii	"r7\000"
 715 04c0 08       		.byte	0x8
 716 04c1 6F01     		.2byte	0x16f
 717 04c3 5D040000 		.4byte	0x45d
 718 04c7 0C       		.byte	0xc
 719 04c8 08       		.uleb128 0x8
 720 04c9 723800   		.ascii	"r8\000"
 721 04cc 08       		.byte	0x8
 722 04cd 7001     		.2byte	0x170
 723 04cf 5D040000 		.4byte	0x45d
 724 04d3 10       		.byte	0x10
 725 04d4 08       		.uleb128 0x8
 726 04d5 723900   		.ascii	"r9\000"
 727 04d8 08       		.byte	0x8
 728 04d9 7101     		.2byte	0x171
 729 04db 5D040000 		.4byte	0x45d
 730 04df 14       		.byte	0x14
 731 04e0 08       		.uleb128 0x8
 732 04e1 72313000 		.ascii	"r10\000"
 733 04e5 08       		.byte	0x8
 734 04e6 7201     		.2byte	0x172
 735 04e8 5D040000 		.4byte	0x45d
 736 04ec 18       		.byte	0x18
 737 04ed 08       		.uleb128 0x8
 738 04ee 72313100 		.ascii	"r11\000"
 739 04f2 08       		.byte	0x8
ARM GAS  /tmp/cczdLhzH.s 			page 14


 740 04f3 7301     		.2byte	0x173
 741 04f5 5D040000 		.4byte	0x45d
 742 04f9 1C       		.byte	0x1c
 743 04fa 08       		.uleb128 0x8
 744 04fb 6C7200   		.ascii	"lr\000"
 745 04fe 08       		.byte	0x8
 746 04ff 7401     		.2byte	0x174
 747 0501 5D040000 		.4byte	0x45d
 748 0505 20       		.byte	0x20
 749 0506 00       		.byte	0
 750 0507 0A       		.uleb128 0xa
 751 0508 04       		.byte	0x4
 752 0509 8B040000 		.4byte	0x48b
 753 050d 13       		.uleb128 0x13
 754 050e 08       		.byte	0x8
 755 050f 09       		.byte	0x9
 756 0510 80       		.byte	0x80
 757 0511 2E050000 		.4byte	0x52e
 758 0515 07       		.uleb128 0x7
 759 0516 6E747000 		.ascii	"ntp\000"
 760 051a 09       		.byte	0x9
 761 051b 84       		.byte	0x84
 762 051c 3B020000 		.4byte	0x23b
 763 0520 00       		.byte	0
 764 0521 06       		.uleb128 0x6
 765 0522 F1050000 		.4byte	.LASF78
 766 0526 09       		.byte	0x9
 767 0527 88       		.byte	0x88
 768 0528 18030000 		.4byte	0x318
 769 052c 04       		.byte	0x4
 770 052d 00       		.byte	0
 771 052e 13       		.uleb128 0x13
 772 052f 04       		.byte	0x4
 773 0530 09       		.byte	0x9
 774 0531 8D       		.byte	0x8d
 775 0532 43050000 		.4byte	0x543
 776 0536 06       		.uleb128 0x6
 777 0537 2C030000 		.4byte	.LASF34
 778 053b 09       		.byte	0x9
 779 053c 91       		.byte	0x91
 780 053d 43050000 		.4byte	0x543
 781 0541 00       		.byte	0
 782 0542 00       		.byte	0
 783 0543 0A       		.uleb128 0xa
 784 0544 04       		.byte	0x4
 785 0545 49050000 		.4byte	0x549
 786 0549 14       		.uleb128 0x14
 787 054a 4E050000 		.4byte	0x54e
 788 054e 03       		.uleb128 0x3
 789 054f 01       		.byte	0x1
 790 0550 08       		.byte	0x8
 791 0551 47050000 		.4byte	.LASF79
 792 0555 13       		.uleb128 0x13
 793 0556 04       		.byte	0x4
 794 0557 09       		.byte	0x9
 795 0558 96       		.byte	0x96
 796 0559 6A050000 		.4byte	0x56a
ARM GAS  /tmp/cczdLhzH.s 			page 15


 797 055d 06       		.uleb128 0x6
 798 055e F5040000 		.4byte	.LASF80
 799 0562 09       		.byte	0x9
 800 0563 9A       		.byte	0x9a
 801 0564 43050000 		.4byte	0x543
 802 0568 00       		.byte	0
 803 0569 00       		.byte	0
 804 056a 13       		.uleb128 0x13
 805 056b 08       		.byte	0x8
 806 056c 09       		.byte	0x9
 807 056d 9F       		.byte	0x9f
 808 056e 8B050000 		.4byte	0x58b
 809 0572 07       		.uleb128 0x7
 810 0573 75703100 		.ascii	"up1\000"
 811 0577 09       		.byte	0x9
 812 0578 A3       		.byte	0xa3
 813 0579 18030000 		.4byte	0x318
 814 057d 00       		.byte	0
 815 057e 07       		.uleb128 0x7
 816 057f 75703200 		.ascii	"up2\000"
 817 0583 09       		.byte	0x9
 818 0584 A7       		.byte	0xa7
 819 0585 18030000 		.4byte	0x318
 820 0589 04       		.byte	0x4
 821 058a 00       		.byte	0
 822 058b 15       		.uleb128 0x15
 823 058c 08       		.byte	0x8
 824 058d 09       		.byte	0x9
 825 058e 7C       		.byte	0x7c
 826 058f BF050000 		.4byte	0x5bf
 827 0593 16       		.uleb128 0x16
 828 0594 737700   		.ascii	"sw\000"
 829 0597 09       		.byte	0x9
 830 0598 89       		.byte	0x89
 831 0599 0D050000 		.4byte	0x50d
 832 059d 16       		.uleb128 0x16
 833 059e 69737200 		.ascii	"isr\000"
 834 05a2 09       		.byte	0x9
 835 05a3 92       		.byte	0x92
 836 05a4 2E050000 		.4byte	0x52e
 837 05a8 17       		.uleb128 0x17
 838 05a9 C9040000 		.4byte	.LASF81
 839 05ad 09       		.byte	0x9
 840 05ae 9B       		.byte	0x9b
 841 05af 55050000 		.4byte	0x555
 842 05b3 17       		.uleb128 0x17
 843 05b4 7D040000 		.4byte	.LASF82
 844 05b8 09       		.byte	0x9
 845 05b9 A8       		.byte	0xa8
 846 05ba 6A050000 		.4byte	0x56a
 847 05be 00       		.byte	0
 848 05bf 13       		.uleb128 0x13
 849 05c0 10       		.byte	0x10
 850 05c1 09       		.byte	0x9
 851 05c2 69       		.byte	0x69
 852 05c3 0B060000 		.4byte	0x60b
 853 05c7 18       		.uleb128 0x18
ARM GAS  /tmp/cczdLhzH.s 			page 16


 854 05c8 5A000000 		.4byte	.LASF83
 855 05cc 09       		.byte	0x9
 856 05cd 6D       		.byte	0x6d
 857 05ce C3000000 		.4byte	0xc3
 858 05d2 04       		.byte	0x4
 859 05d3 03       		.byte	0x3
 860 05d4 1D       		.byte	0x1d
 861 05d5 00       		.byte	0
 862 05d6 18       		.uleb128 0x18
 863 05d7 ED010000 		.4byte	.LASF36
 864 05db 09       		.byte	0x9
 865 05dc 71       		.byte	0x71
 866 05dd C3000000 		.4byte	0xc3
 867 05e1 04       		.byte	0x4
 868 05e2 05       		.byte	0x5
 869 05e3 18       		.byte	0x18
 870 05e4 00       		.byte	0
 871 05e5 18       		.uleb128 0x18
 872 05e6 B2030000 		.4byte	.LASF84
 873 05ea 09       		.byte	0x9
 874 05eb 77       		.byte	0x77
 875 05ec C3000000 		.4byte	0xc3
 876 05f0 04       		.byte	0x4
 877 05f1 18       		.byte	0x18
 878 05f2 00       		.byte	0
 879 05f3 00       		.byte	0
 880 05f4 06       		.uleb128 0x6
 881 05f5 2F040000 		.4byte	.LASF85
 882 05f9 09       		.byte	0x9
 883 05fa 7B       		.byte	0x7b
 884 05fb 3C010000 		.4byte	0x13c
 885 05ff 04       		.byte	0x4
 886 0600 07       		.uleb128 0x7
 887 0601 7500     		.ascii	"u\000"
 888 0603 09       		.byte	0x9
 889 0604 A9       		.byte	0xa9
 890 0605 8B050000 		.4byte	0x58b
 891 0609 08       		.byte	0x8
 892 060a 00       		.byte	0
 893 060b 04       		.uleb128 0x4
 894 060c 0A020000 		.4byte	.LASF86
 895 0610 09       		.byte	0x9
 896 0611 AA       		.byte	0xaa
 897 0612 BF050000 		.4byte	0x5bf
 898 0616 19       		.uleb128 0x19
 899 0617 0808     		.2byte	0x808
 900 0619 09       		.byte	0x9
 901 061a B0       		.byte	0xb0
 902 061b 50060000 		.4byte	0x650
 903 061f 06       		.uleb128 0x6
 904 0620 07040000 		.4byte	.LASF87
 905 0624 09       		.byte	0x9
 906 0625 B4       		.byte	0xb4
 907 0626 AD000000 		.4byte	0xad
 908 062a 00       		.byte	0
 909 062b 06       		.uleb128 0x6
 910 062c E1010000 		.4byte	.LASF88
ARM GAS  /tmp/cczdLhzH.s 			page 17


 911 0630 09       		.byte	0x9
 912 0631 B8       		.byte	0xb8
 913 0632 AD000000 		.4byte	0xad
 914 0636 02       		.byte	0x2
 915 0637 07       		.uleb128 0x7
 916 0638 70747200 		.ascii	"ptr\000"
 917 063c 09       		.byte	0x9
 918 063d BC       		.byte	0xbc
 919 063e 50060000 		.4byte	0x650
 920 0642 04       		.byte	0x4
 921 0643 06       		.uleb128 0x6
 922 0644 29020000 		.4byte	.LASF89
 923 0648 09       		.byte	0x9
 924 0649 C0       		.byte	0xc0
 925 064a 56060000 		.4byte	0x656
 926 064e 08       		.byte	0x8
 927 064f 00       		.byte	0
 928 0650 0A       		.uleb128 0xa
 929 0651 04       		.byte	0x4
 930 0652 0B060000 		.4byte	0x60b
 931 0656 1A       		.uleb128 0x1a
 932 0657 0B060000 		.4byte	0x60b
 933 065b 66060000 		.4byte	0x666
 934 065f 1B       		.uleb128 0x1b
 935 0660 51040000 		.4byte	0x451
 936 0664 7F       		.byte	0x7f
 937 0665 00       		.byte	0
 938 0666 04       		.uleb128 0x4
 939 0667 26010000 		.4byte	.LASF90
 940 066b 09       		.byte	0x9
 941 066c C1       		.byte	0xc1
 942 066d 16060000 		.4byte	0x616
 943 0671 13       		.uleb128 0x13
 944 0672 04       		.byte	0x4
 945 0673 0A       		.byte	0xa
 946 0674 38       		.byte	0x38
 947 0675 86060000 		.4byte	0x686
 948 0679 06       		.uleb128 0x6
 949 067a 88050000 		.4byte	.LASF91
 950 067e 0A       		.byte	0xa
 951 067f 3C       		.byte	0x3c
 952 0680 E4000000 		.4byte	0xe4
 953 0684 00       		.byte	0
 954 0685 00       		.byte	0
 955 0686 04       		.uleb128 0x4
 956 0687 1E040000 		.4byte	.LASF92
 957 068b 0A       		.byte	0xa
 958 068c 3D       		.byte	0x3d
 959 068d 71060000 		.4byte	0x671
 960 0691 15       		.uleb128 0x15
 961 0692 04       		.byte	0x4
 962 0693 06       		.byte	0x6
 963 0694 D2       		.byte	0xd2
 964 0695 F4060000 		.4byte	0x6f4
 965 0699 17       		.uleb128 0x17
 966 069a 1E000000 		.4byte	.LASF93
 967 069e 06       		.byte	0x6
ARM GAS  /tmp/cczdLhzH.s 			page 18


 968 069f D9       		.byte	0xd9
 969 06a0 1B010000 		.4byte	0x11b
 970 06a4 17       		.uleb128 0x17
 971 06a5 3E010000 		.4byte	.LASF94
 972 06a9 06       		.byte	0x6
 973 06aa E0       		.byte	0xe0
 974 06ab 1B010000 		.4byte	0x11b
 975 06af 17       		.uleb128 0x17
 976 06b0 F1050000 		.4byte	.LASF78
 977 06b4 06       		.byte	0x6
 978 06b5 E7       		.byte	0xe7
 979 06b6 18030000 		.4byte	0x318
 980 06ba 17       		.uleb128 0x17
 981 06bb 12000000 		.4byte	.LASF95
 982 06bf 06       		.byte	0x6
 983 06c0 EE       		.byte	0xee
 984 06c1 F4060000 		.4byte	0x6f4
 985 06c5 17       		.uleb128 0x17
 986 06c6 52010000 		.4byte	.LASF96
 987 06ca 06       		.byte	0x6
 988 06cb F3       		.byte	0xf3
 989 06cc 1B010000 		.4byte	0x11b
 990 06d0 17       		.uleb128 0x17
 991 06d1 0E030000 		.4byte	.LASF97
 992 06d5 06       		.byte	0x6
 993 06d6 FC       		.byte	0xfc
 994 06d7 1F070000 		.4byte	0x71f
 995 06db 1C       		.uleb128 0x1c
 996 06dc 23050000 		.4byte	.LASF98
 997 06e0 06       		.byte	0x6
 998 06e1 0501     		.2byte	0x105
 999 06e3 56070000 		.4byte	0x756
 1000 06e7 1C       		.uleb128 0x1c
 1001 06e8 CE040000 		.4byte	.LASF99
 1002 06ec 06       		.byte	0x6
 1003 06ed 0D01     		.2byte	0x10d
 1004 06ef 26010000 		.4byte	0x126
 1005 06f3 00       		.byte	0
 1006 06f4 0A       		.uleb128 0xa
 1007 06f5 04       		.byte	0x4
 1008 06f6 30020000 		.4byte	0x230
 1009 06fa 05       		.uleb128 0x5
 1010 06fb 0D050000 		.4byte	.LASF100
 1011 06ff 0C       		.byte	0xc
 1012 0700 0B       		.byte	0xb
 1013 0701 34       		.byte	0x34
 1014 0702 1F070000 		.4byte	0x71f
 1015 0706 06       		.uleb128 0x6
 1016 0707 31030000 		.4byte	.LASF30
 1017 070b 0B       		.byte	0xb
 1018 070c 35       		.byte	0x35
 1019 070d 65020000 		.4byte	0x265
 1020 0711 00       		.byte	0
 1021 0712 07       		.uleb128 0x7
 1022 0713 636E7400 		.ascii	"cnt\000"
 1023 0717 0B       		.byte	0xb
 1024 0718 37       		.byte	0x37
ARM GAS  /tmp/cczdLhzH.s 			page 19


 1025 0719 31010000 		.4byte	0x131
 1026 071d 08       		.byte	0x8
 1027 071e 00       		.byte	0
 1028 071f 0A       		.uleb128 0xa
 1029 0720 04       		.byte	0x4
 1030 0721 FA060000 		.4byte	0x6fa
 1031 0725 05       		.uleb128 0x5
 1032 0726 D4050000 		.4byte	.LASF101
 1033 072a 10       		.byte	0x10
 1034 072b 0C       		.byte	0xc
 1035 072c 39       		.byte	0x39
 1036 072d 56070000 		.4byte	0x756
 1037 0731 06       		.uleb128 0x6
 1038 0732 31030000 		.4byte	.LASF30
 1039 0736 0C       		.byte	0xc
 1040 0737 3A       		.byte	0x3a
 1041 0738 65020000 		.4byte	0x265
 1042 073c 00       		.byte	0
 1043 073d 06       		.uleb128 0x6
 1044 073e 3A050000 		.4byte	.LASF102
 1045 0742 0C       		.byte	0xc
 1046 0743 3C       		.byte	0x3c
 1047 0744 3B020000 		.4byte	0x23b
 1048 0748 08       		.byte	0x8
 1049 0749 06       		.uleb128 0x6
 1050 074a 7D010000 		.4byte	.LASF49
 1051 074e 0C       		.byte	0xc
 1052 074f 3E       		.byte	0x3e
 1053 0750 78070000 		.4byte	0x778
 1054 0754 0C       		.byte	0xc
 1055 0755 00       		.byte	0
 1056 0756 0A       		.uleb128 0xa
 1057 0757 04       		.byte	0x4
 1058 0758 25070000 		.4byte	0x725
 1059 075c 0A       		.uleb128 0xa
 1060 075d 04       		.byte	0x4
 1061 075e 68040000 		.4byte	0x468
 1062 0762 0A       		.uleb128 0xa
 1063 0763 04       		.byte	0x4
 1064 0764 1A030000 		.4byte	0x31a
 1065 0768 12       		.uleb128 0x12
 1066 0769 43050000 		.4byte	0x543
 1067 076d 04       		.uleb128 0x4
 1068 076e 66020000 		.4byte	.LASF103
 1069 0772 0C       		.byte	0xc
 1070 0773 34       		.byte	0x34
 1071 0774 25070000 		.4byte	0x725
 1072 0778 0A       		.uleb128 0xa
 1073 0779 04       		.byte	0x4
 1074 077a 6D070000 		.4byte	0x76d
 1075 077e 03       		.uleb128 0x3
 1076 077f 01       		.byte	0x1
 1077 0780 02       		.byte	0x2
 1078 0781 9A040000 		.4byte	.LASF104
 1079 0785 13       		.uleb128 0x13
 1080 0786 04       		.byte	0x4
 1081 0787 0D       		.byte	0xd
ARM GAS  /tmp/cczdLhzH.s 			page 20


 1082 0788 E7       		.byte	0xe7
 1083 0789 A6070000 		.4byte	0x7a6
 1084 078d 07       		.uleb128 0x7
 1085 078e 73657400 		.ascii	"set\000"
 1086 0792 0D       		.byte	0xd
 1087 0793 E8       		.byte	0xe8
 1088 0794 AD000000 		.4byte	0xad
 1089 0798 00       		.byte	0
 1090 0799 06       		.uleb128 0x6
 1091 079a 01040000 		.4byte	.LASF105
 1092 079e 0D       		.byte	0xd
 1093 079f E9       		.byte	0xe9
 1094 07a0 AD000000 		.4byte	0xad
 1095 07a4 02       		.byte	0x2
 1096 07a5 00       		.byte	0
 1097 07a6 15       		.uleb128 0x15
 1098 07a7 04       		.byte	0x4
 1099 07a8 0D       		.byte	0xd
 1100 07a9 E5       		.byte	0xe5
 1101 07aa C1070000 		.4byte	0x7c1
 1102 07ae 16       		.uleb128 0x16
 1103 07af 5700     		.ascii	"W\000"
 1104 07b1 0D       		.byte	0xd
 1105 07b2 E6       		.byte	0xe6
 1106 07b3 C3000000 		.4byte	0xc3
 1107 07b7 16       		.uleb128 0x16
 1108 07b8 4800     		.ascii	"H\000"
 1109 07ba 0D       		.byte	0xd
 1110 07bb EA       		.byte	0xea
 1111 07bc 85070000 		.4byte	0x785
 1112 07c0 00       		.byte	0
 1113 07c1 13       		.uleb128 0x13
 1114 07c2 2C       		.byte	0x2c
 1115 07c3 0D       		.byte	0xd
 1116 07c4 DD       		.byte	0xdd
 1117 07c5 4E080000 		.4byte	0x84e
 1118 07c9 06       		.uleb128 0x6
 1119 07ca 09010000 		.4byte	.LASF106
 1120 07ce 0D       		.byte	0xd
 1121 07cf DF       		.byte	0xdf
 1122 07d0 58040000 		.4byte	0x458
 1123 07d4 00       		.byte	0
 1124 07d5 06       		.uleb128 0x6
 1125 07d6 38000000 		.4byte	.LASF107
 1126 07da 0D       		.byte	0xd
 1127 07db E0       		.byte	0xe0
 1128 07dc 58040000 		.4byte	0x458
 1129 07e0 04       		.byte	0x4
 1130 07e1 06       		.uleb128 0x6
 1131 07e2 30020000 		.4byte	.LASF108
 1132 07e6 0D       		.byte	0xd
 1133 07e7 E1       		.byte	0xe1
 1134 07e8 58040000 		.4byte	0x458
 1135 07ec 08       		.byte	0x8
 1136 07ed 06       		.uleb128 0x6
 1137 07ee 38010000 		.4byte	.LASF109
 1138 07f2 0D       		.byte	0xd
ARM GAS  /tmp/cczdLhzH.s 			page 21


 1139 07f3 E2       		.byte	0xe2
 1140 07f4 58040000 		.4byte	0x458
 1141 07f8 0C       		.byte	0xc
 1142 07f9 07       		.uleb128 0x7
 1143 07fa 49445200 		.ascii	"IDR\000"
 1144 07fe 0D       		.byte	0xd
 1145 07ff E3       		.byte	0xe3
 1146 0800 58040000 		.4byte	0x458
 1147 0804 10       		.byte	0x10
 1148 0805 07       		.uleb128 0x7
 1149 0806 4F445200 		.ascii	"ODR\000"
 1150 080a 0D       		.byte	0xd
 1151 080b E4       		.byte	0xe4
 1152 080c 58040000 		.4byte	0x458
 1153 0810 14       		.byte	0x14
 1154 0811 06       		.uleb128 0x6
 1155 0812 DC010000 		.4byte	.LASF110
 1156 0816 0D       		.byte	0xd
 1157 0817 EB       		.byte	0xeb
 1158 0818 4E080000 		.4byte	0x84e
 1159 081c 18       		.byte	0x18
 1160 081d 06       		.uleb128 0x6
 1161 081e 27030000 		.4byte	.LASF111
 1162 0822 0D       		.byte	0xd
 1163 0823 EC       		.byte	0xec
 1164 0824 58040000 		.4byte	0x458
 1165 0828 1C       		.byte	0x1c
 1166 0829 06       		.uleb128 0x6
 1167 082a 5B040000 		.4byte	.LASF112
 1168 082e 0D       		.byte	0xd
 1169 082f ED       		.byte	0xed
 1170 0830 58040000 		.4byte	0x458
 1171 0834 20       		.byte	0x20
 1172 0835 06       		.uleb128 0x6
 1173 0836 48040000 		.4byte	.LASF113
 1174 083a 0D       		.byte	0xd
 1175 083b EE       		.byte	0xee
 1176 083c 58040000 		.4byte	0x458
 1177 0840 24       		.byte	0x24
 1178 0841 07       		.uleb128 0x7
 1179 0842 42525200 		.ascii	"BRR\000"
 1180 0846 0D       		.byte	0xd
 1181 0847 EF       		.byte	0xef
 1182 0848 58040000 		.4byte	0x458
 1183 084c 28       		.byte	0x28
 1184 084d 00       		.byte	0
 1185 084e 12       		.uleb128 0x12
 1186 084f A6070000 		.4byte	0x7a6
 1187 0853 04       		.uleb128 0x4
 1188 0854 59020000 		.4byte	.LASF114
 1189 0858 0D       		.byte	0xd
 1190 0859 F0       		.byte	0xf0
 1191 085a C1070000 		.4byte	0x7c1
 1192 085e 1D       		.uleb128 0x1d
 1193 085f 5F000000 		.4byte	.LASF115
 1194 0863 0D       		.byte	0xd
 1195 0864 3F01     		.2byte	0x13f
ARM GAS  /tmp/cczdLhzH.s 			page 22


 1196 0866 C3000000 		.4byte	0xc3
 1197 086a 1D       		.uleb128 0x1d
 1198 086b 1C060000 		.4byte	.LASF116
 1199 086f 0D       		.byte	0xd
 1200 0870 4401     		.2byte	0x144
 1201 0872 C3000000 		.4byte	0xc3
 1202 0876 1D       		.uleb128 0x1d
 1203 0877 8F050000 		.4byte	.LASF117
 1204 087b 0D       		.byte	0xd
 1205 087c 5101     		.2byte	0x151
 1206 087e 82080000 		.4byte	0x882
 1207 0882 0A       		.uleb128 0xa
 1208 0883 04       		.byte	0x4
 1209 0884 53080000 		.4byte	0x853
 1210 0888 13       		.uleb128 0x13
 1211 0889 0C       		.byte	0xc
 1212 088a 0E       		.byte	0xe
 1213 088b 7A       		.byte	0x7a
 1214 088c B5080000 		.4byte	0x8b5
 1215 0890 06       		.uleb128 0x6
 1216 0891 41040000 		.4byte	.LASF118
 1217 0895 0E       		.byte	0xe
 1218 0896 7E       		.byte	0x7e
 1219 0897 76080000 		.4byte	0x876
 1220 089b 00       		.byte	0
 1221 089c 06       		.uleb128 0x6
 1222 089d 43020000 		.4byte	.LASF119
 1223 08a1 0E       		.byte	0xe
 1224 08a2 84       		.byte	0x84
 1225 08a3 5E080000 		.4byte	0x85e
 1226 08a7 04       		.byte	0x4
 1227 08a8 06       		.uleb128 0x6
 1228 08a9 88050000 		.4byte	.LASF91
 1229 08ad 0E       		.byte	0xe
 1230 08ae 88       		.byte	0x88
 1231 08af D9000000 		.4byte	0xd9
 1232 08b3 08       		.byte	0x8
 1233 08b4 00       		.byte	0
 1234 08b5 04       		.uleb128 0x4
 1235 08b6 6E020000 		.4byte	.LASF120
 1236 08ba 0E       		.byte	0xe
 1237 08bb 89       		.byte	0x89
 1238 08bc 88080000 		.4byte	0x888
 1239 08c0 1E       		.uleb128 0x1e
 1240 08c1 25060000 		.4byte	.LASF130
 1241 08c5 01       		.byte	0x1
 1242 08c6 41       		.byte	0x41
 1243 08c7 5E080000 		.4byte	0x85e
 1244 08cb 00000000 		.4byte	.LFB270
 1245 08cf 10000000 		.4byte	.LFE270-.LFB270
 1246 08d3 01       		.uleb128 0x1
 1247 08d4 9C       		.byte	0x9c
 1248 08d5 F2080000 		.4byte	0x8f2
 1249 08d9 1F       		.uleb128 0x1f
 1250 08da 62757300 		.ascii	"bus\000"
 1251 08de 01       		.byte	0x1
 1252 08df 41       		.byte	0x41
ARM GAS  /tmp/cczdLhzH.s 			page 23


 1253 08e0 F2080000 		.4byte	0x8f2
 1254 08e4 00000000 		.4byte	.LLST0
 1255 08e8 20       		.uleb128 0x20
 1256 08e9 EC040000 		.4byte	.LASF122
 1257 08ed 08090000 		.4byte	0x908
 1258 08f1 00       		.byte	0
 1259 08f2 0A       		.uleb128 0xa
 1260 08f3 04       		.byte	0x4
 1261 08f4 B5080000 		.4byte	0x8b5
 1262 08f8 1A       		.uleb128 0x1a
 1263 08f9 4E050000 		.4byte	0x54e
 1264 08fd 08090000 		.4byte	0x908
 1265 0901 1B       		.uleb128 0x1b
 1266 0902 51040000 		.4byte	0x451
 1267 0906 0A       		.byte	0xa
 1268 0907 00       		.byte	0
 1269 0908 14       		.uleb128 0x14
 1270 0909 F8080000 		.4byte	0x8f8
 1271 090d 21       		.uleb128 0x21
 1272 090e B8050000 		.4byte	.LASF123
 1273 0912 01       		.byte	0x1
 1274 0913 5A       		.byte	0x5a
 1275 0914 00000000 		.4byte	.LFB271
 1276 0918 1E000000 		.4byte	.LFE271-.LFB271
 1277 091c 01       		.uleb128 0x1
 1278 091d 9C       		.byte	0x9c
 1279 091e 48090000 		.4byte	0x948
 1280 0922 1F       		.uleb128 0x1f
 1281 0923 62757300 		.ascii	"bus\000"
 1282 0927 01       		.byte	0x1
 1283 0928 5A       		.byte	0x5a
 1284 0929 F2080000 		.4byte	0x8f2
 1285 092d 21000000 		.4byte	.LLST1
 1286 0931 22       		.uleb128 0x22
 1287 0932 F3010000 		.4byte	.LASF121
 1288 0936 01       		.byte	0x1
 1289 0937 5A       		.byte	0x5a
 1290 0938 5E080000 		.4byte	0x85e
 1291 093c 01       		.uleb128 0x1
 1292 093d 51       		.byte	0x51
 1293 093e 20       		.uleb128 0x20
 1294 093f EC040000 		.4byte	.LASF122
 1295 0943 58090000 		.4byte	0x958
 1296 0947 00       		.byte	0
 1297 0948 1A       		.uleb128 0x1a
 1298 0949 4E050000 		.4byte	0x54e
 1299 094d 58090000 		.4byte	0x958
 1300 0951 1B       		.uleb128 0x1b
 1301 0952 51040000 		.4byte	0x451
 1302 0956 0B       		.byte	0xb
 1303 0957 00       		.byte	0
 1304 0958 14       		.uleb128 0x14
 1305 0959 48090000 		.4byte	0x948
 1306 095d 21       		.uleb128 0x21
 1307 095e 4D040000 		.4byte	.LASF124
 1308 0962 01       		.byte	0x1
 1309 0963 71       		.byte	0x71
ARM GAS  /tmp/cczdLhzH.s 			page 24


 1310 0964 00000000 		.4byte	.LFB272
 1311 0968 16000000 		.4byte	.LFE272-.LFB272
 1312 096c 01       		.uleb128 0x1
 1313 096d 9C       		.byte	0x9c
 1314 096e AB090000 		.4byte	0x9ab
 1315 0972 1F       		.uleb128 0x1f
 1316 0973 62757300 		.ascii	"bus\000"
 1317 0977 01       		.byte	0x1
 1318 0978 71       		.byte	0x71
 1319 0979 F2080000 		.4byte	0x8f2
 1320 097d 42000000 		.4byte	.LLST2
 1321 0981 23       		.uleb128 0x23
 1322 0982 52050000 		.4byte	.LASF125
 1323 0986 01       		.byte	0x1
 1324 0987 71       		.byte	0x71
 1325 0988 6A080000 		.4byte	0x86a
 1326 098c 63000000 		.4byte	.LLST3
 1327 0990 20       		.uleb128 0x20
 1328 0991 EC040000 		.4byte	.LASF122
 1329 0995 BB090000 		.4byte	0x9bb
 1330 0999 24       		.uleb128 0x24
 1331 099a 16000000 		.4byte	.LVL7
 1332 099e DC090000 		.4byte	0x9dc
 1333 09a2 25       		.uleb128 0x25
 1334 09a3 01       		.uleb128 0x1
 1335 09a4 52       		.byte	0x52
 1336 09a5 03       		.uleb128 0x3
 1337 09a6 F3       		.byte	0xf3
 1338 09a7 01       		.uleb128 0x1
 1339 09a8 51       		.byte	0x51
 1340 09a9 00       		.byte	0
 1341 09aa 00       		.byte	0
 1342 09ab 1A       		.uleb128 0x1a
 1343 09ac 4E050000 		.4byte	0x54e
 1344 09b0 BB090000 		.4byte	0x9bb
 1345 09b4 1B       		.uleb128 0x1b
 1346 09b5 51040000 		.4byte	0x451
 1347 09b9 0D       		.byte	0xd
 1348 09ba 00       		.byte	0
 1349 09bb 14       		.uleb128 0x14
 1350 09bc AB090000 		.4byte	0x9ab
 1351 09c0 26       		.uleb128 0x26
 1352 09c1 70010000 		.4byte	.LASF126
 1353 09c5 0F       		.byte	0xf
 1354 09c6 4407     		.2byte	0x744
 1355 09c8 CC090000 		.4byte	0x9cc
 1356 09cc 12       		.uleb128 0x12
 1357 09cd B8000000 		.4byte	0xb8
 1358 09d1 27       		.uleb128 0x27
 1359 09d2 636800   		.ascii	"ch\000"
 1360 09d5 06       		.byte	0x6
 1361 09d6 D201     		.2byte	0x1d2
 1362 09d8 F5030000 		.4byte	0x3f5
 1363 09dc 28       		.uleb128 0x28
 1364 09dd 9A050000 		.4byte	.LASF131
 1365 09e1 0D       		.byte	0xd
 1366 09e2 2402     		.2byte	0x224
ARM GAS  /tmp/cczdLhzH.s 			page 25


 1367 09e4 0D       		.uleb128 0xd
 1368 09e5 76080000 		.4byte	0x876
 1369 09e9 0D       		.uleb128 0xd
 1370 09ea 5E080000 		.4byte	0x85e
 1371 09ee 0D       		.uleb128 0xd
 1372 09ef 6A080000 		.4byte	0x86a
 1373 09f3 00       		.byte	0
 1374 09f4 00       		.byte	0
 1375              		.section	.debug_abbrev,"",%progbits
 1376              	.Ldebug_abbrev0:
 1377 0000 01       		.uleb128 0x1
 1378 0001 11       		.uleb128 0x11
 1379 0002 01       		.byte	0x1
 1380 0003 25       		.uleb128 0x25
 1381 0004 0E       		.uleb128 0xe
 1382 0005 13       		.uleb128 0x13
 1383 0006 0B       		.uleb128 0xb
 1384 0007 03       		.uleb128 0x3
 1385 0008 0E       		.uleb128 0xe
 1386 0009 1B       		.uleb128 0x1b
 1387 000a 0E       		.uleb128 0xe
 1388 000b 55       		.uleb128 0x55
 1389 000c 17       		.uleb128 0x17
 1390 000d 11       		.uleb128 0x11
 1391 000e 01       		.uleb128 0x1
 1392 000f 10       		.uleb128 0x10
 1393 0010 17       		.uleb128 0x17
 1394 0011 00       		.byte	0
 1395 0012 00       		.byte	0
 1396 0013 02       		.uleb128 0x2
 1397 0014 24       		.uleb128 0x24
 1398 0015 00       		.byte	0
 1399 0016 0B       		.uleb128 0xb
 1400 0017 0B       		.uleb128 0xb
 1401 0018 3E       		.uleb128 0x3e
 1402 0019 0B       		.uleb128 0xb
 1403 001a 03       		.uleb128 0x3
 1404 001b 08       		.uleb128 0x8
 1405 001c 00       		.byte	0
 1406 001d 00       		.byte	0
 1407 001e 03       		.uleb128 0x3
 1408 001f 24       		.uleb128 0x24
 1409 0020 00       		.byte	0
 1410 0021 0B       		.uleb128 0xb
 1411 0022 0B       		.uleb128 0xb
 1412 0023 3E       		.uleb128 0x3e
 1413 0024 0B       		.uleb128 0xb
 1414 0025 03       		.uleb128 0x3
 1415 0026 0E       		.uleb128 0xe
 1416 0027 00       		.byte	0
 1417 0028 00       		.byte	0
 1418 0029 04       		.uleb128 0x4
 1419 002a 16       		.uleb128 0x16
 1420 002b 00       		.byte	0
 1421 002c 03       		.uleb128 0x3
 1422 002d 0E       		.uleb128 0xe
 1423 002e 3A       		.uleb128 0x3a
ARM GAS  /tmp/cczdLhzH.s 			page 26


 1424 002f 0B       		.uleb128 0xb
 1425 0030 3B       		.uleb128 0x3b
 1426 0031 0B       		.uleb128 0xb
 1427 0032 49       		.uleb128 0x49
 1428 0033 13       		.uleb128 0x13
 1429 0034 00       		.byte	0
 1430 0035 00       		.byte	0
 1431 0036 05       		.uleb128 0x5
 1432 0037 13       		.uleb128 0x13
 1433 0038 01       		.byte	0x1
 1434 0039 03       		.uleb128 0x3
 1435 003a 0E       		.uleb128 0xe
 1436 003b 0B       		.uleb128 0xb
 1437 003c 0B       		.uleb128 0xb
 1438 003d 3A       		.uleb128 0x3a
 1439 003e 0B       		.uleb128 0xb
 1440 003f 3B       		.uleb128 0x3b
 1441 0040 0B       		.uleb128 0xb
 1442 0041 01       		.uleb128 0x1
 1443 0042 13       		.uleb128 0x13
 1444 0043 00       		.byte	0
 1445 0044 00       		.byte	0
 1446 0045 06       		.uleb128 0x6
 1447 0046 0D       		.uleb128 0xd
 1448 0047 00       		.byte	0
 1449 0048 03       		.uleb128 0x3
 1450 0049 0E       		.uleb128 0xe
 1451 004a 3A       		.uleb128 0x3a
 1452 004b 0B       		.uleb128 0xb
 1453 004c 3B       		.uleb128 0x3b
 1454 004d 0B       		.uleb128 0xb
 1455 004e 49       		.uleb128 0x49
 1456 004f 13       		.uleb128 0x13
 1457 0050 38       		.uleb128 0x38
 1458 0051 0B       		.uleb128 0xb
 1459 0052 00       		.byte	0
 1460 0053 00       		.byte	0
 1461 0054 07       		.uleb128 0x7
 1462 0055 0D       		.uleb128 0xd
 1463 0056 00       		.byte	0
 1464 0057 03       		.uleb128 0x3
 1465 0058 08       		.uleb128 0x8
 1466 0059 3A       		.uleb128 0x3a
 1467 005a 0B       		.uleb128 0xb
 1468 005b 3B       		.uleb128 0x3b
 1469 005c 0B       		.uleb128 0xb
 1470 005d 49       		.uleb128 0x49
 1471 005e 13       		.uleb128 0x13
 1472 005f 38       		.uleb128 0x38
 1473 0060 0B       		.uleb128 0xb
 1474 0061 00       		.byte	0
 1475 0062 00       		.byte	0
 1476 0063 08       		.uleb128 0x8
 1477 0064 0D       		.uleb128 0xd
 1478 0065 00       		.byte	0
 1479 0066 03       		.uleb128 0x3
 1480 0067 08       		.uleb128 0x8
ARM GAS  /tmp/cczdLhzH.s 			page 27


 1481 0068 3A       		.uleb128 0x3a
 1482 0069 0B       		.uleb128 0xb
 1483 006a 3B       		.uleb128 0x3b
 1484 006b 05       		.uleb128 0x5
 1485 006c 49       		.uleb128 0x49
 1486 006d 13       		.uleb128 0x13
 1487 006e 38       		.uleb128 0x38
 1488 006f 0B       		.uleb128 0xb
 1489 0070 00       		.byte	0
 1490 0071 00       		.byte	0
 1491 0072 09       		.uleb128 0x9
 1492 0073 0D       		.uleb128 0xd
 1493 0074 00       		.byte	0
 1494 0075 03       		.uleb128 0x3
 1495 0076 0E       		.uleb128 0xe
 1496 0077 3A       		.uleb128 0x3a
 1497 0078 0B       		.uleb128 0xb
 1498 0079 3B       		.uleb128 0x3b
 1499 007a 05       		.uleb128 0x5
 1500 007b 49       		.uleb128 0x49
 1501 007c 13       		.uleb128 0x13
 1502 007d 38       		.uleb128 0x38
 1503 007e 0B       		.uleb128 0xb
 1504 007f 00       		.byte	0
 1505 0080 00       		.byte	0
 1506 0081 0A       		.uleb128 0xa
 1507 0082 0F       		.uleb128 0xf
 1508 0083 00       		.byte	0
 1509 0084 0B       		.uleb128 0xb
 1510 0085 0B       		.uleb128 0xb
 1511 0086 49       		.uleb128 0x49
 1512 0087 13       		.uleb128 0x13
 1513 0088 00       		.byte	0
 1514 0089 00       		.byte	0
 1515 008a 0B       		.uleb128 0xb
 1516 008b 13       		.uleb128 0x13
 1517 008c 01       		.byte	0x1
 1518 008d 03       		.uleb128 0x3
 1519 008e 0E       		.uleb128 0xe
 1520 008f 0B       		.uleb128 0xb
 1521 0090 0B       		.uleb128 0xb
 1522 0091 3A       		.uleb128 0x3a
 1523 0092 0B       		.uleb128 0xb
 1524 0093 3B       		.uleb128 0x3b
 1525 0094 05       		.uleb128 0x5
 1526 0095 01       		.uleb128 0x1
 1527 0096 13       		.uleb128 0x13
 1528 0097 00       		.byte	0
 1529 0098 00       		.byte	0
 1530 0099 0C       		.uleb128 0xc
 1531 009a 15       		.uleb128 0x15
 1532 009b 01       		.byte	0x1
 1533 009c 27       		.uleb128 0x27
 1534 009d 19       		.uleb128 0x19
 1535 009e 01       		.uleb128 0x1
 1536 009f 13       		.uleb128 0x13
 1537 00a0 00       		.byte	0
ARM GAS  /tmp/cczdLhzH.s 			page 28


 1538 00a1 00       		.byte	0
 1539 00a2 0D       		.uleb128 0xd
 1540 00a3 05       		.uleb128 0x5
 1541 00a4 00       		.byte	0
 1542 00a5 49       		.uleb128 0x49
 1543 00a6 13       		.uleb128 0x13
 1544 00a7 00       		.byte	0
 1545 00a8 00       		.byte	0
 1546 00a9 0E       		.uleb128 0xe
 1547 00aa 0F       		.uleb128 0xf
 1548 00ab 00       		.byte	0
 1549 00ac 0B       		.uleb128 0xb
 1550 00ad 0B       		.uleb128 0xb
 1551 00ae 00       		.byte	0
 1552 00af 00       		.byte	0
 1553 00b0 0F       		.uleb128 0xf
 1554 00b1 13       		.uleb128 0x13
 1555 00b2 01       		.byte	0x1
 1556 00b3 03       		.uleb128 0x3
 1557 00b4 0E       		.uleb128 0xe
 1558 00b5 0B       		.uleb128 0xb
 1559 00b6 05       		.uleb128 0x5
 1560 00b7 3A       		.uleb128 0x3a
 1561 00b8 0B       		.uleb128 0xb
 1562 00b9 3B       		.uleb128 0x3b
 1563 00ba 05       		.uleb128 0x5
 1564 00bb 01       		.uleb128 0x1
 1565 00bc 13       		.uleb128 0x13
 1566 00bd 00       		.byte	0
 1567 00be 00       		.byte	0
 1568 00bf 10       		.uleb128 0x10
 1569 00c0 0D       		.uleb128 0xd
 1570 00c1 00       		.byte	0
 1571 00c2 03       		.uleb128 0x3
 1572 00c3 0E       		.uleb128 0xe
 1573 00c4 3A       		.uleb128 0x3a
 1574 00c5 0B       		.uleb128 0xb
 1575 00c6 3B       		.uleb128 0x3b
 1576 00c7 05       		.uleb128 0x5
 1577 00c8 49       		.uleb128 0x49
 1578 00c9 13       		.uleb128 0x13
 1579 00ca 38       		.uleb128 0x38
 1580 00cb 05       		.uleb128 0x5
 1581 00cc 00       		.byte	0
 1582 00cd 00       		.byte	0
 1583 00ce 11       		.uleb128 0x11
 1584 00cf 0D       		.uleb128 0xd
 1585 00d0 00       		.byte	0
 1586 00d1 03       		.uleb128 0x3
 1587 00d2 08       		.uleb128 0x8
 1588 00d3 3A       		.uleb128 0x3a
 1589 00d4 0B       		.uleb128 0xb
 1590 00d5 3B       		.uleb128 0x3b
 1591 00d6 05       		.uleb128 0x5
 1592 00d7 49       		.uleb128 0x49
 1593 00d8 13       		.uleb128 0x13
 1594 00d9 38       		.uleb128 0x38
ARM GAS  /tmp/cczdLhzH.s 			page 29


 1595 00da 05       		.uleb128 0x5
 1596 00db 00       		.byte	0
 1597 00dc 00       		.byte	0
 1598 00dd 12       		.uleb128 0x12
 1599 00de 35       		.uleb128 0x35
 1600 00df 00       		.byte	0
 1601 00e0 49       		.uleb128 0x49
 1602 00e1 13       		.uleb128 0x13
 1603 00e2 00       		.byte	0
 1604 00e3 00       		.byte	0
 1605 00e4 13       		.uleb128 0x13
 1606 00e5 13       		.uleb128 0x13
 1607 00e6 01       		.byte	0x1
 1608 00e7 0B       		.uleb128 0xb
 1609 00e8 0B       		.uleb128 0xb
 1610 00e9 3A       		.uleb128 0x3a
 1611 00ea 0B       		.uleb128 0xb
 1612 00eb 3B       		.uleb128 0x3b
 1613 00ec 0B       		.uleb128 0xb
 1614 00ed 01       		.uleb128 0x1
 1615 00ee 13       		.uleb128 0x13
 1616 00ef 00       		.byte	0
 1617 00f0 00       		.byte	0
 1618 00f1 14       		.uleb128 0x14
 1619 00f2 26       		.uleb128 0x26
 1620 00f3 00       		.byte	0
 1621 00f4 49       		.uleb128 0x49
 1622 00f5 13       		.uleb128 0x13
 1623 00f6 00       		.byte	0
 1624 00f7 00       		.byte	0
 1625 00f8 15       		.uleb128 0x15
 1626 00f9 17       		.uleb128 0x17
 1627 00fa 01       		.byte	0x1
 1628 00fb 0B       		.uleb128 0xb
 1629 00fc 0B       		.uleb128 0xb
 1630 00fd 3A       		.uleb128 0x3a
 1631 00fe 0B       		.uleb128 0xb
 1632 00ff 3B       		.uleb128 0x3b
 1633 0100 0B       		.uleb128 0xb
 1634 0101 01       		.uleb128 0x1
 1635 0102 13       		.uleb128 0x13
 1636 0103 00       		.byte	0
 1637 0104 00       		.byte	0
 1638 0105 16       		.uleb128 0x16
 1639 0106 0D       		.uleb128 0xd
 1640 0107 00       		.byte	0
 1641 0108 03       		.uleb128 0x3
 1642 0109 08       		.uleb128 0x8
 1643 010a 3A       		.uleb128 0x3a
 1644 010b 0B       		.uleb128 0xb
 1645 010c 3B       		.uleb128 0x3b
 1646 010d 0B       		.uleb128 0xb
 1647 010e 49       		.uleb128 0x49
 1648 010f 13       		.uleb128 0x13
 1649 0110 00       		.byte	0
 1650 0111 00       		.byte	0
 1651 0112 17       		.uleb128 0x17
ARM GAS  /tmp/cczdLhzH.s 			page 30


 1652 0113 0D       		.uleb128 0xd
 1653 0114 00       		.byte	0
 1654 0115 03       		.uleb128 0x3
 1655 0116 0E       		.uleb128 0xe
 1656 0117 3A       		.uleb128 0x3a
 1657 0118 0B       		.uleb128 0xb
 1658 0119 3B       		.uleb128 0x3b
 1659 011a 0B       		.uleb128 0xb
 1660 011b 49       		.uleb128 0x49
 1661 011c 13       		.uleb128 0x13
 1662 011d 00       		.byte	0
 1663 011e 00       		.byte	0
 1664 011f 18       		.uleb128 0x18
 1665 0120 0D       		.uleb128 0xd
 1666 0121 00       		.byte	0
 1667 0122 03       		.uleb128 0x3
 1668 0123 0E       		.uleb128 0xe
 1669 0124 3A       		.uleb128 0x3a
 1670 0125 0B       		.uleb128 0xb
 1671 0126 3B       		.uleb128 0x3b
 1672 0127 0B       		.uleb128 0xb
 1673 0128 49       		.uleb128 0x49
 1674 0129 13       		.uleb128 0x13
 1675 012a 0B       		.uleb128 0xb
 1676 012b 0B       		.uleb128 0xb
 1677 012c 0D       		.uleb128 0xd
 1678 012d 0B       		.uleb128 0xb
 1679 012e 0C       		.uleb128 0xc
 1680 012f 0B       		.uleb128 0xb
 1681 0130 38       		.uleb128 0x38
 1682 0131 0B       		.uleb128 0xb
 1683 0132 00       		.byte	0
 1684 0133 00       		.byte	0
 1685 0134 19       		.uleb128 0x19
 1686 0135 13       		.uleb128 0x13
 1687 0136 01       		.byte	0x1
 1688 0137 0B       		.uleb128 0xb
 1689 0138 05       		.uleb128 0x5
 1690 0139 3A       		.uleb128 0x3a
 1691 013a 0B       		.uleb128 0xb
 1692 013b 3B       		.uleb128 0x3b
 1693 013c 0B       		.uleb128 0xb
 1694 013d 01       		.uleb128 0x1
 1695 013e 13       		.uleb128 0x13
 1696 013f 00       		.byte	0
 1697 0140 00       		.byte	0
 1698 0141 1A       		.uleb128 0x1a
 1699 0142 01       		.uleb128 0x1
 1700 0143 01       		.byte	0x1
 1701 0144 49       		.uleb128 0x49
 1702 0145 13       		.uleb128 0x13
 1703 0146 01       		.uleb128 0x1
 1704 0147 13       		.uleb128 0x13
 1705 0148 00       		.byte	0
 1706 0149 00       		.byte	0
 1707 014a 1B       		.uleb128 0x1b
 1708 014b 21       		.uleb128 0x21
ARM GAS  /tmp/cczdLhzH.s 			page 31


 1709 014c 00       		.byte	0
 1710 014d 49       		.uleb128 0x49
 1711 014e 13       		.uleb128 0x13
 1712 014f 2F       		.uleb128 0x2f
 1713 0150 0B       		.uleb128 0xb
 1714 0151 00       		.byte	0
 1715 0152 00       		.byte	0
 1716 0153 1C       		.uleb128 0x1c
 1717 0154 0D       		.uleb128 0xd
 1718 0155 00       		.byte	0
 1719 0156 03       		.uleb128 0x3
 1720 0157 0E       		.uleb128 0xe
 1721 0158 3A       		.uleb128 0x3a
 1722 0159 0B       		.uleb128 0xb
 1723 015a 3B       		.uleb128 0x3b
 1724 015b 05       		.uleb128 0x5
 1725 015c 49       		.uleb128 0x49
 1726 015d 13       		.uleb128 0x13
 1727 015e 00       		.byte	0
 1728 015f 00       		.byte	0
 1729 0160 1D       		.uleb128 0x1d
 1730 0161 16       		.uleb128 0x16
 1731 0162 00       		.byte	0
 1732 0163 03       		.uleb128 0x3
 1733 0164 0E       		.uleb128 0xe
 1734 0165 3A       		.uleb128 0x3a
 1735 0166 0B       		.uleb128 0xb
 1736 0167 3B       		.uleb128 0x3b
 1737 0168 05       		.uleb128 0x5
 1738 0169 49       		.uleb128 0x49
 1739 016a 13       		.uleb128 0x13
 1740 016b 00       		.byte	0
 1741 016c 00       		.byte	0
 1742 016d 1E       		.uleb128 0x1e
 1743 016e 2E       		.uleb128 0x2e
 1744 016f 01       		.byte	0x1
 1745 0170 3F       		.uleb128 0x3f
 1746 0171 19       		.uleb128 0x19
 1747 0172 03       		.uleb128 0x3
 1748 0173 0E       		.uleb128 0xe
 1749 0174 3A       		.uleb128 0x3a
 1750 0175 0B       		.uleb128 0xb
 1751 0176 3B       		.uleb128 0x3b
 1752 0177 0B       		.uleb128 0xb
 1753 0178 27       		.uleb128 0x27
 1754 0179 19       		.uleb128 0x19
 1755 017a 49       		.uleb128 0x49
 1756 017b 13       		.uleb128 0x13
 1757 017c 11       		.uleb128 0x11
 1758 017d 01       		.uleb128 0x1
 1759 017e 12       		.uleb128 0x12
 1760 017f 06       		.uleb128 0x6
 1761 0180 40       		.uleb128 0x40
 1762 0181 18       		.uleb128 0x18
 1763 0182 9742     		.uleb128 0x2117
 1764 0184 19       		.uleb128 0x19
 1765 0185 01       		.uleb128 0x1
ARM GAS  /tmp/cczdLhzH.s 			page 32


 1766 0186 13       		.uleb128 0x13
 1767 0187 00       		.byte	0
 1768 0188 00       		.byte	0
 1769 0189 1F       		.uleb128 0x1f
 1770 018a 05       		.uleb128 0x5
 1771 018b 00       		.byte	0
 1772 018c 03       		.uleb128 0x3
 1773 018d 08       		.uleb128 0x8
 1774 018e 3A       		.uleb128 0x3a
 1775 018f 0B       		.uleb128 0xb
 1776 0190 3B       		.uleb128 0x3b
 1777 0191 0B       		.uleb128 0xb
 1778 0192 49       		.uleb128 0x49
 1779 0193 13       		.uleb128 0x13
 1780 0194 02       		.uleb128 0x2
 1781 0195 17       		.uleb128 0x17
 1782 0196 00       		.byte	0
 1783 0197 00       		.byte	0
 1784 0198 20       		.uleb128 0x20
 1785 0199 34       		.uleb128 0x34
 1786 019a 00       		.byte	0
 1787 019b 03       		.uleb128 0x3
 1788 019c 0E       		.uleb128 0xe
 1789 019d 49       		.uleb128 0x49
 1790 019e 13       		.uleb128 0x13
 1791 019f 34       		.uleb128 0x34
 1792 01a0 19       		.uleb128 0x19
 1793 01a1 00       		.byte	0
 1794 01a2 00       		.byte	0
 1795 01a3 21       		.uleb128 0x21
 1796 01a4 2E       		.uleb128 0x2e
 1797 01a5 01       		.byte	0x1
 1798 01a6 3F       		.uleb128 0x3f
 1799 01a7 19       		.uleb128 0x19
 1800 01a8 03       		.uleb128 0x3
 1801 01a9 0E       		.uleb128 0xe
 1802 01aa 3A       		.uleb128 0x3a
 1803 01ab 0B       		.uleb128 0xb
 1804 01ac 3B       		.uleb128 0x3b
 1805 01ad 0B       		.uleb128 0xb
 1806 01ae 27       		.uleb128 0x27
 1807 01af 19       		.uleb128 0x19
 1808 01b0 11       		.uleb128 0x11
 1809 01b1 01       		.uleb128 0x1
 1810 01b2 12       		.uleb128 0x12
 1811 01b3 06       		.uleb128 0x6
 1812 01b4 40       		.uleb128 0x40
 1813 01b5 18       		.uleb128 0x18
 1814 01b6 9742     		.uleb128 0x2117
 1815 01b8 19       		.uleb128 0x19
 1816 01b9 01       		.uleb128 0x1
 1817 01ba 13       		.uleb128 0x13
 1818 01bb 00       		.byte	0
 1819 01bc 00       		.byte	0
 1820 01bd 22       		.uleb128 0x22
 1821 01be 05       		.uleb128 0x5
 1822 01bf 00       		.byte	0
ARM GAS  /tmp/cczdLhzH.s 			page 33


 1823 01c0 03       		.uleb128 0x3
 1824 01c1 0E       		.uleb128 0xe
 1825 01c2 3A       		.uleb128 0x3a
 1826 01c3 0B       		.uleb128 0xb
 1827 01c4 3B       		.uleb128 0x3b
 1828 01c5 0B       		.uleb128 0xb
 1829 01c6 49       		.uleb128 0x49
 1830 01c7 13       		.uleb128 0x13
 1831 01c8 02       		.uleb128 0x2
 1832 01c9 18       		.uleb128 0x18
 1833 01ca 00       		.byte	0
 1834 01cb 00       		.byte	0
 1835 01cc 23       		.uleb128 0x23
 1836 01cd 05       		.uleb128 0x5
 1837 01ce 00       		.byte	0
 1838 01cf 03       		.uleb128 0x3
 1839 01d0 0E       		.uleb128 0xe
 1840 01d1 3A       		.uleb128 0x3a
 1841 01d2 0B       		.uleb128 0xb
 1842 01d3 3B       		.uleb128 0x3b
 1843 01d4 0B       		.uleb128 0xb
 1844 01d5 49       		.uleb128 0x49
 1845 01d6 13       		.uleb128 0x13
 1846 01d7 02       		.uleb128 0x2
 1847 01d8 17       		.uleb128 0x17
 1848 01d9 00       		.byte	0
 1849 01da 00       		.byte	0
 1850 01db 24       		.uleb128 0x24
 1851 01dc 898201   		.uleb128 0x4109
 1852 01df 01       		.byte	0x1
 1853 01e0 11       		.uleb128 0x11
 1854 01e1 01       		.uleb128 0x1
 1855 01e2 9542     		.uleb128 0x2115
 1856 01e4 19       		.uleb128 0x19
 1857 01e5 31       		.uleb128 0x31
 1858 01e6 13       		.uleb128 0x13
 1859 01e7 00       		.byte	0
 1860 01e8 00       		.byte	0
 1861 01e9 25       		.uleb128 0x25
 1862 01ea 8A8201   		.uleb128 0x410a
 1863 01ed 00       		.byte	0
 1864 01ee 02       		.uleb128 0x2
 1865 01ef 18       		.uleb128 0x18
 1866 01f0 9142     		.uleb128 0x2111
 1867 01f2 18       		.uleb128 0x18
 1868 01f3 00       		.byte	0
 1869 01f4 00       		.byte	0
 1870 01f5 26       		.uleb128 0x26
 1871 01f6 34       		.uleb128 0x34
 1872 01f7 00       		.byte	0
 1873 01f8 03       		.uleb128 0x3
 1874 01f9 0E       		.uleb128 0xe
 1875 01fa 3A       		.uleb128 0x3a
 1876 01fb 0B       		.uleb128 0xb
 1877 01fc 3B       		.uleb128 0x3b
 1878 01fd 05       		.uleb128 0x5
 1879 01fe 49       		.uleb128 0x49
ARM GAS  /tmp/cczdLhzH.s 			page 34


 1880 01ff 13       		.uleb128 0x13
 1881 0200 3F       		.uleb128 0x3f
 1882 0201 19       		.uleb128 0x19
 1883 0202 3C       		.uleb128 0x3c
 1884 0203 19       		.uleb128 0x19
 1885 0204 00       		.byte	0
 1886 0205 00       		.byte	0
 1887 0206 27       		.uleb128 0x27
 1888 0207 34       		.uleb128 0x34
 1889 0208 00       		.byte	0
 1890 0209 03       		.uleb128 0x3
 1891 020a 08       		.uleb128 0x8
 1892 020b 3A       		.uleb128 0x3a
 1893 020c 0B       		.uleb128 0xb
 1894 020d 3B       		.uleb128 0x3b
 1895 020e 05       		.uleb128 0x5
 1896 020f 49       		.uleb128 0x49
 1897 0210 13       		.uleb128 0x13
 1898 0211 3F       		.uleb128 0x3f
 1899 0212 19       		.uleb128 0x19
 1900 0213 3C       		.uleb128 0x3c
 1901 0214 19       		.uleb128 0x19
 1902 0215 00       		.byte	0
 1903 0216 00       		.byte	0
 1904 0217 28       		.uleb128 0x28
 1905 0218 2E       		.uleb128 0x2e
 1906 0219 01       		.byte	0x1
 1907 021a 3F       		.uleb128 0x3f
 1908 021b 19       		.uleb128 0x19
 1909 021c 03       		.uleb128 0x3
 1910 021d 0E       		.uleb128 0xe
 1911 021e 3A       		.uleb128 0x3a
 1912 021f 0B       		.uleb128 0xb
 1913 0220 3B       		.uleb128 0x3b
 1914 0221 05       		.uleb128 0x5
 1915 0222 27       		.uleb128 0x27
 1916 0223 19       		.uleb128 0x19
 1917 0224 3C       		.uleb128 0x3c
 1918 0225 19       		.uleb128 0x19
 1919 0226 00       		.byte	0
 1920 0227 00       		.byte	0
 1921 0228 00       		.byte	0
 1922              		.section	.debug_loc,"",%progbits
 1923              	.Ldebug_loc0:
 1924              	.LLST0:
 1925 0000 00000000 		.4byte	.LVL0
 1926 0004 0C000000 		.4byte	.LVL1
 1927 0008 0100     		.2byte	0x1
 1928 000a 50       		.byte	0x50
 1929 000b 0C000000 		.4byte	.LVL1
 1930 000f 10000000 		.4byte	.LFE270
 1931 0013 0400     		.2byte	0x4
 1932 0015 F3       		.byte	0xf3
 1933 0016 01       		.uleb128 0x1
 1934 0017 50       		.byte	0x50
 1935 0018 9F       		.byte	0x9f
 1936 0019 00000000 		.4byte	0
ARM GAS  /tmp/cczdLhzH.s 			page 35


 1937 001d 00000000 		.4byte	0
 1938              	.LLST1:
 1939 0021 00000000 		.4byte	.LVL2
 1940 0025 02000000 		.4byte	.LVL3
 1941 0029 0100     		.2byte	0x1
 1942 002b 50       		.byte	0x50
 1943 002c 02000000 		.4byte	.LVL3
 1944 0030 1E000000 		.4byte	.LFE271
 1945 0034 0400     		.2byte	0x4
 1946 0036 F3       		.byte	0xf3
 1947 0037 01       		.uleb128 0x1
 1948 0038 50       		.byte	0x50
 1949 0039 9F       		.byte	0x9f
 1950 003a 00000000 		.4byte	0
 1951 003e 00000000 		.4byte	0
 1952              	.LLST2:
 1953 0042 00000000 		.4byte	.LVL4
 1954 0046 0A000000 		.4byte	.LVL6
 1955 004a 0100     		.2byte	0x1
 1956 004c 50       		.byte	0x50
 1957 004d 0A000000 		.4byte	.LVL6
 1958 0051 16000000 		.4byte	.LFE272
 1959 0055 0400     		.2byte	0x4
 1960 0057 F3       		.byte	0xf3
 1961 0058 01       		.uleb128 0x1
 1962 0059 50       		.byte	0x50
 1963 005a 9F       		.byte	0x9f
 1964 005b 00000000 		.4byte	0
 1965 005f 00000000 		.4byte	0
 1966              	.LLST3:
 1967 0063 00000000 		.4byte	.LVL4
 1968 0067 08000000 		.4byte	.LVL5
 1969 006b 0100     		.2byte	0x1
 1970 006d 51       		.byte	0x51
 1971 006e 08000000 		.4byte	.LVL5
 1972 0072 15000000 		.4byte	.LVL7-1
 1973 0076 0100     		.2byte	0x1
 1974 0078 52       		.byte	0x52
 1975 0079 15000000 		.4byte	.LVL7-1
 1976 007d 16000000 		.4byte	.LFE272
 1977 0081 0400     		.2byte	0x4
 1978 0083 F3       		.byte	0xf3
 1979 0084 01       		.uleb128 0x1
 1980 0085 51       		.byte	0x51
 1981 0086 9F       		.byte	0x9f
 1982 0087 00000000 		.4byte	0
 1983 008b 00000000 		.4byte	0
 1984              		.section	.debug_aranges,"",%progbits
 1985 0000 2C000000 		.4byte	0x2c
 1986 0004 0200     		.2byte	0x2
 1987 0006 00000000 		.4byte	.Ldebug_info0
 1988 000a 04       		.byte	0x4
 1989 000b 00       		.byte	0
 1990 000c 0000     		.2byte	0
 1991 000e 0000     		.2byte	0
 1992 0010 00000000 		.4byte	.LFB270
 1993 0014 10000000 		.4byte	.LFE270-.LFB270
ARM GAS  /tmp/cczdLhzH.s 			page 36


 1994 0018 00000000 		.4byte	.LFB271
 1995 001c 1E000000 		.4byte	.LFE271-.LFB271
 1996 0020 00000000 		.4byte	.LFB272
 1997 0024 16000000 		.4byte	.LFE272-.LFB272
 1998 0028 00000000 		.4byte	0
 1999 002c 00000000 		.4byte	0
 2000              		.section	.debug_ranges,"",%progbits
 2001              	.Ldebug_ranges0:
 2002 0000 00000000 		.4byte	.LFB270
 2003 0004 10000000 		.4byte	.LFE270
 2004 0008 00000000 		.4byte	.LFB271
 2005 000c 1E000000 		.4byte	.LFE271
 2006 0010 00000000 		.4byte	.LFB272
 2007 0014 16000000 		.4byte	.LFE272
 2008 0018 00000000 		.4byte	0
 2009 001c 00000000 		.4byte	0
 2010              		.section	.debug_line,"",%progbits
 2011              	.Ldebug_line0:
 2012 0000 A2020000 		.section	.debug_str,"MS",%progbits,1
 2012      02006202 
 2012      00000201 
 2012      FB0E0D00 
 2012      01010101 
 2013              	.LASF52:
 2014 0000 70726576 		.ascii	"prev\000"
 2014      00
 2015              	.LASF53:
 2016 0005 72656164 		.ascii	"ready_list_t\000"
 2016      795F6C69 
 2016      73745F74 
 2016      00
 2017              	.LASF95:
 2018 0012 77747472 		.ascii	"wttrp\000"
 2018      7000
 2019              	.LASF59:
 2020 0018 64656C74 		.ascii	"delta\000"
 2020      6100
 2021              	.LASF93:
 2022 001e 7264796D 		.ascii	"rdymsg\000"
 2022      736700
 2023              	.LASF18:
 2024 0025 75696E74 		.ascii	"uint64_t\000"
 2024      36345F74 
 2024      00
 2025              	.LASF4:
 2026 002e 5F5F7569 		.ascii	"__uint8_t\000"
 2026      6E74385F 
 2026      7400
 2027              	.LASF107:
 2028 0038 4F545950 		.ascii	"OTYPER\000"
 2028      455200
 2029              	.LASF77:
 2030 003f 706F7274 		.ascii	"port_intctx\000"
 2030      5F696E74 
 2030      63747800 
 2031              	.LASF64:
 2032 004b 73797374 		.ascii	"system_debug_t\000"
ARM GAS  /tmp/cczdLhzH.s 			page 37


 2032      656D5F64 
 2032      65627567 
 2032      5F7400
 2033              	.LASF83:
 2034 005a 74797065 		.ascii	"type\000"
 2034      00
 2035              	.LASF115:
 2036 005f 696F706F 		.ascii	"ioportmask_t\000"
 2036      72746D61 
 2036      736B5F74 
 2036      00
 2037              	.LASF127:
 2038 006c 474E5520 		.ascii	"GNU C 4.8.2 -mcpu=cortex-m4 -mno-thumb-interwork -m"
 2038      4320342E 
 2038      382E3220 
 2038      2D6D6370 
 2038      753D636F 
 2039 009f 7468756D 		.ascii	"thumb -ggdb -O2 -fomit-frame-pointer -falign-functi"
 2039      62202D67 
 2039      67646220 
 2039      2D4F3220 
 2039      2D666F6D 
 2040 00d2 6F6E733D 		.ascii	"ons=16 -ffunction-sections -fdata-sections -fno-com"
 2040      3136202D 
 2040      6666756E 
 2040      6374696F 
 2040      6E2D7365 
 2041 0105 6D6F6E00 		.ascii	"mon\000"
 2042              	.LASF106:
 2043 0109 4D4F4445 		.ascii	"MODER\000"
 2043      5200
 2044              	.LASF13:
 2045 010f 6C6F6E67 		.ascii	"long long unsigned int\000"
 2045      206C6F6E 
 2045      6720756E 
 2045      7369676E 
 2045      65642069 
 2046              	.LASF90:
 2047 0126 63685F74 		.ascii	"ch_trace_buffer_t\000"
 2047      72616365 
 2047      5F627566 
 2047      6665725F 
 2047      7400
 2048              	.LASF109:
 2049 0138 50555044 		.ascii	"PUPDR\000"
 2049      5200
 2050              	.LASF94:
 2051 013e 65786974 		.ascii	"exitcode\000"
 2051      636F6465 
 2051      00
 2052              	.LASF72:
 2053 0147 6D61696E 		.ascii	"mainthread\000"
 2053      74687265 
 2053      616400
 2054              	.LASF96:
 2055 0152 73656E74 		.ascii	"sentmsg\000"
 2055      6D736700 
ARM GAS  /tmp/cczdLhzH.s 			page 38


 2056              	.LASF61:
 2057 015a 76697274 		.ascii	"virtual_timers_list_t\000"
 2057      75616C5F 
 2057      74696D65 
 2057      72735F6C 
 2057      6973745F 
 2058              	.LASF126:
 2059 0170 49544D5F 		.ascii	"ITM_RxBuffer\000"
 2059      52784275 
 2059      66666572 
 2059      00
 2060              	.LASF49:
 2061 017d 6E657874 		.ascii	"next\000"
 2061      00
 2062              	.LASF51:
 2063 0182 63685F74 		.ascii	"ch_threads_queue\000"
 2063      68726561 
 2063      64735F71 
 2063      75657565 
 2063      00
 2064              	.LASF128:
 2065 0193 2E2E2F2E 		.ascii	"../../../../../ChibiOS-RT/os/hal/src/hal_pal.c\000"
 2065      2E2F2E2E 
 2065      2F2E2E2F 
 2065      2E2E2F43 
 2065      68696269 
 2066              	.LASF11:
 2067 01c2 6C6F6E67 		.ascii	"long long int\000"
 2067      206C6F6E 
 2067      6720696E 
 2067      7400
 2068              	.LASF1:
 2069 01d0 7369676E 		.ascii	"signed char\000"
 2069      65642063 
 2069      68617200 
 2070              	.LASF110:
 2071 01dc 42535252 		.ascii	"BSRR\000"
 2071      00
 2072              	.LASF88:
 2073 01e1 73697A65 		.ascii	"size\000"
 2073      00
 2074              	.LASF71:
 2075 01e6 76746C69 		.ascii	"vtlist\000"
 2075      737400
 2076              	.LASF36:
 2077 01ed 73746174 		.ascii	"state\000"
 2077      6500
 2078              	.LASF121:
 2079 01f3 62697473 		.ascii	"bits\000"
 2079      00
 2080              	.LASF8:
 2081 01f8 6C6F6E67 		.ascii	"long int\000"
 2081      20696E74 
 2081      00
 2082              	.LASF22:
 2083 0201 74737461 		.ascii	"tstate_t\000"
 2083      74655F74 
ARM GAS  /tmp/cczdLhzH.s 			page 39


 2083      00
 2084              	.LASF86:
 2085 020a 63685F74 		.ascii	"ch_trace_event_t\000"
 2085      72616365 
 2085      5F657665 
 2085      6E745F74 
 2085      00
 2086              	.LASF60:
 2087 021b 66756E63 		.ascii	"func\000"
 2087      00
 2088              	.LASF15:
 2089 0220 75696E74 		.ascii	"uint16_t\000"
 2089      31365F74 
 2089      00
 2090              	.LASF89:
 2091 0229 62756666 		.ascii	"buffer\000"
 2091      657200
 2092              	.LASF108:
 2093 0230 4F535045 		.ascii	"OSPEEDR\000"
 2093      45445200 
 2094              	.LASF9:
 2095 0238 5F5F7569 		.ascii	"__uint32_t\000"
 2095      6E743332 
 2095      5F7400
 2096              	.LASF119:
 2097 0243 6D61736B 		.ascii	"mask\000"
 2097      00
 2098              	.LASF74:
 2099 0248 72656761 		.ascii	"regarm_t\000"
 2099      726D5F74 
 2099      00
 2100              	.LASF39:
 2101 0251 77616974 		.ascii	"waiting\000"
 2101      696E6700 
 2102              	.LASF114:
 2103 0259 73746D33 		.ascii	"stm32_gpio_t\000"
 2103      325F6770 
 2103      696F5F74 
 2103      00
 2104              	.LASF103:
 2105 0266 6D757465 		.ascii	"mutex_t\000"
 2105      785F7400 
 2106              	.LASF120:
 2107 026e 494F4275 		.ascii	"IOBus\000"
 2107      7300
 2108              	.LASF27:
 2109 0274 636E745F 		.ascii	"cnt_t\000"
 2109      7400
 2110              	.LASF40:
 2111 027a 6D736771 		.ascii	"msgqueue\000"
 2111      75657565 
 2111      00
 2112              	.LASF0:
 2113 0283 756E7369 		.ascii	"unsigned int\000"
 2113      676E6564 
 2113      20696E74 
 2113      00
ARM GAS  /tmp/cczdLhzH.s 			page 40


 2114              	.LASF129:
 2115 0290 2F686F6D 		.ascii	"/home/johnnyco/Documentos/Embebidos/Chibios Johnny/"
 2115      652F6A6F 
 2115      686E6E79 
 2115      636F2F44 
 2115      6F63756D 
 2116 02c3 43686962 		.ascii	"ChibiOS-Contrib/testhal/STM32/STM32F4xx/1WIRE + RTC"
 2116      694F532D 
 2116      436F6E74 
 2116      7269622F 
 2116      74657374 
 2117 02f6 202B2055 		.ascii	" + UART + PWM + ADC 1.0\000"
 2117      41525420 
 2117      2B205057 
 2117      4D202B20 
 2117      41444320 
 2118              	.LASF97:
 2119 030e 77747365 		.ascii	"wtsemp\000"
 2119      6D7000
 2120              	.LASF10:
 2121 0315 6C6F6E67 		.ascii	"long unsigned int\000"
 2121      20756E73 
 2121      69676E65 
 2121      6420696E 
 2121      7400
 2122              	.LASF111:
 2123 0327 4C434B52 		.ascii	"LCKR\000"
 2123      00
 2124              	.LASF34:
 2125 032c 6E616D65 		.ascii	"name\000"
 2125      00
 2126              	.LASF30:
 2127 0331 71756575 		.ascii	"queue\000"
 2127      6500
 2128              	.LASF44:
 2129 0337 6D706F6F 		.ascii	"mpool\000"
 2129      6C00
 2130              	.LASF6:
 2131 033d 73686F72 		.ascii	"short unsigned int\000"
 2131      7420756E 
 2131      7369676E 
 2131      65642069 
 2131      6E7400
 2132              	.LASF47:
 2133 0350 63685F74 		.ascii	"ch_thread\000"
 2133      68726561 
 2133      6400
 2134              	.LASF25:
 2135 035a 6D73675F 		.ascii	"msg_t\000"
 2135      7400
 2136              	.LASF41:
 2137 0360 6570656E 		.ascii	"epending\000"
 2137      64696E67 
 2137      00
 2138              	.LASF68:
 2139 0369 63685F73 		.ascii	"ch_system_t\000"
 2139      79737465 
ARM GAS  /tmp/cczdLhzH.s 			page 41


 2139      6D5F7400 
 2140              	.LASF21:
 2141 0375 746D6F64 		.ascii	"tmode_t\000"
 2141      655F7400 
 2142              	.LASF54:
 2143 037d 63685F72 		.ascii	"ch_ready_list\000"
 2143      65616479 
 2143      5F6C6973 
 2143      7400
 2144              	.LASF26:
 2145 038b 6576656E 		.ascii	"eventmask_t\000"
 2145      746D6173 
 2145      6B5F7400 
 2146              	.LASF7:
 2147 0397 5F5F696E 		.ascii	"__int32_t\000"
 2147      7433325F 
 2147      7400
 2148              	.LASF75:
 2149 03a1 73746B61 		.ascii	"stkalign_t\000"
 2149      6C69676E 
 2149      5F7400
 2150              	.LASF32:
 2151 03ac 6E657765 		.ascii	"newer\000"
 2151      7200
 2152              	.LASF84:
 2153 03b2 72747374 		.ascii	"rtstamp\000"
 2153      616D7000 
 2154              	.LASF12:
 2155 03ba 5F5F7569 		.ascii	"__uint64_t\000"
 2155      6E743634 
 2155      5F7400
 2156              	.LASF43:
 2157 03c5 7265616C 		.ascii	"realprio\000"
 2157      7072696F 
 2157      00
 2158              	.LASF73:
 2159 03ce 73697A65 		.ascii	"sizetype\000"
 2159      74797065 
 2159      00
 2160              	.LASF45:
 2161 03d7 74687265 		.ascii	"thread_reference_t\000"
 2161      61645F72 
 2161      65666572 
 2161      656E6365 
 2161      5F7400
 2162              	.LASF62:
 2163 03ea 63685F76 		.ascii	"ch_virtual_timers_list\000"
 2163      69727475 
 2163      616C5F74 
 2163      696D6572 
 2163      735F6C69 
 2164              	.LASF105:
 2165 0401 636C6561 		.ascii	"clear\000"
 2165      7200
 2166              	.LASF87:
 2167 0407 73757370 		.ascii	"suspended\000"
 2167      656E6465 
ARM GAS  /tmp/cczdLhzH.s 			page 42


 2167      6400
 2168              	.LASF76:
 2169 0411 706F7274 		.ascii	"port_context\000"
 2169      5F636F6E 
 2169      74657874 
 2169      00
 2170              	.LASF92:
 2171 041e 746D5F63 		.ascii	"tm_calibration_t\000"
 2171      616C6962 
 2171      72617469 
 2171      6F6E5F74 
 2171      00
 2172              	.LASF85:
 2173 042f 74696D65 		.ascii	"time\000"
 2173      00
 2174              	.LASF31:
 2175 0434 7072696F 		.ascii	"prio\000"
 2175      00
 2176              	.LASF55:
 2177 0439 63757272 		.ascii	"current\000"
 2177      656E7400 
 2178              	.LASF118:
 2179 0441 706F7274 		.ascii	"portid\000"
 2179      696400
 2180              	.LASF113:
 2181 0448 41465248 		.ascii	"AFRH\000"
 2181      00
 2182              	.LASF124:
 2183 044d 70616C53 		.ascii	"palSetBusMode\000"
 2183      65744275 
 2183      734D6F64 
 2183      6500
 2184              	.LASF112:
 2185 045b 4146524C 		.ascii	"AFRL\000"
 2185      00
 2186              	.LASF23:
 2187 0460 74726566 		.ascii	"trefs_t\000"
 2187      735F7400 
 2188              	.LASF38:
 2189 0468 72656673 		.ascii	"refs\000"
 2189      00
 2190              	.LASF57:
 2191 046d 76697274 		.ascii	"virtual_timer_t\000"
 2191      75616C5F 
 2191      74696D65 
 2191      725F7400 
 2192              	.LASF82:
 2193 047d 75736572 		.ascii	"user\000"
 2193      00
 2194              	.LASF24:
 2195 0482 74707269 		.ascii	"tprio_t\000"
 2195      6F5F7400 
 2196              	.LASF65:
 2197 048a 63685F73 		.ascii	"ch_system_debug\000"
 2197      79737465 
 2197      6D5F6465 
 2197      62756700 
ARM GAS  /tmp/cczdLhzH.s 			page 43


 2198              	.LASF104:
 2199 049a 5F426F6F 		.ascii	"_Bool\000"
 2199      6C00
 2200              	.LASF16:
 2201 04a0 696E7433 		.ascii	"int32_t\000"
 2201      325F7400 
 2202              	.LASF2:
 2203 04a8 756E7369 		.ascii	"unsigned char\000"
 2203      676E6564 
 2203      20636861 
 2203      7200
 2204              	.LASF3:
 2205 04b6 73686F72 		.ascii	"short int\000"
 2205      7420696E 
 2205      7400
 2206              	.LASF63:
 2207 04c0 6C617374 		.ascii	"lasttime\000"
 2207      74696D65 
 2207      00
 2208              	.LASF81:
 2209 04c9 68616C74 		.ascii	"halt\000"
 2209      00
 2210              	.LASF99:
 2211 04ce 65776D61 		.ascii	"ewmask\000"
 2211      736B00
 2212              	.LASF69:
 2213 04d5 63685F73 		.ascii	"ch_system\000"
 2213      79737465 
 2213      6D00
 2214              	.LASF19:
 2215 04df 75696E74 		.ascii	"uint_fast8_t\000"
 2215      5F666173 
 2215      74385F74 
 2215      00
 2216              	.LASF122:
 2217 04ec 5F5F6675 		.ascii	"__func__\000"
 2217      6E635F5F 
 2217      00
 2218              	.LASF80:
 2219 04f5 72656173 		.ascii	"reason\000"
 2219      6F6E00
 2220              	.LASF58:
 2221 04fc 63685F76 		.ascii	"ch_virtual_timer\000"
 2221      69727475 
 2221      616C5F74 
 2221      696D6572 
 2221      00
 2222              	.LASF100:
 2223 050d 63685F73 		.ascii	"ch_semaphore\000"
 2223      656D6170 
 2223      686F7265 
 2223      00
 2224              	.LASF17:
 2225 051a 75696E74 		.ascii	"uint32_t\000"
 2225      33325F74 
 2225      00
 2226              	.LASF98:
ARM GAS  /tmp/cczdLhzH.s 			page 44


 2227 0523 77746D74 		.ascii	"wtmtxp\000"
 2227      787000
 2228              	.LASF48:
 2229 052a 63685F74 		.ascii	"ch_threads_list\000"
 2229      68726561 
 2229      64735F6C 
 2229      69737400 
 2230              	.LASF102:
 2231 053a 6F776E65 		.ascii	"owner\000"
 2231      7200
 2232              	.LASF35:
 2233 0540 77616261 		.ascii	"wabase\000"
 2233      736500
 2234              	.LASF79:
 2235 0547 63686172 		.ascii	"char\000"
 2235      00
 2236              	.LASF33:
 2237 054c 6F6C6465 		.ascii	"older\000"
 2237      7200
 2238              	.LASF125:
 2239 0552 6D6F6465 		.ascii	"mode\000"
 2239      00
 2240              	.LASF5:
 2241 0557 5F5F7569 		.ascii	"__uint16_t\000"
 2241      6E743136 
 2241      5F7400
 2242              	.LASF29:
 2243 0562 74687265 		.ascii	"thread_t\000"
 2243      61645F74 
 2243      00
 2244              	.LASF28:
 2245 056b 73797374 		.ascii	"systime_t\000"
 2245      696D655F 
 2245      7400
 2246              	.LASF56:
 2247 0575 76746675 		.ascii	"vtfunc_t\000"
 2247      6E635F74 
 2247      00
 2248              	.LASF66:
 2249 057e 70616E69 		.ascii	"panic_msg\000"
 2249      635F6D73 
 2249      6700
 2250              	.LASF91:
 2251 0588 6F666673 		.ascii	"offset\000"
 2251      657400
 2252              	.LASF117:
 2253 058f 696F706F 		.ascii	"ioportid_t\000"
 2253      72746964 
 2253      5F7400
 2254              	.LASF131:
 2255 059a 5F70616C 		.ascii	"_pal_lld_setgroupmode\000"
 2255      5F6C6C64 
 2255      5F736574 
 2255      67726F75 
 2255      706D6F64 
 2256              	.LASF20:
 2257 05b0 7274636E 		.ascii	"rtcnt_t\000"
ARM GAS  /tmp/cczdLhzH.s 			page 45


 2257      745F7400 
 2258              	.LASF123:
 2259 05b8 70616C57 		.ascii	"palWriteBus\000"
 2259      72697465 
 2259      42757300 
 2260              	.LASF50:
 2261 05c4 74687265 		.ascii	"threads_queue_t\000"
 2261      6164735F 
 2261      71756575 
 2261      655F7400 
 2262              	.LASF101:
 2263 05d4 63685F6D 		.ascii	"ch_mutex\000"
 2263      75746578 
 2263      00
 2264              	.LASF70:
 2265 05dd 726C6973 		.ascii	"rlist\000"
 2265      7400
 2266              	.LASF14:
 2267 05e3 75696E74 		.ascii	"uint8_t\000"
 2267      385F7400 
 2268              	.LASF37:
 2269 05eb 666C6167 		.ascii	"flags\000"
 2269      7300
 2270              	.LASF78:
 2271 05f1 77746F62 		.ascii	"wtobjp\000"
 2271      6A7000
 2272              	.LASF46:
 2273 05f8 74687265 		.ascii	"threads_list_t\000"
 2273      6164735F 
 2273      6C697374 
 2273      5F7400
 2274              	.LASF67:
 2275 0607 74726163 		.ascii	"trace_buffer\000"
 2275      655F6275 
 2275      66666572 
 2275      00
 2276              	.LASF42:
 2277 0614 6D74786C 		.ascii	"mtxlist\000"
 2277      69737400 
 2278              	.LASF116:
 2279 061c 696F6D6F 		.ascii	"iomode_t\000"
 2279      64655F74 
 2279      00
 2280              	.LASF130:
 2281 0625 70616C52 		.ascii	"palReadBus\000"
 2281      65616442 
 2281      757300
 2282              		.ident	"GCC: (4.8.2-14ubuntu1+6) 4.8.2"
ARM GAS  /tmp/cczdLhzH.s 			page 46


DEFINED SYMBOLS
                            *ABS*:0000000000000000 hal_pal.c
     /tmp/cczdLhzH.s:19     .text.palReadBus:0000000000000000 $t
     /tmp/cczdLhzH.s:25     .text.palReadBus:0000000000000000 palReadBus
     /tmp/cczdLhzH.s:48     .text.palWriteBus:0000000000000000 $t
     /tmp/cczdLhzH.s:54     .text.palWriteBus:0000000000000000 palWriteBus
     /tmp/cczdLhzH.s:85     .text.palSetBusMode:0000000000000000 $t
     /tmp/cczdLhzH.s:91     .text.palSetBusMode:0000000000000000 palSetBusMode
                     .debug_frame:0000000000000010 $d

UNDEFINED SYMBOLS
_pal_lld_setgroupmode
