ARM GAS  /tmp/ccF4aUDx.s 			page 1


   1              		.syntax unified
   2              		.cpu cortex-m4
   3              		.fpu softvfp
   4              		.eabi_attribute 20, 1
   5              		.eabi_attribute 21, 1
   6              		.eabi_attribute 23, 3
   7              		.eabi_attribute 24, 1
   8              		.eabi_attribute 25, 1
   9              		.eabi_attribute 26, 1
  10              		.eabi_attribute 30, 2
  11              		.eabi_attribute 34, 1
  12              		.eabi_attribute 18, 4
  13              		.thumb
  14              		.file	"hal_adc.c"
  15              		.text
  16              	.Ltext0:
  17              		.cfi_sections	.debug_frame
  18              		.section	.text.adcInit,"ax",%progbits
  19              		.align	2
  20              		.p2align 4,,15
  21              		.global	adcInit
  22              		.thumb
  23              		.thumb_func
  24              		.type	adcInit, %function
  25              	adcInit:
  26              	.LFB270:
  27              		.file 1 "../../../../../ChibiOS-RT/os/hal/src/hal_adc.c"
  28              		.loc 1 56 0
  29              		.cfi_startproc
  30              		@ args = 0, pretend = 0, frame = 0
  31              		@ frame_needed = 0, uses_anonymous_args = 0
  32              		@ link register save eliminated.
  33              		.loc 1 58 0
  34 0000 FFF7FEBF 		b	adc_lld_init
  35              	.LVL0:
  36              		.cfi_endproc
  37              	.LFE270:
  38              		.size	adcInit, .-adcInit
  39 0004 AFF30080 		.section	.text.adcObjectInit,"ax",%progbits
  39      AFF30080 
  39      AFF30080 
  40              		.align	2
  41              		.p2align 4,,15
  42              		.global	adcObjectInit
  43              		.thumb
  44              		.thumb_func
  45              		.type	adcObjectInit, %function
  46              	adcObjectInit:
  47              	.LFB271:
  48              		.loc 1 68 0
  49              		.cfi_startproc
  50              		@ args = 0, pretend = 0, frame = 0
  51              		@ frame_needed = 0, uses_anonymous_args = 0
  52              		@ link register save eliminated.
  53              	.LVL1:
  54              		.loc 1 71 0
  55 0000 0023     		movs	r3, #0
ARM GAS  /tmp/ccF4aUDx.s 			page 2


  56              		.loc 1 70 0
  57 0002 0122     		movs	r2, #1
  58 0004 0270     		strb	r2, [r0]
  59              		.loc 1 71 0
  60 0006 4360     		str	r3, [r0, #4]
  61              		.loc 1 72 0
  62 0008 8360     		str	r3, [r0, #8]
  63              		.loc 1 73 0
  64 000a C360     		str	r3, [r0, #12]
  65              		.loc 1 74 0
  66 000c 0361     		str	r3, [r0, #16]
  67              		.loc 1 76 0
  68 000e 4361     		str	r3, [r0, #20]
  69              	.LVL2:
  70              	.LBB105:
  71              	.LBB106:
  72              		.file 2 "../../../../../ChibiOS-RT/os/hal/osal/rt/osal.h"
  73              		.loc 2 887 0
  74 0010 1830     		adds	r0, r0, #24
  75              	.LVL3:
  76 0012 FFF7FEBF 		b	chMtxObjectInit
  77              	.LVL4:
  78              	.LBE106:
  79              	.LBE105:
  80              		.cfi_endproc
  81              	.LFE271:
  82              		.size	adcObjectInit, .-adcObjectInit
  83 0016 00BFAFF3 		.section	.text.adcStart,"ax",%progbits
  83      0080AFF3 
  83      0080
  84              		.align	2
  85              		.p2align 4,,15
  86              		.global	adcStart
  87              		.thumb
  88              		.thumb_func
  89              		.type	adcStart, %function
  90              	adcStart:
  91              	.LFB272:
  92              		.loc 1 95 0
  93              		.cfi_startproc
  94              		@ args = 0, pretend = 0, frame = 0
  95              		@ frame_needed = 0, uses_anonymous_args = 0
  96              	.LVL5:
  97 0000 10B5     		push	{r4, lr}
  98              		.cfi_def_cfa_offset 8
  99              		.cfi_offset 4, -8
 100              		.cfi_offset 14, -4
 101              	.LBB107:
 102              	.LBB108:
 103              	.LBB109:
 104              	.LBB110:
 105              	.LBB111:
 106              		.file 3 "../../../../../ChibiOS-RT/os/common/ext/CMSIS/include/cmsis_gcc.h"
 107              		.loc 3 264 0
 108 0002 2023     		movs	r3, #32
 109              	.LBE111:
 110              	.LBE110:
ARM GAS  /tmp/ccF4aUDx.s 			page 3


 111              	.LBE109:
 112              	.LBE108:
 113              	.LBE107:
 114              		.loc 1 95 0
 115 0004 0446     		mov	r4, r0
 116              	.LBB116:
 117              	.LBB115:
 118              	.LBB114:
 119              	.LBB113:
 120              	.LBB112:
 121              		.loc 3 264 0
 122              	@ 264 "../../../../../ChibiOS-RT/os/common/ext/CMSIS/include/cmsis_gcc.h" 1
 123 0006 83F31188 		MSR basepri, r3
 124              	@ 0 "" 2
 125              		.thumb
 126              	.LBE112:
 127              	.LBE113:
 128              	.LBE114:
 129              	.LBE115:
 130              	.LBE116:
 131              		.loc 1 102 0
 132 000a 4160     		str	r1, [r0, #4]
 133              		.loc 1 103 0
 134 000c FFF7FEFF 		bl	adc_lld_start
 135              	.LVL6:
 136              		.loc 1 104 0
 137 0010 0223     		movs	r3, #2
 138 0012 2370     		strb	r3, [r4]
 139              	.LVL7:
 140              	.LBB117:
 141              	.LBB118:
 142              	.LBB119:
 143              	.LBB120:
 144              	.LBB121:
 145              	.LBB122:
 146              		.loc 3 264 0
 147 0014 0023     		movs	r3, #0
 148              	@ 264 "../../../../../ChibiOS-RT/os/common/ext/CMSIS/include/cmsis_gcc.h" 1
 149 0016 83F31188 		MSR basepri, r3
 150              	@ 0 "" 2
 151              		.thumb
 152 001a 10BD     		pop	{r4, pc}
 153              	.LBE122:
 154              	.LBE121:
 155              	.LBE120:
 156              	.LBE119:
 157              	.LBE118:
 158              	.LBE117:
 159              		.cfi_endproc
 160              	.LFE272:
 161              		.size	adcStart, .-adcStart
 162 001c AFF30080 		.section	.text.adcStop,"ax",%progbits
 163              		.align	2
 164              		.p2align 4,,15
 165              		.global	adcStop
 166              		.thumb
 167              		.thumb_func
ARM GAS  /tmp/ccF4aUDx.s 			page 4


 168              		.type	adcStop, %function
 169              	adcStop:
 170              	.LFB273:
 171              		.loc 1 115 0
 172              		.cfi_startproc
 173              		@ args = 0, pretend = 0, frame = 0
 174              		@ frame_needed = 0, uses_anonymous_args = 0
 175              	.LVL8:
 176 0000 10B5     		push	{r4, lr}
 177              		.cfi_def_cfa_offset 8
 178              		.cfi_offset 4, -8
 179              		.cfi_offset 14, -4
 180              	.LBB123:
 181              	.LBB124:
 182              	.LBB125:
 183              	.LBB126:
 184              	.LBB127:
 185              		.loc 3 264 0
 186 0002 2023     		movs	r3, #32
 187              	.LBE127:
 188              	.LBE126:
 189              	.LBE125:
 190              	.LBE124:
 191              	.LBE123:
 192              		.loc 1 115 0
 193 0004 0446     		mov	r4, r0
 194              	.LBB132:
 195              	.LBB131:
 196              	.LBB130:
 197              	.LBB129:
 198              	.LBB128:
 199              		.loc 3 264 0
 200              	@ 264 "../../../../../ChibiOS-RT/os/common/ext/CMSIS/include/cmsis_gcc.h" 1
 201 0006 83F31188 		MSR basepri, r3
 202              	@ 0 "" 2
 203              		.thumb
 204              	.LBE128:
 205              	.LBE129:
 206              	.LBE130:
 207              	.LBE131:
 208              	.LBE132:
 209              		.loc 1 122 0
 210 000a FFF7FEFF 		bl	adc_lld_stop
 211              	.LVL9:
 212              		.loc 1 123 0
 213 000e 0123     		movs	r3, #1
 214 0010 2370     		strb	r3, [r4]
 215              	.LVL10:
 216              	.LBB133:
 217              	.LBB134:
 218              	.LBB135:
 219              	.LBB136:
 220              	.LBB137:
 221              	.LBB138:
 222              		.loc 3 264 0
 223 0012 0023     		movs	r3, #0
 224              	@ 264 "../../../../../ChibiOS-RT/os/common/ext/CMSIS/include/cmsis_gcc.h" 1
ARM GAS  /tmp/ccF4aUDx.s 			page 5


 225 0014 83F31188 		MSR basepri, r3
 226              	@ 0 "" 2
 227              		.thumb
 228 0018 10BD     		pop	{r4, pc}
 229              	.LBE138:
 230              	.LBE137:
 231              	.LBE136:
 232              	.LBE135:
 233              	.LBE134:
 234              	.LBE133:
 235              		.cfi_endproc
 236              	.LFE273:
 237              		.size	adcStop, .-adcStop
 238 001a 00BFAFF3 		.section	.text.adcStartConversion,"ax",%progbits
 238      0080
 239              		.align	2
 240              		.p2align 4,,15
 241              		.global	adcStartConversion
 242              		.thumb
 243              		.thumb_func
 244              		.type	adcStartConversion, %function
 245              	adcStartConversion:
 246              	.LFB274:
 247              		.loc 1 146 0
 248              		.cfi_startproc
 249              		@ args = 0, pretend = 0, frame = 0
 250              		@ frame_needed = 0, uses_anonymous_args = 0
 251              	.LVL11:
 252 0000 10B5     		push	{r4, lr}
 253              		.cfi_def_cfa_offset 8
 254              		.cfi_offset 4, -8
 255              		.cfi_offset 14, -4
 256              	.LBB139:
 257              	.LBB140:
 258              	.LBB141:
 259              	.LBB142:
 260              	.LBB143:
 261              		.loc 3 264 0
 262 0002 2024     		movs	r4, #32
 263              	@ 264 "../../../../../ChibiOS-RT/os/common/ext/CMSIS/include/cmsis_gcc.h" 1
 264 0004 84F31188 		MSR basepri, r4
 265              	@ 0 "" 2
 266              	.LVL12:
 267              		.thumb
 268              	.LBE143:
 269              	.LBE142:
 270              	.LBE141:
 271              	.LBE140:
 272              	.LBE139:
 273              	.LBB144:
 274              	.LBB145:
 275              		.loc 1 187 0
 276 0008 0324     		movs	r4, #3
 277              		.loc 1 185 0
 278 000a C360     		str	r3, [r0, #12]
 279              		.loc 1 184 0
 280 000c 8260     		str	r2, [r0, #8]
ARM GAS  /tmp/ccF4aUDx.s 			page 6


 281              		.loc 1 186 0
 282 000e 0161     		str	r1, [r0, #16]
 283              		.loc 1 187 0
 284 0010 0470     		strb	r4, [r0]
 285              		.loc 1 188 0
 286 0012 FFF7FEFF 		bl	adc_lld_start_conversion
 287              	.LVL13:
 288              	.LBE145:
 289              	.LBE144:
 290              	.LBB146:
 291              	.LBB147:
 292              	.LBB148:
 293              	.LBB149:
 294              	.LBB150:
 295              	.LBB151:
 296              		.loc 3 264 0
 297 0016 0023     		movs	r3, #0
 298              	@ 264 "../../../../../ChibiOS-RT/os/common/ext/CMSIS/include/cmsis_gcc.h" 1
 299 0018 83F31188 		MSR basepri, r3
 300              	@ 0 "" 2
 301              		.thumb
 302 001c 10BD     		pop	{r4, pc}
 303              	.LBE151:
 304              	.LBE150:
 305              	.LBE149:
 306              	.LBE148:
 307              	.LBE147:
 308              	.LBE146:
 309              		.cfi_endproc
 310              	.LFE274:
 311              		.size	adcStartConversion, .-adcStartConversion
 312 001e 00BF     		.section	.text.adcStartConversionI,"ax",%progbits
 313              		.align	2
 314              		.p2align 4,,15
 315              		.global	adcStartConversionI
 316              		.thumb
 317              		.thumb_func
 318              		.type	adcStartConversionI, %function
 319              	adcStartConversionI:
 320              	.LFB275:
 321              		.loc 1 174 0
 322              		.cfi_startproc
 323              		@ args = 0, pretend = 0, frame = 0
 324              		@ frame_needed = 0, uses_anonymous_args = 0
 325              		@ link register save eliminated.
 326              	.LVL14:
 327 0000 30B4     		push	{r4, r5}
 328              		.cfi_def_cfa_offset 8
 329              		.cfi_offset 4, -8
 330              		.cfi_offset 5, -4
 331              		.loc 1 187 0
 332 0002 0325     		movs	r5, #3
 333 0004 0570     		strb	r5, [r0]
 334              		.loc 1 184 0
 335 0006 8260     		str	r2, [r0, #8]
 336              		.loc 1 185 0
 337 0008 C360     		str	r3, [r0, #12]
ARM GAS  /tmp/ccF4aUDx.s 			page 7


 338              		.loc 1 186 0
 339 000a 0161     		str	r1, [r0, #16]
 340              		.loc 1 189 0
 341 000c 30BC     		pop	{r4, r5}
 342              		.loc 1 188 0
 343 000e FFF7FEBF 		b	adc_lld_start_conversion
 344              	.LVL15:
 345              		.cfi_endproc
 346              	.LFE275:
 347              		.size	adcStartConversionI, .-adcStartConversionI
 348 0012 00BFAFF3 		.section	.text.adcStopConversion,"ax",%progbits
 348      0080AFF3 
 348      0080AFF3 
 348      0080
 349              		.align	2
 350              		.p2align 4,,15
 351              		.global	adcStopConversion
 352              		.thumb
 353              		.thumb_func
 354              		.type	adcStopConversion, %function
 355              	adcStopConversion:
 356              	.LFB276:
 357              		.loc 1 201 0
 358              		.cfi_startproc
 359              		@ args = 0, pretend = 0, frame = 0
 360              		@ frame_needed = 0, uses_anonymous_args = 0
 361              	.LVL16:
 362 0000 10B5     		push	{r4, lr}
 363              		.cfi_def_cfa_offset 8
 364              		.cfi_offset 4, -8
 365              		.cfi_offset 14, -4
 366              	.LBB152:
 367              	.LBB153:
 368              	.LBB154:
 369              	.LBB155:
 370              	.LBB156:
 371              		.loc 3 264 0
 372 0002 2023     		movs	r3, #32
 373              	.LBE156:
 374              	.LBE155:
 375              	.LBE154:
 376              	.LBE153:
 377              	.LBE152:
 378              		.loc 1 201 0
 379 0004 0446     		mov	r4, r0
 380              	.LBB161:
 381              	.LBB160:
 382              	.LBB159:
 383              	.LBB158:
 384              	.LBB157:
 385              		.loc 3 264 0
 386              	@ 264 "../../../../../ChibiOS-RT/os/common/ext/CMSIS/include/cmsis_gcc.h" 1
 387 0006 83F31188 		MSR basepri, r3
 388              	@ 0 "" 2
 389              		.thumb
 390              	.LBE157:
 391              	.LBE158:
ARM GAS  /tmp/ccF4aUDx.s 			page 8


 392              	.LBE159:
 393              	.LBE160:
 394              	.LBE161:
 395              		.loc 1 208 0
 396 000a 0378     		ldrb	r3, [r0]	@ zero_extendqisi2
 397 000c 022B     		cmp	r3, #2
 398 000e 0BD0     		beq	.L8
 399              		.loc 1 209 0
 400 0010 FFF7FEFF 		bl	adc_lld_stop_conversion
 401              	.LVL17:
 402              		.loc 1 211 0
 403 0014 2046     		mov	r0, r4
 404              		.loc 1 210 0
 405 0016 0022     		movs	r2, #0
 406              		.loc 1 211 0
 407 0018 0223     		movs	r3, #2
 408              		.loc 1 210 0
 409 001a 2261     		str	r2, [r4, #16]
 410              	.LBB162:
 411              	.LBB163:
 412              		.loc 2 743 0
 413 001c 6FF00101 		mvn	r1, #1
 414              	.LBE163:
 415              	.LBE162:
 416              		.loc 1 211 0
 417 0020 00F8143B 		strb	r3, [r0], #20
 418              	.LVL18:
 419              	.LBB165:
 420              	.LBB164:
 421              		.loc 2 743 0
 422 0024 FFF7FEFF 		bl	chThdResumeS
 423              	.LVL19:
 424              	.L8:
 425              	.LBE164:
 426              	.LBE165:
 427              	.LBB166:
 428              	.LBB167:
 429              	.LBB168:
 430              	.LBB169:
 431              	.LBB170:
 432              	.LBB171:
 433              		.loc 3 264 0
 434 0028 0023     		movs	r3, #0
 435              	@ 264 "../../../../../ChibiOS-RT/os/common/ext/CMSIS/include/cmsis_gcc.h" 1
 436 002a 83F31188 		MSR basepri, r3
 437              	@ 0 "" 2
 438              		.thumb
 439 002e 10BD     		pop	{r4, pc}
 440              	.LBE171:
 441              	.LBE170:
 442              	.LBE169:
 443              	.LBE168:
 444              	.LBE167:
 445              	.LBE166:
 446              		.cfi_endproc
 447              	.LFE276:
 448              		.size	adcStopConversion, .-adcStopConversion
ARM GAS  /tmp/ccF4aUDx.s 			page 9


 449              		.section	.text.adcStopConversionI,"ax",%progbits
 450              		.align	2
 451              		.p2align 4,,15
 452              		.global	adcStopConversionI
 453              		.thumb
 454              		.thumb_func
 455              		.type	adcStopConversionI, %function
 456              	adcStopConversionI:
 457              	.LFB277:
 458              		.loc 1 227 0
 459              		.cfi_startproc
 460              		@ args = 0, pretend = 0, frame = 0
 461              		@ frame_needed = 0, uses_anonymous_args = 0
 462              	.LVL20:
 463              		.loc 1 236 0
 464 0000 0378     		ldrb	r3, [r0]	@ zero_extendqisi2
 465 0002 022B     		cmp	r3, #2
 466              		.loc 1 227 0
 467 0004 10B5     		push	{r4, lr}
 468              		.cfi_def_cfa_offset 8
 469              		.cfi_offset 4, -8
 470              		.cfi_offset 14, -4
 471              		.loc 1 227 0
 472 0006 0446     		mov	r4, r0
 473              		.loc 1 236 0
 474 0008 0DD0     		beq	.L13
 475              		.loc 1 237 0
 476 000a FFF7FEFF 		bl	adc_lld_stop_conversion
 477              	.LVL21:
 478              		.loc 1 239 0
 479 000e 2046     		mov	r0, r4
 480              		.loc 1 238 0
 481 0010 0022     		movs	r2, #0
 482              		.loc 1 239 0
 483 0012 0223     		movs	r3, #2
 484              		.loc 1 238 0
 485 0014 2261     		str	r2, [r4, #16]
 486              	.LBB172:
 487              	.LBB173:
 488              		.loc 2 728 0
 489 0016 6FF00101 		mvn	r1, #1
 490              	.LBE173:
 491              	.LBE172:
 492              		.loc 1 239 0
 493 001a 00F8143B 		strb	r3, [r0], #20
 494              	.LVL22:
 495              		.loc 1 242 0
 496 001e BDE81040 		pop	{r4, lr}
 497              	.LVL23:
 498              	.LBB175:
 499              	.LBB174:
 500              		.loc 2 728 0
 501 0022 FFF7FEBF 		b	chThdResumeI
 502              	.LVL24:
 503              	.L13:
 504 0026 10BD     		pop	{r4, pc}
 505              	.LBE174:
ARM GAS  /tmp/ccF4aUDx.s 			page 10


 506              	.LBE175:
 507              		.cfi_endproc
 508              	.LFE277:
 509              		.size	adcStopConversionI, .-adcStopConversionI
 510 0028 AFF30080 		.section	.text.adcConvert,"ax",%progbits
 510      AFF30080 
 511              		.align	2
 512              		.p2align 4,,15
 513              		.global	adcConvert
 514              		.thumb
 515              		.thumb_func
 516              		.type	adcConvert, %function
 517              	adcConvert:
 518              	.LFB278:
 519              		.loc 1 271 0
 520              		.cfi_startproc
 521              		@ args = 0, pretend = 0, frame = 0
 522              		@ frame_needed = 0, uses_anonymous_args = 0
 523              	.LVL25:
 524 0000 10B5     		push	{r4, lr}
 525              		.cfi_def_cfa_offset 8
 526              		.cfi_offset 4, -8
 527              		.cfi_offset 14, -4
 528              		.loc 1 271 0
 529 0002 0446     		mov	r4, r0
 530              	.LBB176:
 531              	.LBB177:
 532              	.LBB178:
 533              	.LBB179:
 534              	.LBB180:
 535              		.loc 3 264 0
 536 0004 2020     		movs	r0, #32
 537              	.LVL26:
 538              	@ 264 "../../../../../ChibiOS-RT/os/common/ext/CMSIS/include/cmsis_gcc.h" 1
 539 0006 80F31188 		MSR basepri, r0
 540              	@ 0 "" 2
 541              	.LVL27:
 542              		.thumb
 543              	.LBE180:
 544              	.LBE179:
 545              	.LBE178:
 546              	.LBE177:
 547              	.LBE176:
 548              	.LBB181:
 549              	.LBB182:
 550              		.loc 1 187 0
 551 000a 0320     		movs	r0, #3
 552              		.loc 1 185 0
 553 000c E360     		str	r3, [r4, #12]
 554              		.loc 1 184 0
 555 000e A260     		str	r2, [r4, #8]
 556              		.loc 1 186 0
 557 0010 2161     		str	r1, [r4, #16]
 558              		.loc 1 187 0
 559 0012 2070     		strb	r0, [r4]
 560              		.loc 1 188 0
 561 0014 2046     		mov	r0, r4
ARM GAS  /tmp/ccF4aUDx.s 			page 11


 562 0016 FFF7FEFF 		bl	adc_lld_start_conversion
 563              	.LVL28:
 564              	.LBE182:
 565              	.LBE181:
 566              	.LBB183:
 567              	.LBB184:
 568              		.loc 2 688 0
 569 001a 04F11400 		add	r0, r4, #20
 570              	.LVL29:
 571 001e FFF7FEFF 		bl	chThdSuspendS
 572              	.LVL30:
 573              	.LBE184:
 574              	.LBE183:
 575              	.LBB185:
 576              	.LBB186:
 577              	.LBB187:
 578              	.LBB188:
 579              	.LBB189:
 580              	.LBB190:
 581              		.loc 3 264 0
 582 0022 0023     		movs	r3, #0
 583              	@ 264 "../../../../../ChibiOS-RT/os/common/ext/CMSIS/include/cmsis_gcc.h" 1
 584 0024 83F31188 		MSR basepri, r3
 585              	@ 0 "" 2
 586              		.thumb
 587              	.LBE190:
 588              	.LBE189:
 589              	.LBE188:
 590              	.LBE187:
 591              	.LBE186:
 592              	.LBE185:
 593              		.loc 1 280 0
 594 0028 10BD     		pop	{r4, pc}
 595              		.cfi_endproc
 596              	.LFE278:
 597              		.size	adcConvert, .-adcConvert
 598 002a 00BFAFF3 		.section	.text.adcAcquireBus,"ax",%progbits
 598      0080
 599              		.align	2
 600              		.p2align 4,,15
 601              		.global	adcAcquireBus
 602              		.thumb
 603              		.thumb_func
 604              		.type	adcAcquireBus, %function
 605              	adcAcquireBus:
 606              	.LFB279:
 607              		.loc 1 295 0
 608              		.cfi_startproc
 609              		@ args = 0, pretend = 0, frame = 0
 610              		@ frame_needed = 0, uses_anonymous_args = 0
 611              		@ link register save eliminated.
 612              	.LVL31:
 613              	.LBB191:
 614              	.LBB192:
 615              		.loc 2 907 0
 616 0000 1830     		adds	r0, r0, #24
 617              	.LVL32:
ARM GAS  /tmp/ccF4aUDx.s 			page 12


 618 0002 FFF7FEBF 		b	chMtxLock
 619              	.LVL33:
 620              	.LBE192:
 621              	.LBE191:
 622              		.cfi_endproc
 623              	.LFE279:
 624              		.size	adcAcquireBus, .-adcAcquireBus
 625 0006 00BFAFF3 		.section	.text.adcReleaseBus,"ax",%progbits
 625      0080AFF3 
 625      0080
 626              		.align	2
 627              		.p2align 4,,15
 628              		.global	adcReleaseBus
 629              		.thumb
 630              		.thumb_func
 631              		.type	adcReleaseBus, %function
 632              	adcReleaseBus:
 633              	.LFB280:
 634              		.loc 1 311 0
 635              		.cfi_startproc
 636              		@ args = 0, pretend = 0, frame = 0
 637              		@ frame_needed = 0, uses_anonymous_args = 0
 638              		@ link register save eliminated.
 639              	.LVL34:
 640              	.LBB193:
 641              	.LBB194:
 642              		.loc 2 931 0
 643 0000 1830     		adds	r0, r0, #24
 644              	.LVL35:
 645 0002 FFF7FEBF 		b	chMtxUnlock
 646              	.LVL36:
 647              	.LBE194:
 648              	.LBE193:
 649              		.cfi_endproc
 650              	.LFE280:
 651              		.size	adcReleaseBus, .-adcReleaseBus
 652 0006 00BFAFF3 		.text
 652      0080AFF3 
 652      0080
 653              	.Letext0:
 654              		.file 4 "/usr/lib/gcc/arm-none-eabi/4.8.2/include/stddef.h"
 655              		.file 5 "/usr/include/newlib/machine/_default_types.h"
 656              		.file 6 "/usr/include/newlib/stdint.h"
 657              		.file 7 "../../../../../ChibiOS-RT/os/common/ports/ARMCMx/compilers/GCC/chtypes.h"
 658              		.file 8 "../../../../../ChibiOS-RT/os/rt/include/chsystypes.h"
 659              		.file 9 "../../../../../ChibiOS-RT/os/rt/include/chschd.h"
 660              		.file 10 "../../../../../ChibiOS-RT/os/common/ext/CMSIS/ST/STM32F4xx/stm32f401xe.h"
 661              		.file 11 "../../../../../ChibiOS-RT/os/common/ports/ARMCMx/chcore.h"
 662              		.file 12 "../../../../../ChibiOS-RT/os/common/ports/ARMCMx/chcore_v7m.h"
 663              		.file 13 "../../../../../ChibiOS-RT/os/rt/include/chtrace.h"
 664              		.file 14 "../../../../../ChibiOS-RT/os/rt/include/chtm.h"
 665              		.file 15 "../../../../../ChibiOS-RT/os/rt/include/chsem.h"
 666              		.file 16 "../../../../../ChibiOS-RT/os/rt/include/chmtx.h"
 667              		.file 17 "../../../../../ChibiOS-RT/os/hal/ports/STM32/LLD/DMAv2/stm32_dma.h"
 668              		.file 18 "../../../../../ChibiOS-RT/os/hal/include/hal_adc.h"
 669              		.file 19 "../../../../../ChibiOS-RT/os/hal/ports/STM32/LLD/ADCv2/hal_adc_lld.h"
 670              		.file 20 "../../../../../ChibiOS-RT/os/rt/include/chsys.h"
ARM GAS  /tmp/ccF4aUDx.s 			page 13


 671              		.file 21 "../../../../../ChibiOS-RT/os/rt/include/chthreads.h"
 672              		.file 22 "../../../../../ChibiOS-RT/os/common/ext/CMSIS/include/core_cm4.h"