ARM GAS  /tmp/ccZ2NTAT.s 			page 1


   1              		.syntax unified
   2              		.cpu cortex-m4
   3              		.fpu softvfp
   4              		.eabi_attribute 20, 1
   5              		.eabi_attribute 21, 1
   6              		.eabi_attribute 23, 3
   7              		.eabi_attribute 24, 1
   8              		.eabi_attribute 25, 1
   9              		.eabi_attribute 26, 1
  10              		.eabi_attribute 30, 2
  11              		.eabi_attribute 34, 1
  12              		.eabi_attribute 18, 4
  13              		.thumb
  14              		.file	"hal_rtc_lld.c"
  15              		.text
  16              	.Ltext0:
  17              		.cfi_sections	.debug_frame
  18              		.section	.text.rtc_lld_init,"ax",%progbits
  19              		.align	2
  20              		.p2align 4,,15
  21              		.global	rtc_lld_init
  22              		.thumb
  23              		.thumb_func
  24              		.type	rtc_lld_init, %function
  25              	rtc_lld_init:
  26              	.LFB276:
  27              		.file 1 "../../../../../ChibiOS-RT/os/hal/ports/STM32/LLD/RTCv2/hal_rtc_lld.c"
  28              		.loc 1 294 0
  29              		.cfi_startproc
  30              		@ args = 0, pretend = 0, frame = 0
  31              		@ frame_needed = 0, uses_anonymous_args = 0
  32 0000 10B5     		push	{r4, lr}
  33              		.cfi_def_cfa_offset 8
  34              		.cfi_offset 4, -8
  35              		.cfi_offset 14, -4
  36              		.loc 1 297 0
  37 0002 40F20004 		movw	r4, #:lower16:.LANCHOR0
  38 0006 C0F20004 		movt	r4, #:upper16:.LANCHOR0
  39 000a 2046     		mov	r0, r4
  40 000c FFF7FEFF 		bl	rtcObjectInit
  41              	.LVL0:
  42              		.loc 1 300 0
  43 0010 4FF42053 		mov	r3, #10240
  44 0014 C4F20003 		movt	r3, 16384
  45              		.loc 1 304 0
  46 0018 5322     		movs	r2, #83
  47              		.loc 1 303 0
  48 001a CA21     		movs	r1, #202
  49              		.loc 1 300 0
  50 001c 2360     		str	r3, [r4]
  51              		.loc 1 303 0
  52 001e 5962     		str	r1, [r3, #36]
  53              		.loc 1 304 0
  54 0020 5A62     		str	r2, [r3, #36]
  55              		.loc 1 308 0
  56 0022 DA68     		ldr	r2, [r3, #12]
  57 0024 12F0100F 		tst	r2, #16
ARM GAS  /tmp/ccZ2NTAT.s 			page 2


  58              	.LBB30:
  59              	.LBB31:
  60              		.loc 1 77 0
  61 0028 DA68     		ldr	r2, [r3, #12]
  62              	.LBE31:
  63              	.LBE30:
  64              		.loc 1 308 0
  65 002a 19D1     		bne	.L2
  66              	.LBB33:
  67              	.LBB32:
  68              		.loc 1 77 0
  69 002c 42F08002 		orr	r2, r2, #128
  70 0030 DA60     		str	r2, [r3, #12]
  71              		.loc 1 78 0
  72 0032 1946     		mov	r1, r3
  73              	.L4:
  74 0034 CA68     		ldr	r2, [r1, #12]
  75 0036 4FF42053 		mov	r3, #10240
  76 003a 5206     		lsls	r2, r2, #25
  77 003c C4F20003 		movt	r3, 16384
  78 0040 F8D5     		bpl	.L4
  79              	.LBE32:
  80              	.LBE33:
  81              		.loc 1 314 0
  82 0042 40F2FF32 		movw	r2, #1023
  83 0046 C0F21F02 		movt	r2, 31
  84              		.loc 1 312 0
  85 004a 0020     		movs	r0, #0
  86              		.loc 1 313 0
  87 004c 8021     		movs	r1, #128
  88              		.loc 1 312 0
  89 004e 9860     		str	r0, [r3, #8]
  90              		.loc 1 313 0
  91 0050 D960     		str	r1, [r3, #12]
  92              		.loc 1 314 0
  93 0052 1A61     		str	r2, [r3, #16]
  94              		.loc 1 315 0
  95 0054 1A61     		str	r2, [r3, #16]
  96              	.LBB34:
  97              	.LBB35:
  98              		.loc 1 89 0
  99 0056 DA68     		ldr	r2, [r3, #12]
 100 0058 22F08002 		bic	r2, r2, #128
 101 005c DA60     		str	r2, [r3, #12]
 102 005e 10BD     		pop	{r4, pc}
 103              	.L2:
 104              	.LBE35:
 105              	.LBE34:
 106              		.loc 1 320 0
 107 0060 22F02002 		bic	r2, r2, #32
 108 0064 DA60     		str	r2, [r3, #12]
 109 0066 10BD     		pop	{r4, pc}
 110              		.cfi_endproc
 111              	.LFE276:
 112              		.size	rtc_lld_init, .-rtc_lld_init
 113 0068 AFF30080 		.section	.text.rtc_lld_set_time,"ax",%progbits
 113      AFF30080 
ARM GAS  /tmp/ccZ2NTAT.s 			page 3


 114              		.align	2
 115              		.p2align 4,,15
 116              		.global	rtc_lld_set_time
 117              		.thumb
 118              		.thumb_func
 119              		.type	rtc_lld_set_time, %function
 120              	rtc_lld_set_time:
 121              	.LFB277:
 122              		.loc 1 334 0
 123              		.cfi_startproc
 124              		@ args = 0, pretend = 0, frame = 8
 125              		@ frame_needed = 0, uses_anonymous_args = 0
 126              	.LVL1:
 127              	.LBB48:
 128              	.LBB49:
 129              		.loc 1 143 0
 130 0000 4A68     		ldr	r2, [r1, #4]
 131              	.LBE49:
 132              	.LBE48:
 133              	.LBB70:
 134              	.LBB71:
 135              		.loc 1 189 0
 136 0002 91F802C0 		ldrb	ip, [r1, #2]	@ zero_extendqisi2
 137              	.LBE71:
 138              	.LBE70:
 139              	.LBB91:
 140              	.LBB50:
 141              		.loc 1 143 0
 142 0006 44F6D353 		movw	r3, #19923
 143              	.LBE50:
 144              	.LBE91:
 145              		.loc 1 334 0
 146 000a 2DE9F04F 		push	{r4, r5, r6, r7, r8, r9, r10, fp, lr}
 147              		.cfi_def_cfa_offset 36
 148              		.cfi_offset 4, -36
 149              		.cfi_offset 5, -32
 150              		.cfi_offset 6, -28
 151              		.cfi_offset 7, -24
 152              		.cfi_offset 8, -20
 153              		.cfi_offset 9, -16
 154              		.cfi_offset 10, -12
 155              		.cfi_offset 11, -8
 156              		.cfi_offset 14, -4
 157              	.LBB92:
 158              	.LBB51:
 159              		.loc 1 143 0
 160 000e C1F26203 		movt	r3, 4194
 161 0012 C2F31A09 		ubfx	r9, r2, #0, #27
 162 0016 83FB0969 		smull	r6, r9, r3, r9
 163              		.loc 1 147 0
 164 001a 4CF6CD43 		movw	r3, #52429
 165 001e CCF6CC43 		movt	r3, 52428
 166              	.LBE51:
 167              	.LBE92:
 168              	.LBB93:
 169              	.LBB72:
 170              		.loc 1 183 0
ARM GAS  /tmp/ccZ2NTAT.s 			page 4


 171 0022 4C78     		ldrb	r4, [r1, #1]	@ zero_extendqisi2
 172              		.loc 1 177 0
 173 0024 91F80080 		ldrb	r8, [r1]	@ zero_extendqisi2
 174              	.LBE72:
 175              	.LBE93:
 176              	.LBB94:
 177              	.LBB52:
 178              		.loc 1 143 0
 179 0028 4FEA9919 		lsr	r9, r9, #6
 180              	.LVL2:
 181              		.loc 1 147 0
 182 002c A3FB09A6 		umull	r10, r6, r3, r9
 183              		.loc 1 148 0
 184 0030 4AF6AB22 		movw	r2, #43691
 185              	.LBE52:
 186              	.LBE94:
 187              	.LBB95:
 188              	.LBB73:
 189              		.loc 1 183 0
 190 0034 04F00F07 		and	r7, r4, #15
 191              	.LBE73:
 192              	.LBE95:
 193              	.LBB96:
 194              	.LBB53:
 195              		.loc 1 147 0
 196 0038 F608     		lsrs	r6, r6, #3
 197              	.LVL3:
 198              		.loc 1 148 0
 199 003a CAF6AA22 		movt	r2, 43690
 200 003e A2FB06B5 		umull	fp, r5, r2, r6
 201              	.LBE53:
 202              	.LBE96:
 203              	.LBB97:
 204              	.LBB74:
 205              		.loc 1 184 0
 206 0042 A3FB071E 		umull	r1, lr, r3, r7
 207              	.LVL4:
 208              	.LBE74:
 209              	.LBE97:
 210              		.loc 1 334 0
 211 0046 83B0     		sub	sp, sp, #12
 212              		.cfi_def_cfa_offset 48
 213              	.LBB98:
 214              	.LBB54:
 215              		.loc 1 148 0
 216 0048 AD08     		lsrs	r5, r5, #2
 217              	.LBE54:
 218              	.LBE98:
 219              	.LBB99:
 220              	.LBB75:
 221              		.loc 1 184 0
 222 004a 4FEADE0E 		lsr	lr, lr, #3
 223              		.loc 1 183 0
 224 004e 0194     		str	r4, [sp, #4]
 225              	.LBE75:
 226              	.LBE99:
 227              	.LBB100:
ARM GAS  /tmp/ccZ2NTAT.s 			page 5


 228              	.LBB55:
 229              		.loc 1 152 0
 230 0050 A3FB05A4 		umull	r10, r4, r3, r5
 231              	.LBE55:
 232              	.LBE100:
 233              	.LBB101:
 234              	.LBB76:
 235              		.loc 1 184 0
 236 0054 4FEA8E0A 		lsl	r10, lr, #2
 237              	.LBE76:
 238              	.LBE101:
 239              	.LBB102:
 240              	.LBB56:
 241              		.loc 1 152 0
 242 0058 E408     		lsrs	r4, r4, #3
 243              	.LBE56:
 244              	.LBE102:
 245              	.LBB103:
 246              	.LBB77:
 247              		.loc 1 189 0
 248 005a 0CF01F0C 		and	ip, ip, #31
 249              		.loc 1 184 0
 250 005e F244     		add	r10, r10, lr
 251              		.loc 1 178 0
 252 0060 A3FB08B1 		umull	fp, r1, r3, r8
 253              	.LBE77:
 254              	.LBE103:
 255              	.LBB104:
 256              	.LBB57:
 257              		.loc 1 154 0
 258 0064 A2FB04B2 		umull	fp, r2, r2, r4
 259              	.LBE57:
 260              	.LBE104:
 261              	.LBB105:
 262              	.LBB78:
 263              		.loc 1 184 0
 264 0068 A7EB4A0A 		sub	r10, r7, r10, lsl #1
 265              		.loc 1 190 0
 266 006c A3FB0CB7 		umull	fp, r7, r3, ip
 267              	.LBE78:
 268              	.LBE105:
 269              	.LBB106:
 270              	.LBB58:
 271              		.loc 1 146 0
 272 0070 06EB860B 		add	fp, r6, r6, lsl #2
 273 0074 A9EB4B09 		sub	r9, r9, fp, lsl #1
 274              	.LVL5:
 275              		.loc 1 148 0
 276 0078 05EB450B 		add	fp, r5, r5, lsl #1
 277              	.LBE58:
 278              	.LBE106:
 279              	.LBB107:
 280              	.LBB79:
 281              		.loc 1 178 0
 282 007c C908     		lsrs	r1, r1, #3
 283              	.LBE79:
 284              	.LBE107:
ARM GAS  /tmp/ccZ2NTAT.s 			page 6


 285              	.LBB108:
 286              	.LBB59:
 287              		.loc 1 148 0
 288 007e A6EB4B06 		sub	r6, r6, fp, lsl #1
 289              	.LVL6:
 290              	.LBE59:
 291              	.LBE108:
 292              	.LBB109:
 293              	.LBB80:
 294              		.loc 1 190 0
 295 0082 FF08     		lsrs	r7, r7, #3
 296              		.loc 1 178 0
 297 0084 01EB810B 		add	fp, r1, r1, lsl #2
 298              	.LBE80:
 299              	.LBE109:
 300              	.LBB110:
 301              	.LBB60:
 302              		.loc 1 148 0
 303 0088 49EA0619 		orr	r9, r9, r6, lsl #4
 304              	.LVL7:
 305              		.loc 1 152 0
 306 008c 04EB8406 		add	r6, r4, r4, lsl #2
 307              	.LBE60:
 308              	.LBE110:
 309              	.LBB111:
 310              	.LBB81:
 311              		.loc 1 178 0
 312 0090 A8EB4B08 		sub	r8, r8, fp, lsl #1
 313              	.LBE81:
 314              	.LBE111:
 315              	.LBB112:
 316              	.LBB61:
 317              		.loc 1 152 0
 318 0094 A5EB4605 		sub	r5, r5, r6, lsl #1
 319              	.LVL8:
 320              	.LBE61:
 321              	.LBE112:
 322              	.LBB113:
 323              	.LBB82:
 324              		.loc 1 184 0
 325 0098 4FEA0A2A 		lsl	r10, r10, #8
 326              		.loc 1 190 0
 327 009c 07EB8706 		add	r6, r7, r7, lsl #2
 328              	.LBE82:
 329              	.LBE113:
 330              	.LBB114:
 331              	.LBB62:
 332              		.loc 1 154 0
 333 00a0 9208     		lsrs	r2, r2, #2
 334              	.LBE62:
 335              	.LBE114:
 336              	.LBB115:
 337              	.LBB83:
 338              		.loc 1 190 0
 339 00a2 ACEB460C 		sub	ip, ip, r6, lsl #1
 340              		.loc 1 180 0
 341 00a6 4AEA084A 		orr	r10, r10, r8, lsl #16
ARM GAS  /tmp/ccZ2NTAT.s 			page 7


 342              		.loc 1 195 0
 343 00aa 019E     		ldr	r6, [sp, #4]
 344              		.loc 1 180 0
 345 00ac A3FB01B8 		umull	fp, r8, r3, r1
 346 00b0 4FEAD808 		lsr	r8, r8, #3
 347              	.LBE83:
 348              	.LBE115:
 349              	.LBB116:
 350              	.LBB63:
 351              		.loc 1 158 0
 352 00b4 A3FB02B3 		umull	fp, r3, r3, r2
 353 00b8 DB08     		lsrs	r3, r3, #3
 354              	.LBE63:
 355              	.LBE116:
 356              	.LBB117:
 357              	.LBB84:
 358              		.loc 1 195 0
 359 00ba 4FEA561B 		lsr	fp, r6, #5
 360              		.loc 1 184 0
 361 00be 4AEA0C0A 		orr	r10, r10, ip
 362              	.LBE84:
 363              	.LBE117:
 364              	.LBB118:
 365              	.LBB64:
 366              		.loc 1 154 0
 367 00c2 02EB4206 		add	r6, r2, r2, lsl #1
 368              	.LBE64:
 369              	.LBE118:
 370              	.LBB119:
 371              	.LBB85:
 372              		.loc 1 180 0
 373 00c6 08EB8808 		add	r8, r8, r8, lsl #2
 374              	.LBE85:
 375              	.LBE119:
 376              	.LBB120:
 377              	.LBB65:
 378              		.loc 1 152 0
 379 00ca 49EA0529 		orr	r9, r9, r5, lsl #8
 380              	.LVL9:
 381              		.loc 1 154 0
 382 00ce A4EB4604 		sub	r4, r4, r6, lsl #1
 383              	.LVL10:
 384              	.LBE65:
 385              	.LBE120:
 386              	.LBB121:
 387              	.LBB86:
 388              		.loc 1 180 0
 389 00d2 A1EB4801 		sub	r1, r1, r8, lsl #1
 390              	.LBE86:
 391              	.LBE121:
 392              	.LBB122:
 393              	.LBB66:
 394              		.loc 1 158 0
 395 00d6 03EB8306 		add	r6, r3, r3, lsl #2
 396              	.LBE66:
 397              	.LBE122:
 398              	.LBB123:
ARM GAS  /tmp/ccZ2NTAT.s 			page 8


 399              	.LBB87:
 400              		.loc 1 186 0
 401 00da 4AEA4B3A 		orr	r10, r10, fp, lsl #13
 402              	.LBE87:
 403              	.LBE123:
 404              	.LBB124:
 405              	.LBB67:
 406              		.loc 1 158 0
 407 00de A2EB4605 		sub	r5, r2, r6, lsl #1
 408              	.LBE67:
 409              	.LBE124:
 410              	.LBB125:
 411              	.LBB88:
 412              		.loc 1 190 0
 413 00e2 4AEA0151 		orr	r1, r10, r1, lsl #20
 414              	.LBE88:
 415              	.LBE125:
 416              	.LBB126:
 417              	.LBB68:
 418              		.loc 1 154 0
 419 00e6 49EA0434 		orr	r4, r9, r4, lsl #12
 420              	.LVL11:
 421              	.LBE68:
 422              	.LBE126:
 423              	.LBB127:
 424              	.LBB89:
 425              		.loc 1 192 0
 426 00ea 41EA0E3E 		orr	lr, r1, lr, lsl #12
 427              	.LBE89:
 428              	.LBE127:
 429              	.LBB128:
 430              	.LBB69:
 431              		.loc 1 158 0
 432 00ee 44EA0545 		orr	r5, r4, r5, lsl #16
 433              		.loc 1 160 0
 434 00f2 45EA0355 		orr	r5, r5, r3, lsl #20
 435              	.LVL12:
 436              	.LBE69:
 437              	.LBE128:
 438              		.loc 1 334 0
 439 00f6 0646     		mov	r6, r0
 440              	.LBB129:
 441              	.LBB90:
 442              		.loc 1 195 0
 443 00f8 4EEA0717 		orr	r7, lr, r7, lsl #4
 444              	.LVL13:
 445              	.LBE90:
 446              	.LBE129:
 447              	.LBB130:
 448              	.LBB131:
 449              		.file 2 "../../../../../ChibiOS-RT/os/hal/osal/rt/osal.h"
 450              		.loc 2 544 0
 451 00fc FFF7FEFF 		bl	chSysGetStatusAndLockX
 452              	.LVL14:
 453              	.LBE131:
 454              	.LBE130:
 455              	.LBB132:
ARM GAS  /tmp/ccZ2NTAT.s 			page 9


 456              	.LBB133:
 457              		.loc 1 77 0
 458 0100 40F20001 		movw	r1, #:lower16:.LANCHOR0
 459 0104 C0F20001 		movt	r1, #:upper16:.LANCHOR0
 460 0108 0C68     		ldr	r4, [r1]
 461 010a E368     		ldr	r3, [r4, #12]
 462 010c 43F08003 		orr	r3, r3, #128
 463 0110 E360     		str	r3, [r4, #12]
 464              	.L9:
 465              		.loc 1 78 0
 466 0112 E368     		ldr	r3, [r4, #12]
 467 0114 5906     		lsls	r1, r3, #25
 468 0116 FCD5     		bpl	.L9
 469              	.LBE133:
 470              	.LBE132:
 471              		.loc 1 346 0
 472 0118 3168     		ldr	r1, [r6]
 473 011a 0D60     		str	r5, [r1]
 474              		.loc 1 347 0
 475 011c 4F60     		str	r7, [r1, #4]
 476              	.LBB134:
 477              	.LBB135:
 478              		.loc 1 89 0
 479 011e E368     		ldr	r3, [r4, #12]
 480 0120 23F08003 		bic	r3, r3, #128
 481 0124 E360     		str	r3, [r4, #12]
 482              	.LVL15:
 483              	.LBE135:
 484              	.LBE134:
 485              		.loc 1 352 0
 486 0126 03B0     		add	sp, sp, #12
 487              		@ sp needed
 488 0128 BDE8F04F 		pop	{r4, r5, r6, r7, r8, r9, r10, fp, lr}
 489              	.LVL16:
 490              	.LBB136:
 491              	.LBB137:
 492              		.loc 2 558 0
 493 012c FFF7FEBF 		b	chSysRestoreStatusX
 494              	.LVL17:
 495              	.LBE137:
 496              	.LBE136:
 497              		.cfi_endproc
 498              	.LFE277:
 499              		.size	rtc_lld_set_time, .-rtc_lld_set_time
 500              		.section	.text.rtc_lld_get_time,"ax",%progbits
 501              		.align	2
 502              		.p2align 4,,15
 503              		.global	rtc_lld_get_time
 504              		.thumb
 505              		.thumb_func
 506              		.type	rtc_lld_get_time, %function
 507              	rtc_lld_get_time:
 508              	.LFB278:
 509              		.loc 1 363 0
 510              		.cfi_startproc
 511              		@ args = 0, pretend = 0, frame = 0
 512              		@ frame_needed = 0, uses_anonymous_args = 0
ARM GAS  /tmp/ccZ2NTAT.s 			page 10


 513              	.LVL18:
 514 0000 2DE9F843 		push	{r3, r4, r5, r6, r7, r8, r9, lr}
 515              		.cfi_def_cfa_offset 32
 516              		.cfi_offset 3, -32
 517              		.cfi_offset 4, -28
 518              		.cfi_offset 5, -24
 519              		.cfi_offset 6, -20
 520              		.cfi_offset 7, -16
 521              		.cfi_offset 8, -12
 522              		.cfi_offset 9, -8
 523              		.cfi_offset 14, -4
 524              		.loc 1 363 0
 525 0004 0546     		mov	r5, r0
 526 0006 0C46     		mov	r4, r1
 527              	.LBB146:
 528              	.LBB147:
 529              		.loc 2 544 0
 530 0008 FFF7FEFF 		bl	chSysGetStatusAndLockX
 531              	.LVL19:
 532 000c 2A68     		ldr	r2, [r5]
 533              	.LVL20:
 534              	.L12:
 535              	.LBE147:
 536              	.LBE146:
 537              		.loc 1 376 0 discriminator 1
 538 000e D368     		ldr	r3, [r2, #12]
 539 0010 9D06     		lsls	r5, r3, #26
 540 0012 FCD5     		bpl	.L12
 541              		.loc 1 379 0
 542 0014 976A     		ldr	r7, [r2, #40]
 543              	.LVL21:
 544              		.loc 1 381 0
 545 0016 1668     		ldr	r6, [r2]
 546              	.LVL22:
 547              		.loc 1 382 0
 548 0018 5568     		ldr	r5, [r2, #4]
 549              	.LVL23:
 550              		.loc 1 383 0
 551 001a D368     		ldr	r3, [r2, #12]
 552 001c 23F02003 		bic	r3, r3, #32
 553 0020 D360     		str	r3, [r2, #12]
 554              	.LVL24:
 555              	.LBB148:
 556              	.LBB149:
 557              		.loc 2 558 0
 558 0022 FFF7FEFF 		bl	chSysRestoreStatusX
 559              	.LVL25:
 560              	.LBE149:
 561              	.LBE148:
 562              	.LBB150:
 563              	.LBB151:
 564              		.loc 1 104 0
 565 0026 4EF68061 		movw	r1, #61056
 566 002a C6F30340 		ubfx	r0, r6, #16, #4
 567 002e C0F23601 		movt	r1, 54
 568              		.loc 1 103 0
 569 0032 4FF4A243 		mov	r3, #20736
ARM GAS  /tmp/ccZ2NTAT.s 			page 11


 570              		.loc 1 104 0
 571 0036 01FB00F1 		mul	r1, r1, r0
 572              		.loc 1 103 0
 573 003a C0F22523 		movt	r3, 549
 574 003e C6F30150 		ubfx	r0, r6, #20, #2
 575              	.LVL26:
 576              		.loc 1 104 0
 577 0042 03FB0013 		mla	r3, r3, r0, r1
 578              	.LVL27:
 579              		.loc 1 108 0
 580 0046 4FF47A79 		mov	r9, #1000
 581 004a 06F00F00 		and	r0, r6, #15
 582              		.loc 1 105 0
 583 004e 4FF41F51 		mov	r1, #10176
 584 0052 09FB0030 		mla	r0, r9, r0, r3
 585              	.LBE151:
 586              	.LBE150:
 587              		.loc 1 395 0
 588 0056 4FF61842 		movw	r2, #64536
 589              	.LBB158:
 590              	.LBB159:
 591              		.loc 1 124 0
 592 005a C5F30033 		ubfx	r3, r5, #12, #1
 593              	.LBE159:
 594              	.LBE158:
 595              	.LBB170:
 596              	.LBB152:
 597              		.loc 1 105 0
 598 005e C6F30239 		ubfx	r9, r6, #12, #3
 599 0062 C0F20901 		movt	r1, 9
 600              		.loc 1 106 0
 601 0066 01FB0901 		mla	r1, r1, r9, r0
 602              	.LBE152:
 603              	.LBE170:
 604              		.loc 1 395 0
 605 006a CFF6FF72 		movt	r2, 65535
 606              	.LBB171:
 607              	.LBB153:
 608              		.loc 1 106 0
 609 006e C6F30320 		ubfx	r0, r6, #8, #4
 610              	.LBE153:
 611              	.LBE171:
 612              	.LBB172:
 613              	.LBB160:
 614              		.loc 1 124 0
 615 0072 4FEA8308 		lsl	r8, r3, #2
 616              	.LBE160:
 617              	.LBE172:
 618              	.LBB173:
 619              	.LBB154:
 620              		.loc 1 106 0
 621 0076 4EF66029 		movw	r9, #60000
 622              		.loc 1 107 0
 623 007a 09FB0019 		mla	r9, r9, r0, r1
 624              	.LBE154:
 625              	.LBE173:
 626              		.loc 1 395 0
ARM GAS  /tmp/ccZ2NTAT.s 			page 12


 627 007e 02FB07F7 		mul	r7, r2, r7
 628              	.LVL28:
 629              	.LBB174:
 630              	.LBB161:
 631              		.loc 1 124 0
 632 0082 C5F30320 		ubfx	r0, r5, #8, #4
 633              	.LBE161:
 634              	.LBE174:
 635              	.LBB175:
 636              	.LBB155:
 637              		.loc 1 107 0
 638 0086 C6F30216 		ubfx	r6, r6, #4, #3
 639              	.LVL29:
 640              	.LBE155:
 641              	.LBE175:
 642              	.LBB176:
 643              	.LBB162:
 644              		.loc 1 124 0
 645 008a 9844     		add	r8, r8, r3
 646 008c 6278     		ldrb	r2, [r4, #1]	@ zero_extendqisi2
 647              	.LBE162:
 648              	.LBE176:
 649              		.loc 1 399 0
 650 008e 6168     		ldr	r1, [r4, #4]
 651              	.LBB177:
 652              	.LBB163:
 653              		.loc 1 126 0
 654 0090 A378     		ldrb	r3, [r4, #2]	@ zero_extendqisi2
 655              	.LBE163:
 656              	.LBE177:
 657              	.LBB178:
 658              	.LBB156:
 659              		.loc 1 107 0
 660 0092 42F2107C 		movw	ip, #10000
 661              	.LBE156:
 662              	.LBE178:
 663              	.LBB179:
 664              	.LBB164:
 665              		.loc 1 124 0
 666 0096 00EB4808 		add	r8, r0, r8, lsl #1
 667              	.LBE164:
 668              	.LBE179:
 669              	.LBB180:
 670              	.LBB157:
 671              		.loc 1 108 0
 672 009a 0CFB069C 		mla	ip, ip, r6, r9
 673              	.LBE157:
 674              	.LBE180:
 675              	.LBB181:
 676              	.LBB165:
 677              		.loc 1 126 0
 678 009e C5F30110 		ubfx	r0, r5, #4, #2
 679              	.LBE165:
 680              	.LBE181:
 681              		.loc 1 395 0
 682 00a2 07F57927 		add	r7, r7, #1019904
 683 00a6 07F61847 		addw	r7, r7, #3096
ARM GAS  /tmp/ccZ2NTAT.s 			page 13


 684              	.LBB182:
 685              	.LBB166:
 686              		.loc 1 124 0
 687 00aa 68F30302 		bfi	r2, r8, #0, #4
 688              		.loc 1 126 0
 689 00ae 00EB8006 		add	r6, r0, r0, lsl #2
 690 00b2 05F00F08 		and	r8, r5, #15
 691              		.loc 1 122 0
 692 00b6 C5F30350 		ubfx	r0, r5, #20, #4
 693              	.LBE166:
 694              	.LBE182:
 695              		.loc 1 399 0
 696 00ba 2CF0784C 		bic	ip, ip, #-134217728
 697 00be 0CEB972C 		add	ip, ip, r7, lsr #10
 698              	.LBB183:
 699              	.LBB167:
 700              		.loc 1 126 0
 701 00c2 08EB4606 		add	r6, r8, r6, lsl #1
 702              		.loc 1 128 0
 703 00c6 6F0B     		lsrs	r7, r5, #13
 704              		.loc 1 122 0
 705 00c8 00EB8000 		add	r0, r0, r0, lsl #2
 706 00cc C5F30345 		ubfx	r5, r5, #16, #4
 707              	.LVL30:
 708              	.LBE167:
 709              	.LBE183:
 710              		.loc 1 399 0
 711 00d0 6CF31A01 		bfi	r1, ip, #0, #27
 712              	.LBB184:
 713              	.LBB168:
 714              		.loc 1 128 0
 715 00d4 67F34712 		bfi	r2, r7, #5, #3
 716              		.loc 1 126 0
 717 00d8 66F30403 		bfi	r3, r6, #0, #5
 718              		.loc 1 122 0
 719 00dc 05EB4000 		add	r0, r5, r0, lsl #1
 720              	.LBE168:
 721              	.LBE184:
 722              		.loc 1 399 0
 723 00e0 6160     		str	r1, [r4, #4]
 724              	.LVL31:
 725              	.LBB185:
 726              	.LBB169:
 727              		.loc 1 128 0
 728 00e2 6270     		strb	r2, [r4, #1]
 729              		.loc 1 126 0
 730 00e4 A370     		strb	r3, [r4, #2]
 731              		.loc 1 122 0
 732 00e6 2070     		strb	r0, [r4]
 733 00e8 BDE8F883 		pop	{r3, r4, r5, r6, r7, r8, r9, pc}
 734              	.LBE169:
 735              	.LBE185:
 736              		.cfi_endproc
 737              	.LFE278:
 738              		.size	rtc_lld_get_time, .-rtc_lld_get_time
 739 00ec AFF30080 		.section	.text.rtc_lld_set_alarm,"ax",%progbits
 740              		.align	2
ARM GAS  /tmp/ccZ2NTAT.s 			page 14


 741              		.p2align 4,,15
 742              		.global	rtc_lld_set_alarm
 743              		.thumb
 744              		.thumb_func
 745              		.type	rtc_lld_set_alarm, %function
 746              	rtc_lld_set_alarm:
 747              	.LFB279:
 748              		.loc 1 420 0
 749              		.cfi_startproc
 750              		@ args = 0, pretend = 0, frame = 0
 751              		@ frame_needed = 0, uses_anonymous_args = 0
 752              	.LVL32:
 753 0000 70B5     		push	{r4, r5, r6, lr}
 754              		.cfi_def_cfa_offset 16
 755              		.cfi_offset 4, -16
 756              		.cfi_offset 5, -12
 757              		.cfi_offset 6, -8
 758              		.cfi_offset 14, -4
 759              		.loc 1 420 0
 760 0002 0D46     		mov	r5, r1
 761 0004 0646     		mov	r6, r0
 762 0006 1446     		mov	r4, r2
 763              	.LBB186:
 764              	.LBB187:
 765              		.loc 2 544 0
 766 0008 FFF7FEFF 		bl	chSysGetStatusAndLockX
 767              	.LVL33:
 768              	.LBE187:
 769              	.LBE186:
 770              		.loc 1 426 0
 771 000c BDB9     		cbnz	r5, .L14
 772              		.loc 1 427 0
 773 000e 002C     		cmp	r4, #0
 774 0010 36D0     		beq	.L15
 775              		.loc 1 428 0
 776 0012 3168     		ldr	r1, [r6]
 777 0014 8B68     		ldr	r3, [r1, #8]
 778 0016 23F48073 		bic	r3, r3, #256
 779 001a 8B60     		str	r3, [r1, #8]
 780              	.L17:
 781              		.loc 1 429 0 discriminator 1
 782 001c CB68     		ldr	r3, [r1, #12]
 783 001e DB07     		lsls	r3, r3, #31
 784 0020 FCD5     		bpl	.L17
 785              		.loc 1 431 0
 786 0022 2368     		ldr	r3, [r4]
 787 0024 CB61     		str	r3, [r1, #28]
 788              		.loc 1 432 0
 789 0026 8B68     		ldr	r3, [r1, #8]
 790 0028 43F48073 		orr	r3, r3, #256
 791 002c 8B60     		str	r3, [r1, #8]
 792              		.loc 1 433 0
 793 002e 8B68     		ldr	r3, [r1, #8]
 794 0030 43F48053 		orr	r3, r3, #4096
 795 0034 8B60     		str	r3, [r1, #8]
 796              	.L18:
 797              	.LVL34:
ARM GAS  /tmp/ccZ2NTAT.s 			page 15


 798              		.loc 1 459 0
 799 0036 BDE87040 		pop	{r4, r5, r6, lr}
 800              	.LVL35:
 801              	.LBB188:
 802              	.LBB189:
 803              		.loc 2 558 0
 804 003a FFF7FEBF 		b	chSysRestoreStatusX
 805              	.LVL36:
 806              	.L14:
 807              	.LBE189:
 808              	.LBE188:
 809              		.loc 1 442 0
 810 003e ACB1     		cbz	r4, .L19
 811              		.loc 1 443 0
 812 0040 3168     		ldr	r1, [r6]
 813 0042 8B68     		ldr	r3, [r1, #8]
 814 0044 23F40073 		bic	r3, r3, #512
 815 0048 8B60     		str	r3, [r1, #8]
 816              	.LVL37:
 817              	.L21:
 818              		.loc 1 444 0 discriminator 1
 819 004a CB68     		ldr	r3, [r1, #12]
 820 004c 9E07     		lsls	r6, r3, #30
 821 004e FCD5     		bpl	.L21
 822              		.loc 1 446 0
 823 0050 2368     		ldr	r3, [r4]
 824 0052 0B62     		str	r3, [r1, #32]
 825              		.loc 1 447 0
 826 0054 8B68     		ldr	r3, [r1, #8]
 827 0056 43F40073 		orr	r3, r3, #512
 828 005a 8B60     		str	r3, [r1, #8]
 829              		.loc 1 448 0
 830 005c 8B68     		ldr	r3, [r1, #8]
 831 005e 43F40053 		orr	r3, r3, #8192
 832 0062 8B60     		str	r3, [r1, #8]
 833              	.LVL38:
 834              		.loc 1 459 0
 835 0064 BDE87040 		pop	{r4, r5, r6, lr}
 836              	.LVL39:
 837              	.LBB191:
 838              	.LBB190:
 839              		.loc 2 558 0
 840 0068 FFF7FEBF 		b	chSysRestoreStatusX
 841              	.LVL40:
 842              	.L19:
 843              	.LBE190:
 844              	.LBE191:
 845              		.loc 1 451 0
 846 006c 3368     		ldr	r3, [r6]
 847 006e 9A68     		ldr	r2, [r3, #8]
 848 0070 22F40052 		bic	r2, r2, #8192
 849 0074 9A60     		str	r2, [r3, #8]
 850              		.loc 1 452 0
 851 0076 9A68     		ldr	r2, [r3, #8]
 852 0078 22F40072 		bic	r2, r2, #512
 853 007c 9A60     		str	r2, [r3, #8]
 854 007e DAE7     		b	.L18
ARM GAS  /tmp/ccZ2NTAT.s 			page 16


 855              	.L15:
 856              		.loc 1 436 0
 857 0080 3368     		ldr	r3, [r6]
 858 0082 9A68     		ldr	r2, [r3, #8]
 859 0084 22F48052 		bic	r2, r2, #4096
 860 0088 9A60     		str	r2, [r3, #8]
 861              		.loc 1 437 0
 862 008a 9A68     		ldr	r2, [r3, #8]
 863 008c 22F48072 		bic	r2, r2, #256
 864 0090 9A60     		str	r2, [r3, #8]
 865 0092 D0E7     		b	.L18
 866              		.cfi_endproc
 867              	.LFE279:
 868              		.size	rtc_lld_set_alarm, .-rtc_lld_set_alarm
 869 0094 AFF30080 		.section	.text.rtc_lld_get_alarm,"ax",%progbits
 869      AFF30080 
 869      AFF30080 
 870              		.align	2
 871              		.p2align 4,,15
 872              		.global	rtc_lld_get_alarm
 873              		.thumb
 874              		.thumb_func
 875              		.type	rtc_lld_get_alarm, %function
 876              	rtc_lld_get_alarm:
 877              	.LFB280:
 878              		.loc 1 473 0
 879              		.cfi_startproc
 880              		@ args = 0, pretend = 0, frame = 0
 881              		@ frame_needed = 0, uses_anonymous_args = 0
 882              		@ link register save eliminated.
 883              	.LVL41:
 884              		.loc 1 476 0
 885 0000 0368     		ldr	r3, [r0]
 886              		.loc 1 475 0
 887 0002 11B1     		cbz	r1, .L25
 888              		.loc 1 479 0
 889 0004 1B6A     		ldr	r3, [r3, #32]
 890 0006 1360     		str	r3, [r2]
 891 0008 7047     		bx	lr
 892              	.L25:
 893              		.loc 1 476 0
 894 000a DB69     		ldr	r3, [r3, #28]
 895 000c 1360     		str	r3, [r2]
 896 000e 7047     		bx	lr
 897              		.cfi_endproc
 898              	.LFE280:
 899              		.size	rtc_lld_get_alarm, .-rtc_lld_get_alarm
 900              		.section	.text.rtcSTM32SetPeriodicWakeup,"ax",%progbits
 901              		.align	2
 902              		.p2align 4,,15
 903              		.global	rtcSTM32SetPeriodicWakeup
 904              		.thumb
 905              		.thumb_func
 906              		.type	rtcSTM32SetPeriodicWakeup, %function
 907              	rtcSTM32SetPeriodicWakeup:
 908              	.LFB281:
 909              		.loc 1 495 0
ARM GAS  /tmp/ccZ2NTAT.s 			page 17


 910              		.cfi_startproc
 911              		@ args = 0, pretend = 0, frame = 0
 912              		@ frame_needed = 0, uses_anonymous_args = 0
 913              	.LVL42:
 914 0000 38B5     		push	{r3, r4, r5, lr}
 915              		.cfi_def_cfa_offset 16
 916              		.cfi_offset 3, -16
 917              		.cfi_offset 4, -12
 918              		.cfi_offset 5, -8
 919              		.cfi_offset 14, -4
 920              		.loc 1 495 0
 921 0002 0C46     		mov	r4, r1
 922 0004 0546     		mov	r5, r0
 923              	.LBB192:
 924              	.LBB193:
 925              		.loc 2 544 0
 926 0006 FFF7FEFF 		bl	chSysGetStatusAndLockX
 927              	.LVL43:
 928              	.LBE193:
 929              	.LBE192:
 930              		.loc 1 501 0
 931 000a CCB1     		cbz	r4, .L27
 932              		.loc 1 504 0
 933 000c 2A68     		ldr	r2, [r5]
 934 000e 9368     		ldr	r3, [r2, #8]
 935 0010 23F48063 		bic	r3, r3, #1024
 936 0014 9360     		str	r3, [r2, #8]
 937              	.L29:
 938              		.loc 1 505 0 discriminator 1
 939 0016 D368     		ldr	r3, [r2, #12]
 940 0018 5907     		lsls	r1, r3, #29
 941 001a FCD5     		bpl	.L29
 942              		.loc 1 507 0
 943 001c 2368     		ldr	r3, [r4]
 944 001e 99B2     		uxth	r1, r3
 945              		.loc 1 508 0
 946 0020 C3F30243 		ubfx	r3, r3, #16, #3
 947              		.loc 1 507 0
 948 0024 5161     		str	r1, [r2, #20]
 949              		.loc 1 508 0
 950 0026 9360     		str	r3, [r2, #8]
 951              		.loc 1 509 0
 952 0028 9368     		ldr	r3, [r2, #8]
 953 002a 43F48043 		orr	r3, r3, #16384
 954 002e 9360     		str	r3, [r2, #8]
 955              		.loc 1 510 0
 956 0030 9368     		ldr	r3, [r2, #8]
 957 0032 43F48063 		orr	r3, r3, #1024
 958 0036 9360     		str	r3, [r2, #8]
 959              	.LVL44:
 960              		.loc 1 519 0
 961 0038 BDE83840 		pop	{r3, r4, r5, lr}
 962              	.LVL45:
 963              	.LBB194:
 964              	.LBB195:
 965              		.loc 2 558 0
 966 003c FFF7FEBF 		b	chSysRestoreStatusX
ARM GAS  /tmp/ccZ2NTAT.s 			page 18


 967              	.LVL46:
 968              	.L27:
 969              	.LBE195:
 970              	.LBE194:
 971              		.loc 1 513 0
 972 0040 2B68     		ldr	r3, [r5]
 973 0042 9A68     		ldr	r2, [r3, #8]
 974 0044 22F48042 		bic	r2, r2, #16384
 975 0048 9A60     		str	r2, [r3, #8]
 976              		.loc 1 514 0
 977 004a 9A68     		ldr	r2, [r3, #8]
 978 004c 22F48062 		bic	r2, r2, #1024
 979 0050 9A60     		str	r2, [r3, #8]
 980              	.LVL47:
 981              		.loc 1 519 0
 982 0052 BDE83840 		pop	{r3, r4, r5, lr}
 983              	.LVL48:
 984              	.LBB197:
 985              	.LBB196:
 986              		.loc 2 558 0
 987 0056 FFF7FEBF 		b	chSysRestoreStatusX
 988              	.LVL49:
 989              	.LBE196:
 990              	.LBE197:
 991              		.cfi_endproc
 992              	.LFE281:
 993              		.size	rtcSTM32SetPeriodicWakeup, .-rtcSTM32SetPeriodicWakeup
 994 005a 00BFAFF3 		.section	.text.rtcSTM32GetPeriodicWakeup,"ax",%progbits
 994      0080
 995              		.align	2
 996              		.p2align 4,,15
 997              		.global	rtcSTM32GetPeriodicWakeup
 998              		.thumb
 999              		.thumb_func
 1000              		.type	rtcSTM32GetPeriodicWakeup, %function
 1001              	rtcSTM32GetPeriodicWakeup:
 1002              	.LFB282:
 1003              		.loc 1 531 0
 1004              		.cfi_startproc
 1005              		@ args = 0, pretend = 0, frame = 0
 1006              		@ frame_needed = 0, uses_anonymous_args = 0
 1007              	.LVL50:
 1008 0000 38B5     		push	{r3, r4, r5, lr}
 1009              		.cfi_def_cfa_offset 16
 1010              		.cfi_offset 3, -16
 1011              		.cfi_offset 4, -12
 1012              		.cfi_offset 5, -8
 1013              		.cfi_offset 14, -4
 1014              		.loc 1 531 0
 1015 0002 0446     		mov	r4, r0
 1016 0004 0D46     		mov	r5, r1
 1017              	.LBB198:
 1018              	.LBB199:
 1019              		.loc 2 544 0
 1020 0006 FFF7FEFF 		bl	chSysGetStatusAndLockX
 1021              	.LVL51:
 1022              	.LBE199:
ARM GAS  /tmp/ccZ2NTAT.s 			page 19


 1023              	.LBE198:
 1024              		.loc 1 538 0
 1025 000a 2368     		ldr	r3, [r4]
 1026 000c 5A69     		ldr	r2, [r3, #20]
 1027              		.loc 1 539 0
 1028 000e 9B68     		ldr	r3, [r3, #8]
 1029 0010 03F00703 		and	r3, r3, #7
 1030 0014 42EA0343 		orr	r3, r2, r3, lsl #16
 1031 0018 2B60     		str	r3, [r5]
 1032              	.LVL52:
 1033              		.loc 1 543 0
 1034 001a BDE83840 		pop	{r3, r4, r5, lr}
 1035              	.LVL53:
 1036              	.LBB200:
 1037              	.LBB201:
 1038              		.loc 2 558 0
 1039 001e FFF7FEBF 		b	chSysRestoreStatusX
 1040              	.LVL54:
 1041              	.LBE201:
 1042              	.LBE200:
 1043              		.cfi_endproc
 1044              	.LFE282:
 1045              		.size	rtcSTM32GetPeriodicWakeup, .-rtcSTM32GetPeriodicWakeup
 1046              		.global	RTCD1
 1047 0022 00BFAFF3 		.section	.bss.RTCD1,"aw",%nobits
 1047      0080AFF3 
 1047      0080AFF3 
 1047      0080
 1048              		.align	2
 1049              		.set	.LANCHOR0,. + 0
 1050              		.type	RTCD1, %object
 1051              		.size	RTCD1, 4
 1052              	RTCD1:
 1053 0000 00000000 		.space	4
 1054              		.text
 1055              	.Letext0:
 1056              		.file 3 "/usr/include/newlib/machine/_default_types.h"
 1057              		.file 4 "/usr/include/newlib/stdint.h"
 1058              		.file 5 "../../../../../ChibiOS-RT/os/common/ports/ARMCMx/compilers/GCC/chtypes.h"
 1059              		.file 6 "../../../../../ChibiOS-RT/os/rt/include/chsystypes.h"
 1060              		.file 7 "../../../../../ChibiOS-RT/os/rt/include/chschd.h"
 1061              		.file 8 "../../../../../ChibiOS-RT/os/common/ext/CMSIS/ST/STM32F4xx/stm32f401xe.h"
 1062              		.file 9 "../../../../../ChibiOS-RT/os/common/ports/ARMCMx/chcore.h"
 1063              		.file 10 "../../../../../ChibiOS-RT/os/common/ports/ARMCMx/chcore_v7m.h"
 1064              		.file 11 "../../../../../ChibiOS-RT/os/rt/include/chtrace.h"
 1065              		.file 12 "../../../../../ChibiOS-RT/os/rt/include/chtm.h"
 1066              		.file 13 "../../../../../ChibiOS-RT/os/rt/include/chsem.h"
 1067              		.file 14 "../../../../../ChibiOS-RT/os/rt/include/chmtx.h"
 1068              		.file 15 "../../../../../ChibiOS-RT/os/hal/include/hal_rtc.h"
 1069              		.file 16 "../../../../../ChibiOS-RT/os/hal/ports/STM32/LLD/RTCv2/hal_rtc_lld.h"
 1070              		.file 17 "../../../../../ChibiOS-RT/os/common/ext/CMSIS/include/core_cm4.h"
 1071              		.file 18 "../../../../../ChibiOS-RT/os/rt/include/chsys.h"