ARM GAS  /tmp/ccQyeFPN.s 			page 1


   1              		.syntax unified
   2              		.cpu cortex-m4
   3              		.fpu softvfp
   4              		.eabi_attribute 20, 1
   5              		.eabi_attribute 21, 1
   6              		.eabi_attribute 23, 3
   7              		.eabi_attribute 24, 1
   8              		.eabi_attribute 25, 1
   9              		.eabi_attribute 26, 1
  10              		.eabi_attribute 30, 2
  11              		.eabi_attribute 34, 1
  12              		.eabi_attribute 18, 4
  13              		.thumb
  14              		.file	"hal_pwm.c"
  15              		.text
  16              	.Ltext0:
  17              		.cfi_sections	.debug_frame
  18              		.section	.text.pwmInit,"ax",%progbits
  19              		.align	2
  20              		.p2align 4,,15
  21              		.global	pwmInit
  22              		.thumb
  23              		.thumb_func
  24              		.type	pwmInit, %function
  25              	pwmInit:
  26              	.LFB270:
  27              		.file 1 "../../../../../ChibiOS-RT/os/hal/src/hal_pwm.c"
  28              		.loc 1 56 0
  29              		.cfi_startproc
  30              		@ args = 0, pretend = 0, frame = 0
  31              		@ frame_needed = 0, uses_anonymous_args = 0
  32              		@ link register save eliminated.
  33              		.loc 1 58 0
  34 0000 FFF7FEBF 		b	pwm_lld_init
  35              	.LVL0:
  36              		.cfi_endproc
  37              	.LFE270:
  38              		.size	pwmInit, .-pwmInit
  39 0004 AFF30080 		.section	.text.pwmObjectInit,"ax",%progbits
  39      AFF30080 
  39      AFF30080 
  40              		.align	2
  41              		.p2align 4,,15
  42              		.global	pwmObjectInit
  43              		.thumb
  44              		.thumb_func
  45              		.type	pwmObjectInit, %function
  46              	pwmObjectInit:
  47              	.LFB271:
  48              		.loc 1 68 0
  49              		.cfi_startproc
  50              		@ args = 0, pretend = 0, frame = 0
  51              		@ frame_needed = 0, uses_anonymous_args = 0
  52              		@ link register save eliminated.
  53              	.LVL1:
  54              		.loc 1 71 0
  55 0000 0023     		movs	r3, #0
ARM GAS  /tmp/ccQyeFPN.s 			page 2


  56              		.loc 1 70 0
  57 0002 0122     		movs	r2, #1
  58 0004 0270     		strb	r2, [r0]
  59              		.loc 1 71 0
  60 0006 4360     		str	r3, [r0, #4]
  61              		.loc 1 72 0
  62 0008 C360     		str	r3, [r0, #12]
  63              		.loc 1 73 0
  64 000a 0374     		strb	r3, [r0, #16]
  65 000c 7047     		bx	lr
  66              		.cfi_endproc
  67              	.LFE271:
  68              		.size	pwmObjectInit, .-pwmObjectInit
  69 000e 00BF     		.section	.text.pwmStart,"ax",%progbits
  70              		.align	2
  71              		.p2align 4,,15
  72              		.global	pwmStart
  73              		.thumb
  74              		.thumb_func
  75              		.type	pwmStart, %function
  76              	pwmStart:
  77              	.LFB272:
  78              		.loc 1 89 0
  79              		.cfi_startproc
  80              		@ args = 0, pretend = 0, frame = 0
  81              		@ frame_needed = 0, uses_anonymous_args = 0
  82              	.LVL2:
  83 0000 10B5     		push	{r4, lr}
  84              		.cfi_def_cfa_offset 8
  85              		.cfi_offset 4, -8
  86              		.cfi_offset 14, -4
  87              	.LBB141:
  88              	.LBB142:
  89              	.LBB143:
  90              	.LBB144:
  91              	.LBB145:
  92              		.file 2 "../../../../../ChibiOS-RT/os/common/ext/CMSIS/include/cmsis_gcc.h"
  93              		.loc 2 264 0
  94 0002 2023     		movs	r3, #32
  95              	.LBE145:
  96              	.LBE144:
  97              	.LBE143:
  98              	.LBE142:
  99              	.LBE141:
 100              		.loc 1 89 0
 101 0004 0446     		mov	r4, r0
 102              	.LBB150:
 103              	.LBB149:
 104              	.LBB148:
 105              	.LBB147:
 106              	.LBB146:
 107              		.loc 2 264 0
 108              	@ 264 "../../../../../ChibiOS-RT/os/common/ext/CMSIS/include/cmsis_gcc.h" 1
 109 0006 83F31188 		MSR basepri, r3
 110              	@ 0 "" 2
 111              		.thumb
 112              	.LBE146:
ARM GAS  /tmp/ccQyeFPN.s 			page 3


 113              	.LBE147:
 114              	.LBE148:
 115              	.LBE149:
 116              	.LBE150:
 117              		.loc 1 97 0
 118 000a 4B68     		ldr	r3, [r1, #4]
 119              		.loc 1 96 0
 120 000c 4160     		str	r1, [r0, #4]
 121              		.loc 1 97 0
 122 000e 8360     		str	r3, [r0, #8]
 123              		.loc 1 98 0
 124 0010 FFF7FEFF 		bl	pwm_lld_start
 125              	.LVL3:
 126              		.loc 1 100 0
 127 0014 0222     		movs	r2, #2
 128              		.loc 1 99 0
 129 0016 0023     		movs	r3, #0
 130              		.loc 1 100 0
 131 0018 2270     		strb	r2, [r4]
 132              	.LVL4:
 133              		.loc 1 99 0
 134 001a E360     		str	r3, [r4, #12]
 135              	.LBB151:
 136              	.LBB152:
 137              	.LBB153:
 138              	.LBB154:
 139              	.LBB155:
 140              	.LBB156:
 141              		.loc 2 264 0
 142              	@ 264 "../../../../../ChibiOS-RT/os/common/ext/CMSIS/include/cmsis_gcc.h" 1
 143 001c 83F31188 		MSR basepri, r3
 144              	@ 0 "" 2
 145              		.thumb
 146 0020 10BD     		pop	{r4, pc}
 147              	.LBE156:
 148              	.LBE155:
 149              	.LBE154:
 150              	.LBE153:
 151              	.LBE152:
 152              	.LBE151:
 153              		.cfi_endproc
 154              	.LFE272:
 155              		.size	pwmStart, .-pwmStart
 156 0022 00BFAFF3 		.section	.text.pwmStop,"ax",%progbits
 156      0080AFF3 
 156      0080AFF3 
 156      0080
 157              		.align	2
 158              		.p2align 4,,15
 159              		.global	pwmStop
 160              		.thumb
 161              		.thumb_func
 162              		.type	pwmStop, %function
 163              	pwmStop:
 164              	.LFB273:
 165              		.loc 1 111 0
 166              		.cfi_startproc
ARM GAS  /tmp/ccQyeFPN.s 			page 4


 167              		@ args = 0, pretend = 0, frame = 0
 168              		@ frame_needed = 0, uses_anonymous_args = 0
 169              	.LVL5:
 170 0000 10B5     		push	{r4, lr}
 171              		.cfi_def_cfa_offset 8
 172              		.cfi_offset 4, -8
 173              		.cfi_offset 14, -4
 174              	.LBB157:
 175              	.LBB158:
 176              	.LBB159:
 177              	.LBB160:
 178              	.LBB161:
 179              		.loc 2 264 0
 180 0002 2023     		movs	r3, #32
 181              	.LBE161:
 182              	.LBE160:
 183              	.LBE159:
 184              	.LBE158:
 185              	.LBE157:
 186              		.loc 1 111 0
 187 0004 0446     		mov	r4, r0
 188              	.LBB166:
 189              	.LBB165:
 190              	.LBB164:
 191              	.LBB163:
 192              	.LBB162:
 193              		.loc 2 264 0
 194              	@ 264 "../../../../../ChibiOS-RT/os/common/ext/CMSIS/include/cmsis_gcc.h" 1
 195 0006 83F31188 		MSR basepri, r3
 196              	@ 0 "" 2
 197              		.thumb
 198              	.LBE162:
 199              	.LBE163:
 200              	.LBE164:
 201              	.LBE165:
 202              	.LBE166:
 203              		.loc 1 118 0
 204 000a FFF7FEFF 		bl	pwm_lld_stop
 205              	.LVL6:
 206              		.loc 1 120 0
 207 000e 0122     		movs	r2, #1
 208              		.loc 1 119 0
 209 0010 0023     		movs	r3, #0
 210              		.loc 1 120 0
 211 0012 2270     		strb	r2, [r4]
 212              	.LVL7:
 213              		.loc 1 119 0
 214 0014 E360     		str	r3, [r4, #12]
 215              	.LBB167:
 216              	.LBB168:
 217              	.LBB169:
 218              	.LBB170:
 219              	.LBB171:
 220              	.LBB172:
 221              		.loc 2 264 0
 222              	@ 264 "../../../../../ChibiOS-RT/os/common/ext/CMSIS/include/cmsis_gcc.h" 1
 223 0016 83F31188 		MSR basepri, r3
ARM GAS  /tmp/ccQyeFPN.s 			page 5


 224              	@ 0 "" 2
 225              		.thumb
 226 001a 10BD     		pop	{r4, pc}
 227              	.LBE172:
 228              	.LBE171:
 229              	.LBE170:
 230              	.LBE169:
 231              	.LBE168:
 232              	.LBE167:
 233              		.cfi_endproc
 234              	.LFE273:
 235              		.size	pwmStop, .-pwmStop
 236 001c AFF30080 		.section	.text.pwmChangePeriod,"ax",%progbits
 237              		.align	2
 238              		.p2align 4,,15
 239              		.global	pwmChangePeriod
 240              		.thumb
 241              		.thumb_func
 242              		.type	pwmChangePeriod, %function
 243              	pwmChangePeriod:
 244              	.LFB274:
 245              		.loc 1 139 0
 246              		.cfi_startproc
 247              		@ args = 0, pretend = 0, frame = 0
 248              		@ frame_needed = 0, uses_anonymous_args = 0
 249              		@ link register save eliminated.
 250              	.LVL8:
 251              	.LBB173:
 252              	.LBB174:
 253              	.LBB175:
 254              	.LBB176:
 255              	.LBB177:
 256              		.loc 2 264 0
 257 0000 2023     		movs	r3, #32
 258              	@ 264 "../../../../../ChibiOS-RT/os/common/ext/CMSIS/include/cmsis_gcc.h" 1
 259 0002 83F31188 		MSR basepri, r3
 260              	@ 0 "" 2
 261              		.thumb
 262              	.LBE177:
 263              	.LBE176:
 264              	.LBE175:
 265              	.LBE174:
 266              	.LBE173:
 267              		.loc 1 145 0
 268 0006 8369     		ldr	r3, [r0, #24]
 269 0008 8160     		str	r1, [r0, #8]
 270 000a 0139     		subs	r1, r1, #1
 271              	.LVL9:
 272 000c D962     		str	r1, [r3, #44]
 273              	.LVL10:
 274              	.LBB178:
 275              	.LBB179:
 276              	.LBB180:
 277              	.LBB181:
 278              	.LBB182:
 279              	.LBB183:
 280              		.loc 2 264 0
ARM GAS  /tmp/ccQyeFPN.s 			page 6


 281 000e 0023     		movs	r3, #0
 282              	@ 264 "../../../../../ChibiOS-RT/os/common/ext/CMSIS/include/cmsis_gcc.h" 1
 283 0010 83F31188 		MSR basepri, r3
 284              	@ 0 "" 2
 285              		.thumb
 286 0014 7047     		bx	lr
 287              	.LBE183:
 288              	.LBE182:
 289              	.LBE181:
 290              	.LBE180:
 291              	.LBE179:
 292              	.LBE178:
 293              		.cfi_endproc
 294              	.LFE274:
 295              		.size	pwmChangePeriod, .-pwmChangePeriod
 296 0016 00BFAFF3 		.section	.text.pwmEnableChannel,"ax",%progbits
 296      0080AFF3 
 296      0080
 297              		.align	2
 298              		.p2align 4,,15
 299              		.global	pwmEnableChannel
 300              		.thumb
 301              		.thumb_func
 302              		.type	pwmEnableChannel, %function
 303              	pwmEnableChannel:
 304              	.LFB275:
 305              		.loc 1 165 0
 306              		.cfi_startproc
 307              		@ args = 0, pretend = 0, frame = 0
 308              		@ frame_needed = 0, uses_anonymous_args = 0
 309              	.LVL11:
 310 0000 10B5     		push	{r4, lr}
 311              		.cfi_def_cfa_offset 8
 312              		.cfi_offset 4, -8
 313              		.cfi_offset 14, -4
 314              	.LBB184:
 315              	.LBB185:
 316              	.LBB186:
 317              	.LBB187:
 318              	.LBB188:
 319              		.loc 2 264 0
 320 0002 2023     		movs	r3, #32
 321              	@ 264 "../../../../../ChibiOS-RT/os/common/ext/CMSIS/include/cmsis_gcc.h" 1
 322 0004 83F31188 		MSR basepri, r3
 323              	@ 0 "" 2
 324              		.thumb
 325              	.LBE188:
 326              	.LBE187:
 327              	.LBE186:
 328              	.LBE185:
 329              	.LBE184:
 330              		.loc 1 173 0
 331 0008 0124     		movs	r4, #1
 332 000a C368     		ldr	r3, [r0, #12]
 333 000c 8C40     		lsls	r4, r4, r1
 334 000e 2343     		orrs	r3, r3, r4
 335 0010 C360     		str	r3, [r0, #12]
ARM GAS  /tmp/ccQyeFPN.s 			page 7


 336 0012 FFF7FEFF 		bl	pwm_lld_enable_channel
 337              	.LVL12:
 338              	.LBB189:
 339              	.LBB190:
 340              	.LBB191:
 341              	.LBB192:
 342              	.LBB193:
 343              	.LBB194:
 344              		.loc 2 264 0
 345 0016 0023     		movs	r3, #0
 346              	@ 264 "../../../../../ChibiOS-RT/os/common/ext/CMSIS/include/cmsis_gcc.h" 1
 347 0018 83F31188 		MSR basepri, r3
 348              	@ 0 "" 2
 349              		.thumb
 350 001c 10BD     		pop	{r4, pc}
 351              	.LBE194:
 352              	.LBE193:
 353              	.LBE192:
 354              	.LBE191:
 355              	.LBE190:
 356              	.LBE189:
 357              		.cfi_endproc
 358              	.LFE275:
 359              		.size	pwmEnableChannel, .-pwmEnableChannel
 360 001e 00BF     		.section	.text.pwmDisableChannel,"ax",%progbits
 361              		.align	2
 362              		.p2align 4,,15
 363              		.global	pwmDisableChannel
 364              		.thumb
 365              		.thumb_func
 366              		.type	pwmDisableChannel, %function
 367              	pwmDisableChannel:
 368              	.LFB276:
 369              		.loc 1 192 0
 370              		.cfi_startproc
 371              		@ args = 0, pretend = 0, frame = 0
 372              		@ frame_needed = 0, uses_anonymous_args = 0
 373              	.LVL13:
 374 0000 08B5     		push	{r3, lr}
 375              		.cfi_def_cfa_offset 8
 376              		.cfi_offset 3, -8
 377              		.cfi_offset 14, -4
 378              	.LBB195:
 379              	.LBB196:
 380              	.LBB197:
 381              	.LBB198:
 382              	.LBB199:
 383              		.loc 2 264 0
 384 0002 2023     		movs	r3, #32
 385              	@ 264 "../../../../../ChibiOS-RT/os/common/ext/CMSIS/include/cmsis_gcc.h" 1
 386 0004 83F31188 		MSR basepri, r3
 387              	@ 0 "" 2
 388              		.thumb
 389              	.LBE199:
 390              	.LBE198:
 391              	.LBE197:
 392              	.LBE196:
ARM GAS  /tmp/ccQyeFPN.s 			page 8


 393              	.LBE195:
 394              		.loc 1 200 0
 395 0008 0122     		movs	r2, #1
 396 000a C368     		ldr	r3, [r0, #12]
 397 000c 8A40     		lsls	r2, r2, r1
 398 000e 23EA0203 		bic	r3, r3, r2
 399 0012 C360     		str	r3, [r0, #12]
 400 0014 FFF7FEFF 		bl	pwm_lld_disable_channel
 401              	.LVL14:
 402              	.LBB200:
 403              	.LBB201:
 404              	.LBB202:
 405              	.LBB203:
 406              	.LBB204:
 407              	.LBB205:
 408              		.loc 2 264 0
 409 0018 0023     		movs	r3, #0
 410              	@ 264 "../../../../../ChibiOS-RT/os/common/ext/CMSIS/include/cmsis_gcc.h" 1
 411 001a 83F31188 		MSR basepri, r3
 412              	@ 0 "" 2
 413              		.thumb
 414 001e 08BD     		pop	{r3, pc}
 415              	.LBE205:
 416              	.LBE204:
 417              	.LBE203:
 418              	.LBE202:
 419              	.LBE201:
 420              	.LBE200:
 421              		.cfi_endproc
 422              	.LFE276:
 423              		.size	pwmDisableChannel, .-pwmDisableChannel
 424              		.section	.text.pwmEnablePeriodicNotification,"ax",%progbits
 425              		.align	2
 426              		.p2align 4,,15
 427              		.global	pwmEnablePeriodicNotification
 428              		.thumb
 429              		.thumb_func
 430              		.type	pwmEnablePeriodicNotification, %function
 431              	pwmEnablePeriodicNotification:
 432              	.LFB277:
 433              		.loc 1 214 0
 434              		.cfi_startproc
 435              		@ args = 0, pretend = 0, frame = 0
 436              		@ frame_needed = 0, uses_anonymous_args = 0
 437              	.LVL15:
 438 0000 08B5     		push	{r3, lr}
 439              		.cfi_def_cfa_offset 8
 440              		.cfi_offset 3, -8
 441              		.cfi_offset 14, -4
 442              	.LBB206:
 443              	.LBB207:
 444              	.LBB208:
 445              	.LBB209:
 446              	.LBB210:
 447              		.loc 2 264 0
 448 0002 2023     		movs	r3, #32
 449              	@ 264 "../../../../../ChibiOS-RT/os/common/ext/CMSIS/include/cmsis_gcc.h" 1
ARM GAS  /tmp/ccQyeFPN.s 			page 9


 450 0004 83F31188 		MSR basepri, r3
 451              	@ 0 "" 2
 452              		.thumb
 453              	.LBE210:
 454              	.LBE209:
 455              	.LBE208:
 456              	.LBE207:
 457              	.LBE206:
 458              		.loc 1 223 0
 459 0008 FFF7FEFF 		bl	pwm_lld_enable_periodic_notification
 460              	.LVL16:
 461              	.LBB211:
 462              	.LBB212:
 463              	.LBB213:
 464              	.LBB214:
 465              	.LBB215:
 466              	.LBB216:
 467              		.loc 2 264 0
 468 000c 0023     		movs	r3, #0
 469              	@ 264 "../../../../../ChibiOS-RT/os/common/ext/CMSIS/include/cmsis_gcc.h" 1
 470 000e 83F31188 		MSR basepri, r3
 471              	@ 0 "" 2
 472              		.thumb
 473 0012 08BD     		pop	{r3, pc}
 474              	.LBE216:
 475              	.LBE215:
 476              	.LBE214:
 477              	.LBE213:
 478              	.LBE212:
 479              	.LBE211:
 480              		.cfi_endproc
 481              	.LFE277:
 482              		.size	pwmEnablePeriodicNotification, .-pwmEnablePeriodicNotification
 483 0014 AFF30080 		.section	.text.pwmDisablePeriodicNotification,"ax",%progbits
 483      AFF30080 
 483      AFF30080 
 484              		.align	2
 485              		.p2align 4,,15
 486              		.global	pwmDisablePeriodicNotification
 487              		.thumb
 488              		.thumb_func
 489              		.type	pwmDisablePeriodicNotification, %function
 490              	pwmDisablePeriodicNotification:
 491              	.LFB278:
 492              		.loc 1 237 0
 493              		.cfi_startproc
 494              		@ args = 0, pretend = 0, frame = 0
 495              		@ frame_needed = 0, uses_anonymous_args = 0
 496              	.LVL17:
 497 0000 08B5     		push	{r3, lr}
 498              		.cfi_def_cfa_offset 8
 499              		.cfi_offset 3, -8
 500              		.cfi_offset 14, -4
 501              	.LBB217:
 502              	.LBB218:
 503              	.LBB219:
 504              	.LBB220:
ARM GAS  /tmp/ccQyeFPN.s 			page 10


 505              	.LBB221:
 506              		.loc 2 264 0
 507 0002 2023     		movs	r3, #32
 508              	@ 264 "../../../../../ChibiOS-RT/os/common/ext/CMSIS/include/cmsis_gcc.h" 1
 509 0004 83F31188 		MSR basepri, r3
 510              	@ 0 "" 2
 511              		.thumb
 512              	.LBE221:
 513              	.LBE220:
 514              	.LBE219:
 515              	.LBE218:
 516              	.LBE217:
 517              		.loc 1 246 0
 518 0008 FFF7FEFF 		bl	pwm_lld_disable_periodic_notification
 519              	.LVL18:
 520              	.LBB222:
 521              	.LBB223:
 522              	.LBB224:
 523              	.LBB225:
 524              	.LBB226:
 525              	.LBB227:
 526              		.loc 2 264 0
 527 000c 0023     		movs	r3, #0
 528              	@ 264 "../../../../../ChibiOS-RT/os/common/ext/CMSIS/include/cmsis_gcc.h" 1
 529 000e 83F31188 		MSR basepri, r3
 530              	@ 0 "" 2
 531              		.thumb
 532 0012 08BD     		pop	{r3, pc}
 533              	.LBE227:
 534              	.LBE226:
 535              	.LBE225:
 536              	.LBE224:
 537              	.LBE223:
 538              	.LBE222:
 539              		.cfi_endproc
 540              	.LFE278:
 541              		.size	pwmDisablePeriodicNotification, .-pwmDisablePeriodicNotification
 542 0014 AFF30080 		.section	.text.pwmEnableChannelNotification,"ax",%progbits
 542      AFF30080 
 542      AFF30080 
 543              		.align	2
 544              		.p2align 4,,15
 545              		.global	pwmEnableChannelNotification
 546              		.thumb
 547              		.thumb_func
 548              		.type	pwmEnableChannelNotification, %function
 549              	pwmEnableChannelNotification:
 550              	.LFB279:
 551              		.loc 1 262 0
 552              		.cfi_startproc
 553              		@ args = 0, pretend = 0, frame = 0
 554              		@ frame_needed = 0, uses_anonymous_args = 0
 555              	.LVL19:
 556 0000 08B5     		push	{r3, lr}
 557              		.cfi_def_cfa_offset 8
 558              		.cfi_offset 3, -8
 559              		.cfi_offset 14, -4
ARM GAS  /tmp/ccQyeFPN.s 			page 11


 560              	.LBB228:
 561              	.LBB229:
 562              	.LBB230:
 563              	.LBB231:
 564              	.LBB232:
 565              		.loc 2 264 0
 566 0002 2023     		movs	r3, #32
 567              	@ 264 "../../../../../ChibiOS-RT/os/common/ext/CMSIS/include/cmsis_gcc.h" 1
 568 0004 83F31188 		MSR basepri, r3
 569              	@ 0 "" 2
 570              		.thumb
 571              	.LBE232:
 572              	.LBE231:
 573              	.LBE230:
 574              	.LBE229:
 575              	.LBE228:
 576              		.loc 1 274 0
 577 0008 FFF7FEFF 		bl	pwm_lld_enable_channel_notification
 578              	.LVL20:
 579              	.LBB233:
 580              	.LBB234:
 581              	.LBB235:
 582              	.LBB236:
 583              	.LBB237:
 584              	.LBB238:
 585              		.loc 2 264 0
 586 000c 0023     		movs	r3, #0
 587              	@ 264 "../../../../../ChibiOS-RT/os/common/ext/CMSIS/include/cmsis_gcc.h" 1
 588 000e 83F31188 		MSR basepri, r3
 589              	@ 0 "" 2
 590              		.thumb
 591 0012 08BD     		pop	{r3, pc}
 592              	.LBE238:
 593              	.LBE237:
 594              	.LBE236:
 595              	.LBE235:
 596              	.LBE234:
 597              	.LBE233:
 598              		.cfi_endproc
 599              	.LFE279:
 600              		.size	pwmEnableChannelNotification, .-pwmEnableChannelNotification
 601 0014 AFF30080 		.section	.text.pwmDisableChannelNotification,"ax",%progbits
 601      AFF30080 
 601      AFF30080 
 602              		.align	2
 603              		.p2align 4,,15
 604              		.global	pwmDisableChannelNotification
 605              		.thumb
 606              		.thumb_func
 607              		.type	pwmDisableChannelNotification, %function
 608              	pwmDisableChannelNotification:
 609              	.LFB280:
 610              		.loc 1 290 0
 611              		.cfi_startproc
 612              		@ args = 0, pretend = 0, frame = 0
 613              		@ frame_needed = 0, uses_anonymous_args = 0
 614              	.LVL21:
ARM GAS  /tmp/ccQyeFPN.s 			page 12


 615 0000 08B5     		push	{r3, lr}
 616              		.cfi_def_cfa_offset 8
 617              		.cfi_offset 3, -8
 618              		.cfi_offset 14, -4
 619              	.LBB239:
 620              	.LBB240:
 621              	.LBB241:
 622              	.LBB242:
 623              	.LBB243:
 624              		.loc 2 264 0
 625 0002 2023     		movs	r3, #32
 626              	@ 264 "../../../../../ChibiOS-RT/os/common/ext/CMSIS/include/cmsis_gcc.h" 1
 627 0004 83F31188 		MSR basepri, r3
 628              	@ 0 "" 2
 629              		.thumb
 630              	.LBE243:
 631              	.LBE242:
 632              	.LBE241:
 633              	.LBE240:
 634              	.LBE239:
 635              		.loc 1 302 0
 636 0008 FFF7FEFF 		bl	pwm_lld_disable_channel_notification
 637              	.LVL22:
 638              	.LBB244:
 639              	.LBB245:
 640              	.LBB246:
 641              	.LBB247:
 642              	.LBB248:
 643              	.LBB249:
 644              		.loc 2 264 0
 645 000c 0023     		movs	r3, #0
 646              	@ 264 "../../../../../ChibiOS-RT/os/common/ext/CMSIS/include/cmsis_gcc.h" 1
 647 000e 83F31188 		MSR basepri, r3
 648              	@ 0 "" 2
 649              		.thumb
 650 0012 08BD     		pop	{r3, pc}
 651              	.LBE249:
 652              	.LBE248:
 653              	.LBE247:
 654              	.LBE246:
 655              	.LBE245:
 656              	.LBE244:
 657              		.cfi_endproc
 658              	.LFE280:
 659              		.size	pwmDisableChannelNotification, .-pwmDisableChannelNotification
 660 0014 AFF30080 		.text
 660      AFF30080 
 660      AFF30080 
 661              	.Letext0:
 662              		.file 3 "/usr/include/newlib/machine/_default_types.h"
 663              		.file 4 "/usr/include/newlib/stdint.h"
 664              		.file 5 "../../../../../ChibiOS-RT/os/common/ports/ARMCMx/compilers/GCC/chtypes.h"
 665              		.file 6 "../../../../../ChibiOS-RT/os/rt/include/chsystypes.h"
 666              		.file 7 "../../../../../ChibiOS-RT/os/rt/include/chschd.h"
 667              		.file 8 "../../../../../ChibiOS-RT/os/common/ports/ARMCMx/chcore.h"
 668              		.file 9 "../../../../../ChibiOS-RT/os/common/ports/ARMCMx/chcore_v7m.h"
 669              		.file 10 "../../../../../ChibiOS-RT/os/hal/ports/STM32/LLD/TIMv1/stm32_tim.h"
ARM GAS  /tmp/ccQyeFPN.s 			page 13


 670              		.file 11 "../../../../../ChibiOS-RT/os/rt/include/chtrace.h"
 671              		.file 12 "../../../../../ChibiOS-RT/os/rt/include/chtm.h"
 672              		.file 13 "../../../../../ChibiOS-RT/os/rt/include/chsem.h"
 673              		.file 14 "../../../../../ChibiOS-RT/os/rt/include/chmtx.h"
 674              		.file 15 "../../../../../ChibiOS-RT/os/hal/include/hal_pwm.h"
 675              		.file 16 "../../../../../ChibiOS-RT/os/hal/ports/STM32/LLD/TIMv1/hal_pwm_lld.h"
 676              		.file 17 "../../../../../ChibiOS-RT/os/rt/include/chsys.h"
 677              		.file 18 "../../../../../ChibiOS-RT/os/hal/osal/rt/osal.h"
 678              		.file 19 "../../../../../ChibiOS-RT/os/common/ext/CMSIS/include/core_cm4.h"
 679              		.section	.debug_info,"",%progbits
 680              	.Ldebug_info0:
 681 0000 12150000 		.4byte	0x1512
 682 0004 0400     		.2byte	0x4
 683 0006 00000000 		.4byte	.Ldebug_abbrev0
 684 000a 04       		.byte	0x4
 685 000b 01       		.uleb128 0x1
 686 000c 91000000 		.4byte	.LASF165
 687 0010 01       		.byte	0x1
 688 0011 28050000 		.4byte	.LASF166
 689 0015 76030000 		.4byte	.LASF167
 690 0019 30000000 		.4byte	.Ldebug_ranges0+0x30
 691 001d 00000000 		.4byte	0
 692 0021 00000000 		.4byte	.Ldebug_line0
 693 0025 02       		.uleb128 0x2
 694 0026 04       		.byte	0x4
 695 0027 05       		.byte	0x5
 696 0028 696E7400 		.ascii	"int\000"
 697 002c 03       		.uleb128 0x3
 698 002d 04       		.byte	0x4
 699 002e 07       		.byte	0x7
 700 002f 4C030000 		.4byte	.LASF0
 701 0033 03       		.uleb128 0x3
 702 0034 01       		.byte	0x1
 703 0035 06       		.byte	0x6
 704 0036 E7010000 		.4byte	.LASF1
 705 003a 04       		.uleb128 0x4
 706 003b 40000000 		.4byte	.LASF4
 707 003f 03       		.byte	0x3
 708 0040 1C       		.byte	0x1c
 709 0041 45000000 		.4byte	0x45
 710 0045 03       		.uleb128 0x3
 711 0046 01       		.byte	0x1
 712 0047 08       		.byte	0x8
 713 0048 17060000 		.4byte	.LASF2
 714 004c 03       		.uleb128 0x3
 715 004d 02       		.byte	0x2
 716 004e 05       		.byte	0x5
 717 004f 32060000 		.4byte	.LASF3
 718 0053 04       		.uleb128 0x4
 719 0054 FA060000 		.4byte	.LASF5
 720 0058 03       		.byte	0x3
 721 0059 26       		.byte	0x26
 722 005a 5E000000 		.4byte	0x5e
 723 005e 03       		.uleb128 0x3
 724 005f 02       		.byte	0x2
 725 0060 07       		.byte	0x7
 726 0061 8F070000 		.4byte	.LASF6
ARM GAS  /tmp/ccQyeFPN.s 			page 14


 727 0065 04       		.uleb128 0x4
 728 0066 B2040000 		.4byte	.LASF7
 729 006a 03       		.byte	0x3
 730 006b 37       		.byte	0x37
 731 006c 70000000 		.4byte	0x70
 732 0070 03       		.uleb128 0x3
 733 0071 04       		.byte	0x4
 734 0072 05       		.byte	0x5
 735 0073 2F020000 		.4byte	.LASF8
 736 0077 04       		.uleb128 0x4
 737 0078 C3020000 		.4byte	.LASF9
 738 007c 03       		.byte	0x3
 739 007d 38       		.byte	0x38
 740 007e 82000000 		.4byte	0x82
 741 0082 03       		.uleb128 0x3
 742 0083 04       		.byte	0x4
 743 0084 07       		.byte	0x7
 744 0085 FB030000 		.4byte	.LASF10
 745 0089 03       		.uleb128 0x3
 746 008a 08       		.byte	0x8
 747 008b 05       		.byte	0x5
 748 008c 91020000 		.4byte	.LASF11
 749 0090 04       		.uleb128 0x4
 750 0091 94050000 		.4byte	.LASF12
 751 0095 03       		.byte	0x3
 752 0096 4E       		.byte	0x4e
 753 0097 9B000000 		.4byte	0x9b
 754 009b 03       		.uleb128 0x3
 755 009c 08       		.byte	0x8
 756 009d 07       		.byte	0x7
 757 009e 2E010000 		.4byte	.LASF13
 758 00a2 04       		.uleb128 0x4
 759 00a3 E4070000 		.4byte	.LASF14
 760 00a7 04       		.byte	0x4
 761 00a8 2A       		.byte	0x2a
 762 00a9 3A000000 		.4byte	0x3a
 763 00ad 04       		.uleb128 0x4
 764 00ae 9F020000 		.4byte	.LASF15
 765 00b2 04       		.byte	0x4
 766 00b3 36       		.byte	0x36
 767 00b4 53000000 		.4byte	0x53
 768 00b8 04       		.uleb128 0x4
 769 00b9 0F060000 		.4byte	.LASF16
 770 00bd 04       		.byte	0x4
 771 00be 41       		.byte	0x41
 772 00bf 65000000 		.4byte	0x65
 773 00c3 04       		.uleb128 0x4
 774 00c4 C7060000 		.4byte	.LASF17
 775 00c8 04       		.byte	0x4
 776 00c9 42       		.byte	0x42
 777 00ca 77000000 		.4byte	0x77
 778 00ce 04       		.uleb128 0x4
 779 00cf 37000000 		.4byte	.LASF18
 780 00d3 04       		.byte	0x4
 781 00d4 4E       		.byte	0x4e
 782 00d5 90000000 		.4byte	0x90
 783 00d9 04       		.uleb128 0x4
ARM GAS  /tmp/ccQyeFPN.s 			page 15


 784 00da B3070000 		.4byte	.LASF19
 785 00de 05       		.byte	0x5
 786 00df 39       		.byte	0x39
 787 00e0 C3000000 		.4byte	0xc3
 788 00e4 04       		.uleb128 0x4
 789 00e5 49080000 		.4byte	.LASF20
 790 00e9 05       		.byte	0x5
 791 00ea 3C       		.byte	0x3c
 792 00eb A2000000 		.4byte	0xa2
 793 00ef 04       		.uleb128 0x4
 794 00f0 6A020000 		.4byte	.LASF21
 795 00f4 05       		.byte	0x5
 796 00f5 3D       		.byte	0x3d
 797 00f6 A2000000 		.4byte	0xa2
 798 00fa 04       		.uleb128 0x4
 799 00fb C5050000 		.4byte	.LASF22
 800 00ff 05       		.byte	0x5
 801 0100 3E       		.byte	0x3e
 802 0101 A2000000 		.4byte	0xa2
 803 0105 04       		.uleb128 0x4
 804 0106 F1050000 		.4byte	.LASF23
 805 010a 05       		.byte	0x5
 806 010b 40       		.byte	0x40
 807 010c C3000000 		.4byte	0xc3
 808 0110 04       		.uleb128 0x4
 809 0111 33040000 		.4byte	.LASF24
 810 0115 05       		.byte	0x5
 811 0116 41       		.byte	0x41
 812 0117 B8000000 		.4byte	0xb8
 813 011b 04       		.uleb128 0x4
 814 011c 81040000 		.4byte	.LASF25
 815 0120 05       		.byte	0x5
 816 0121 43       		.byte	0x43
 817 0122 C3000000 		.4byte	0xc3
 818 0126 04       		.uleb128 0x4
 819 0127 3D030000 		.4byte	.LASF26
 820 012b 05       		.byte	0x5
 821 012c 45       		.byte	0x45
 822 012d B8000000 		.4byte	0xb8
 823 0131 04       		.uleb128 0x4
 824 0132 31070000 		.4byte	.LASF27
 825 0136 06       		.byte	0x6
 826 0137 33       		.byte	0x33
 827 0138 C3000000 		.4byte	0xc3
 828 013c 04       		.uleb128 0x4
 829 013d 28070000 		.4byte	.LASF28
 830 0141 06       		.byte	0x6
 831 0142 3F       		.byte	0x3f
 832 0143 47010000 		.4byte	0x147
 833 0147 05       		.uleb128 0x5
 834 0148 0D040000 		.4byte	.LASF46
 835 014c 44       		.byte	0x44
 836 014d 07       		.byte	0x7
 837 014e 9A       		.byte	0x9a
 838 014f 25020000 		.4byte	0x225
 839 0153 06       		.uleb128 0x6
 840 0154 1C040000 		.4byte	.LASF29
ARM GAS  /tmp/ccQyeFPN.s 			page 16


 841 0158 07       		.byte	0x7
 842 0159 9B       		.byte	0x9b
 843 015a 5A020000 		.4byte	0x25a
 844 015e 00       		.byte	0
 845 015f 06       		.uleb128 0x6
 846 0160 87050000 		.4byte	.LASF30
 847 0164 07       		.byte	0x7
 848 0165 9C       		.byte	0x9c
 849 0166 05010000 		.4byte	0x105
 850 016a 08       		.byte	0x8
 851 016b 07       		.uleb128 0x7
 852 016c 63747800 		.ascii	"ctx\000"
 853 0170 07       		.byte	0x7
 854 0171 9D       		.byte	0x9d
 855 0172 88040000 		.4byte	0x488
 856 0176 0C       		.byte	0xc
 857 0177 06       		.uleb128 0x6
 858 0178 CC040000 		.4byte	.LASF31
 859 017c 07       		.byte	0x7
 860 017d 9F       		.byte	0x9f
 861 017e 30020000 		.4byte	0x230
 862 0182 10       		.byte	0x10
 863 0183 06       		.uleb128 0x6
 864 0184 BD020000 		.4byte	.LASF32
 865 0188 07       		.byte	0x7
 866 0189 A0       		.byte	0xa0
 867 018a 30020000 		.4byte	0x230
 868 018e 14       		.byte	0x14
 869 018f 06       		.uleb128 0x6
 870 0190 17040000 		.4byte	.LASF33
 871 0194 07       		.byte	0x7
 872 0195 A7       		.byte	0xa7
 873 0196 7A060000 		.4byte	0x67a
 874 019a 18       		.byte	0x18
 875 019b 06       		.uleb128 0x6
 876 019c E5060000 		.4byte	.LASF34
 877 01a0 07       		.byte	0x7
 878 01a1 B0       		.byte	0xb0
 879 01a2 93080000 		.4byte	0x893
 880 01a6 1C       		.byte	0x1c
 881 01a7 06       		.uleb128 0x6
 882 01a8 20020000 		.4byte	.LASF35
 883 01ac 07       		.byte	0x7
 884 01ad B5       		.byte	0xb5
 885 01ae EF000000 		.4byte	0xef
 886 01b2 20       		.byte	0x20
 887 01b3 06       		.uleb128 0x6
 888 01b4 14080000 		.4byte	.LASF36
 889 01b8 07       		.byte	0x7
 890 01b9 B9       		.byte	0xb9
 891 01ba E4000000 		.4byte	0xe4
 892 01be 21       		.byte	0x21
 893 01bf 06       		.uleb128 0x6
 894 01c0 CD050000 		.4byte	.LASF37
 895 01c4 07       		.byte	0x7
 896 01c5 BE       		.byte	0xbe
 897 01c6 FA000000 		.4byte	0xfa
ARM GAS  /tmp/ccQyeFPN.s 			page 17


 898 01ca 22       		.byte	0x22
 899 01cb 08       		.uleb128 0x8
 900 01cc 7500     		.ascii	"u\000"
 901 01ce 07       		.byte	0x7
 902 01cf 0F01     		.2byte	0x10f
 903 01d1 C8070000 		.4byte	0x7c8
 904 01d5 24       		.byte	0x24
 905 01d6 09       		.uleb128 0x9
 906 01d7 F6020000 		.4byte	.LASF38
 907 01db 07       		.byte	0x7
 908 01dc 1401     		.2byte	0x114
 909 01de 36020000 		.4byte	0x236
 910 01e2 28       		.byte	0x28
 911 01e3 09       		.uleb128 0x9
 912 01e4 43030000 		.4byte	.LASF39
 913 01e8 07       		.byte	0x7
 914 01e9 1A01     		.2byte	0x11a
 915 01eb 5A020000 		.4byte	0x25a
 916 01ef 2C       		.byte	0x2c
 917 01f0 09       		.uleb128 0x9
 918 01f1 49040000 		.4byte	.LASF40
 919 01f5 07       		.byte	0x7
 920 01f6 2001     		.2byte	0x120
 921 01f8 1B010000 		.4byte	0x11b
 922 01fc 34       		.byte	0x34
 923 01fd 09       		.uleb128 0x9
 924 01fe 70080000 		.4byte	.LASF41
 925 0202 07       		.byte	0x7
 926 0203 2701     		.2byte	0x127
 927 0205 8D080000 		.4byte	0x88d
 928 0209 38       		.byte	0x38
 929 020a 09       		.uleb128 0x9
 930 020b DA040000 		.4byte	.LASF42
 931 020f 07       		.byte	0x7
 932 0210 2B01     		.2byte	0x12b
 933 0212 05010000 		.4byte	0x105
 934 0216 3C       		.byte	0x3c
 935 0217 09       		.uleb128 0x9
 936 0218 28040000 		.4byte	.LASF43
 937 021c 07       		.byte	0x7
 938 021d 3201     		.2byte	0x132
 939 021f 0D030000 		.4byte	0x30d
 940 0223 40       		.byte	0x40
 941 0224 00       		.byte	0
 942 0225 04       		.uleb128 0x4
 943 0226 F4040000 		.4byte	.LASF44
 944 022a 06       		.byte	0x6
 945 022b 44       		.byte	0x44
 946 022c 30020000 		.4byte	0x230
 947 0230 0A       		.uleb128 0xa
 948 0231 04       		.byte	0x4
 949 0232 3C010000 		.4byte	0x13c
 950 0236 04       		.uleb128 0x4
 951 0237 3A080000 		.4byte	.LASF45
 952 023b 06       		.byte	0x6
 953 023c 49       		.byte	0x49
 954 023d 41020000 		.4byte	0x241
ARM GAS  /tmp/ccQyeFPN.s 			page 18


 955 0241 05       		.uleb128 0x5
 956 0242 39040000 		.4byte	.LASF47
 957 0246 04       		.byte	0x4
 958 0247 07       		.byte	0x7
 959 0248 88       		.byte	0x88
 960 0249 5A020000 		.4byte	0x25a
 961 024d 06       		.uleb128 0x6
 962 024e 25000000 		.4byte	.LASF48
 963 0252 07       		.byte	0x7
 964 0253 89       		.byte	0x89
 965 0254 30020000 		.4byte	0x230
 966 0258 00       		.byte	0
 967 0259 00       		.byte	0
 968 025a 04       		.uleb128 0x4
 969 025b C5070000 		.4byte	.LASF49
 970 025f 06       		.byte	0x6
 971 0260 50       		.byte	0x50
 972 0261 65020000 		.4byte	0x265
 973 0265 05       		.uleb128 0x5
 974 0266 5B000000 		.4byte	.LASF50
 975 026a 08       		.byte	0x8
 976 026b 07       		.byte	0x7
 977 026c 8F       		.byte	0x8f
 978 026d 8A020000 		.4byte	0x28a
 979 0271 06       		.uleb128 0x6
 980 0272 25000000 		.4byte	.LASF48
 981 0276 07       		.byte	0x7
 982 0277 90       		.byte	0x90
 983 0278 30020000 		.4byte	0x230
 984 027c 00       		.byte	0
 985 027d 06       		.uleb128 0x6
 986 027e 4A000000 		.4byte	.LASF51
 987 0282 07       		.byte	0x7
 988 0283 91       		.byte	0x91
 989 0284 30020000 		.4byte	0x230
 990 0288 04       		.byte	0x4
 991 0289 00       		.byte	0
 992 028a 04       		.uleb128 0x4
 993 028b 0D000000 		.4byte	.LASF52
 994 028f 06       		.byte	0x6
 995 0290 57       		.byte	0x57
 996 0291 95020000 		.4byte	0x295
 997 0295 0B       		.uleb128 0xb
 998 0296 73040000 		.4byte	.LASF53
 999 029a 1C       		.byte	0x1c
 1000 029b 07       		.byte	0x7
 1001 029c 6A01     		.2byte	0x16a
 1002 029e F1020000 		.4byte	0x2f1
 1003 02a2 09       		.uleb128 0x9
 1004 02a3 1C040000 		.4byte	.LASF29
 1005 02a7 07       		.byte	0x7
 1006 02a8 6B01     		.2byte	0x16b
 1007 02aa 5A020000 		.4byte	0x25a
 1008 02ae 00       		.byte	0
 1009 02af 09       		.uleb128 0x9
 1010 02b0 87050000 		.4byte	.LASF30
 1011 02b4 07       		.byte	0x7
ARM GAS  /tmp/ccQyeFPN.s 			page 19


 1012 02b5 6C01     		.2byte	0x16c
 1013 02b7 05010000 		.4byte	0x105
 1014 02bb 08       		.byte	0x8
 1015 02bc 08       		.uleb128 0x8
 1016 02bd 63747800 		.ascii	"ctx\000"
 1017 02c1 07       		.byte	0x7
 1018 02c2 6E01     		.2byte	0x16e
 1019 02c4 88040000 		.4byte	0x488
 1020 02c8 0C       		.byte	0xc
 1021 02c9 09       		.uleb128 0x9
 1022 02ca CC040000 		.4byte	.LASF31
 1023 02ce 07       		.byte	0x7
 1024 02cf 7101     		.2byte	0x171
 1025 02d1 30020000 		.4byte	0x230
 1026 02d5 10       		.byte	0x10
 1027 02d6 09       		.uleb128 0x9
 1028 02d7 BD020000 		.4byte	.LASF32
 1029 02db 07       		.byte	0x7
 1030 02dc 7201     		.2byte	0x172
 1031 02de 30020000 		.4byte	0x230
 1032 02e2 14       		.byte	0x14
 1033 02e3 09       		.uleb128 0x9
 1034 02e4 8C050000 		.4byte	.LASF54
 1035 02e8 07       		.byte	0x7
 1036 02e9 7501     		.2byte	0x175
 1037 02eb 30020000 		.4byte	0x230
 1038 02ef 18       		.byte	0x18
 1039 02f0 00       		.byte	0
 1040 02f1 04       		.uleb128 0x4
 1041 02f2 3B070000 		.4byte	.LASF55
 1042 02f6 06       		.byte	0x6
 1043 02f7 5C       		.byte	0x5c
 1044 02f8 FC020000 		.4byte	0x2fc
 1045 02fc 0A       		.uleb128 0xa
 1046 02fd 04       		.byte	0x4
 1047 02fe 02030000 		.4byte	0x302
 1048 0302 0C       		.uleb128 0xc
 1049 0303 0D030000 		.4byte	0x30d
 1050 0307 0D       		.uleb128 0xd
 1051 0308 0D030000 		.4byte	0x30d
 1052 030c 00       		.byte	0
 1053 030d 0E       		.uleb128 0xe
 1054 030e 04       		.byte	0x4
 1055 030f 04       		.uleb128 0x4
 1056 0310 D2050000 		.4byte	.LASF56
 1057 0314 06       		.byte	0x6
 1058 0315 61       		.byte	0x61
 1059 0316 1A030000 		.4byte	0x31a
 1060 031a 0B       		.uleb128 0xb
 1061 031b 97060000 		.4byte	.LASF57
 1062 031f 14       		.byte	0x14
 1063 0320 07       		.byte	0x7
 1064 0321 4501     		.2byte	0x145
 1065 0323 69030000 		.4byte	0x369
 1066 0327 09       		.uleb128 0x9
 1067 0328 25000000 		.4byte	.LASF48
 1068 032c 07       		.byte	0x7
ARM GAS  /tmp/ccQyeFPN.s 			page 20


 1069 032d 4601     		.2byte	0x146
 1070 032f 99080000 		.4byte	0x899
 1071 0333 00       		.byte	0
 1072 0334 09       		.uleb128 0x9
 1073 0335 4A000000 		.4byte	.LASF51
 1074 0339 07       		.byte	0x7
 1075 033a 4701     		.2byte	0x147
 1076 033c 99080000 		.4byte	0x899
 1077 0340 04       		.byte	0x4
 1078 0341 09       		.uleb128 0x9
 1079 0342 2A000000 		.4byte	.LASF58
 1080 0346 07       		.byte	0x7
 1081 0347 4801     		.2byte	0x148
 1082 0349 31010000 		.4byte	0x131
 1083 034d 08       		.byte	0x8
 1084 034e 09       		.uleb128 0x9
 1085 034f A1010000 		.4byte	.LASF59
 1086 0353 07       		.byte	0x7
 1087 0354 4901     		.2byte	0x149
 1088 0356 F1020000 		.4byte	0x2f1
 1089 035a 0C       		.byte	0xc
 1090 035b 08       		.uleb128 0x8
 1091 035c 70617200 		.ascii	"par\000"
 1092 0360 07       		.byte	0x7
 1093 0361 4B01     		.2byte	0x14b
 1094 0363 0D030000 		.4byte	0x30d
 1095 0367 10       		.byte	0x10
 1096 0368 00       		.byte	0
 1097 0369 04       		.uleb128 0x4
 1098 036a 73010000 		.4byte	.LASF60
 1099 036e 06       		.byte	0x6
 1100 036f 66       		.byte	0x66
 1101 0370 74030000 		.4byte	0x374
 1102 0374 0B       		.uleb128 0xb
 1103 0375 07050000 		.4byte	.LASF61
 1104 0379 10       		.byte	0x10
 1105 037a 07       		.byte	0x7
 1106 037b 5501     		.2byte	0x155
 1107 037d B6030000 		.4byte	0x3b6
 1108 0381 09       		.uleb128 0x9
 1109 0382 25000000 		.4byte	.LASF48
 1110 0386 07       		.byte	0x7
 1111 0387 5601     		.2byte	0x156
 1112 0389 99080000 		.4byte	0x899
 1113 038d 00       		.byte	0
 1114 038e 09       		.uleb128 0x9
 1115 038f 4A000000 		.4byte	.LASF51
 1116 0393 07       		.byte	0x7
 1117 0394 5801     		.2byte	0x158
 1118 0396 99080000 		.4byte	0x899
 1119 039a 04       		.byte	0x4
 1120 039b 09       		.uleb128 0x9
 1121 039c 2A000000 		.4byte	.LASF58
 1122 03a0 07       		.byte	0x7
 1123 03a1 5A01     		.2byte	0x15a
 1124 03a3 31010000 		.4byte	0x131
 1125 03a7 08       		.byte	0x8
ARM GAS  /tmp/ccQyeFPN.s 			page 21


 1126 03a8 09       		.uleb128 0x9
 1127 03a9 3C060000 		.4byte	.LASF62
 1128 03ad 07       		.byte	0x7
 1129 03ae 6201     		.2byte	0x162
 1130 03b0 31010000 		.4byte	0x131
 1131 03b4 0C       		.byte	0xc
 1132 03b5 00       		.byte	0
 1133 03b6 04       		.uleb128 0x4
 1134 03b7 6C000000 		.4byte	.LASF63
 1135 03bb 06       		.byte	0x6
 1136 03bc 6B       		.byte	0x6b
 1137 03bd C1030000 		.4byte	0x3c1
 1138 03c1 0F       		.uleb128 0xf
 1139 03c2 F9050000 		.4byte	.LASF64
 1140 03c6 0C08     		.2byte	0x80c
 1141 03c8 07       		.byte	0x7
 1142 03c9 7C01     		.2byte	0x17c
 1143 03cb EA030000 		.4byte	0x3ea
 1144 03cf 09       		.uleb128 0x9
 1145 03d0 70070000 		.4byte	.LASF65
 1146 03d4 07       		.byte	0x7
 1147 03d5 8401     		.2byte	0x184
 1148 03d7 9F080000 		.4byte	0x89f
 1149 03db 00       		.byte	0
 1150 03dc 09       		.uleb128 0x9
 1151 03dd 51080000 		.4byte	.LASF66
 1152 03e1 07       		.byte	0x7
 1153 03e2 9301     		.2byte	0x193
 1154 03e4 9D070000 		.4byte	0x79d
 1155 03e8 04       		.byte	0x4
 1156 03e9 00       		.byte	0
 1157 03ea 04       		.uleb128 0x4
 1158 03eb 52040000 		.4byte	.LASF67
 1159 03ef 06       		.byte	0x6
 1160 03f0 70       		.byte	0x70
 1161 03f1 F5030000 		.4byte	0x3f5
 1162 03f5 0F       		.uleb128 0xf
 1163 03f6 51060000 		.4byte	.LASF68
 1164 03fa 8008     		.2byte	0x880
 1165 03fc 07       		.byte	0x7
 1166 03fd 9C01     		.2byte	0x19c
 1167 03ff 46040000 		.4byte	0x446
 1168 0403 09       		.uleb128 0x9
 1169 0404 DE070000 		.4byte	.LASF69
 1170 0408 07       		.byte	0x7
 1171 0409 A001     		.2byte	0x1a0
 1172 040b 8A020000 		.4byte	0x28a
 1173 040f 00       		.byte	0
 1174 0410 09       		.uleb128 0x9
 1175 0411 0D020000 		.4byte	.LASF70
 1176 0415 07       		.byte	0x7
 1177 0416 A401     		.2byte	0x1a4
 1178 0418 69030000 		.4byte	0x369
 1179 041c 1C       		.byte	0x1c
 1180 041d 08       		.uleb128 0x8
 1181 041e 64626700 		.ascii	"dbg\000"
 1182 0422 07       		.byte	0x7
ARM GAS  /tmp/ccQyeFPN.s 			page 22


 1183 0423 A801     		.2byte	0x1a8
 1184 0425 B6030000 		.4byte	0x3b6
 1185 0429 2C       		.byte	0x2c
 1186 042a 10       		.uleb128 0x10
 1187 042b 60010000 		.4byte	.LASF71
 1188 042f 07       		.byte	0x7
 1189 0430 AC01     		.2byte	0x1ac
 1190 0432 3C010000 		.4byte	0x13c
 1191 0436 3808     		.2byte	0x838
 1192 0438 11       		.uleb128 0x11
 1193 0439 746D00   		.ascii	"tm\000"
 1194 043c 07       		.byte	0x7
 1195 043d B101     		.2byte	0x1b1
 1196 043f BD070000 		.4byte	0x7bd
 1197 0443 7C08     		.2byte	0x87c
 1198 0445 00       		.byte	0
 1199 0446 03       		.uleb128 0x3
 1200 0447 04       		.byte	0x4
 1201 0448 07       		.byte	0x7
 1202 0449 EB040000 		.4byte	.LASF72
 1203 044d 12       		.uleb128 0x12
 1204 044e C3000000 		.4byte	0xc3
 1205 0452 13       		.uleb128 0x13
 1206 0453 C3000000 		.4byte	0xc3
 1207 0457 62040000 		.4byte	0x462
 1208 045b 14       		.uleb128 0x14
 1209 045c 46040000 		.4byte	0x446
 1210 0460 01       		.byte	0x1
 1211 0461 00       		.byte	0
 1212 0462 13       		.uleb128 0x13
 1213 0463 C3000000 		.4byte	0xc3
 1214 0467 72040000 		.4byte	0x472
 1215 046b 14       		.uleb128 0x14
 1216 046c 46040000 		.4byte	0x446
 1217 0470 03       		.byte	0x3
 1218 0471 00       		.byte	0
 1219 0472 04       		.uleb128 0x4
 1220 0473 ED020000 		.4byte	.LASF73
 1221 0477 08       		.byte	0x8
 1222 0478 65       		.byte	0x65
 1223 0479 0D030000 		.4byte	0x30d
 1224 047d 04       		.uleb128 0x4
 1225 047e C1040000 		.4byte	.LASF74
 1226 0482 08       		.byte	0x8
 1227 0483 6D       		.byte	0x6d
 1228 0484 CE000000 		.4byte	0xce
 1229 0488 05       		.uleb128 0x5
 1230 0489 64050000 		.4byte	.LASF75
 1231 048d 04       		.byte	0x4
 1232 048e 08       		.byte	0x8
 1233 048f 89       		.byte	0x89
 1234 0490 A0040000 		.4byte	0x4a0
 1235 0494 07       		.uleb128 0x7
 1236 0495 737000   		.ascii	"sp\000"
 1237 0498 08       		.byte	0x8
 1238 0499 8A       		.byte	0x8a
 1239 049a 1C050000 		.4byte	0x51c
ARM GAS  /tmp/ccQyeFPN.s 			page 23


 1240 049e 00       		.byte	0
 1241 049f 00       		.byte	0
 1242 04a0 0B       		.uleb128 0xb
 1243 04a1 4F000000 		.4byte	.LASF76
 1244 04a5 24       		.byte	0x24
 1245 04a6 09       		.byte	0x9
 1246 04a7 5901     		.2byte	0x159
 1247 04a9 1C050000 		.4byte	0x51c
 1248 04ad 08       		.uleb128 0x8
 1249 04ae 723400   		.ascii	"r4\000"
 1250 04b1 09       		.byte	0x9
 1251 04b2 6C01     		.2byte	0x16c
 1252 04b4 72040000 		.4byte	0x472
 1253 04b8 00       		.byte	0
 1254 04b9 08       		.uleb128 0x8
 1255 04ba 723500   		.ascii	"r5\000"
 1256 04bd 09       		.byte	0x9
 1257 04be 6D01     		.2byte	0x16d
 1258 04c0 72040000 		.4byte	0x472
 1259 04c4 04       		.byte	0x4
 1260 04c5 08       		.uleb128 0x8
 1261 04c6 723600   		.ascii	"r6\000"
 1262 04c9 09       		.byte	0x9
 1263 04ca 6E01     		.2byte	0x16e
 1264 04cc 72040000 		.4byte	0x472
 1265 04d0 08       		.byte	0x8
 1266 04d1 08       		.uleb128 0x8
 1267 04d2 723700   		.ascii	"r7\000"
 1268 04d5 09       		.byte	0x9
 1269 04d6 6F01     		.2byte	0x16f
 1270 04d8 72040000 		.4byte	0x472
 1271 04dc 0C       		.byte	0xc
 1272 04dd 08       		.uleb128 0x8
 1273 04de 723800   		.ascii	"r8\000"
 1274 04e1 09       		.byte	0x9
 1275 04e2 7001     		.2byte	0x170
 1276 04e4 72040000 		.4byte	0x472
 1277 04e8 10       		.byte	0x10
 1278 04e9 08       		.uleb128 0x8
 1279 04ea 723900   		.ascii	"r9\000"
 1280 04ed 09       		.byte	0x9
 1281 04ee 7101     		.2byte	0x171
 1282 04f0 72040000 		.4byte	0x472
 1283 04f4 14       		.byte	0x14
 1284 04f5 08       		.uleb128 0x8
 1285 04f6 72313000 		.ascii	"r10\000"
 1286 04fa 09       		.byte	0x9
 1287 04fb 7201     		.2byte	0x172
 1288 04fd 72040000 		.4byte	0x472
 1289 0501 18       		.byte	0x18
 1290 0502 08       		.uleb128 0x8
 1291 0503 72313100 		.ascii	"r11\000"
 1292 0507 09       		.byte	0x9
 1293 0508 7301     		.2byte	0x173
 1294 050a 72040000 		.4byte	0x472
 1295 050e 1C       		.byte	0x1c
 1296 050f 08       		.uleb128 0x8
ARM GAS  /tmp/ccQyeFPN.s 			page 24


 1297 0510 6C7200   		.ascii	"lr\000"
 1298 0513 09       		.byte	0x9
 1299 0514 7401     		.2byte	0x174
 1300 0516 72040000 		.4byte	0x472
 1301 051a 20       		.byte	0x20
 1302 051b 00       		.byte	0
 1303 051c 0A       		.uleb128 0xa
 1304 051d 04       		.byte	0x4
 1305 051e A0040000 		.4byte	0x4a0
 1306 0522 15       		.uleb128 0x15
 1307 0523 60       		.byte	0x60
 1308 0524 0A       		.byte	0xa
 1309 0525 A101     		.2byte	0x1a1
 1310 0527 2E060000 		.4byte	0x62e
 1311 052b 08       		.uleb128 0x8
 1312 052c 43523100 		.ascii	"CR1\000"
 1313 0530 0A       		.byte	0xa
 1314 0531 A201     		.2byte	0x1a2
 1315 0533 4D040000 		.4byte	0x44d
 1316 0537 00       		.byte	0
 1317 0538 08       		.uleb128 0x8
 1318 0539 43523200 		.ascii	"CR2\000"
 1319 053d 0A       		.byte	0xa
 1320 053e A301     		.2byte	0x1a3
 1321 0540 4D040000 		.4byte	0x44d
 1322 0544 04       		.byte	0x4
 1323 0545 09       		.uleb128 0x9
 1324 0546 2E040000 		.4byte	.LASF77
 1325 054a 0A       		.byte	0xa
 1326 054b A401     		.2byte	0x1a4
 1327 054d 4D040000 		.4byte	0x44d
 1328 0551 08       		.byte	0x8
 1329 0552 09       		.uleb128 0x9
 1330 0553 1A000000 		.4byte	.LASF78
 1331 0557 0A       		.byte	0xa
 1332 0558 A501     		.2byte	0x1a5
 1333 055a 4D040000 		.4byte	0x44d
 1334 055e 0C       		.byte	0xc
 1335 055f 08       		.uleb128 0x8
 1336 0560 535200   		.ascii	"SR\000"
 1337 0563 0A       		.byte	0xa
 1338 0564 A601     		.2byte	0x1a6
 1339 0566 4D040000 		.4byte	0x44d
 1340 056a 10       		.byte	0x10
 1341 056b 08       		.uleb128 0x8
 1342 056c 45475200 		.ascii	"EGR\000"
 1343 0570 0A       		.byte	0xa
 1344 0571 A701     		.2byte	0x1a7
 1345 0573 4D040000 		.4byte	0x44d
 1346 0577 14       		.byte	0x14
 1347 0578 09       		.uleb128 0x9
 1348 0579 D5010000 		.4byte	.LASF79
 1349 057d 0A       		.byte	0xa
 1350 057e A801     		.2byte	0x1a8
 1351 0580 4D040000 		.4byte	0x44d
 1352 0584 18       		.byte	0x18
 1353 0585 09       		.uleb128 0x9
ARM GAS  /tmp/ccQyeFPN.s 			page 25


 1354 0586 DB010000 		.4byte	.LASF80
 1355 058a 0A       		.byte	0xa
 1356 058b A901     		.2byte	0x1a9
 1357 058d 4D040000 		.4byte	0x44d
 1358 0591 1C       		.byte	0x1c
 1359 0592 09       		.uleb128 0x9
 1360 0593 8C020000 		.4byte	.LASF81
 1361 0597 0A       		.byte	0xa
 1362 0598 AA01     		.2byte	0x1aa
 1363 059a 4D040000 		.4byte	0x44d
 1364 059e 20       		.byte	0x20
 1365 059f 08       		.uleb128 0x8
 1366 05a0 434E5400 		.ascii	"CNT\000"
 1367 05a4 0A       		.byte	0xa
 1368 05a5 AB01     		.2byte	0x1ab
 1369 05a7 4D040000 		.4byte	0x44d
 1370 05ab 24       		.byte	0x24
 1371 05ac 08       		.uleb128 0x8
 1372 05ad 50534300 		.ascii	"PSC\000"
 1373 05b1 0A       		.byte	0xa
 1374 05b2 AC01     		.2byte	0x1ac
 1375 05b4 4D040000 		.4byte	0x44d
 1376 05b8 28       		.byte	0x28
 1377 05b9 08       		.uleb128 0x8
 1378 05ba 41525200 		.ascii	"ARR\000"
 1379 05be 0A       		.byte	0xa
 1380 05bf AD01     		.2byte	0x1ad
 1381 05c1 4D040000 		.4byte	0x44d
 1382 05c5 2C       		.byte	0x2c
 1383 05c6 08       		.uleb128 0x8
 1384 05c7 52435200 		.ascii	"RCR\000"
 1385 05cb 0A       		.byte	0xa
 1386 05cc AE01     		.2byte	0x1ae
 1387 05ce 4D040000 		.4byte	0x44d
 1388 05d2 30       		.byte	0x30
 1389 05d3 08       		.uleb128 0x8
 1390 05d4 43435200 		.ascii	"CCR\000"
 1391 05d8 0A       		.byte	0xa
 1392 05d9 AF01     		.2byte	0x1af
 1393 05db 2E060000 		.4byte	0x62e
 1394 05df 34       		.byte	0x34
 1395 05e0 09       		.uleb128 0x9
 1396 05e1 A6010000 		.4byte	.LASF82
 1397 05e5 0A       		.byte	0xa
 1398 05e6 B001     		.2byte	0x1b0
 1399 05e8 4D040000 		.4byte	0x44d
 1400 05ec 44       		.byte	0x44
 1401 05ed 08       		.uleb128 0x8
 1402 05ee 44435200 		.ascii	"DCR\000"
 1403 05f2 0A       		.byte	0xa
 1404 05f3 B101     		.2byte	0x1b1
 1405 05f5 4D040000 		.4byte	0x44d
 1406 05f9 48       		.byte	0x48
 1407 05fa 09       		.uleb128 0x9
 1408 05fb 23070000 		.4byte	.LASF83
 1409 05ff 0A       		.byte	0xa
 1410 0600 B201     		.2byte	0x1b2
ARM GAS  /tmp/ccQyeFPN.s 			page 26


 1411 0602 4D040000 		.4byte	0x44d
 1412 0606 4C       		.byte	0x4c
 1413 0607 08       		.uleb128 0x8
 1414 0608 4F5200   		.ascii	"OR\000"
 1415 060b 0A       		.byte	0xa
 1416 060c B301     		.2byte	0x1b3
 1417 060e 4D040000 		.4byte	0x44d
 1418 0612 50       		.byte	0x50
 1419 0613 09       		.uleb128 0x9
 1420 0614 E1010000 		.4byte	.LASF84
 1421 0618 0A       		.byte	0xa
 1422 0619 B401     		.2byte	0x1b4
 1423 061b 4D040000 		.4byte	0x44d
 1424 061f 54       		.byte	0x54
 1425 0620 09       		.uleb128 0x9
 1426 0621 B5060000 		.4byte	.LASF85
 1427 0625 0A       		.byte	0xa
 1428 0626 B501     		.2byte	0x1b5
 1429 0628 33060000 		.4byte	0x633
 1430 062c 58       		.byte	0x58
 1431 062d 00       		.byte	0
 1432 062e 12       		.uleb128 0x12
 1433 062f 62040000 		.4byte	0x462
 1434 0633 12       		.uleb128 0x12
 1435 0634 52040000 		.4byte	0x452
 1436 0638 16       		.uleb128 0x16
 1437 0639 67040000 		.4byte	.LASF86
 1438 063d 0A       		.byte	0xa
 1439 063e B601     		.2byte	0x1b6
 1440 0640 22050000 		.4byte	0x522
 1441 0644 17       		.uleb128 0x17
 1442 0645 08       		.byte	0x8
 1443 0646 0B       		.byte	0xb
 1444 0647 80       		.byte	0x80
 1445 0648 65060000 		.4byte	0x665
 1446 064c 07       		.uleb128 0x7
 1447 064d 6E747000 		.ascii	"ntp\000"
 1448 0651 0B       		.byte	0xb
 1449 0652 84       		.byte	0x84
 1450 0653 30020000 		.4byte	0x230
 1451 0657 00       		.byte	0
 1452 0658 06       		.uleb128 0x6
 1453 0659 2E080000 		.4byte	.LASF87
 1454 065d 0B       		.byte	0xb
 1455 065e 88       		.byte	0x88
 1456 065f 0D030000 		.4byte	0x30d
 1457 0663 04       		.byte	0x4
 1458 0664 00       		.byte	0
 1459 0665 17       		.uleb128 0x17
 1460 0666 04       		.byte	0x4
 1461 0667 0B       		.byte	0xb
 1462 0668 8D       		.byte	0x8d
 1463 0669 7A060000 		.4byte	0x67a
 1464 066d 06       		.uleb128 0x6
 1465 066e 17040000 		.4byte	.LASF33
 1466 0672 0B       		.byte	0xb
 1467 0673 91       		.byte	0x91
ARM GAS  /tmp/ccQyeFPN.s 			page 27


 1468 0674 7A060000 		.4byte	0x67a
 1469 0678 00       		.byte	0
 1470 0679 00       		.byte	0
 1471 067a 0A       		.uleb128 0xa
 1472 067b 04       		.byte	0x4
 1473 067c 80060000 		.4byte	0x680
 1474 0680 18       		.uleb128 0x18
 1475 0681 85060000 		.4byte	0x685
 1476 0685 03       		.uleb128 0x3
 1477 0686 01       		.byte	0x1
 1478 0687 08       		.byte	0x8
 1479 0688 F5060000 		.4byte	.LASF88
 1480 068c 17       		.uleb128 0x17
 1481 068d 04       		.byte	0x4
 1482 068e 0B       		.byte	0xb
 1483 068f 96       		.byte	0x96
 1484 0690 A1060000 		.4byte	0x6a1
 1485 0694 06       		.uleb128 0x6
 1486 0695 88060000 		.4byte	.LASF89
 1487 0699 0B       		.byte	0xb
 1488 069a 9A       		.byte	0x9a
 1489 069b 7A060000 		.4byte	0x67a
 1490 069f 00       		.byte	0
 1491 06a0 00       		.byte	0
 1492 06a1 17       		.uleb128 0x17
 1493 06a2 08       		.byte	0x8
 1494 06a3 0B       		.byte	0xb
 1495 06a4 9F       		.byte	0x9f
 1496 06a5 C2060000 		.4byte	0x6c2
 1497 06a9 07       		.uleb128 0x7
 1498 06aa 75703100 		.ascii	"up1\000"
 1499 06ae 0B       		.byte	0xb
 1500 06af A3       		.byte	0xa3
 1501 06b0 0D030000 		.4byte	0x30d
 1502 06b4 00       		.byte	0
 1503 06b5 07       		.uleb128 0x7
 1504 06b6 75703200 		.ascii	"up2\000"
 1505 06ba 0B       		.byte	0xb
 1506 06bb A7       		.byte	0xa7
 1507 06bc 0D030000 		.4byte	0x30d
 1508 06c0 04       		.byte	0x4
 1509 06c1 00       		.byte	0
 1510 06c2 19       		.uleb128 0x19
 1511 06c3 08       		.byte	0x8
 1512 06c4 0B       		.byte	0xb
 1513 06c5 7C       		.byte	0x7c
 1514 06c6 F6060000 		.4byte	0x6f6
 1515 06ca 1A       		.uleb128 0x1a
 1516 06cb 737700   		.ascii	"sw\000"
 1517 06ce 0B       		.byte	0xb
 1518 06cf 89       		.byte	0x89
 1519 06d0 44060000 		.4byte	0x644
 1520 06d4 1A       		.uleb128 0x1a
 1521 06d5 69737200 		.ascii	"isr\000"
 1522 06d9 0B       		.byte	0xb
 1523 06da 92       		.byte	0x92
 1524 06db 65060000 		.4byte	0x665
ARM GAS  /tmp/ccQyeFPN.s 			page 28


 1525 06df 1B       		.uleb128 0x1b
 1526 06e0 45060000 		.4byte	.LASF90
 1527 06e4 0B       		.byte	0xb
 1528 06e5 9B       		.byte	0x9b
 1529 06e6 8C060000 		.4byte	0x68c
 1530 06ea 1B       		.uleb128 0x1b
 1531 06eb E2050000 		.4byte	.LASF91
 1532 06ef 0B       		.byte	0xb
 1533 06f0 A8       		.byte	0xa8
 1534 06f1 A1060000 		.4byte	0x6a1
 1535 06f5 00       		.byte	0
 1536 06f6 17       		.uleb128 0x17
 1537 06f7 10       		.byte	0x10
 1538 06f8 0B       		.byte	0xb
 1539 06f9 69       		.byte	0x69
 1540 06fa 42070000 		.4byte	0x742
 1541 06fe 1C       		.uleb128 0x1c
 1542 06ff 7B000000 		.4byte	.LASF92
 1543 0703 0B       		.byte	0xb
 1544 0704 6D       		.byte	0x6d
 1545 0705 C3000000 		.4byte	0xc3
 1546 0709 04       		.byte	0x4
 1547 070a 03       		.byte	0x3
 1548 070b 1D       		.byte	0x1d
 1549 070c 00       		.byte	0
 1550 070d 1C       		.uleb128 0x1c
 1551 070e 20020000 		.4byte	.LASF35
 1552 0712 0B       		.byte	0xb
 1553 0713 71       		.byte	0x71
 1554 0714 C3000000 		.4byte	0xc3
 1555 0718 04       		.byte	0x4
 1556 0719 05       		.byte	0x5
 1557 071a 18       		.byte	0x18
 1558 071b 00       		.byte	0
 1559 071c 1C       		.uleb128 0x1c
 1560 071d D2040000 		.4byte	.LASF93
 1561 0721 0B       		.byte	0xb
 1562 0722 77       		.byte	0x77
 1563 0723 C3000000 		.4byte	0xc3
 1564 0727 04       		.byte	0x4
 1565 0728 18       		.byte	0x18
 1566 0729 00       		.byte	0
 1567 072a 00       		.byte	0
 1568 072b 06       		.uleb128 0x6
 1569 072c 82050000 		.4byte	.LASF94
 1570 0730 0B       		.byte	0xb
 1571 0731 7B       		.byte	0x7b
 1572 0732 31010000 		.4byte	0x131
 1573 0736 04       		.byte	0x4
 1574 0737 07       		.uleb128 0x7
 1575 0738 7500     		.ascii	"u\000"
 1576 073a 0B       		.byte	0xb
 1577 073b A9       		.byte	0xa9
 1578 073c C2060000 		.4byte	0x6c2
 1579 0740 08       		.byte	0x8
 1580 0741 00       		.byte	0
 1581 0742 04       		.uleb128 0x4
ARM GAS  /tmp/ccQyeFPN.s 			page 29


 1582 0743 73020000 		.4byte	.LASF95
 1583 0747 0B       		.byte	0xb
 1584 0748 AA       		.byte	0xaa
 1585 0749 F6060000 		.4byte	0x6f6
 1586 074d 1D       		.uleb128 0x1d
 1587 074e 0808     		.2byte	0x808
 1588 0750 0B       		.byte	0xb
 1589 0751 B0       		.byte	0xb0
 1590 0752 87070000 		.4byte	0x787
 1591 0756 06       		.uleb128 0x6
 1592 0757 1E050000 		.4byte	.LASF96
 1593 075b 0B       		.byte	0xb
 1594 075c B4       		.byte	0xb4
 1595 075d AD000000 		.4byte	0xad
 1596 0761 00       		.byte	0
 1597 0762 06       		.uleb128 0x6
 1598 0763 35080000 		.4byte	.LASF97
 1599 0767 0B       		.byte	0xb
 1600 0768 B8       		.byte	0xb8
 1601 0769 AD000000 		.4byte	0xad
 1602 076d 02       		.byte	0x2
 1603 076e 07       		.uleb128 0x7
 1604 076f 70747200 		.ascii	"ptr\000"
 1605 0773 0B       		.byte	0xb
 1606 0774 BC       		.byte	0xbc
 1607 0775 87070000 		.4byte	0x787
 1608 0779 04       		.byte	0x4
 1609 077a 06       		.uleb128 0x6
 1610 077b B6020000 		.4byte	.LASF98
 1611 077f 0B       		.byte	0xb
 1612 0780 C0       		.byte	0xc0
 1613 0781 8D070000 		.4byte	0x78d
 1614 0785 08       		.byte	0x8
 1615 0786 00       		.byte	0
 1616 0787 0A       		.uleb128 0xa
 1617 0788 04       		.byte	0x4
 1618 0789 42070000 		.4byte	0x742
 1619 078d 13       		.uleb128 0x13
 1620 078e 42070000 		.4byte	0x742
 1621 0792 9D070000 		.4byte	0x79d
 1622 0796 14       		.uleb128 0x14
 1623 0797 46040000 		.4byte	0x446
 1624 079b 7F       		.byte	0x7f
 1625 079c 00       		.byte	0
 1626 079d 04       		.uleb128 0x4
 1627 079e 45010000 		.4byte	.LASF99
 1628 07a2 0B       		.byte	0xb
 1629 07a3 C1       		.byte	0xc1
 1630 07a4 4D070000 		.4byte	0x74d
 1631 07a8 17       		.uleb128 0x17
 1632 07a9 04       		.byte	0x4
 1633 07aa 0C       		.byte	0xc
 1634 07ab 38       		.byte	0x38
 1635 07ac BD070000 		.4byte	0x7bd
 1636 07b0 06       		.uleb128 0x6
 1637 07b1 88070000 		.4byte	.LASF100
 1638 07b5 0C       		.byte	0xc
ARM GAS  /tmp/ccQyeFPN.s 			page 30


 1639 07b6 3C       		.byte	0x3c
 1640 07b7 D9000000 		.4byte	0xd9
 1641 07bb 00       		.byte	0
 1642 07bc 00       		.byte	0
 1643 07bd 04       		.uleb128 0x4
 1644 07be 71050000 		.4byte	.LASF101
 1645 07c2 0C       		.byte	0xc
 1646 07c3 3D       		.byte	0x3d
 1647 07c4 A8070000 		.4byte	0x7a8
 1648 07c8 19       		.uleb128 0x19
 1649 07c9 04       		.byte	0x4
 1650 07ca 07       		.byte	0x7
 1651 07cb D2       		.byte	0xd2
 1652 07cc 2B080000 		.4byte	0x82b
 1653 07d0 1B       		.uleb128 0x1b
 1654 07d1 30000000 		.4byte	.LASF102
 1655 07d5 07       		.byte	0x7
 1656 07d6 D9       		.byte	0xd9
 1657 07d7 10010000 		.4byte	0x110
 1658 07db 1B       		.uleb128 0x1b
 1659 07dc 57010000 		.4byte	.LASF103
 1660 07e0 07       		.byte	0x7
 1661 07e1 E0       		.byte	0xe0
 1662 07e2 10010000 		.4byte	0x110
 1663 07e6 1B       		.uleb128 0x1b
 1664 07e7 2E080000 		.4byte	.LASF87
 1665 07eb 07       		.byte	0x7
 1666 07ec E7       		.byte	0xe7
 1667 07ed 0D030000 		.4byte	0x30d
 1668 07f1 1B       		.uleb128 0x1b
 1669 07f2 1F000000 		.4byte	.LASF104
 1670 07f6 07       		.byte	0x7
 1671 07f7 EE       		.byte	0xee
 1672 07f8 2B080000 		.4byte	0x82b
 1673 07fc 1B       		.uleb128 0x1b
 1674 07fd 6B010000 		.4byte	.LASF105
 1675 0801 07       		.byte	0x7
 1676 0802 F3       		.byte	0xf3
 1677 0803 10010000 		.4byte	0x110
 1678 0807 1B       		.uleb128 0x1b
 1679 0808 F4030000 		.4byte	.LASF106
 1680 080c 07       		.byte	0x7
 1681 080d FC       		.byte	0xfc
 1682 080e 56080000 		.4byte	0x856
 1683 0812 1E       		.uleb128 0x1e
 1684 0813 D0060000 		.4byte	.LASF107
 1685 0817 07       		.byte	0x7
 1686 0818 0501     		.2byte	0x105
 1687 081a 8D080000 		.4byte	0x88d
 1688 081e 1E       		.uleb128 0x1e
 1689 081f 4A060000 		.4byte	.LASF108
 1690 0823 07       		.byte	0x7
 1691 0824 0D01     		.2byte	0x10d
 1692 0826 1B010000 		.4byte	0x11b
 1693 082a 00       		.byte	0
 1694 082b 0A       		.uleb128 0xa
 1695 082c 04       		.byte	0x4
ARM GAS  /tmp/ccQyeFPN.s 			page 31


 1696 082d 25020000 		.4byte	0x225
 1697 0831 05       		.uleb128 0x5
 1698 0832 A8060000 		.4byte	.LASF109
 1699 0836 0C       		.byte	0xc
 1700 0837 0D       		.byte	0xd
 1701 0838 34       		.byte	0x34
 1702 0839 56080000 		.4byte	0x856
 1703 083d 06       		.uleb128 0x6
 1704 083e 1C040000 		.4byte	.LASF29
 1705 0842 0D       		.byte	0xd
 1706 0843 35       		.byte	0x35
 1707 0844 5A020000 		.4byte	0x25a
 1708 0848 00       		.byte	0
 1709 0849 07       		.uleb128 0x7
 1710 084a 636E7400 		.ascii	"cnt\000"
 1711 084e 0D       		.byte	0xd
 1712 084f 37       		.byte	0x37
 1713 0850 26010000 		.4byte	0x126
 1714 0854 08       		.byte	0x8
 1715 0855 00       		.byte	0
 1716 0856 0A       		.uleb128 0xa
 1717 0857 04       		.byte	0x4
 1718 0858 31080000 		.4byte	0x831
 1719 085c 05       		.uleb128 0x5
 1720 085d D5070000 		.4byte	.LASF110
 1721 0861 10       		.byte	0x10
 1722 0862 0E       		.byte	0xe
 1723 0863 39       		.byte	0x39
 1724 0864 8D080000 		.4byte	0x88d
 1725 0868 06       		.uleb128 0x6
 1726 0869 1C040000 		.4byte	.LASF29
 1727 086d 0E       		.byte	0xe
 1728 086e 3A       		.byte	0x3a
 1729 086f 5A020000 		.4byte	0x25a
 1730 0873 00       		.byte	0
 1731 0874 06       		.uleb128 0x6
 1732 0875 DF060000 		.4byte	.LASF111
 1733 0879 0E       		.byte	0xe
 1734 087a 3C       		.byte	0x3c
 1735 087b 30020000 		.4byte	0x230
 1736 087f 08       		.byte	0x8
 1737 0880 06       		.uleb128 0x6
 1738 0881 25000000 		.4byte	.LASF48
 1739 0885 0E       		.byte	0xe
 1740 0886 3E       		.byte	0x3e
 1741 0887 AF080000 		.4byte	0x8af
 1742 088b 0C       		.byte	0xc
 1743 088c 00       		.byte	0
 1744 088d 0A       		.uleb128 0xa
 1745 088e 04       		.byte	0x4
 1746 088f 5C080000 		.4byte	0x85c
 1747 0893 0A       		.uleb128 0xa
 1748 0894 04       		.byte	0x4
 1749 0895 7D040000 		.4byte	0x47d
 1750 0899 0A       		.uleb128 0xa
 1751 089a 04       		.byte	0x4
 1752 089b 0F030000 		.4byte	0x30f
ARM GAS  /tmp/ccQyeFPN.s 			page 32


 1753 089f 12       		.uleb128 0x12
 1754 08a0 7A060000 		.4byte	0x67a
 1755 08a4 04       		.uleb128 0x4
 1756 08a5 0A030000 		.4byte	.LASF112
 1757 08a9 0E       		.byte	0xe
 1758 08aa 34       		.byte	0x34
 1759 08ab 5C080000 		.4byte	0x85c
 1760 08af 0A       		.uleb128 0xa
 1761 08b0 04       		.byte	0x4
 1762 08b1 A4080000 		.4byte	0x8a4
 1763 08b5 03       		.uleb128 0x3
 1764 08b6 01       		.byte	0x1
 1765 08b7 02       		.byte	0x2
 1766 08b8 09060000 		.4byte	.LASF113
 1767 08bc 1F       		.uleb128 0x1f
 1768 08bd 01       		.byte	0x1
 1769 08be 0F       		.byte	0xf
 1770 08bf 4A       		.byte	0x4a
 1771 08c0 D7080000 		.4byte	0x8d7
 1772 08c4 20       		.uleb128 0x20
 1773 08c5 78080000 		.4byte	.LASF114
 1774 08c9 00       		.sleb128 0
 1775 08ca 20       		.uleb128 0x20
 1776 08cb EC060000 		.4byte	.LASF115
 1777 08cf 01       		.sleb128 1
 1778 08d0 20       		.uleb128 0x20
 1779 08d1 E7050000 		.4byte	.LASF116
 1780 08d5 02       		.sleb128 2
 1781 08d6 00       		.byte	0
 1782 08d7 04       		.uleb128 0x4
 1783 08d8 1A080000 		.4byte	.LASF117
 1784 08dc 0F       		.byte	0xf
 1785 08dd 4E       		.byte	0x4e
 1786 08de BC080000 		.4byte	0x8bc
 1787 08e2 04       		.uleb128 0x4
 1788 08e3 0A080000 		.4byte	.LASF118
 1789 08e7 0F       		.byte	0xf
 1790 08e8 53       		.byte	0x53
 1791 08e9 ED080000 		.4byte	0x8ed
 1792 08ed 0B       		.uleb128 0xb
 1793 08ee 0A080000 		.4byte	.LASF118
 1794 08f2 1C       		.byte	0x1c
 1795 08f3 10       		.byte	0x10
 1796 08f4 B301     		.2byte	0x1b3
 1797 08f6 56090000 		.4byte	0x956
 1798 08fa 09       		.uleb128 0x9
 1799 08fb 20020000 		.4byte	.LASF35
 1800 08ff 10       		.byte	0x10
 1801 0900 B701     		.2byte	0x1b7
 1802 0902 D7080000 		.4byte	0x8d7
 1803 0906 00       		.byte	0
 1804 0907 09       		.uleb128 0x9
 1805 0908 1C070000 		.4byte	.LASF119
 1806 090c 10       		.byte	0x10
 1807 090d BB01     		.2byte	0x1bb
 1808 090f 4C0A0000 		.4byte	0xa4c
 1809 0913 04       		.byte	0x4
ARM GAS  /tmp/ccQyeFPN.s 			page 33


 1810 0914 09       		.uleb128 0x9
 1811 0915 8A000000 		.4byte	.LASF120
 1812 0919 10       		.byte	0x10
 1813 091a BF01     		.2byte	0x1bf
 1814 091c 9C090000 		.4byte	0x99c
 1815 0920 08       		.byte	0x8
 1816 0921 09       		.uleb128 0x9
 1817 0922 D7060000 		.4byte	.LASF121
 1818 0926 10       		.byte	0x10
 1819 0927 C301     		.2byte	0x1c3
 1820 0929 90090000 		.4byte	0x990
 1821 092d 0C       		.byte	0xc
 1822 092e 09       		.uleb128 0x9
 1823 092f 26020000 		.4byte	.LASF122
 1824 0933 10       		.byte	0x10
 1825 0934 C701     		.2byte	0x1c7
 1826 0936 84090000 		.4byte	0x984
 1827 093a 10       		.byte	0x10
 1828 093b 09       		.uleb128 0x9
 1829 093c 6A080000 		.4byte	.LASF123
 1830 0940 10       		.byte	0x10
 1831 0941 CF01     		.2byte	0x1cf
 1832 0943 C3000000 		.4byte	0xc3
 1833 0947 14       		.byte	0x14
 1834 0948 08       		.uleb128 0x8
 1835 0949 74696D00 		.ascii	"tim\000"
 1836 094d 10       		.byte	0x10
 1837 094e D301     		.2byte	0x1d3
 1838 0950 570A0000 		.4byte	0xa57
 1839 0954 18       		.byte	0x18
 1840 0955 00       		.byte	0
 1841 0956 04       		.uleb128 0x4
 1842 0957 A8020000 		.4byte	.LASF124
 1843 095b 0F       		.byte	0xf
 1844 095c 5A       		.byte	0x5a
 1845 095d 61090000 		.4byte	0x961
 1846 0961 0A       		.uleb128 0xa
 1847 0962 04       		.byte	0x4
 1848 0963 67090000 		.4byte	0x967
 1849 0967 0C       		.uleb128 0xc
 1850 0968 72090000 		.4byte	0x972
 1851 096c 0D       		.uleb128 0xd
 1852 096d 72090000 		.4byte	0x972
 1853 0971 00       		.byte	0
 1854 0972 0A       		.uleb128 0xa
 1855 0973 04       		.byte	0x4
 1856 0974 E2080000 		.4byte	0x8e2
 1857 0978 16       		.uleb128 0x16
 1858 0979 03020000 		.4byte	.LASF125
 1859 097d 10       		.byte	0x10
 1860 097e 5F01     		.2byte	0x15f
 1861 0980 C3000000 		.4byte	0xc3
 1862 0984 16       		.uleb128 0x16
 1863 0985 00000000 		.4byte	.LASF126
 1864 0989 10       		.byte	0x10
 1865 098a 6401     		.2byte	0x164
 1866 098c A2000000 		.4byte	0xa2
ARM GAS  /tmp/ccQyeFPN.s 			page 34


 1867 0990 16       		.uleb128 0x16
 1868 0991 5B060000 		.4byte	.LASF127
 1869 0995 10       		.byte	0x10
 1870 0996 6901     		.2byte	0x169
 1871 0998 C3000000 		.4byte	0xc3
 1872 099c 16       		.uleb128 0x16
 1873 099d 25080000 		.4byte	.LASF128
 1874 09a1 10       		.byte	0x10
 1875 09a2 6E01     		.2byte	0x16e
 1876 09a4 C3000000 		.4byte	0xc3
 1877 09a8 15       		.uleb128 0x15
 1878 09a9 08       		.byte	0x8
 1879 09aa 10       		.byte	0x10
 1880 09ab 7301     		.2byte	0x173
 1881 09ad CC090000 		.4byte	0x9cc
 1882 09b1 09       		.uleb128 0x9
 1883 09b2 05070000 		.4byte	.LASF129
 1884 09b6 10       		.byte	0x10
 1885 09b7 7701     		.2byte	0x177
 1886 09b9 78090000 		.4byte	0x978
 1887 09bd 00       		.byte	0
 1888 09be 09       		.uleb128 0x9
 1889 09bf 5E040000 		.4byte	.LASF130
 1890 09c3 10       		.byte	0x10
 1891 09c4 7D01     		.2byte	0x17d
 1892 09c6 56090000 		.4byte	0x956
 1893 09ca 04       		.byte	0x4
 1894 09cb 00       		.byte	0
 1895 09cc 16       		.uleb128 0x16
 1896 09cd A2070000 		.4byte	.LASF131
 1897 09d1 10       		.byte	0x10
 1898 09d2 7F01     		.2byte	0x17f
 1899 09d4 A8090000 		.4byte	0x9a8
 1900 09d8 15       		.uleb128 0x15
 1901 09d9 34       		.byte	0x34
 1902 09da 10       		.byte	0x10
 1903 09db 8401     		.2byte	0x184
 1904 09dd 300A0000 		.4byte	0xa30
 1905 09e1 09       		.uleb128 0x9
 1906 09e2 AB010000 		.4byte	.LASF132
 1907 09e6 10       		.byte	0x10
 1908 09e7 8A01     		.2byte	0x18a
 1909 09e9 C3000000 		.4byte	0xc3
 1910 09ed 00       		.byte	0
 1911 09ee 09       		.uleb128 0x9
 1912 09ef 8A000000 		.4byte	.LASF120
 1913 09f3 10       		.byte	0x10
 1914 09f4 9001     		.2byte	0x190
 1915 09f6 9C090000 		.4byte	0x99c
 1916 09fa 04       		.byte	0x4
 1917 09fb 09       		.uleb128 0x9
 1918 09fc 5E040000 		.4byte	.LASF130
 1919 0a00 10       		.byte	0x10
 1920 0a01 9601     		.2byte	0x196
 1921 0a03 56090000 		.4byte	0x956
 1922 0a07 08       		.byte	0x8
 1923 0a08 09       		.uleb128 0x9
ARM GAS  /tmp/ccQyeFPN.s 			page 35


 1924 0a09 26020000 		.4byte	.LASF122
 1925 0a0d 10       		.byte	0x10
 1926 0a0e 9A01     		.2byte	0x19a
 1927 0a10 300A0000 		.4byte	0xa30
 1928 0a14 0C       		.byte	0xc
 1929 0a15 08       		.uleb128 0x8
 1930 0a16 63723200 		.ascii	"cr2\000"
 1931 0a1a 10       		.byte	0x10
 1932 0a1b A001     		.2byte	0x1a0
 1933 0a1d C3000000 		.4byte	0xc3
 1934 0a21 2C       		.byte	0x2c
 1935 0a22 09       		.uleb128 0x9
 1936 0a23 94080000 		.4byte	.LASF133
 1937 0a27 10       		.byte	0x10
 1938 0a28 AD01     		.2byte	0x1ad
 1939 0a2a C3000000 		.4byte	0xc3
 1940 0a2e 30       		.byte	0x30
 1941 0a2f 00       		.byte	0
 1942 0a30 13       		.uleb128 0x13
 1943 0a31 CC090000 		.4byte	0x9cc
 1944 0a35 400A0000 		.4byte	0xa40
 1945 0a39 14       		.uleb128 0x14
 1946 0a3a 46040000 		.4byte	0x446
 1947 0a3e 03       		.byte	0x3
 1948 0a3f 00       		.byte	0
 1949 0a40 16       		.uleb128 0x16
 1950 0a41 BB070000 		.4byte	.LASF134
 1951 0a45 10       		.byte	0x10
 1952 0a46 AE01     		.2byte	0x1ae
 1953 0a48 D8090000 		.4byte	0x9d8
 1954 0a4c 0A       		.uleb128 0xa
 1955 0a4d 04       		.byte	0x4
 1956 0a4e 520A0000 		.4byte	0xa52
 1957 0a52 18       		.uleb128 0x18
 1958 0a53 400A0000 		.4byte	0xa40
 1959 0a57 0A       		.uleb128 0xa
 1960 0a58 04       		.byte	0x4
 1961 0a59 38060000 		.4byte	0x638
 1962 0a5d 13       		.uleb128 0x13
 1963 0a5e 85060000 		.4byte	0x685
 1964 0a62 6D0A0000 		.4byte	0xa6d
 1965 0a66 14       		.uleb128 0x14
 1966 0a67 46040000 		.4byte	0x446
 1967 0a6b 07       		.byte	0x7
 1968 0a6c 00       		.byte	0
 1969 0a6d 21       		.uleb128 0x21
 1970 0a6e 44070000 		.4byte	.LASF138
 1971 0a72 02       		.byte	0x2
 1972 0a73 0601     		.2byte	0x106
 1973 0a75 03       		.byte	0x3
 1974 0a76 870A0000 		.4byte	0xa87
 1975 0a7a 22       		.uleb128 0x22
 1976 0a7b 12030000 		.4byte	.LASF168
 1977 0a7f 02       		.byte	0x2
 1978 0a80 0601     		.2byte	0x106
 1979 0a82 C3000000 		.4byte	0xc3
 1980 0a86 00       		.byte	0
ARM GAS  /tmp/ccQyeFPN.s 			page 36


 1981 0a87 23       		.uleb128 0x23
 1982 0a88 80000000 		.4byte	.LASF135
 1983 0a8c 09       		.byte	0x9
 1984 0a8d 5202     		.2byte	0x252
 1985 0a8f 03       		.byte	0x3
 1986 0a90 23       		.uleb128 0x23
 1987 0a91 14020000 		.4byte	.LASF136
 1988 0a95 09       		.byte	0x9
 1989 0a96 6A02     		.2byte	0x26a
 1990 0a98 03       		.byte	0x3
 1991 0a99 23       		.uleb128 0x23
 1992 0a9a 70060000 		.4byte	.LASF137
 1993 0a9e 11       		.byte	0x11
 1994 0a9f 7601     		.2byte	0x176
 1995 0aa1 03       		.byte	0x3
 1996 0aa2 21       		.uleb128 0x21
 1997 0aa3 5E080000 		.4byte	.LASF139
 1998 0aa7 11       		.byte	0x11
 1999 0aa8 8201     		.2byte	0x182
 2000 0aaa 03       		.byte	0x3
 2001 0aab BD0A0000 		.4byte	0xabd
 2002 0aaf 24       		.uleb128 0x24
 2003 0ab0 67060000 		.4byte	.LASF147
 2004 0ab4 CD0A0000 		.4byte	0xacd
 2005 0ab8 5E080000 		.4byte	.LASF139
 2006 0abc 00       		.byte	0
 2007 0abd 13       		.uleb128 0x13
 2008 0abe 85060000 		.4byte	0x685
 2009 0ac2 CD0A0000 		.4byte	0xacd
 2010 0ac6 14       		.uleb128 0x14
 2011 0ac7 46040000 		.4byte	0x446
 2012 0acb 0B       		.byte	0xb
 2013 0acc 00       		.byte	0
 2014 0acd 18       		.uleb128 0x18
 2015 0ace BD0A0000 		.4byte	0xabd
 2016 0ad2 23       		.uleb128 0x23
 2017 0ad3 FE020000 		.4byte	.LASF140
 2018 0ad7 12       		.byte	0x12
 2019 0ad8 EB01     		.2byte	0x1eb
 2020 0ada 03       		.byte	0x3
 2021 0adb 23       		.uleb128 0x23
 2022 0adc 7A060000 		.4byte	.LASF141
 2023 0ae0 12       		.byte	0x12
 2024 0ae1 F601     		.2byte	0x1f6
 2025 0ae3 03       		.byte	0x3
 2026 0ae4 25       		.uleb128 0x25
 2027 0ae5 84020000 		.4byte	.LASF142
 2028 0ae9 01       		.byte	0x1
 2029 0aea 38       		.byte	0x38
 2030 0aeb 00000000 		.4byte	.LFB270
 2031 0aef 04000000 		.4byte	.LFE270-.LFB270
 2032 0af3 01       		.uleb128 0x1
 2033 0af4 9C       		.byte	0x9c
 2034 0af5 030B0000 		.4byte	0xb03
 2035 0af9 26       		.uleb128 0x26
 2036 0afa 04000000 		.4byte	.LVL0
 2037 0afe 68140000 		.4byte	0x1468
ARM GAS  /tmp/ccQyeFPN.s 			page 37


 2038 0b02 00       		.byte	0
 2039 0b03 25       		.uleb128 0x25
 2040 0b04 7A070000 		.4byte	.LASF143
 2041 0b08 01       		.byte	0x1
 2042 0b09 44       		.byte	0x44
 2043 0b0a 00000000 		.4byte	.LFB271
 2044 0b0e 0E000000 		.4byte	.LFE271-.LFB271
 2045 0b12 01       		.uleb128 0x1
 2046 0b13 9C       		.byte	0x9c
 2047 0b14 260B0000 		.4byte	0xb26
 2048 0b18 27       		.uleb128 0x27
 2049 0b19 BC040000 		.4byte	.LASF145
 2050 0b1d 01       		.byte	0x1
 2051 0b1e 44       		.byte	0x44
 2052 0b1f 72090000 		.4byte	0x972
 2053 0b23 01       		.uleb128 0x1
 2054 0b24 50       		.byte	0x50
 2055 0b25 00       		.byte	0
 2056 0b26 25       		.uleb128 0x25
 2057 0b27 CC010000 		.4byte	.LASF144
 2058 0b2b 01       		.byte	0x1
 2059 0b2c 59       		.byte	0x59
 2060 0b2d 00000000 		.4byte	.LFB272
 2061 0b31 22000000 		.4byte	.LFE272-.LFB272
 2062 0b35 01       		.uleb128 0x1
 2063 0b36 9C       		.byte	0x9c
 2064 0b37 1C0C0000 		.4byte	0xc1c
 2065 0b3b 28       		.uleb128 0x28
 2066 0b3c BC040000 		.4byte	.LASF145
 2067 0b40 01       		.byte	0x1
 2068 0b41 59       		.byte	0x59
 2069 0b42 72090000 		.4byte	0x972
 2070 0b46 00000000 		.4byte	.LLST0
 2071 0b4a 28       		.uleb128 0x28
 2072 0b4b 1C070000 		.4byte	.LASF119
 2073 0b4f 01       		.byte	0x1
 2074 0b50 59       		.byte	0x59
 2075 0b51 4C0A0000 		.4byte	0xa4c
 2076 0b55 1E000000 		.4byte	.LLST1
 2077 0b59 29       		.uleb128 0x29
 2078 0b5a 67060000 		.4byte	.LASF147
 2079 0b5e 2C0C0000 		.4byte	0xc2c
 2080 0b62 2A       		.uleb128 0x2a
 2081 0b63 D20A0000 		.4byte	0xad2
 2082 0b67 02000000 		.4byte	.LBB141
 2083 0b6b 00000000 		.4byte	.Ldebug_ranges0+0
 2084 0b6f 01       		.byte	0x1
 2085 0b70 5D       		.byte	0x5d
 2086 0b71 AF0B0000 		.4byte	0xbaf
 2087 0b75 2B       		.uleb128 0x2b
 2088 0b76 990A0000 		.4byte	0xa99
 2089 0b7a 02000000 		.4byte	.LBB142
 2090 0b7e 00000000 		.4byte	.Ldebug_ranges0+0
 2091 0b82 12       		.byte	0x12
 2092 0b83 ED01     		.2byte	0x1ed
 2093 0b85 2B       		.uleb128 0x2b
 2094 0b86 870A0000 		.4byte	0xa87
ARM GAS  /tmp/ccQyeFPN.s 			page 38


 2095 0b8a 02000000 		.4byte	.LBB143
 2096 0b8e 00000000 		.4byte	.Ldebug_ranges0+0
 2097 0b92 11       		.byte	0x11
 2098 0b93 7801     		.2byte	0x178
 2099 0b95 2B       		.uleb128 0x2b
 2100 0b96 6D0A0000 		.4byte	0xa6d
 2101 0b9a 02000000 		.4byte	.LBB144
 2102 0b9e 00000000 		.4byte	.Ldebug_ranges0+0
 2103 0ba2 09       		.byte	0x9
 2104 0ba3 5A02     		.2byte	0x25a
 2105 0ba5 2C       		.uleb128 0x2c
 2106 0ba6 7A0A0000 		.4byte	0xa7a
 2107 0baa 20       		.byte	0x20
 2108 0bab 00       		.byte	0
 2109 0bac 00       		.byte	0
 2110 0bad 00       		.byte	0
 2111 0bae 00       		.byte	0
 2112 0baf 2D       		.uleb128 0x2d
 2113 0bb0 DB0A0000 		.4byte	0xadb
 2114 0bb4 1C000000 		.4byte	.LBB151
 2115 0bb8 06000000 		.4byte	.LBE151-.LBB151
 2116 0bbc 01       		.byte	0x1
 2117 0bbd 65       		.byte	0x65
 2118 0bbe 0B0C0000 		.4byte	0xc0b
 2119 0bc2 2E       		.uleb128 0x2e
 2120 0bc3 A20A0000 		.4byte	0xaa2
 2121 0bc7 1C000000 		.4byte	.LBB152
 2122 0bcb 06000000 		.4byte	.LBE152-.LBB152
 2123 0bcf 12       		.byte	0x12
 2124 0bd0 F801     		.2byte	0x1f8
 2125 0bd2 2F       		.uleb128 0x2f
 2126 0bd3 1C000000 		.4byte	.LBB153
 2127 0bd7 06000000 		.4byte	.LBE153-.LBB153
 2128 0bdb 30       		.uleb128 0x30
 2129 0bdc AF0A0000 		.4byte	0xaaf
 2130 0be0 2E       		.uleb128 0x2e
 2131 0be1 900A0000 		.4byte	0xa90
 2132 0be5 1C000000 		.4byte	.LBB154
 2133 0be9 06000000 		.4byte	.LBE154-.LBB154
 2134 0bed 11       		.byte	0x11
 2135 0bee 8F01     		.2byte	0x18f
 2136 0bf0 2E       		.uleb128 0x2e
 2137 0bf1 6D0A0000 		.4byte	0xa6d
 2138 0bf5 1C000000 		.4byte	.LBB155
 2139 0bf9 06000000 		.4byte	.LBE155-.LBB155
 2140 0bfd 09       		.byte	0x9
 2141 0bfe 6D02     		.2byte	0x26d
 2142 0c00 2C       		.uleb128 0x2c
 2143 0c01 7A0A0000 		.4byte	0xa7a
 2144 0c05 00       		.byte	0
 2145 0c06 00       		.byte	0
 2146 0c07 00       		.byte	0
 2147 0c08 00       		.byte	0
 2148 0c09 00       		.byte	0
 2149 0c0a 00       		.byte	0
 2150 0c0b 31       		.uleb128 0x31
 2151 0c0c 14000000 		.4byte	.LVL3
ARM GAS  /tmp/ccQyeFPN.s 			page 39


 2152 0c10 70140000 		.4byte	0x1470
 2153 0c14 32       		.uleb128 0x32
 2154 0c15 01       		.uleb128 0x1
 2155 0c16 50       		.byte	0x50
 2156 0c17 02       		.uleb128 0x2
 2157 0c18 74       		.byte	0x74
 2158 0c19 00       		.sleb128 0
 2159 0c1a 00       		.byte	0
 2160 0c1b 00       		.byte	0
 2161 0c1c 13       		.uleb128 0x13
 2162 0c1d 85060000 		.4byte	0x685
 2163 0c21 2C0C0000 		.4byte	0xc2c
 2164 0c25 14       		.uleb128 0x14
 2165 0c26 46040000 		.4byte	0x446
 2166 0c2a 08       		.byte	0x8
 2167 0c2b 00       		.byte	0
 2168 0c2c 18       		.uleb128 0x18
 2169 0c2d 1C0C0000 		.4byte	0xc1c
 2170 0c31 25       		.uleb128 0x25
 2171 0c32 E3040000 		.4byte	.LASF146
 2172 0c36 01       		.byte	0x1
 2173 0c37 6F       		.byte	0x6f
 2174 0c38 00000000 		.4byte	.LFB273
 2175 0c3c 1C000000 		.4byte	.LFE273-.LFB273
 2176 0c40 01       		.uleb128 0x1
 2177 0c41 9C       		.byte	0x9c
 2178 0c42 180D0000 		.4byte	0xd18
 2179 0c46 28       		.uleb128 0x28
 2180 0c47 BC040000 		.4byte	.LASF145
 2181 0c4b 01       		.byte	0x1
 2182 0c4c 6F       		.byte	0x6f
 2183 0c4d 72090000 		.4byte	0x972
 2184 0c51 3F000000 		.4byte	.LLST2
 2185 0c55 29       		.uleb128 0x29
 2186 0c56 67060000 		.4byte	.LASF147
 2187 0c5a 180D0000 		.4byte	0xd18
 2188 0c5e 2A       		.uleb128 0x2a
 2189 0c5f D20A0000 		.4byte	0xad2
 2190 0c63 02000000 		.4byte	.LBB157
 2191 0c67 18000000 		.4byte	.Ldebug_ranges0+0x18
 2192 0c6b 01       		.byte	0x1
 2193 0c6c 73       		.byte	0x73
 2194 0c6d AB0C0000 		.4byte	0xcab
 2195 0c71 2B       		.uleb128 0x2b
 2196 0c72 990A0000 		.4byte	0xa99
 2197 0c76 02000000 		.4byte	.LBB158
 2198 0c7a 18000000 		.4byte	.Ldebug_ranges0+0x18
 2199 0c7e 12       		.byte	0x12
 2200 0c7f ED01     		.2byte	0x1ed
 2201 0c81 2B       		.uleb128 0x2b
 2202 0c82 870A0000 		.4byte	0xa87
 2203 0c86 02000000 		.4byte	.LBB159
 2204 0c8a 18000000 		.4byte	.Ldebug_ranges0+0x18
 2205 0c8e 11       		.byte	0x11
 2206 0c8f 7801     		.2byte	0x178
 2207 0c91 2B       		.uleb128 0x2b
 2208 0c92 6D0A0000 		.4byte	0xa6d
ARM GAS  /tmp/ccQyeFPN.s 			page 40


 2209 0c96 02000000 		.4byte	.LBB160
 2210 0c9a 18000000 		.4byte	.Ldebug_ranges0+0x18
 2211 0c9e 09       		.byte	0x9
 2212 0c9f 5A02     		.2byte	0x25a
 2213 0ca1 2C       		.uleb128 0x2c
 2214 0ca2 7A0A0000 		.4byte	0xa7a
 2215 0ca6 20       		.byte	0x20
 2216 0ca7 00       		.byte	0
 2217 0ca8 00       		.byte	0
 2218 0ca9 00       		.byte	0
 2219 0caa 00       		.byte	0
 2220 0cab 2D       		.uleb128 0x2d
 2221 0cac DB0A0000 		.4byte	0xadb
 2222 0cb0 16000000 		.4byte	.LBB167
 2223 0cb4 06000000 		.4byte	.LBE167-.LBB167
 2224 0cb8 01       		.byte	0x1
 2225 0cb9 79       		.byte	0x79
 2226 0cba 070D0000 		.4byte	0xd07
 2227 0cbe 2E       		.uleb128 0x2e
 2228 0cbf A20A0000 		.4byte	0xaa2
 2229 0cc3 16000000 		.4byte	.LBB168
 2230 0cc7 06000000 		.4byte	.LBE168-.LBB168
 2231 0ccb 12       		.byte	0x12
 2232 0ccc F801     		.2byte	0x1f8
 2233 0cce 2F       		.uleb128 0x2f
 2234 0ccf 16000000 		.4byte	.LBB169
 2235 0cd3 06000000 		.4byte	.LBE169-.LBB169
 2236 0cd7 30       		.uleb128 0x30
 2237 0cd8 AF0A0000 		.4byte	0xaaf
 2238 0cdc 2E       		.uleb128 0x2e
 2239 0cdd 900A0000 		.4byte	0xa90
 2240 0ce1 16000000 		.4byte	.LBB170
 2241 0ce5 06000000 		.4byte	.LBE170-.LBB170
 2242 0ce9 11       		.byte	0x11
 2243 0cea 8F01     		.2byte	0x18f
 2244 0cec 2E       		.uleb128 0x2e
 2245 0ced 6D0A0000 		.4byte	0xa6d
 2246 0cf1 16000000 		.4byte	.LBB171
 2247 0cf5 06000000 		.4byte	.LBE171-.LBB171
 2248 0cf9 09       		.byte	0x9
 2249 0cfa 6D02     		.2byte	0x26d
 2250 0cfc 2C       		.uleb128 0x2c
 2251 0cfd 7A0A0000 		.4byte	0xa7a
 2252 0d01 00       		.byte	0
 2253 0d02 00       		.byte	0
 2254 0d03 00       		.byte	0
 2255 0d04 00       		.byte	0
 2256 0d05 00       		.byte	0
 2257 0d06 00       		.byte	0
 2258 0d07 31       		.uleb128 0x31
 2259 0d08 0E000000 		.4byte	.LVL6
 2260 0d0c 82140000 		.4byte	0x1482
 2261 0d10 32       		.uleb128 0x32
 2262 0d11 01       		.uleb128 0x1
 2263 0d12 50       		.byte	0x50
 2264 0d13 02       		.uleb128 0x2
 2265 0d14 74       		.byte	0x74
ARM GAS  /tmp/ccQyeFPN.s 			page 41


 2266 0d15 00       		.sleb128 0
 2267 0d16 00       		.byte	0
 2268 0d17 00       		.byte	0
 2269 0d18 18       		.uleb128 0x18
 2270 0d19 5D0A0000 		.4byte	0xa5d
 2271 0d1d 25       		.uleb128 0x25
 2272 0d1e F3010000 		.4byte	.LASF148
 2273 0d22 01       		.byte	0x1
 2274 0d23 8B       		.byte	0x8b
 2275 0d24 00000000 		.4byte	.LFB274
 2276 0d28 16000000 		.4byte	.LFE274-.LFB274
 2277 0d2c 01       		.uleb128 0x1
 2278 0d2d 9C       		.byte	0x9c
 2279 0d2e FD0D0000 		.4byte	0xdfd
 2280 0d32 27       		.uleb128 0x27
 2281 0d33 BC040000 		.4byte	.LASF145
 2282 0d37 01       		.byte	0x1
 2283 0d38 8B       		.byte	0x8b
 2284 0d39 72090000 		.4byte	0x972
 2285 0d3d 01       		.uleb128 0x1
 2286 0d3e 50       		.byte	0x50
 2287 0d3f 28       		.uleb128 0x28
 2288 0d40 8A000000 		.4byte	.LASF120
 2289 0d44 01       		.byte	0x1
 2290 0d45 8B       		.byte	0x8b
 2291 0d46 9C090000 		.4byte	0x99c
 2292 0d4a 5D000000 		.4byte	.LLST3
 2293 0d4e 29       		.uleb128 0x29
 2294 0d4f 67060000 		.4byte	.LASF147
 2295 0d53 0D0E0000 		.4byte	0xe0d
 2296 0d57 2D       		.uleb128 0x2d
 2297 0d58 D20A0000 		.4byte	0xad2
 2298 0d5c 00000000 		.4byte	.LBB173
 2299 0d60 06000000 		.4byte	.LBE173-.LBB173
 2300 0d64 01       		.byte	0x1
 2301 0d65 8F       		.byte	0x8f
 2302 0d66 A40D0000 		.4byte	0xda4
 2303 0d6a 2E       		.uleb128 0x2e
 2304 0d6b 990A0000 		.4byte	0xa99
 2305 0d6f 00000000 		.4byte	.LBB174
 2306 0d73 06000000 		.4byte	.LBE174-.LBB174
 2307 0d77 12       		.byte	0x12
 2308 0d78 ED01     		.2byte	0x1ed
 2309 0d7a 2E       		.uleb128 0x2e
 2310 0d7b 870A0000 		.4byte	0xa87
 2311 0d7f 00000000 		.4byte	.LBB175
 2312 0d83 06000000 		.4byte	.LBE175-.LBB175
 2313 0d87 11       		.byte	0x11
 2314 0d88 7801     		.2byte	0x178
 2315 0d8a 2E       		.uleb128 0x2e
 2316 0d8b 6D0A0000 		.4byte	0xa6d
 2317 0d8f 00000000 		.4byte	.LBB176
 2318 0d93 06000000 		.4byte	.LBE176-.LBB176
 2319 0d97 09       		.byte	0x9
 2320 0d98 5A02     		.2byte	0x25a
 2321 0d9a 2C       		.uleb128 0x2c
 2322 0d9b 7A0A0000 		.4byte	0xa7a
ARM GAS  /tmp/ccQyeFPN.s 			page 42


 2323 0d9f 20       		.byte	0x20
 2324 0da0 00       		.byte	0
 2325 0da1 00       		.byte	0
 2326 0da2 00       		.byte	0
 2327 0da3 00       		.byte	0
 2328 0da4 33       		.uleb128 0x33
 2329 0da5 DB0A0000 		.4byte	0xadb
 2330 0da9 0E000000 		.4byte	.LBB178
 2331 0dad 08000000 		.4byte	.LBE178-.LBB178
 2332 0db1 01       		.byte	0x1
 2333 0db2 92       		.byte	0x92
 2334 0db3 2E       		.uleb128 0x2e
 2335 0db4 A20A0000 		.4byte	0xaa2
 2336 0db8 0E000000 		.4byte	.LBB179
 2337 0dbc 08000000 		.4byte	.LBE179-.LBB179
 2338 0dc0 12       		.byte	0x12
 2339 0dc1 F801     		.2byte	0x1f8
 2340 0dc3 2F       		.uleb128 0x2f
 2341 0dc4 0E000000 		.4byte	.LBB180
 2342 0dc8 08000000 		.4byte	.LBE180-.LBB180
 2343 0dcc 30       		.uleb128 0x30
 2344 0dcd AF0A0000 		.4byte	0xaaf
 2345 0dd1 2E       		.uleb128 0x2e
 2346 0dd2 900A0000 		.4byte	0xa90
 2347 0dd6 0E000000 		.4byte	.LBB181
 2348 0dda 08000000 		.4byte	.LBE181-.LBB181
 2349 0dde 11       		.byte	0x11
 2350 0ddf 8F01     		.2byte	0x18f
 2351 0de1 2E       		.uleb128 0x2e
 2352 0de2 6D0A0000 		.4byte	0xa6d
 2353 0de6 0E000000 		.4byte	.LBB182
 2354 0dea 08000000 		.4byte	.LBE182-.LBB182
 2355 0dee 09       		.byte	0x9
 2356 0def 6D02     		.2byte	0x26d
 2357 0df1 2C       		.uleb128 0x2c
 2358 0df2 7A0A0000 		.4byte	0xa7a
 2359 0df6 00       		.byte	0
 2360 0df7 00       		.byte	0
 2361 0df8 00       		.byte	0
 2362 0df9 00       		.byte	0
 2363 0dfa 00       		.byte	0
 2364 0dfb 00       		.byte	0
 2365 0dfc 00       		.byte	0
 2366 0dfd 13       		.uleb128 0x13
 2367 0dfe 85060000 		.4byte	0x685
 2368 0e02 0D0E0000 		.4byte	0xe0d
 2369 0e06 14       		.uleb128 0x14
 2370 0e07 46040000 		.4byte	0x446
 2371 0e0b 0F       		.byte	0xf
 2372 0e0c 00       		.byte	0
 2373 0e0d 18       		.uleb128 0x18
 2374 0e0e FD0D0000 		.4byte	0xdfd
 2375 0e12 25       		.uleb128 0x25
 2376 0e13 83080000 		.4byte	.LASF149
 2377 0e17 01       		.byte	0x1
 2378 0e18 A3       		.byte	0xa3
 2379 0e19 00000000 		.4byte	.LFB275
ARM GAS  /tmp/ccQyeFPN.s 			page 43


 2380 0e1d 1E000000 		.4byte	.LFE275-.LFB275
 2381 0e21 01       		.uleb128 0x1
 2382 0e22 9C       		.byte	0x9c
 2383 0e23 1F0F0000 		.4byte	0xf1f
 2384 0e27 28       		.uleb128 0x28
 2385 0e28 BC040000 		.4byte	.LASF145
 2386 0e2c 01       		.byte	0x1
 2387 0e2d A3       		.byte	0xa3
 2388 0e2e 72090000 		.4byte	0x972
 2389 0e32 7C000000 		.4byte	.LLST4
 2390 0e36 28       		.uleb128 0x28
 2391 0e37 8F060000 		.4byte	.LASF150
 2392 0e3b 01       		.byte	0x1
 2393 0e3c A4       		.byte	0xa4
 2394 0e3d 84090000 		.4byte	0x984
 2395 0e41 9D000000 		.4byte	.LLST5
 2396 0e45 28       		.uleb128 0x28
 2397 0e46 22040000 		.4byte	.LASF151
 2398 0e4a 01       		.byte	0x1
 2399 0e4b A5       		.byte	0xa5
 2400 0e4c 9C090000 		.4byte	0x99c
 2401 0e50 BE000000 		.4byte	.LLST6
 2402 0e54 29       		.uleb128 0x29
 2403 0e55 67060000 		.4byte	.LASF147
 2404 0e59 2F0F0000 		.4byte	0xf2f
 2405 0e5d 2D       		.uleb128 0x2d
 2406 0e5e D20A0000 		.4byte	0xad2
 2407 0e62 02000000 		.4byte	.LBB184
 2408 0e66 06000000 		.4byte	.LBE184-.LBB184
 2409 0e6a 01       		.byte	0x1
 2410 0e6b A9       		.byte	0xa9
 2411 0e6c AA0E0000 		.4byte	0xeaa
 2412 0e70 2E       		.uleb128 0x2e
 2413 0e71 990A0000 		.4byte	0xa99
 2414 0e75 02000000 		.4byte	.LBB185
 2415 0e79 06000000 		.4byte	.LBE185-.LBB185
 2416 0e7d 12       		.byte	0x12
 2417 0e7e ED01     		.2byte	0x1ed
 2418 0e80 2E       		.uleb128 0x2e
 2419 0e81 870A0000 		.4byte	0xa87
 2420 0e85 02000000 		.4byte	.LBB186
 2421 0e89 06000000 		.4byte	.LBE186-.LBB186
 2422 0e8d 11       		.byte	0x11
 2423 0e8e 7801     		.2byte	0x178
 2424 0e90 2E       		.uleb128 0x2e
 2425 0e91 6D0A0000 		.4byte	0xa6d
 2426 0e95 02000000 		.4byte	.LBB187
 2427 0e99 06000000 		.4byte	.LBE187-.LBB187
 2428 0e9d 09       		.byte	0x9
 2429 0e9e 5A02     		.2byte	0x25a
 2430 0ea0 2C       		.uleb128 0x2c
 2431 0ea1 7A0A0000 		.4byte	0xa7a
 2432 0ea5 20       		.byte	0x20
 2433 0ea6 00       		.byte	0
 2434 0ea7 00       		.byte	0
 2435 0ea8 00       		.byte	0
 2436 0ea9 00       		.byte	0
ARM GAS  /tmp/ccQyeFPN.s 			page 44


 2437 0eaa 2D       		.uleb128 0x2d
 2438 0eab DB0A0000 		.4byte	0xadb
 2439 0eaf 16000000 		.4byte	.LBB189
 2440 0eb3 08000000 		.4byte	.LBE189-.LBB189
 2441 0eb7 01       		.byte	0x1
 2442 0eb8 AF       		.byte	0xaf
 2443 0eb9 060F0000 		.4byte	0xf06
 2444 0ebd 2E       		.uleb128 0x2e
 2445 0ebe A20A0000 		.4byte	0xaa2
 2446 0ec2 16000000 		.4byte	.LBB190
 2447 0ec6 08000000 		.4byte	.LBE190-.LBB190
 2448 0eca 12       		.byte	0x12
 2449 0ecb F801     		.2byte	0x1f8
 2450 0ecd 2F       		.uleb128 0x2f
 2451 0ece 16000000 		.4byte	.LBB191
 2452 0ed2 08000000 		.4byte	.LBE191-.LBB191
 2453 0ed6 30       		.uleb128 0x30
 2454 0ed7 AF0A0000 		.4byte	0xaaf
 2455 0edb 2E       		.uleb128 0x2e
 2456 0edc 900A0000 		.4byte	0xa90
 2457 0ee0 16000000 		.4byte	.LBB192
 2458 0ee4 08000000 		.4byte	.LBE192-.LBB192
 2459 0ee8 11       		.byte	0x11
 2460 0ee9 8F01     		.2byte	0x18f
 2461 0eeb 2E       		.uleb128 0x2e
 2462 0eec 6D0A0000 		.4byte	0xa6d
 2463 0ef0 16000000 		.4byte	.LBB193
 2464 0ef4 08000000 		.4byte	.LBE193-.LBB193
 2465 0ef8 09       		.byte	0x9
 2466 0ef9 6D02     		.2byte	0x26d
 2467 0efb 2C       		.uleb128 0x2c
 2468 0efc 7A0A0000 		.4byte	0xa7a
 2469 0f00 00       		.byte	0
 2470 0f01 00       		.byte	0
 2471 0f02 00       		.byte	0
 2472 0f03 00       		.byte	0
 2473 0f04 00       		.byte	0
 2474 0f05 00       		.byte	0
 2475 0f06 31       		.uleb128 0x31
 2476 0f07 16000000 		.4byte	.LVL12
 2477 0f0b 94140000 		.4byte	0x1494
 2478 0f0f 32       		.uleb128 0x32
 2479 0f10 01       		.uleb128 0x1
 2480 0f11 52       		.byte	0x52
 2481 0f12 03       		.uleb128 0x3
 2482 0f13 F3       		.byte	0xf3
 2483 0f14 01       		.uleb128 0x1
 2484 0f15 52       		.byte	0x52
 2485 0f16 32       		.uleb128 0x32
 2486 0f17 01       		.uleb128 0x1
 2487 0f18 50       		.byte	0x50
 2488 0f19 03       		.uleb128 0x3
 2489 0f1a F3       		.byte	0xf3
 2490 0f1b 01       		.uleb128 0x1
 2491 0f1c 50       		.byte	0x50
 2492 0f1d 00       		.byte	0
 2493 0f1e 00       		.byte	0
ARM GAS  /tmp/ccQyeFPN.s 			page 45


 2494 0f1f 13       		.uleb128 0x13
 2495 0f20 85060000 		.4byte	0x685
 2496 0f24 2F0F0000 		.4byte	0xf2f
 2497 0f28 14       		.uleb128 0x14
 2498 0f29 46040000 		.4byte	0x446
 2499 0f2d 10       		.byte	0x10
 2500 0f2e 00       		.byte	0
 2501 0f2f 18       		.uleb128 0x18
 2502 0f30 1F0F0000 		.4byte	0xf1f
 2503 0f34 25       		.uleb128 0x25
 2504 0f35 0A070000 		.4byte	.LASF152
 2505 0f39 01       		.byte	0x1
 2506 0f3a C0       		.byte	0xc0
 2507 0f3b 00000000 		.4byte	.LFB276
 2508 0f3f 20000000 		.4byte	.LFE276-.LFB276
 2509 0f43 01       		.uleb128 0x1
 2510 0f44 9C       		.byte	0x9c
 2511 0f45 2B100000 		.4byte	0x102b
 2512 0f49 28       		.uleb128 0x28
 2513 0f4a BC040000 		.4byte	.LASF145
 2514 0f4e 01       		.byte	0x1
 2515 0f4f C0       		.byte	0xc0
 2516 0f50 72090000 		.4byte	0x972
 2517 0f54 DF000000 		.4byte	.LLST7
 2518 0f58 28       		.uleb128 0x28
 2519 0f59 8F060000 		.4byte	.LASF150
 2520 0f5d 01       		.byte	0x1
 2521 0f5e C0       		.byte	0xc0
 2522 0f5f 84090000 		.4byte	0x984
 2523 0f63 00010000 		.4byte	.LLST8
 2524 0f67 29       		.uleb128 0x29
 2525 0f68 67060000 		.4byte	.LASF147
 2526 0f6c 3B100000 		.4byte	0x103b
 2527 0f70 2D       		.uleb128 0x2d
 2528 0f71 D20A0000 		.4byte	0xad2
 2529 0f75 02000000 		.4byte	.LBB195
 2530 0f79 06000000 		.4byte	.LBE195-.LBB195
 2531 0f7d 01       		.byte	0x1
 2532 0f7e C4       		.byte	0xc4
 2533 0f7f BD0F0000 		.4byte	0xfbd
 2534 0f83 2E       		.uleb128 0x2e
 2535 0f84 990A0000 		.4byte	0xa99
 2536 0f88 02000000 		.4byte	.LBB196
 2537 0f8c 06000000 		.4byte	.LBE196-.LBB196
 2538 0f90 12       		.byte	0x12
 2539 0f91 ED01     		.2byte	0x1ed
 2540 0f93 2E       		.uleb128 0x2e
 2541 0f94 870A0000 		.4byte	0xa87
 2542 0f98 02000000 		.4byte	.LBB197
 2543 0f9c 06000000 		.4byte	.LBE197-.LBB197
 2544 0fa0 11       		.byte	0x11
 2545 0fa1 7801     		.2byte	0x178
 2546 0fa3 2E       		.uleb128 0x2e
 2547 0fa4 6D0A0000 		.4byte	0xa6d
 2548 0fa8 02000000 		.4byte	.LBB198
 2549 0fac 06000000 		.4byte	.LBE198-.LBB198
 2550 0fb0 09       		.byte	0x9
ARM GAS  /tmp/ccQyeFPN.s 			page 46


 2551 0fb1 5A02     		.2byte	0x25a
 2552 0fb3 2C       		.uleb128 0x2c
 2553 0fb4 7A0A0000 		.4byte	0xa7a
 2554 0fb8 20       		.byte	0x20
 2555 0fb9 00       		.byte	0
 2556 0fba 00       		.byte	0
 2557 0fbb 00       		.byte	0
 2558 0fbc 00       		.byte	0
 2559 0fbd 2D       		.uleb128 0x2d
 2560 0fbe DB0A0000 		.4byte	0xadb
 2561 0fc2 18000000 		.4byte	.LBB200
 2562 0fc6 08000000 		.4byte	.LBE200-.LBB200
 2563 0fca 01       		.byte	0x1
 2564 0fcb CA       		.byte	0xca
 2565 0fcc 19100000 		.4byte	0x1019
 2566 0fd0 2E       		.uleb128 0x2e
 2567 0fd1 A20A0000 		.4byte	0xaa2
 2568 0fd5 18000000 		.4byte	.LBB201
 2569 0fd9 08000000 		.4byte	.LBE201-.LBB201
 2570 0fdd 12       		.byte	0x12
 2571 0fde F801     		.2byte	0x1f8
 2572 0fe0 2F       		.uleb128 0x2f
 2573 0fe1 18000000 		.4byte	.LBB202
 2574 0fe5 08000000 		.4byte	.LBE202-.LBB202
 2575 0fe9 30       		.uleb128 0x30
 2576 0fea AF0A0000 		.4byte	0xaaf
 2577 0fee 2E       		.uleb128 0x2e
 2578 0fef 900A0000 		.4byte	0xa90
 2579 0ff3 18000000 		.4byte	.LBB203
 2580 0ff7 08000000 		.4byte	.LBE203-.LBB203
 2581 0ffb 11       		.byte	0x11
 2582 0ffc 8F01     		.2byte	0x18f
 2583 0ffe 2E       		.uleb128 0x2e
 2584 0fff 6D0A0000 		.4byte	0xa6d
 2585 1003 18000000 		.4byte	.LBB204
 2586 1007 08000000 		.4byte	.LBE204-.LBB204
 2587 100b 09       		.byte	0x9
 2588 100c 6D02     		.2byte	0x26d
 2589 100e 2C       		.uleb128 0x2c
 2590 100f 7A0A0000 		.4byte	0xa7a
 2591 1013 00       		.byte	0
 2592 1014 00       		.byte	0
 2593 1015 00       		.byte	0
 2594 1016 00       		.byte	0
 2595 1017 00       		.byte	0
 2596 1018 00       		.byte	0
 2597 1019 31       		.uleb128 0x31
 2598 101a 18000000 		.4byte	.LVL14
 2599 101e B0140000 		.4byte	0x14b0
 2600 1022 32       		.uleb128 0x32
 2601 1023 01       		.uleb128 0x1
 2602 1024 50       		.byte	0x50
 2603 1025 03       		.uleb128 0x3
 2604 1026 F3       		.byte	0xf3
 2605 1027 01       		.uleb128 0x1
 2606 1028 50       		.byte	0x50
 2607 1029 00       		.byte	0
ARM GAS  /tmp/ccQyeFPN.s 			page 47


 2608 102a 00       		.byte	0
 2609 102b 13       		.uleb128 0x13
 2610 102c 85060000 		.4byte	0x685
 2611 1030 3B100000 		.4byte	0x103b
 2612 1034 14       		.uleb128 0x14
 2613 1035 46040000 		.4byte	0x446
 2614 1039 11       		.byte	0x11
 2615 103a 00       		.byte	0
 2616 103b 18       		.uleb128 0x18
 2617 103c 2B100000 		.4byte	0x102b
 2618 1040 25       		.uleb128 0x25
 2619 1041 52070000 		.4byte	.LASF153
 2620 1045 01       		.byte	0x1
 2621 1046 D6       		.byte	0xd6
 2622 1047 00000000 		.4byte	.LFB277
 2623 104b 14000000 		.4byte	.LFE277-.LFB277
 2624 104f 01       		.uleb128 0x1
 2625 1050 9C       		.byte	0x9c
 2626 1051 28110000 		.4byte	0x1128
 2627 1055 28       		.uleb128 0x28
 2628 1056 BC040000 		.4byte	.LASF145
 2629 105a 01       		.byte	0x1
 2630 105b D6       		.byte	0xd6
 2631 105c 72090000 		.4byte	0x972
 2632 1060 21010000 		.4byte	.LLST9
 2633 1064 29       		.uleb128 0x29
 2634 1065 67060000 		.4byte	.LASF147
 2635 1069 38110000 		.4byte	0x1138
 2636 106d 2D       		.uleb128 0x2d
 2637 106e D20A0000 		.4byte	0xad2
 2638 1072 02000000 		.4byte	.LBB206
 2639 1076 06000000 		.4byte	.LBE206-.LBB206
 2640 107a 01       		.byte	0x1
 2641 107b DA       		.byte	0xda
 2642 107c BA100000 		.4byte	0x10ba
 2643 1080 2E       		.uleb128 0x2e
 2644 1081 990A0000 		.4byte	0xa99
 2645 1085 02000000 		.4byte	.LBB207
 2646 1089 06000000 		.4byte	.LBE207-.LBB207
 2647 108d 12       		.byte	0x12
 2648 108e ED01     		.2byte	0x1ed
 2649 1090 2E       		.uleb128 0x2e
 2650 1091 870A0000 		.4byte	0xa87
 2651 1095 02000000 		.4byte	.LBB208
 2652 1099 06000000 		.4byte	.LBE208-.LBB208
 2653 109d 11       		.byte	0x11
 2654 109e 7801     		.2byte	0x178
 2655 10a0 2E       		.uleb128 0x2e
 2656 10a1 6D0A0000 		.4byte	0xa6d
 2657 10a5 02000000 		.4byte	.LBB209
 2658 10a9 06000000 		.4byte	.LBE209-.LBB209
 2659 10ad 09       		.byte	0x9
 2660 10ae 5A02     		.2byte	0x25a
 2661 10b0 2C       		.uleb128 0x2c
 2662 10b1 7A0A0000 		.4byte	0xa7a
 2663 10b5 20       		.byte	0x20
 2664 10b6 00       		.byte	0
ARM GAS  /tmp/ccQyeFPN.s 			page 48


 2665 10b7 00       		.byte	0
 2666 10b8 00       		.byte	0
 2667 10b9 00       		.byte	0
 2668 10ba 2D       		.uleb128 0x2d
 2669 10bb DB0A0000 		.4byte	0xadb
 2670 10bf 0C000000 		.4byte	.LBB211
 2671 10c3 08000000 		.4byte	.LBE211-.LBB211
 2672 10c7 01       		.byte	0x1
 2673 10c8 E1       		.byte	0xe1
 2674 10c9 16110000 		.4byte	0x1116
 2675 10cd 2E       		.uleb128 0x2e
 2676 10ce A20A0000 		.4byte	0xaa2
 2677 10d2 0C000000 		.4byte	.LBB212
 2678 10d6 08000000 		.4byte	.LBE212-.LBB212
 2679 10da 12       		.byte	0x12
 2680 10db F801     		.2byte	0x1f8
 2681 10dd 2F       		.uleb128 0x2f
 2682 10de 0C000000 		.4byte	.LBB213
 2683 10e2 08000000 		.4byte	.LBE213-.LBB213
 2684 10e6 30       		.uleb128 0x30
 2685 10e7 AF0A0000 		.4byte	0xaaf
 2686 10eb 2E       		.uleb128 0x2e
 2687 10ec 900A0000 		.4byte	0xa90
 2688 10f0 0C000000 		.4byte	.LBB214
 2689 10f4 08000000 		.4byte	.LBE214-.LBB214
 2690 10f8 11       		.byte	0x11
 2691 10f9 8F01     		.2byte	0x18f
 2692 10fb 2E       		.uleb128 0x2e
 2693 10fc 6D0A0000 		.4byte	0xa6d
 2694 1100 0C000000 		.4byte	.LBB215
 2695 1104 08000000 		.4byte	.LBE215-.LBB215
 2696 1108 09       		.byte	0x9
 2697 1109 6D02     		.2byte	0x26d
 2698 110b 2C       		.uleb128 0x2c
 2699 110c 7A0A0000 		.4byte	0xa7a
 2700 1110 00       		.byte	0
 2701 1111 00       		.byte	0
 2702 1112 00       		.byte	0
 2703 1113 00       		.byte	0
 2704 1114 00       		.byte	0
 2705 1115 00       		.byte	0
 2706 1116 31       		.uleb128 0x31
 2707 1117 0C000000 		.4byte	.LVL16
 2708 111b C7140000 		.4byte	0x14c7
 2709 111f 32       		.uleb128 0x32
 2710 1120 01       		.uleb128 0x1
 2711 1121 50       		.byte	0x50
 2712 1122 03       		.uleb128 0x3
 2713 1123 F3       		.byte	0xf3
 2714 1124 01       		.uleb128 0x1
 2715 1125 50       		.byte	0x50
 2716 1126 00       		.byte	0
 2717 1127 00       		.byte	0
 2718 1128 13       		.uleb128 0x13
 2719 1129 85060000 		.4byte	0x685
 2720 112d 38110000 		.4byte	0x1138
 2721 1131 14       		.uleb128 0x14
ARM GAS  /tmp/ccQyeFPN.s 			page 49


 2722 1132 46040000 		.4byte	0x446
 2723 1136 1D       		.byte	0x1d
 2724 1137 00       		.byte	0
 2725 1138 18       		.uleb128 0x18
 2726 1139 28110000 		.4byte	0x1128
 2727 113d 25       		.uleb128 0x25
 2728 113e CE020000 		.4byte	.LASF154
 2729 1142 01       		.byte	0x1
 2730 1143 ED       		.byte	0xed
 2731 1144 00000000 		.4byte	.LFB278
 2732 1148 14000000 		.4byte	.LFE278-.LFB278
 2733 114c 01       		.uleb128 0x1
 2734 114d 9C       		.byte	0x9c
 2735 114e 25120000 		.4byte	0x1225
 2736 1152 28       		.uleb128 0x28
 2737 1153 BC040000 		.4byte	.LASF145
 2738 1157 01       		.byte	0x1
 2739 1158 ED       		.byte	0xed
 2740 1159 72090000 		.4byte	0x972
 2741 115d 42010000 		.4byte	.LLST10
 2742 1161 29       		.uleb128 0x29
 2743 1162 67060000 		.4byte	.LASF147
 2744 1166 35120000 		.4byte	0x1235
 2745 116a 2D       		.uleb128 0x2d
 2746 116b D20A0000 		.4byte	0xad2
 2747 116f 02000000 		.4byte	.LBB217
 2748 1173 06000000 		.4byte	.LBE217-.LBB217
 2749 1177 01       		.byte	0x1
 2750 1178 F1       		.byte	0xf1
 2751 1179 B7110000 		.4byte	0x11b7
 2752 117d 2E       		.uleb128 0x2e
 2753 117e 990A0000 		.4byte	0xa99
 2754 1182 02000000 		.4byte	.LBB218
 2755 1186 06000000 		.4byte	.LBE218-.LBB218
 2756 118a 12       		.byte	0x12
 2757 118b ED01     		.2byte	0x1ed
 2758 118d 2E       		.uleb128 0x2e
 2759 118e 870A0000 		.4byte	0xa87
 2760 1192 02000000 		.4byte	.LBB219
 2761 1196 06000000 		.4byte	.LBE219-.LBB219
 2762 119a 11       		.byte	0x11
 2763 119b 7801     		.2byte	0x178
 2764 119d 2E       		.uleb128 0x2e
 2765 119e 6D0A0000 		.4byte	0xa6d
 2766 11a2 02000000 		.4byte	.LBB220
 2767 11a6 06000000 		.4byte	.LBE220-.LBB220
 2768 11aa 09       		.byte	0x9
 2769 11ab 5A02     		.2byte	0x25a
 2770 11ad 2C       		.uleb128 0x2c
 2771 11ae 7A0A0000 		.4byte	0xa7a
 2772 11b2 20       		.byte	0x20
 2773 11b3 00       		.byte	0
 2774 11b4 00       		.byte	0
 2775 11b5 00       		.byte	0
 2776 11b6 00       		.byte	0
 2777 11b7 2D       		.uleb128 0x2d
 2778 11b8 DB0A0000 		.4byte	0xadb
ARM GAS  /tmp/ccQyeFPN.s 			page 50


 2779 11bc 0C000000 		.4byte	.LBB222
 2780 11c0 08000000 		.4byte	.LBE222-.LBB222
 2781 11c4 01       		.byte	0x1
 2782 11c5 F8       		.byte	0xf8
 2783 11c6 13120000 		.4byte	0x1213
 2784 11ca 2E       		.uleb128 0x2e
 2785 11cb A20A0000 		.4byte	0xaa2
 2786 11cf 0C000000 		.4byte	.LBB223
 2787 11d3 08000000 		.4byte	.LBE223-.LBB223
 2788 11d7 12       		.byte	0x12
 2789 11d8 F801     		.2byte	0x1f8
 2790 11da 2F       		.uleb128 0x2f
 2791 11db 0C000000 		.4byte	.LBB224
 2792 11df 08000000 		.4byte	.LBE224-.LBB224
 2793 11e3 30       		.uleb128 0x30
 2794 11e4 AF0A0000 		.4byte	0xaaf
 2795 11e8 2E       		.uleb128 0x2e
 2796 11e9 900A0000 		.4byte	0xa90
 2797 11ed 0C000000 		.4byte	.LBB225
 2798 11f1 08000000 		.4byte	.LBE225-.LBB225
 2799 11f5 11       		.byte	0x11
 2800 11f6 8F01     		.2byte	0x18f
 2801 11f8 2E       		.uleb128 0x2e
 2802 11f9 6D0A0000 		.4byte	0xa6d
 2803 11fd 0C000000 		.4byte	.LBB226
 2804 1201 08000000 		.4byte	.LBE226-.LBB226
 2805 1205 09       		.byte	0x9
 2806 1206 6D02     		.2byte	0x26d
 2807 1208 2C       		.uleb128 0x2c
 2808 1209 7A0A0000 		.4byte	0xa7a
 2809 120d 00       		.byte	0
 2810 120e 00       		.byte	0
 2811 120f 00       		.byte	0
 2812 1210 00       		.byte	0
 2813 1211 00       		.byte	0
 2814 1212 00       		.byte	0
 2815 1213 31       		.uleb128 0x31
 2816 1214 0C000000 		.4byte	.LVL18
 2817 1218 D9140000 		.4byte	0x14d9
 2818 121c 32       		.uleb128 0x32
 2819 121d 01       		.uleb128 0x1
 2820 121e 50       		.byte	0x50
 2821 121f 03       		.uleb128 0x3
 2822 1220 F3       		.byte	0xf3
 2823 1221 01       		.uleb128 0x1
 2824 1222 50       		.byte	0x50
 2825 1223 00       		.byte	0
 2826 1224 00       		.byte	0
 2827 1225 13       		.uleb128 0x13
 2828 1226 85060000 		.4byte	0x685
 2829 122a 35120000 		.4byte	0x1235
 2830 122e 14       		.uleb128 0x14
 2831 122f 46040000 		.4byte	0x446
 2832 1233 1E       		.byte	0x1e
 2833 1234 00       		.byte	0
 2834 1235 18       		.uleb128 0x18
 2835 1236 25120000 		.4byte	0x1225
ARM GAS  /tmp/ccQyeFPN.s 			page 51


 2836 123a 34       		.uleb128 0x34
 2837 123b 59030000 		.4byte	.LASF155
 2838 123f 01       		.byte	0x1
 2839 1240 0601     		.2byte	0x106
 2840 1242 00000000 		.4byte	.LFB279
 2841 1246 14000000 		.4byte	.LFE279-.LFB279
 2842 124a 01       		.uleb128 0x1
 2843 124b 9C       		.byte	0x9c
 2844 124c 36130000 		.4byte	0x1336
 2845 1250 35       		.uleb128 0x35
 2846 1251 BC040000 		.4byte	.LASF145
 2847 1255 01       		.byte	0x1
 2848 1256 0601     		.2byte	0x106
 2849 1258 72090000 		.4byte	0x972
 2850 125c 63010000 		.4byte	.LLST11
 2851 1260 35       		.uleb128 0x35
 2852 1261 8F060000 		.4byte	.LASF150
 2853 1265 01       		.byte	0x1
 2854 1266 0601     		.2byte	0x106
 2855 1268 84090000 		.4byte	0x984
 2856 126c 84010000 		.4byte	.LLST12
 2857 1270 29       		.uleb128 0x29
 2858 1271 67060000 		.4byte	.LASF147
 2859 1275 46130000 		.4byte	0x1346
 2860 1279 36       		.uleb128 0x36
 2861 127a D20A0000 		.4byte	0xad2
 2862 127e 02000000 		.4byte	.LBB228
 2863 1282 06000000 		.4byte	.LBE228-.LBB228
 2864 1286 01       		.byte	0x1
 2865 1287 0A01     		.2byte	0x10a
 2866 1289 C7120000 		.4byte	0x12c7
 2867 128d 2E       		.uleb128 0x2e
 2868 128e 990A0000 		.4byte	0xa99
 2869 1292 02000000 		.4byte	.LBB229
 2870 1296 06000000 		.4byte	.LBE229-.LBB229
 2871 129a 12       		.byte	0x12
 2872 129b ED01     		.2byte	0x1ed
 2873 129d 2E       		.uleb128 0x2e
 2874 129e 870A0000 		.4byte	0xa87
 2875 12a2 02000000 		.4byte	.LBB230
 2876 12a6 06000000 		.4byte	.LBE230-.LBB230
 2877 12aa 11       		.byte	0x11
 2878 12ab 7801     		.2byte	0x178
 2879 12ad 2E       		.uleb128 0x2e
 2880 12ae 6D0A0000 		.4byte	0xa6d
 2881 12b2 02000000 		.4byte	.LBB231
 2882 12b6 06000000 		.4byte	.LBE231-.LBB231
 2883 12ba 09       		.byte	0x9
 2884 12bb 5A02     		.2byte	0x25a
 2885 12bd 2C       		.uleb128 0x2c
 2886 12be 7A0A0000 		.4byte	0xa7a
 2887 12c2 20       		.byte	0x20
 2888 12c3 00       		.byte	0
 2889 12c4 00       		.byte	0
 2890 12c5 00       		.byte	0
 2891 12c6 00       		.byte	0
 2892 12c7 36       		.uleb128 0x36
ARM GAS  /tmp/ccQyeFPN.s 			page 52


 2893 12c8 DB0A0000 		.4byte	0xadb
 2894 12cc 0C000000 		.4byte	.LBB233
 2895 12d0 08000000 		.4byte	.LBE233-.LBB233
 2896 12d4 01       		.byte	0x1
 2897 12d5 1401     		.2byte	0x114
 2898 12d7 24130000 		.4byte	0x1324
 2899 12db 2E       		.uleb128 0x2e
 2900 12dc A20A0000 		.4byte	0xaa2
 2901 12e0 0C000000 		.4byte	.LBB234
 2902 12e4 08000000 		.4byte	.LBE234-.LBB234
 2903 12e8 12       		.byte	0x12
 2904 12e9 F801     		.2byte	0x1f8
 2905 12eb 2F       		.uleb128 0x2f
 2906 12ec 0C000000 		.4byte	.LBB235
 2907 12f0 08000000 		.4byte	.LBE235-.LBB235
 2908 12f4 30       		.uleb128 0x30
 2909 12f5 AF0A0000 		.4byte	0xaaf
 2910 12f9 2E       		.uleb128 0x2e
 2911 12fa 900A0000 		.4byte	0xa90
 2912 12fe 0C000000 		.4byte	.LBB236
 2913 1302 08000000 		.4byte	.LBE236-.LBB236
 2914 1306 11       		.byte	0x11
 2915 1307 8F01     		.2byte	0x18f
 2916 1309 2E       		.uleb128 0x2e
 2917 130a 6D0A0000 		.4byte	0xa6d
 2918 130e 0C000000 		.4byte	.LBB237
 2919 1312 08000000 		.4byte	.LBE237-.LBB237
 2920 1316 09       		.byte	0x9
 2921 1317 6D02     		.2byte	0x26d
 2922 1319 2C       		.uleb128 0x2c
 2923 131a 7A0A0000 		.4byte	0xa7a
 2924 131e 00       		.byte	0
 2925 131f 00       		.byte	0
 2926 1320 00       		.byte	0
 2927 1321 00       		.byte	0
 2928 1322 00       		.byte	0
 2929 1323 00       		.byte	0
 2930 1324 31       		.uleb128 0x31
 2931 1325 0C000000 		.4byte	.LVL20
 2932 1329 EB140000 		.4byte	0x14eb
 2933 132d 32       		.uleb128 0x32
 2934 132e 01       		.uleb128 0x1
 2935 132f 50       		.byte	0x50
 2936 1330 03       		.uleb128 0x3
 2937 1331 F3       		.byte	0xf3
 2938 1332 01       		.uleb128 0x1
 2939 1333 50       		.byte	0x50
 2940 1334 00       		.byte	0
 2941 1335 00       		.byte	0
 2942 1336 13       		.uleb128 0x13
 2943 1337 85060000 		.4byte	0x685
 2944 133b 46130000 		.4byte	0x1346
 2945 133f 14       		.uleb128 0x14
 2946 1340 46040000 		.4byte	0x446
 2947 1344 1C       		.byte	0x1c
 2948 1345 00       		.byte	0
 2949 1346 18       		.uleb128 0x18
ARM GAS  /tmp/ccQyeFPN.s 			page 53


 2950 1347 36130000 		.4byte	0x1336
 2951 134b 34       		.uleb128 0x34
 2952 134c EC070000 		.4byte	.LASF156
 2953 1350 01       		.byte	0x1
 2954 1351 2201     		.2byte	0x122
 2955 1353 00000000 		.4byte	.LFB280
 2956 1357 14000000 		.4byte	.LFE280-.LFB280
 2957 135b 01       		.uleb128 0x1
 2958 135c 9C       		.byte	0x9c
 2959 135d 47140000 		.4byte	0x1447
 2960 1361 35       		.uleb128 0x35
 2961 1362 BC040000 		.4byte	.LASF145
 2962 1366 01       		.byte	0x1
 2963 1367 2201     		.2byte	0x122
 2964 1369 72090000 		.4byte	0x972
 2965 136d A5010000 		.4byte	.LLST13
 2966 1371 35       		.uleb128 0x35
 2967 1372 8F060000 		.4byte	.LASF150
 2968 1376 01       		.byte	0x1
 2969 1377 2201     		.2byte	0x122
 2970 1379 84090000 		.4byte	0x984
 2971 137d C6010000 		.4byte	.LLST14
 2972 1381 29       		.uleb128 0x29
 2973 1382 67060000 		.4byte	.LASF147
 2974 1386 47140000 		.4byte	0x1447
 2975 138a 36       		.uleb128 0x36
 2976 138b D20A0000 		.4byte	0xad2
 2977 138f 02000000 		.4byte	.LBB239
 2978 1393 06000000 		.4byte	.LBE239-.LBB239
 2979 1397 01       		.byte	0x1
 2980 1398 2601     		.2byte	0x126
 2981 139a D8130000 		.4byte	0x13d8
 2982 139e 2E       		.uleb128 0x2e
 2983 139f 990A0000 		.4byte	0xa99
 2984 13a3 02000000 		.4byte	.LBB240
 2985 13a7 06000000 		.4byte	.LBE240-.LBB240
 2986 13ab 12       		.byte	0x12
 2987 13ac ED01     		.2byte	0x1ed
 2988 13ae 2E       		.uleb128 0x2e
 2989 13af 870A0000 		.4byte	0xa87
 2990 13b3 02000000 		.4byte	.LBB241
 2991 13b7 06000000 		.4byte	.LBE241-.LBB241
 2992 13bb 11       		.byte	0x11
 2993 13bc 7801     		.2byte	0x178
 2994 13be 2E       		.uleb128 0x2e
 2995 13bf 6D0A0000 		.4byte	0xa6d
 2996 13c3 02000000 		.4byte	.LBB242
 2997 13c7 06000000 		.4byte	.LBE242-.LBB242
 2998 13cb 09       		.byte	0x9
 2999 13cc 5A02     		.2byte	0x25a
 3000 13ce 2C       		.uleb128 0x2c
 3001 13cf 7A0A0000 		.4byte	0xa7a
 3002 13d3 20       		.byte	0x20
 3003 13d4 00       		.byte	0
 3004 13d5 00       		.byte	0
 3005 13d6 00       		.byte	0
 3006 13d7 00       		.byte	0
ARM GAS  /tmp/ccQyeFPN.s 			page 54


 3007 13d8 36       		.uleb128 0x36
 3008 13d9 DB0A0000 		.4byte	0xadb
 3009 13dd 0C000000 		.4byte	.LBB244
 3010 13e1 08000000 		.4byte	.LBE244-.LBB244
 3011 13e5 01       		.byte	0x1
 3012 13e6 3001     		.2byte	0x130
 3013 13e8 35140000 		.4byte	0x1435
 3014 13ec 2E       		.uleb128 0x2e
 3015 13ed A20A0000 		.4byte	0xaa2
 3016 13f1 0C000000 		.4byte	.LBB245
 3017 13f5 08000000 		.4byte	.LBE245-.LBB245
 3018 13f9 12       		.byte	0x12
 3019 13fa F801     		.2byte	0x1f8
 3020 13fc 2F       		.uleb128 0x2f
 3021 13fd 0C000000 		.4byte	.LBB246
 3022 1401 08000000 		.4byte	.LBE246-.LBB246
 3023 1405 30       		.uleb128 0x30
 3024 1406 AF0A0000 		.4byte	0xaaf
 3025 140a 2E       		.uleb128 0x2e
 3026 140b 900A0000 		.4byte	0xa90
 3027 140f 0C000000 		.4byte	.LBB247
 3028 1413 08000000 		.4byte	.LBE247-.LBB247
 3029 1417 11       		.byte	0x11
 3030 1418 8F01     		.2byte	0x18f
 3031 141a 2E       		.uleb128 0x2e
 3032 141b 6D0A0000 		.4byte	0xa6d
 3033 141f 0C000000 		.4byte	.LBB248
 3034 1423 08000000 		.4byte	.LBE248-.LBB248
 3035 1427 09       		.byte	0x9
 3036 1428 6D02     		.2byte	0x26d
 3037 142a 2C       		.uleb128 0x2c
 3038 142b 7A0A0000 		.4byte	0xa7a
 3039 142f 00       		.byte	0
 3040 1430 00       		.byte	0
 3041 1431 00       		.byte	0
 3042 1432 00       		.byte	0
 3043 1433 00       		.byte	0
 3044 1434 00       		.byte	0
 3045 1435 31       		.uleb128 0x31
 3046 1436 0C000000 		.4byte	.LVL22
 3047 143a 02150000 		.4byte	0x1502
 3048 143e 32       		.uleb128 0x32
 3049 143f 01       		.uleb128 0x1
 3050 1440 50       		.byte	0x50
 3051 1441 03       		.uleb128 0x3
 3052 1442 F3       		.byte	0xf3
 3053 1443 01       		.uleb128 0x1
 3054 1444 50       		.byte	0x50
 3055 1445 00       		.byte	0
 3056 1446 00       		.byte	0
 3057 1447 18       		.uleb128 0x18
 3058 1448 28110000 		.4byte	0x1128
 3059 144c 37       		.uleb128 0x37
 3060 144d 25060000 		.4byte	.LASF157
 3061 1451 13       		.byte	0x13
 3062 1452 4407     		.2byte	0x744
 3063 1454 58140000 		.4byte	0x1458
ARM GAS  /tmp/ccQyeFPN.s 			page 55


 3064 1458 12       		.uleb128 0x12
 3065 1459 B8000000 		.4byte	0xb8
 3066 145d 38       		.uleb128 0x38
 3067 145e 636800   		.ascii	"ch\000"
 3068 1461 07       		.byte	0x7
 3069 1462 D201     		.2byte	0x1d2
 3070 1464 EA030000 		.4byte	0x3ea
 3071 1468 39       		.uleb128 0x39
 3072 1469 57050000 		.4byte	.LASF169
 3073 146d 10       		.byte	0x10
 3074 146e 1002     		.2byte	0x210
 3075 1470 3A       		.uleb128 0x3a
 3076 1471 38020000 		.4byte	.LASF158
 3077 1475 10       		.byte	0x10
 3078 1476 1102     		.2byte	0x211
 3079 1478 82140000 		.4byte	0x1482
 3080 147c 0D       		.uleb128 0xd
 3081 147d 72090000 		.4byte	0x972
 3082 1481 00       		.byte	0
 3083 1482 3A       		.uleb128 0x3a
 3084 1483 BA060000 		.4byte	.LASF159
 3085 1487 10       		.byte	0x10
 3086 1488 1202     		.2byte	0x212
 3087 148a 94140000 		.4byte	0x1494
 3088 148e 0D       		.uleb128 0xd
 3089 148f 72090000 		.4byte	0x972
 3090 1493 00       		.byte	0
 3091 1494 3A       		.uleb128 0x3a
 3092 1495 B5010000 		.4byte	.LASF160
 3093 1499 10       		.byte	0x10
 3094 149a 1302     		.2byte	0x213
 3095 149c B0140000 		.4byte	0x14b0
 3096 14a0 0D       		.uleb128 0xd
 3097 14a1 72090000 		.4byte	0x972
 3098 14a5 0D       		.uleb128 0xd
 3099 14a6 84090000 		.4byte	0x984
 3100 14aa 0D       		.uleb128 0xd
 3101 14ab 9C090000 		.4byte	0x99c
 3102 14af 00       		.byte	0
 3103 14b0 3A       		.uleb128 0x3a
 3104 14b1 89010000 		.4byte	.LASF161
 3105 14b5 10       		.byte	0x10
 3106 14b6 1602     		.2byte	0x216
 3107 14b8 C7140000 		.4byte	0x14c7
 3108 14bc 0D       		.uleb128 0xd
 3109 14bd 72090000 		.4byte	0x972
 3110 14c1 0D       		.uleb128 0xd
 3111 14c2 84090000 		.4byte	0x984
 3112 14c6 00       		.byte	0
 3113 14c7 3A       		.uleb128 0x3a
 3114 14c8 18030000 		.4byte	.LASF162
 3115 14cc 10       		.byte	0x10
 3116 14cd 1702     		.2byte	0x217
 3117 14cf D9140000 		.4byte	0x14d9
 3118 14d3 0D       		.uleb128 0xd
 3119 14d4 72090000 		.4byte	0x972
 3120 14d8 00       		.byte	0
ARM GAS  /tmp/ccQyeFPN.s 			page 56


 3121 14d9 3A       		.uleb128 0x3a
 3122 14da 9F050000 		.4byte	.LASF163
 3123 14de 10       		.byte	0x10
 3124 14df 1802     		.2byte	0x218
 3125 14e1 EB140000 		.4byte	0x14eb
 3126 14e5 0D       		.uleb128 0xd
 3127 14e6 72090000 		.4byte	0x972
 3128 14ea 00       		.byte	0
 3129 14eb 3A       		.uleb128 0x3a
 3130 14ec 46020000 		.4byte	.LASF164
 3131 14f0 10       		.byte	0x10
 3132 14f1 1902     		.2byte	0x219
 3133 14f3 02150000 		.4byte	0x1502
 3134 14f7 0D       		.uleb128 0xd
 3135 14f8 72090000 		.4byte	0x972
 3136 14fc 0D       		.uleb128 0xd
 3137 14fd 84090000 		.4byte	0x984
 3138 1501 00       		.byte	0
 3139 1502 3B       		.uleb128 0x3b
 3140 1503 8D040000 		.4byte	.LASF170
 3141 1507 10       		.byte	0x10
 3142 1508 1B02     		.2byte	0x21b
 3143 150a 0D       		.uleb128 0xd
 3144 150b 72090000 		.4byte	0x972
 3145 150f 0D       		.uleb128 0xd
 3146 1510 84090000 		.4byte	0x984
 3147 1514 00       		.byte	0
 3148 1515 00       		.byte	0
 3149              		.section	.debug_abbrev,"",%progbits
 3150              	.Ldebug_abbrev0:
 3151 0000 01       		.uleb128 0x1
 3152 0001 11       		.uleb128 0x11
 3153 0002 01       		.byte	0x1
 3154 0003 25       		.uleb128 0x25
 3155 0004 0E       		.uleb128 0xe
 3156 0005 13       		.uleb128 0x13
 3157 0006 0B       		.uleb128 0xb
 3158 0007 03       		.uleb128 0x3
 3159 0008 0E       		.uleb128 0xe
 3160 0009 1B       		.uleb128 0x1b
 3161 000a 0E       		.uleb128 0xe
 3162 000b 55       		.uleb128 0x55
 3163 000c 17       		.uleb128 0x17
 3164 000d 11       		.uleb128 0x11
 3165 000e 01       		.uleb128 0x1
 3166 000f 10       		.uleb128 0x10
 3167 0010 17       		.uleb128 0x17
 3168 0011 00       		.byte	0
 3169 0012 00       		.byte	0
 3170 0013 02       		.uleb128 0x2
 3171 0014 24       		.uleb128 0x24
 3172 0015 00       		.byte	0
 3173 0016 0B       		.uleb128 0xb
 3174 0017 0B       		.uleb128 0xb
 3175 0018 3E       		.uleb128 0x3e
 3176 0019 0B       		.uleb128 0xb
 3177 001a 03       		.uleb128 0x3
ARM GAS  /tmp/ccQyeFPN.s 			page 57


 3178 001b 08       		.uleb128 0x8
 3179 001c 00       		.byte	0
 3180 001d 00       		.byte	0
 3181 001e 03       		.uleb128 0x3
 3182 001f 24       		.uleb128 0x24
 3183 0020 00       		.byte	0
 3184 0021 0B       		.uleb128 0xb
 3185 0022 0B       		.uleb128 0xb
 3186 0023 3E       		.uleb128 0x3e
 3187 0024 0B       		.uleb128 0xb
 3188 0025 03       		.uleb128 0x3
 3189 0026 0E       		.uleb128 0xe
 3190 0027 00       		.byte	0
 3191 0028 00       		.byte	0
 3192 0029 04       		.uleb128 0x4
 3193 002a 16       		.uleb128 0x16
 3194 002b 00       		.byte	0
 3195 002c 03       		.uleb128 0x3
 3196 002d 0E       		.uleb128 0xe
 3197 002e 3A       		.uleb128 0x3a
 3198 002f 0B       		.uleb128 0xb
 3199 0030 3B       		.uleb128 0x3b
 3200 0031 0B       		.uleb128 0xb
 3201 0032 49       		.uleb128 0x49
 3202 0033 13       		.uleb128 0x13
 3203 0034 00       		.byte	0
 3204 0035 00       		.byte	0
 3205 0036 05       		.uleb128 0x5
 3206 0037 13       		.uleb128 0x13
 3207 0038 01       		.byte	0x1
 3208 0039 03       		.uleb128 0x3
 3209 003a 0E       		.uleb128 0xe
 3210 003b 0B       		.uleb128 0xb
 3211 003c 0B       		.uleb128 0xb
 3212 003d 3A       		.uleb128 0x3a
 3213 003e 0B       		.uleb128 0xb
 3214 003f 3B       		.uleb128 0x3b
 3215 0040 0B       		.uleb128 0xb
 3216 0041 01       		.uleb128 0x1
 3217 0042 13       		.uleb128 0x13
 3218 0043 00       		.byte	0
 3219 0044 00       		.byte	0
 3220 0045 06       		.uleb128 0x6
 3221 0046 0D       		.uleb128 0xd
 3222 0047 00       		.byte	0
 3223 0048 03       		.uleb128 0x3
 3224 0049 0E       		.uleb128 0xe
 3225 004a 3A       		.uleb128 0x3a
 3226 004b 0B       		.uleb128 0xb
 3227 004c 3B       		.uleb128 0x3b
 3228 004d 0B       		.uleb128 0xb
 3229 004e 49       		.uleb128 0x49
 3230 004f 13       		.uleb128 0x13
 3231 0050 38       		.uleb128 0x38
 3232 0051 0B       		.uleb128 0xb
 3233 0052 00       		.byte	0
 3234 0053 00       		.byte	0
ARM GAS  /tmp/ccQyeFPN.s 			page 58


 3235 0054 07       		.uleb128 0x7
 3236 0055 0D       		.uleb128 0xd
 3237 0056 00       		.byte	0
 3238 0057 03       		.uleb128 0x3
 3239 0058 08       		.uleb128 0x8
 3240 0059 3A       		.uleb128 0x3a
 3241 005a 0B       		.uleb128 0xb
 3242 005b 3B       		.uleb128 0x3b
 3243 005c 0B       		.uleb128 0xb
 3244 005d 49       		.uleb128 0x49
 3245 005e 13       		.uleb128 0x13
 3246 005f 38       		.uleb128 0x38
 3247 0060 0B       		.uleb128 0xb
 3248 0061 00       		.byte	0
 3249 0062 00       		.byte	0
 3250 0063 08       		.uleb128 0x8
 3251 0064 0D       		.uleb128 0xd
 3252 0065 00       		.byte	0
 3253 0066 03       		.uleb128 0x3
 3254 0067 08       		.uleb128 0x8
 3255 0068 3A       		.uleb128 0x3a
 3256 0069 0B       		.uleb128 0xb
 3257 006a 3B       		.uleb128 0x3b
 3258 006b 05       		.uleb128 0x5
 3259 006c 49       		.uleb128 0x49
 3260 006d 13       		.uleb128 0x13
 3261 006e 38       		.uleb128 0x38
 3262 006f 0B       		.uleb128 0xb
 3263 0070 00       		.byte	0
 3264 0071 00       		.byte	0
 3265 0072 09       		.uleb128 0x9
 3266 0073 0D       		.uleb128 0xd
 3267 0074 00       		.byte	0
 3268 0075 03       		.uleb128 0x3
 3269 0076 0E       		.uleb128 0xe
 3270 0077 3A       		.uleb128 0x3a
 3271 0078 0B       		.uleb128 0xb
 3272 0079 3B       		.uleb128 0x3b
 3273 007a 05       		.uleb128 0x5
 3274 007b 49       		.uleb128 0x49
 3275 007c 13       		.uleb128 0x13
 3276 007d 38       		.uleb128 0x38
 3277 007e 0B       		.uleb128 0xb
 3278 007f 00       		.byte	0
 3279 0080 00       		.byte	0
 3280 0081 0A       		.uleb128 0xa
 3281 0082 0F       		.uleb128 0xf
 3282 0083 00       		.byte	0
 3283 0084 0B       		.uleb128 0xb
 3284 0085 0B       		.uleb128 0xb
 3285 0086 49       		.uleb128 0x49
 3286 0087 13       		.uleb128 0x13
 3287 0088 00       		.byte	0
 3288 0089 00       		.byte	0
 3289 008a 0B       		.uleb128 0xb
 3290 008b 13       		.uleb128 0x13
 3291 008c 01       		.byte	0x1
ARM GAS  /tmp/ccQyeFPN.s 			page 59


 3292 008d 03       		.uleb128 0x3
 3293 008e 0E       		.uleb128 0xe
 3294 008f 0B       		.uleb128 0xb
 3295 0090 0B       		.uleb128 0xb
 3296 0091 3A       		.uleb128 0x3a
 3297 0092 0B       		.uleb128 0xb
 3298 0093 3B       		.uleb128 0x3b
 3299 0094 05       		.uleb128 0x5
 3300 0095 01       		.uleb128 0x1
 3301 0096 13       		.uleb128 0x13
 3302 0097 00       		.byte	0
 3303 0098 00       		.byte	0
 3304 0099 0C       		.uleb128 0xc
 3305 009a 15       		.uleb128 0x15
 3306 009b 01       		.byte	0x1
 3307 009c 27       		.uleb128 0x27
 3308 009d 19       		.uleb128 0x19
 3309 009e 01       		.uleb128 0x1
 3310 009f 13       		.uleb128 0x13
 3311 00a0 00       		.byte	0
 3312 00a1 00       		.byte	0
 3313 00a2 0D       		.uleb128 0xd
 3314 00a3 05       		.uleb128 0x5
 3315 00a4 00       		.byte	0
 3316 00a5 49       		.uleb128 0x49
 3317 00a6 13       		.uleb128 0x13
 3318 00a7 00       		.byte	0
 3319 00a8 00       		.byte	0
 3320 00a9 0E       		.uleb128 0xe
 3321 00aa 0F       		.uleb128 0xf
 3322 00ab 00       		.byte	0
 3323 00ac 0B       		.uleb128 0xb
 3324 00ad 0B       		.uleb128 0xb
 3325 00ae 00       		.byte	0
 3326 00af 00       		.byte	0
 3327 00b0 0F       		.uleb128 0xf
 3328 00b1 13       		.uleb128 0x13
 3329 00b2 01       		.byte	0x1
 3330 00b3 03       		.uleb128 0x3
 3331 00b4 0E       		.uleb128 0xe
 3332 00b5 0B       		.uleb128 0xb
 3333 00b6 05       		.uleb128 0x5
 3334 00b7 3A       		.uleb128 0x3a
 3335 00b8 0B       		.uleb128 0xb
 3336 00b9 3B       		.uleb128 0x3b
 3337 00ba 05       		.uleb128 0x5
 3338 00bb 01       		.uleb128 0x1
 3339 00bc 13       		.uleb128 0x13
 3340 00bd 00       		.byte	0
 3341 00be 00       		.byte	0
 3342 00bf 10       		.uleb128 0x10
 3343 00c0 0D       		.uleb128 0xd
 3344 00c1 00       		.byte	0
 3345 00c2 03       		.uleb128 0x3
 3346 00c3 0E       		.uleb128 0xe
 3347 00c4 3A       		.uleb128 0x3a
 3348 00c5 0B       		.uleb128 0xb
ARM GAS  /tmp/ccQyeFPN.s 			page 60


 3349 00c6 3B       		.uleb128 0x3b
 3350 00c7 05       		.uleb128 0x5
 3351 00c8 49       		.uleb128 0x49
 3352 00c9 13       		.uleb128 0x13
 3353 00ca 38       		.uleb128 0x38
 3354 00cb 05       		.uleb128 0x5
 3355 00cc 00       		.byte	0
 3356 00cd 00       		.byte	0
 3357 00ce 11       		.uleb128 0x11
 3358 00cf 0D       		.uleb128 0xd
 3359 00d0 00       		.byte	0
 3360 00d1 03       		.uleb128 0x3
 3361 00d2 08       		.uleb128 0x8
 3362 00d3 3A       		.uleb128 0x3a
 3363 00d4 0B       		.uleb128 0xb
 3364 00d5 3B       		.uleb128 0x3b
 3365 00d6 05       		.uleb128 0x5
 3366 00d7 49       		.uleb128 0x49
 3367 00d8 13       		.uleb128 0x13
 3368 00d9 38       		.uleb128 0x38
 3369 00da 05       		.uleb128 0x5
 3370 00db 00       		.byte	0
 3371 00dc 00       		.byte	0
 3372 00dd 12       		.uleb128 0x12
 3373 00de 35       		.uleb128 0x35
 3374 00df 00       		.byte	0
 3375 00e0 49       		.uleb128 0x49
 3376 00e1 13       		.uleb128 0x13
 3377 00e2 00       		.byte	0
 3378 00e3 00       		.byte	0
 3379 00e4 13       		.uleb128 0x13
 3380 00e5 01       		.uleb128 0x1
 3381 00e6 01       		.byte	0x1
 3382 00e7 49       		.uleb128 0x49
 3383 00e8 13       		.uleb128 0x13
 3384 00e9 01       		.uleb128 0x1
 3385 00ea 13       		.uleb128 0x13
 3386 00eb 00       		.byte	0
 3387 00ec 00       		.byte	0
 3388 00ed 14       		.uleb128 0x14
 3389 00ee 21       		.uleb128 0x21
 3390 00ef 00       		.byte	0
 3391 00f0 49       		.uleb128 0x49
 3392 00f1 13       		.uleb128 0x13
 3393 00f2 2F       		.uleb128 0x2f
 3394 00f3 0B       		.uleb128 0xb
 3395 00f4 00       		.byte	0
 3396 00f5 00       		.byte	0
 3397 00f6 15       		.uleb128 0x15
 3398 00f7 13       		.uleb128 0x13
 3399 00f8 01       		.byte	0x1
 3400 00f9 0B       		.uleb128 0xb
 3401 00fa 0B       		.uleb128 0xb
 3402 00fb 3A       		.uleb128 0x3a
 3403 00fc 0B       		.uleb128 0xb
 3404 00fd 3B       		.uleb128 0x3b
 3405 00fe 05       		.uleb128 0x5
ARM GAS  /tmp/ccQyeFPN.s 			page 61


 3406 00ff 01       		.uleb128 0x1
 3407 0100 13       		.uleb128 0x13
 3408 0101 00       		.byte	0
 3409 0102 00       		.byte	0
 3410 0103 16       		.uleb128 0x16
 3411 0104 16       		.uleb128 0x16
 3412 0105 00       		.byte	0
 3413 0106 03       		.uleb128 0x3
 3414 0107 0E       		.uleb128 0xe
 3415 0108 3A       		.uleb128 0x3a
 3416 0109 0B       		.uleb128 0xb
 3417 010a 3B       		.uleb128 0x3b
 3418 010b 05       		.uleb128 0x5
 3419 010c 49       		.uleb128 0x49
 3420 010d 13       		.uleb128 0x13
 3421 010e 00       		.byte	0
 3422 010f 00       		.byte	0
 3423 0110 17       		.uleb128 0x17
 3424 0111 13       		.uleb128 0x13
 3425 0112 01       		.byte	0x1
 3426 0113 0B       		.uleb128 0xb
 3427 0114 0B       		.uleb128 0xb
 3428 0115 3A       		.uleb128 0x3a
 3429 0116 0B       		.uleb128 0xb
 3430 0117 3B       		.uleb128 0x3b
 3431 0118 0B       		.uleb128 0xb
 3432 0119 01       		.uleb128 0x1
 3433 011a 13       		.uleb128 0x13
 3434 011b 00       		.byte	0
 3435 011c 00       		.byte	0
 3436 011d 18       		.uleb128 0x18
 3437 011e 26       		.uleb128 0x26
 3438 011f 00       		.byte	0
 3439 0120 49       		.uleb128 0x49
 3440 0121 13       		.uleb128 0x13
 3441 0122 00       		.byte	0
 3442 0123 00       		.byte	0
 3443 0124 19       		.uleb128 0x19
 3444 0125 17       		.uleb128 0x17
 3445 0126 01       		.byte	0x1
 3446 0127 0B       		.uleb128 0xb
 3447 0128 0B       		.uleb128 0xb
 3448 0129 3A       		.uleb128 0x3a
 3449 012a 0B       		.uleb128 0xb
 3450 012b 3B       		.uleb128 0x3b
 3451 012c 0B       		.uleb128 0xb
 3452 012d 01       		.uleb128 0x1
 3453 012e 13       		.uleb128 0x13
 3454 012f 00       		.byte	0
 3455 0130 00       		.byte	0
 3456 0131 1A       		.uleb128 0x1a
 3457 0132 0D       		.uleb128 0xd
 3458 0133 00       		.byte	0
 3459 0134 03       		.uleb128 0x3
 3460 0135 08       		.uleb128 0x8
 3461 0136 3A       		.uleb128 0x3a
 3462 0137 0B       		.uleb128 0xb
ARM GAS  /tmp/ccQyeFPN.s 			page 62


 3463 0138 3B       		.uleb128 0x3b
 3464 0139 0B       		.uleb128 0xb
 3465 013a 49       		.uleb128 0x49
 3466 013b 13       		.uleb128 0x13
 3467 013c 00       		.byte	0
 3468 013d 00       		.byte	0
 3469 013e 1B       		.uleb128 0x1b
 3470 013f 0D       		.uleb128 0xd
 3471 0140 00       		.byte	0
 3472 0141 03       		.uleb128 0x3
 3473 0142 0E       		.uleb128 0xe
 3474 0143 3A       		.uleb128 0x3a
 3475 0144 0B       		.uleb128 0xb
 3476 0145 3B       		.uleb128 0x3b
 3477 0146 0B       		.uleb128 0xb
 3478 0147 49       		.uleb128 0x49
 3479 0148 13       		.uleb128 0x13
 3480 0149 00       		.byte	0
 3481 014a 00       		.byte	0
 3482 014b 1C       		.uleb128 0x1c
 3483 014c 0D       		.uleb128 0xd
 3484 014d 00       		.byte	0
 3485 014e 03       		.uleb128 0x3
 3486 014f 0E       		.uleb128 0xe
 3487 0150 3A       		.uleb128 0x3a
 3488 0151 0B       		.uleb128 0xb
 3489 0152 3B       		.uleb128 0x3b
 3490 0153 0B       		.uleb128 0xb
 3491 0154 49       		.uleb128 0x49
 3492 0155 13       		.uleb128 0x13
 3493 0156 0B       		.uleb128 0xb
 3494 0157 0B       		.uleb128 0xb
 3495 0158 0D       		.uleb128 0xd
 3496 0159 0B       		.uleb128 0xb
 3497 015a 0C       		.uleb128 0xc
 3498 015b 0B       		.uleb128 0xb
 3499 015c 38       		.uleb128 0x38
 3500 015d 0B       		.uleb128 0xb
 3501 015e 00       		.byte	0
 3502 015f 00       		.byte	0
 3503 0160 1D       		.uleb128 0x1d
 3504 0161 13       		.uleb128 0x13
 3505 0162 01       		.byte	0x1
 3506 0163 0B       		.uleb128 0xb
 3507 0164 05       		.uleb128 0x5
 3508 0165 3A       		.uleb128 0x3a
 3509 0166 0B       		.uleb128 0xb
 3510 0167 3B       		.uleb128 0x3b
 3511 0168 0B       		.uleb128 0xb
 3512 0169 01       		.uleb128 0x1
 3513 016a 13       		.uleb128 0x13
 3514 016b 00       		.byte	0
 3515 016c 00       		.byte	0
 3516 016d 1E       		.uleb128 0x1e
 3517 016e 0D       		.uleb128 0xd
 3518 016f 00       		.byte	0
 3519 0170 03       		.uleb128 0x3
ARM GAS  /tmp/ccQyeFPN.s 			page 63


 3520 0171 0E       		.uleb128 0xe
 3521 0172 3A       		.uleb128 0x3a
 3522 0173 0B       		.uleb128 0xb
 3523 0174 3B       		.uleb128 0x3b
 3524 0175 05       		.uleb128 0x5
 3525 0176 49       		.uleb128 0x49
 3526 0177 13       		.uleb128 0x13
 3527 0178 00       		.byte	0
 3528 0179 00       		.byte	0
 3529 017a 1F       		.uleb128 0x1f
 3530 017b 04       		.uleb128 0x4
 3531 017c 01       		.byte	0x1
 3532 017d 0B       		.uleb128 0xb
 3533 017e 0B       		.uleb128 0xb
 3534 017f 3A       		.uleb128 0x3a
 3535 0180 0B       		.uleb128 0xb
 3536 0181 3B       		.uleb128 0x3b
 3537 0182 0B       		.uleb128 0xb
 3538 0183 01       		.uleb128 0x1
 3539 0184 13       		.uleb128 0x13
 3540 0185 00       		.byte	0
 3541 0186 00       		.byte	0
 3542 0187 20       		.uleb128 0x20
 3543 0188 28       		.uleb128 0x28
 3544 0189 00       		.byte	0
 3545 018a 03       		.uleb128 0x3
 3546 018b 0E       		.uleb128 0xe
 3547 018c 1C       		.uleb128 0x1c
 3548 018d 0D       		.uleb128 0xd
 3549 018e 00       		.byte	0
 3550 018f 00       		.byte	0
 3551 0190 21       		.uleb128 0x21
 3552 0191 2E       		.uleb128 0x2e
 3553 0192 01       		.byte	0x1
 3554 0193 03       		.uleb128 0x3
 3555 0194 0E       		.uleb128 0xe
 3556 0195 3A       		.uleb128 0x3a
 3557 0196 0B       		.uleb128 0xb
 3558 0197 3B       		.uleb128 0x3b
 3559 0198 05       		.uleb128 0x5
 3560 0199 27       		.uleb128 0x27
 3561 019a 19       		.uleb128 0x19
 3562 019b 20       		.uleb128 0x20
 3563 019c 0B       		.uleb128 0xb
 3564 019d 01       		.uleb128 0x1
 3565 019e 13       		.uleb128 0x13
 3566 019f 00       		.byte	0
 3567 01a0 00       		.byte	0
 3568 01a1 22       		.uleb128 0x22
 3569 01a2 05       		.uleb128 0x5
 3570 01a3 00       		.byte	0
 3571 01a4 03       		.uleb128 0x3
 3572 01a5 0E       		.uleb128 0xe
 3573 01a6 3A       		.uleb128 0x3a
 3574 01a7 0B       		.uleb128 0xb
 3575 01a8 3B       		.uleb128 0x3b
 3576 01a9 05       		.uleb128 0x5
ARM GAS  /tmp/ccQyeFPN.s 			page 64


 3577 01aa 49       		.uleb128 0x49
 3578 01ab 13       		.uleb128 0x13
 3579 01ac 00       		.byte	0
 3580 01ad 00       		.byte	0
 3581 01ae 23       		.uleb128 0x23
 3582 01af 2E       		.uleb128 0x2e
 3583 01b0 00       		.byte	0
 3584 01b1 03       		.uleb128 0x3
 3585 01b2 0E       		.uleb128 0xe
 3586 01b3 3A       		.uleb128 0x3a
 3587 01b4 0B       		.uleb128 0xb
 3588 01b5 3B       		.uleb128 0x3b
 3589 01b6 05       		.uleb128 0x5
 3590 01b7 27       		.uleb128 0x27
 3591 01b8 19       		.uleb128 0x19
 3592 01b9 20       		.uleb128 0x20
 3593 01ba 0B       		.uleb128 0xb
 3594 01bb 00       		.byte	0
 3595 01bc 00       		.byte	0
 3596 01bd 24       		.uleb128 0x24
 3597 01be 34       		.uleb128 0x34
 3598 01bf 00       		.byte	0
 3599 01c0 03       		.uleb128 0x3
 3600 01c1 0E       		.uleb128 0xe
 3601 01c2 49       		.uleb128 0x49
 3602 01c3 13       		.uleb128 0x13
 3603 01c4 34       		.uleb128 0x34
 3604 01c5 19       		.uleb128 0x19
 3605 01c6 1C       		.uleb128 0x1c
 3606 01c7 0E       		.uleb128 0xe
 3607 01c8 00       		.byte	0
 3608 01c9 00       		.byte	0
 3609 01ca 25       		.uleb128 0x25
 3610 01cb 2E       		.uleb128 0x2e
 3611 01cc 01       		.byte	0x1
 3612 01cd 3F       		.uleb128 0x3f
 3613 01ce 19       		.uleb128 0x19
 3614 01cf 03       		.uleb128 0x3
 3615 01d0 0E       		.uleb128 0xe
 3616 01d1 3A       		.uleb128 0x3a
 3617 01d2 0B       		.uleb128 0xb
 3618 01d3 3B       		.uleb128 0x3b
 3619 01d4 0B       		.uleb128 0xb
 3620 01d5 27       		.uleb128 0x27
 3621 01d6 19       		.uleb128 0x19
 3622 01d7 11       		.uleb128 0x11
 3623 01d8 01       		.uleb128 0x1
 3624 01d9 12       		.uleb128 0x12
 3625 01da 06       		.uleb128 0x6
 3626 01db 40       		.uleb128 0x40
 3627 01dc 18       		.uleb128 0x18
 3628 01dd 9742     		.uleb128 0x2117
 3629 01df 19       		.uleb128 0x19
 3630 01e0 01       		.uleb128 0x1
 3631 01e1 13       		.uleb128 0x13
 3632 01e2 00       		.byte	0
 3633 01e3 00       		.byte	0
ARM GAS  /tmp/ccQyeFPN.s 			page 65


 3634 01e4 26       		.uleb128 0x26
 3635 01e5 898201   		.uleb128 0x4109
 3636 01e8 00       		.byte	0
 3637 01e9 11       		.uleb128 0x11
 3638 01ea 01       		.uleb128 0x1
 3639 01eb 9542     		.uleb128 0x2115
 3640 01ed 19       		.uleb128 0x19
 3641 01ee 31       		.uleb128 0x31
 3642 01ef 13       		.uleb128 0x13
 3643 01f0 00       		.byte	0
 3644 01f1 00       		.byte	0
 3645 01f2 27       		.uleb128 0x27
 3646 01f3 05       		.uleb128 0x5
 3647 01f4 00       		.byte	0
 3648 01f5 03       		.uleb128 0x3
 3649 01f6 0E       		.uleb128 0xe
 3650 01f7 3A       		.uleb128 0x3a
 3651 01f8 0B       		.uleb128 0xb
 3652 01f9 3B       		.uleb128 0x3b
 3653 01fa 0B       		.uleb128 0xb
 3654 01fb 49       		.uleb128 0x49
 3655 01fc 13       		.uleb128 0x13
 3656 01fd 02       		.uleb128 0x2
 3657 01fe 18       		.uleb128 0x18
 3658 01ff 00       		.byte	0
 3659 0200 00       		.byte	0
 3660 0201 28       		.uleb128 0x28
 3661 0202 05       		.uleb128 0x5
 3662 0203 00       		.byte	0
 3663 0204 03       		.uleb128 0x3
 3664 0205 0E       		.uleb128 0xe
 3665 0206 3A       		.uleb128 0x3a
 3666 0207 0B       		.uleb128 0xb
 3667 0208 3B       		.uleb128 0x3b
 3668 0209 0B       		.uleb128 0xb
 3669 020a 49       		.uleb128 0x49
 3670 020b 13       		.uleb128 0x13
 3671 020c 02       		.uleb128 0x2
 3672 020d 17       		.uleb128 0x17
 3673 020e 00       		.byte	0
 3674 020f 00       		.byte	0
 3675 0210 29       		.uleb128 0x29
 3676 0211 34       		.uleb128 0x34
 3677 0212 00       		.byte	0
 3678 0213 03       		.uleb128 0x3
 3679 0214 0E       		.uleb128 0xe
 3680 0215 49       		.uleb128 0x49
 3681 0216 13       		.uleb128 0x13
 3682 0217 34       		.uleb128 0x34
 3683 0218 19       		.uleb128 0x19
 3684 0219 00       		.byte	0
 3685 021a 00       		.byte	0
 3686 021b 2A       		.uleb128 0x2a
 3687 021c 1D       		.uleb128 0x1d
 3688 021d 01       		.byte	0x1
 3689 021e 31       		.uleb128 0x31
 3690 021f 13       		.uleb128 0x13
ARM GAS  /tmp/ccQyeFPN.s 			page 66


 3691 0220 52       		.uleb128 0x52
 3692 0221 01       		.uleb128 0x1
 3693 0222 55       		.uleb128 0x55
 3694 0223 17       		.uleb128 0x17
 3695 0224 58       		.uleb128 0x58
 3696 0225 0B       		.uleb128 0xb
 3697 0226 59       		.uleb128 0x59
 3698 0227 0B       		.uleb128 0xb
 3699 0228 01       		.uleb128 0x1
 3700 0229 13       		.uleb128 0x13
 3701 022a 00       		.byte	0
 3702 022b 00       		.byte	0
 3703 022c 2B       		.uleb128 0x2b
 3704 022d 1D       		.uleb128 0x1d
 3705 022e 01       		.byte	0x1
 3706 022f 31       		.uleb128 0x31
 3707 0230 13       		.uleb128 0x13
 3708 0231 52       		.uleb128 0x52
 3709 0232 01       		.uleb128 0x1
 3710 0233 55       		.uleb128 0x55
 3711 0234 17       		.uleb128 0x17
 3712 0235 58       		.uleb128 0x58
 3713 0236 0B       		.uleb128 0xb
 3714 0237 59       		.uleb128 0x59
 3715 0238 05       		.uleb128 0x5
 3716 0239 00       		.byte	0
 3717 023a 00       		.byte	0
 3718 023b 2C       		.uleb128 0x2c
 3719 023c 05       		.uleb128 0x5
 3720 023d 00       		.byte	0
 3721 023e 31       		.uleb128 0x31
 3722 023f 13       		.uleb128 0x13
 3723 0240 1C       		.uleb128 0x1c
 3724 0241 0B       		.uleb128 0xb
 3725 0242 00       		.byte	0
 3726 0243 00       		.byte	0
 3727 0244 2D       		.uleb128 0x2d
 3728 0245 1D       		.uleb128 0x1d
 3729 0246 01       		.byte	0x1
 3730 0247 31       		.uleb128 0x31
 3731 0248 13       		.uleb128 0x13
 3732 0249 11       		.uleb128 0x11
 3733 024a 01       		.uleb128 0x1
 3734 024b 12       		.uleb128 0x12
 3735 024c 06       		.uleb128 0x6
 3736 024d 58       		.uleb128 0x58
 3737 024e 0B       		.uleb128 0xb
 3738 024f 59       		.uleb128 0x59
 3739 0250 0B       		.uleb128 0xb
 3740 0251 01       		.uleb128 0x1
 3741 0252 13       		.uleb128 0x13
 3742 0253 00       		.byte	0
 3743 0254 00       		.byte	0
 3744 0255 2E       		.uleb128 0x2e
 3745 0256 1D       		.uleb128 0x1d
 3746 0257 01       		.byte	0x1
 3747 0258 31       		.uleb128 0x31
ARM GAS  /tmp/ccQyeFPN.s 			page 67


 3748 0259 13       		.uleb128 0x13
 3749 025a 11       		.uleb128 0x11
 3750 025b 01       		.uleb128 0x1
 3751 025c 12       		.uleb128 0x12
 3752 025d 06       		.uleb128 0x6
 3753 025e 58       		.uleb128 0x58
 3754 025f 0B       		.uleb128 0xb
 3755 0260 59       		.uleb128 0x59
 3756 0261 05       		.uleb128 0x5
 3757 0262 00       		.byte	0
 3758 0263 00       		.byte	0
 3759 0264 2F       		.uleb128 0x2f
 3760 0265 0B       		.uleb128 0xb
 3761 0266 01       		.byte	0x1
 3762 0267 11       		.uleb128 0x11
 3763 0268 01       		.uleb128 0x1
 3764 0269 12       		.uleb128 0x12
 3765 026a 06       		.uleb128 0x6
 3766 026b 00       		.byte	0
 3767 026c 00       		.byte	0
 3768 026d 30       		.uleb128 0x30
 3769 026e 34       		.uleb128 0x34
 3770 026f 00       		.byte	0
 3771 0270 31       		.uleb128 0x31
 3772 0271 13       		.uleb128 0x13
 3773 0272 00       		.byte	0
 3774 0273 00       		.byte	0
 3775 0274 31       		.uleb128 0x31
 3776 0275 898201   		.uleb128 0x4109
 3777 0278 01       		.byte	0x1
 3778 0279 11       		.uleb128 0x11
 3779 027a 01       		.uleb128 0x1
 3780 027b 31       		.uleb128 0x31
 3781 027c 13       		.uleb128 0x13
 3782 027d 00       		.byte	0
 3783 027e 00       		.byte	0
 3784 027f 32       		.uleb128 0x32
 3785 0280 8A8201   		.uleb128 0x410a
 3786 0283 00       		.byte	0
 3787 0284 02       		.uleb128 0x2
 3788 0285 18       		.uleb128 0x18
 3789 0286 9142     		.uleb128 0x2111
 3790 0288 18       		.uleb128 0x18
 3791 0289 00       		.byte	0
 3792 028a 00       		.byte	0
 3793 028b 33       		.uleb128 0x33
 3794 028c 1D       		.uleb128 0x1d
 3795 028d 01       		.byte	0x1
 3796 028e 31       		.uleb128 0x31
 3797 028f 13       		.uleb128 0x13
 3798 0290 11       		.uleb128 0x11
 3799 0291 01       		.uleb128 0x1
 3800 0292 12       		.uleb128 0x12
 3801 0293 06       		.uleb128 0x6
 3802 0294 58       		.uleb128 0x58
 3803 0295 0B       		.uleb128 0xb
 3804 0296 59       		.uleb128 0x59
ARM GAS  /tmp/ccQyeFPN.s 			page 68


 3805 0297 0B       		.uleb128 0xb
 3806 0298 00       		.byte	0
 3807 0299 00       		.byte	0
 3808 029a 34       		.uleb128 0x34
 3809 029b 2E       		.uleb128 0x2e
 3810 029c 01       		.byte	0x1
 3811 029d 3F       		.uleb128 0x3f
 3812 029e 19       		.uleb128 0x19
 3813 029f 03       		.uleb128 0x3
 3814 02a0 0E       		.uleb128 0xe
 3815 02a1 3A       		.uleb128 0x3a
 3816 02a2 0B       		.uleb128 0xb
 3817 02a3 3B       		.uleb128 0x3b
 3818 02a4 05       		.uleb128 0x5
 3819 02a5 27       		.uleb128 0x27
 3820 02a6 19       		.uleb128 0x19
 3821 02a7 11       		.uleb128 0x11
 3822 02a8 01       		.uleb128 0x1
 3823 02a9 12       		.uleb128 0x12
 3824 02aa 06       		.uleb128 0x6
 3825 02ab 40       		.uleb128 0x40
 3826 02ac 18       		.uleb128 0x18
 3827 02ad 9742     		.uleb128 0x2117
 3828 02af 19       		.uleb128 0x19
 3829 02b0 01       		.uleb128 0x1
 3830 02b1 13       		.uleb128 0x13
 3831 02b2 00       		.byte	0
 3832 02b3 00       		.byte	0
 3833 02b4 35       		.uleb128 0x35
 3834 02b5 05       		.uleb128 0x5
 3835 02b6 00       		.byte	0
 3836 02b7 03       		.uleb128 0x3
 3837 02b8 0E       		.uleb128 0xe
 3838 02b9 3A       		.uleb128 0x3a
 3839 02ba 0B       		.uleb128 0xb
 3840 02bb 3B       		.uleb128 0x3b
 3841 02bc 05       		.uleb128 0x5
 3842 02bd 49       		.uleb128 0x49
 3843 02be 13       		.uleb128 0x13
 3844 02bf 02       		.uleb128 0x2
 3845 02c0 17       		.uleb128 0x17
 3846 02c1 00       		.byte	0
 3847 02c2 00       		.byte	0
 3848 02c3 36       		.uleb128 0x36
 3849 02c4 1D       		.uleb128 0x1d
 3850 02c5 01       		.byte	0x1
 3851 02c6 31       		.uleb128 0x31
 3852 02c7 13       		.uleb128 0x13
 3853 02c8 11       		.uleb128 0x11
 3854 02c9 01       		.uleb128 0x1
 3855 02ca 12       		.uleb128 0x12
 3856 02cb 06       		.uleb128 0x6
 3857 02cc 58       		.uleb128 0x58
 3858 02cd 0B       		.uleb128 0xb
 3859 02ce 59       		.uleb128 0x59
 3860 02cf 05       		.uleb128 0x5
 3861 02d0 01       		.uleb128 0x1
ARM GAS  /tmp/ccQyeFPN.s 			page 69


 3862 02d1 13       		.uleb128 0x13
 3863 02d2 00       		.byte	0
 3864 02d3 00       		.byte	0
 3865 02d4 37       		.uleb128 0x37
 3866 02d5 34       		.uleb128 0x34
 3867 02d6 00       		.byte	0
 3868 02d7 03       		.uleb128 0x3
 3869 02d8 0E       		.uleb128 0xe
 3870 02d9 3A       		.uleb128 0x3a
 3871 02da 0B       		.uleb128 0xb
 3872 02db 3B       		.uleb128 0x3b
 3873 02dc 05       		.uleb128 0x5
 3874 02dd 49       		.uleb128 0x49
 3875 02de 13       		.uleb128 0x13
 3876 02df 3F       		.uleb128 0x3f
 3877 02e0 19       		.uleb128 0x19
 3878 02e1 3C       		.uleb128 0x3c
 3879 02e2 19       		.uleb128 0x19
 3880 02e3 00       		.byte	0
 3881 02e4 00       		.byte	0
 3882 02e5 38       		.uleb128 0x38
 3883 02e6 34       		.uleb128 0x34
 3884 02e7 00       		.byte	0
 3885 02e8 03       		.uleb128 0x3
 3886 02e9 08       		.uleb128 0x8
 3887 02ea 3A       		.uleb128 0x3a
 3888 02eb 0B       		.uleb128 0xb
 3889 02ec 3B       		.uleb128 0x3b
 3890 02ed 05       		.uleb128 0x5
 3891 02ee 49       		.uleb128 0x49
 3892 02ef 13       		.uleb128 0x13
 3893 02f0 3F       		.uleb128 0x3f
 3894 02f1 19       		.uleb128 0x19
 3895 02f2 3C       		.uleb128 0x3c
 3896 02f3 19       		.uleb128 0x19
 3897 02f4 00       		.byte	0
 3898 02f5 00       		.byte	0
 3899 02f6 39       		.uleb128 0x39
 3900 02f7 2E       		.uleb128 0x2e
 3901 02f8 00       		.byte	0
 3902 02f9 3F       		.uleb128 0x3f
 3903 02fa 19       		.uleb128 0x19
 3904 02fb 03       		.uleb128 0x3
 3905 02fc 0E       		.uleb128 0xe
 3906 02fd 3A       		.uleb128 0x3a
 3907 02fe 0B       		.uleb128 0xb
 3908 02ff 3B       		.uleb128 0x3b
 3909 0300 05       		.uleb128 0x5
 3910 0301 27       		.uleb128 0x27
 3911 0302 19       		.uleb128 0x19
 3912 0303 3C       		.uleb128 0x3c
 3913 0304 19       		.uleb128 0x19
 3914 0305 00       		.byte	0
 3915 0306 00       		.byte	0
 3916 0307 3A       		.uleb128 0x3a
 3917 0308 2E       		.uleb128 0x2e
 3918 0309 01       		.byte	0x1
ARM GAS  /tmp/ccQyeFPN.s 			page 70


 3919 030a 3F       		.uleb128 0x3f
 3920 030b 19       		.uleb128 0x19
 3921 030c 03       		.uleb128 0x3
 3922 030d 0E       		.uleb128 0xe
 3923 030e 3A       		.uleb128 0x3a
 3924 030f 0B       		.uleb128 0xb
 3925 0310 3B       		.uleb128 0x3b
 3926 0311 05       		.uleb128 0x5
 3927 0312 27       		.uleb128 0x27
 3928 0313 19       		.uleb128 0x19
 3929 0314 3C       		.uleb128 0x3c
 3930 0315 19       		.uleb128 0x19
 3931 0316 01       		.uleb128 0x1
 3932 0317 13       		.uleb128 0x13
 3933 0318 00       		.byte	0
 3934 0319 00       		.byte	0
 3935 031a 3B       		.uleb128 0x3b
 3936 031b 2E       		.uleb128 0x2e
 3937 031c 01       		.byte	0x1
 3938 031d 3F       		.uleb128 0x3f
 3939 031e 19       		.uleb128 0x19
 3940 031f 03       		.uleb128 0x3
 3941 0320 0E       		.uleb128 0xe
 3942 0321 3A       		.uleb128 0x3a
 3943 0322 0B       		.uleb128 0xb
 3944 0323 3B       		.uleb128 0x3b
 3945 0324 05       		.uleb128 0x5
 3946 0325 27       		.uleb128 0x27
 3947 0326 19       		.uleb128 0x19
 3948 0327 3C       		.uleb128 0x3c
 3949 0328 19       		.uleb128 0x19
 3950 0329 00       		.byte	0
 3951 032a 00       		.byte	0
 3952 032b 00       		.byte	0
 3953              		.section	.debug_loc,"",%progbits
 3954              	.Ldebug_loc0:
 3955              	.LLST0:
 3956 0000 00000000 		.4byte	.LVL2
 3957 0004 13000000 		.4byte	.LVL3-1
 3958 0008 0100     		.2byte	0x1
 3959 000a 50       		.byte	0x50
 3960 000b 13000000 		.4byte	.LVL3-1
 3961 000f 22000000 		.4byte	.LFE272
 3962 0013 0100     		.2byte	0x1
 3963 0015 54       		.byte	0x54
 3964 0016 00000000 		.4byte	0
 3965 001a 00000000 		.4byte	0
 3966              	.LLST1:
 3967 001e 00000000 		.4byte	.LVL2
 3968 0022 13000000 		.4byte	.LVL3-1
 3969 0026 0100     		.2byte	0x1
 3970 0028 51       		.byte	0x51
 3971 0029 13000000 		.4byte	.LVL3-1
 3972 002d 22000000 		.4byte	.LFE272
 3973 0031 0400     		.2byte	0x4
 3974 0033 F3       		.byte	0xf3
 3975 0034 01       		.uleb128 0x1
ARM GAS  /tmp/ccQyeFPN.s 			page 71


 3976 0035 51       		.byte	0x51
 3977 0036 9F       		.byte	0x9f
 3978 0037 00000000 		.4byte	0
 3979 003b 00000000 		.4byte	0
 3980              	.LLST2:
 3981 003f 00000000 		.4byte	.LVL5
 3982 0043 0D000000 		.4byte	.LVL6-1
 3983 0047 0100     		.2byte	0x1
 3984 0049 50       		.byte	0x50
 3985 004a 0D000000 		.4byte	.LVL6-1
 3986 004e 1C000000 		.4byte	.LFE273
 3987 0052 0100     		.2byte	0x1
 3988 0054 54       		.byte	0x54
 3989 0055 00000000 		.4byte	0
 3990 0059 00000000 		.4byte	0
 3991              	.LLST3:
 3992 005d 00000000 		.4byte	.LVL8
 3993 0061 0C000000 		.4byte	.LVL9
 3994 0065 0100     		.2byte	0x1
 3995 0067 51       		.byte	0x51
 3996 0068 0C000000 		.4byte	.LVL9
 3997 006c 16000000 		.4byte	.LFE274
 3998 0070 0200     		.2byte	0x2
 3999 0072 70       		.byte	0x70
 4000 0073 08       		.sleb128 8
 4001 0074 00000000 		.4byte	0
 4002 0078 00000000 		.4byte	0
 4003              	.LLST4:
 4004 007c 00000000 		.4byte	.LVL11
 4005 0080 15000000 		.4byte	.LVL12-1
 4006 0084 0100     		.2byte	0x1
 4007 0086 50       		.byte	0x50
 4008 0087 15000000 		.4byte	.LVL12-1
 4009 008b 1E000000 		.4byte	.LFE275
 4010 008f 0400     		.2byte	0x4
 4011 0091 F3       		.byte	0xf3
 4012 0092 01       		.uleb128 0x1
 4013 0093 50       		.byte	0x50
 4014 0094 9F       		.byte	0x9f
 4015 0095 00000000 		.4byte	0
 4016 0099 00000000 		.4byte	0
 4017              	.LLST5:
 4018 009d 00000000 		.4byte	.LVL11
 4019 00a1 15000000 		.4byte	.LVL12-1
 4020 00a5 0100     		.2byte	0x1
 4021 00a7 51       		.byte	0x51
 4022 00a8 15000000 		.4byte	.LVL12-1
 4023 00ac 1E000000 		.4byte	.LFE275
 4024 00b0 0400     		.2byte	0x4
 4025 00b2 F3       		.byte	0xf3
 4026 00b3 01       		.uleb128 0x1
 4027 00b4 51       		.byte	0x51
 4028 00b5 9F       		.byte	0x9f
 4029 00b6 00000000 		.4byte	0
 4030 00ba 00000000 		.4byte	0
 4031              	.LLST6:
 4032 00be 00000000 		.4byte	.LVL11
ARM GAS  /tmp/ccQyeFPN.s 			page 72


 4033 00c2 15000000 		.4byte	.LVL12-1
 4034 00c6 0100     		.2byte	0x1
 4035 00c8 52       		.byte	0x52
 4036 00c9 15000000 		.4byte	.LVL12-1
 4037 00cd 1E000000 		.4byte	.LFE275
 4038 00d1 0400     		.2byte	0x4
 4039 00d3 F3       		.byte	0xf3
 4040 00d4 01       		.uleb128 0x1
 4041 00d5 52       		.byte	0x52
 4042 00d6 9F       		.byte	0x9f
 4043 00d7 00000000 		.4byte	0
 4044 00db 00000000 		.4byte	0
 4045              	.LLST7:
 4046 00df 00000000 		.4byte	.LVL13
 4047 00e3 17000000 		.4byte	.LVL14-1
 4048 00e7 0100     		.2byte	0x1
 4049 00e9 50       		.byte	0x50
 4050 00ea 17000000 		.4byte	.LVL14-1
 4051 00ee 20000000 		.4byte	.LFE276
 4052 00f2 0400     		.2byte	0x4
 4053 00f4 F3       		.byte	0xf3
 4054 00f5 01       		.uleb128 0x1
 4055 00f6 50       		.byte	0x50
 4056 00f7 9F       		.byte	0x9f
 4057 00f8 00000000 		.4byte	0
 4058 00fc 00000000 		.4byte	0
 4059              	.LLST8:
 4060 0100 00000000 		.4byte	.LVL13
 4061 0104 17000000 		.4byte	.LVL14-1
 4062 0108 0100     		.2byte	0x1
 4063 010a 51       		.byte	0x51
 4064 010b 17000000 		.4byte	.LVL14-1
 4065 010f 20000000 		.4byte	.LFE276
 4066 0113 0400     		.2byte	0x4
 4067 0115 F3       		.byte	0xf3
 4068 0116 01       		.uleb128 0x1
 4069 0117 51       		.byte	0x51
 4070 0118 9F       		.byte	0x9f
 4071 0119 00000000 		.4byte	0
 4072 011d 00000000 		.4byte	0
 4073              	.LLST9:
 4074 0121 00000000 		.4byte	.LVL15
 4075 0125 0B000000 		.4byte	.LVL16-1
 4076 0129 0100     		.2byte	0x1
 4077 012b 50       		.byte	0x50
 4078 012c 0B000000 		.4byte	.LVL16-1
 4079 0130 14000000 		.4byte	.LFE277
 4080 0134 0400     		.2byte	0x4
 4081 0136 F3       		.byte	0xf3
 4082 0137 01       		.uleb128 0x1
 4083 0138 50       		.byte	0x50
 4084 0139 9F       		.byte	0x9f
 4085 013a 00000000 		.4byte	0
 4086 013e 00000000 		.4byte	0
 4087              	.LLST10:
 4088 0142 00000000 		.4byte	.LVL17
 4089 0146 0B000000 		.4byte	.LVL18-1
ARM GAS  /tmp/ccQyeFPN.s 			page 73


 4090 014a 0100     		.2byte	0x1
 4091 014c 50       		.byte	0x50
 4092 014d 0B000000 		.4byte	.LVL18-1
 4093 0151 14000000 		.4byte	.LFE278
 4094 0155 0400     		.2byte	0x4
 4095 0157 F3       		.byte	0xf3
 4096 0158 01       		.uleb128 0x1
 4097 0159 50       		.byte	0x50
 4098 015a 9F       		.byte	0x9f
 4099 015b 00000000 		.4byte	0
 4100 015f 00000000 		.4byte	0
 4101              	.LLST11:
 4102 0163 00000000 		.4byte	.LVL19
 4103 0167 0B000000 		.4byte	.LVL20-1
 4104 016b 0100     		.2byte	0x1
 4105 016d 50       		.byte	0x50
 4106 016e 0B000000 		.4byte	.LVL20-1
 4107 0172 14000000 		.4byte	.LFE279
 4108 0176 0400     		.2byte	0x4
 4109 0178 F3       		.byte	0xf3
 4110 0179 01       		.uleb128 0x1
 4111 017a 50       		.byte	0x50
 4112 017b 9F       		.byte	0x9f
 4113 017c 00000000 		.4byte	0
 4114 0180 00000000 		.4byte	0
 4115              	.LLST12:
 4116 0184 00000000 		.4byte	.LVL19
 4117 0188 0B000000 		.4byte	.LVL20-1
 4118 018c 0100     		.2byte	0x1
 4119 018e 51       		.byte	0x51
 4120 018f 0B000000 		.4byte	.LVL20-1
 4121 0193 14000000 		.4byte	.LFE279
 4122 0197 0400     		.2byte	0x4
 4123 0199 F3       		.byte	0xf3
 4124 019a 01       		.uleb128 0x1
 4125 019b 51       		.byte	0x51
 4126 019c 9F       		.byte	0x9f
 4127 019d 00000000 		.4byte	0
 4128 01a1 00000000 		.4byte	0
 4129              	.LLST13:
 4130 01a5 00000000 		.4byte	.LVL21
 4131 01a9 0B000000 		.4byte	.LVL22-1
 4132 01ad 0100     		.2byte	0x1
 4133 01af 50       		.byte	0x50
 4134 01b0 0B000000 		.4byte	.LVL22-1
 4135 01b4 14000000 		.4byte	.LFE280
 4136 01b8 0400     		.2byte	0x4
 4137 01ba F3       		.byte	0xf3
 4138 01bb 01       		.uleb128 0x1
 4139 01bc 50       		.byte	0x50
 4140 01bd 9F       		.byte	0x9f
 4141 01be 00000000 		.4byte	0
 4142 01c2 00000000 		.4byte	0
 4143              	.LLST14:
 4144 01c6 00000000 		.4byte	.LVL21
 4145 01ca 0B000000 		.4byte	.LVL22-1
 4146 01ce 0100     		.2byte	0x1
ARM GAS  /tmp/ccQyeFPN.s 			page 74


 4147 01d0 51       		.byte	0x51
 4148 01d1 0B000000 		.4byte	.LVL22-1
 4149 01d5 14000000 		.4byte	.LFE280
 4150 01d9 0400     		.2byte	0x4
 4151 01db F3       		.byte	0xf3
 4152 01dc 01       		.uleb128 0x1
 4153 01dd 51       		.byte	0x51
 4154 01de 9F       		.byte	0x9f
 4155 01df 00000000 		.4byte	0
 4156 01e3 00000000 		.4byte	0
 4157              		.section	.debug_aranges,"",%progbits
 4158 0000 6C000000 		.4byte	0x6c
 4159 0004 0200     		.2byte	0x2
 4160 0006 00000000 		.4byte	.Ldebug_info0
 4161 000a 04       		.byte	0x4
 4162 000b 00       		.byte	0
 4163 000c 0000     		.2byte	0
 4164 000e 0000     		.2byte	0
 4165 0010 00000000 		.4byte	.LFB270
 4166 0014 04000000 		.4byte	.LFE270-.LFB270
 4167 0018 00000000 		.4byte	.LFB271
 4168 001c 0E000000 		.4byte	.LFE271-.LFB271
 4169 0020 00000000 		.4byte	.LFB272
 4170 0024 22000000 		.4byte	.LFE272-.LFB272
 4171 0028 00000000 		.4byte	.LFB273
 4172 002c 1C000000 		.4byte	.LFE273-.LFB273
 4173 0030 00000000 		.4byte	.LFB274
 4174 0034 16000000 		.4byte	.LFE274-.LFB274
 4175 0038 00000000 		.4byte	.LFB275
 4176 003c 1E000000 		.4byte	.LFE275-.LFB275
 4177 0040 00000000 		.4byte	.LFB276
 4178 0044 20000000 		.4byte	.LFE276-.LFB276
 4179 0048 00000000 		.4byte	.LFB277
 4180 004c 14000000 		.4byte	.LFE277-.LFB277
 4181 0050 00000000 		.4byte	.LFB278
 4182 0054 14000000 		.4byte	.LFE278-.LFB278
 4183 0058 00000000 		.4byte	.LFB279
 4184 005c 14000000 		.4byte	.LFE279-.LFB279
 4185 0060 00000000 		.4byte	.LFB280
 4186 0064 14000000 		.4byte	.LFE280-.LFB280
 4187 0068 00000000 		.4byte	0
 4188 006c 00000000 		.4byte	0
 4189              		.section	.debug_ranges,"",%progbits
 4190              	.Ldebug_ranges0:
 4191 0000 02000000 		.4byte	.LBB141
 4192 0004 04000000 		.4byte	.LBE141
 4193 0008 06000000 		.4byte	.LBB150
 4194 000c 0A000000 		.4byte	.LBE150
 4195 0010 00000000 		.4byte	0
 4196 0014 00000000 		.4byte	0
 4197 0018 02000000 		.4byte	.LBB157
 4198 001c 04000000 		.4byte	.LBE157
 4199 0020 06000000 		.4byte	.LBB166
 4200 0024 0A000000 		.4byte	.LBE166
 4201 0028 00000000 		.4byte	0
 4202 002c 00000000 		.4byte	0
 4203 0030 00000000 		.4byte	.LFB270
ARM GAS  /tmp/ccQyeFPN.s 			page 75


 4204 0034 04000000 		.4byte	.LFE270
 4205 0038 00000000 		.4byte	.LFB271
 4206 003c 0E000000 		.4byte	.LFE271
 4207 0040 00000000 		.4byte	.LFB272
 4208 0044 22000000 		.4byte	.LFE272
 4209 0048 00000000 		.4byte	.LFB273
 4210 004c 1C000000 		.4byte	.LFE273
 4211 0050 00000000 		.4byte	.LFB274
 4212 0054 16000000 		.4byte	.LFE274
 4213 0058 00000000 		.4byte	.LFB275
 4214 005c 1E000000 		.4byte	.LFE275
 4215 0060 00000000 		.4byte	.LFB276
 4216 0064 20000000 		.4byte	.LFE276
 4217 0068 00000000 		.4byte	.LFB277
 4218 006c 14000000 		.4byte	.LFE277
 4219 0070 00000000 		.4byte	.LFB278
 4220 0074 14000000 		.4byte	.LFE278
 4221 0078 00000000 		.4byte	.LFB279
 4222 007c 14000000 		.4byte	.LFE279
 4223 0080 00000000 		.4byte	.LFB280
 4224 0084 14000000 		.4byte	.LFE280
 4225 0088 00000000 		.4byte	0
 4226 008c 00000000 		.4byte	0
 4227              		.section	.debug_line,"",%progbits
 4228              	.Ldebug_line0:
 4229 0000 2E040000 		.section	.debug_str,"MS",%progbits,1
 4229      0200BD02 
 4229      00000201 
 4229      FB0E0D00 
 4229      01010101 
 4230              	.LASF126:
 4231 0000 70776D63 		.ascii	"pwmchannel_t\000"
 4231      68616E6E 
 4231      656C5F74 
 4231      00
 4232              	.LASF52:
 4233 000d 72656164 		.ascii	"ready_list_t\000"
 4233      795F6C69 
 4233      73745F74 
 4233      00
 4234              	.LASF78:
 4235 001a 44494552 		.ascii	"DIER\000"
 4235      00
 4236              	.LASF104:
 4237 001f 77747472 		.ascii	"wttrp\000"
 4237      7000
 4238              	.LASF48:
 4239 0025 6E657874 		.ascii	"next\000"
 4239      00
 4240              	.LASF58:
 4241 002a 64656C74 		.ascii	"delta\000"
 4241      6100
 4242              	.LASF102:
 4243 0030 7264796D 		.ascii	"rdymsg\000"
 4243      736700
 4244              	.LASF18:
 4245 0037 75696E74 		.ascii	"uint64_t\000"
ARM GAS  /tmp/ccQyeFPN.s 			page 76


 4245      36345F74 
 4245      00
 4246              	.LASF4:
 4247 0040 5F5F7569 		.ascii	"__uint8_t\000"
 4247      6E74385F 
 4247      7400
 4248              	.LASF51:
 4249 004a 70726576 		.ascii	"prev\000"
 4249      00
 4250              	.LASF76:
 4251 004f 706F7274 		.ascii	"port_intctx\000"
 4251      5F696E74 
 4251      63747800 
 4252              	.LASF50:
 4253 005b 63685F74 		.ascii	"ch_threads_queue\000"
 4253      68726561 
 4253      64735F71 
 4253      75657565 
 4253      00
 4254              	.LASF63:
 4255 006c 73797374 		.ascii	"system_debug_t\000"
 4255      656D5F64 
 4255      65627567 
 4255      5F7400
 4256              	.LASF92:
 4257 007b 74797065 		.ascii	"type\000"
 4257      00
 4258              	.LASF135:
 4259 0080 706F7274 		.ascii	"port_lock\000"
 4259      5F6C6F63 
 4259      6B00
 4260              	.LASF120:
 4261 008a 70657269 		.ascii	"period\000"
 4261      6F6400
 4262              	.LASF165:
 4263 0091 474E5520 		.ascii	"GNU C 4.8.2 -mcpu=cortex-m4 -mno-thumb-interwork -m"
 4263      4320342E 
 4263      382E3220 
 4263      2D6D6370 
 4263      753D636F 
 4264 00c4 7468756D 		.ascii	"thumb -ggdb -O2 -fomit-frame-pointer -falign-functi"
 4264      62202D67 
 4264      67646220 
 4264      2D4F3220 
 4264      2D666F6D 
 4265 00f7 6F6E733D 		.ascii	"ons=16 -ffunction-sections -fdata-sections -fno-com"
 4265      3136202D 
 4265      6666756E 
 4265      6374696F 
 4265      6E2D7365 
 4266 012a 6D6F6E00 		.ascii	"mon\000"
 4267              	.LASF13:
 4268 012e 6C6F6E67 		.ascii	"long long unsigned int\000"
 4268      206C6F6E 
 4268      6720756E 
 4268      7369676E 
 4268      65642069 
ARM GAS  /tmp/ccQyeFPN.s 			page 77


 4269              	.LASF99:
 4270 0145 63685F74 		.ascii	"ch_trace_buffer_t\000"
 4270      72616365 
 4270      5F627566 
 4270      6665725F 
 4270      7400
 4271              	.LASF103:
 4272 0157 65786974 		.ascii	"exitcode\000"
 4272      636F6465 
 4272      00
 4273              	.LASF71:
 4274 0160 6D61696E 		.ascii	"mainthread\000"
 4274      74687265 
 4274      616400
 4275              	.LASF105:
 4276 016b 73656E74 		.ascii	"sentmsg\000"
 4276      6D736700 
 4277              	.LASF60:
 4278 0173 76697274 		.ascii	"virtual_timers_list_t\000"
 4278      75616C5F 
 4278      74696D65 
 4278      72735F6C 
 4278      6973745F 
 4279              	.LASF161:
 4280 0189 70776D5F 		.ascii	"pwm_lld_disable_channel\000"
 4280      6C6C645F 
 4280      64697361 
 4280      626C655F 
 4280      6368616E 
 4281              	.LASF59:
 4282 01a1 66756E63 		.ascii	"func\000"
 4282      00
 4283              	.LASF82:
 4284 01a6 42445452 		.ascii	"BDTR\000"
 4284      00
 4285              	.LASF132:
 4286 01ab 66726571 		.ascii	"frequency\000"
 4286      75656E63 
 4286      7900
 4287              	.LASF160:
 4288 01b5 70776D5F 		.ascii	"pwm_lld_enable_channel\000"
 4288      6C6C645F 
 4288      656E6162 
 4288      6C655F63 
 4288      68616E6E 
 4289              	.LASF144:
 4290 01cc 70776D53 		.ascii	"pwmStart\000"
 4290      74617274 
 4290      00
 4291              	.LASF79:
 4292 01d5 43434D52 		.ascii	"CCMR1\000"
 4292      3100
 4293              	.LASF80:
 4294 01db 43434D52 		.ascii	"CCMR2\000"
 4294      3200
 4295              	.LASF84:
 4296 01e1 43434D52 		.ascii	"CCMR3\000"
ARM GAS  /tmp/ccQyeFPN.s 			page 78


 4296      3300
 4297              	.LASF1:
 4298 01e7 7369676E 		.ascii	"signed char\000"
 4298      65642063 
 4298      68617200 
 4299              	.LASF148:
 4300 01f3 70776D43 		.ascii	"pwmChangePeriod\000"
 4300      68616E67 
 4300      65506572 
 4300      696F6400 
 4301              	.LASF125:
 4302 0203 70776D6D 		.ascii	"pwmmode_t\000"
 4302      6F64655F 
 4302      7400
 4303              	.LASF70:
 4304 020d 76746C69 		.ascii	"vtlist\000"
 4304      737400
 4305              	.LASF136:
 4306 0214 706F7274 		.ascii	"port_unlock\000"
 4306      5F756E6C 
 4306      6F636B00 
 4307              	.LASF35:
 4308 0220 73746174 		.ascii	"state\000"
 4308      6500
 4309              	.LASF122:
 4310 0226 6368616E 		.ascii	"channels\000"
 4310      6E656C73 
 4310      00
 4311              	.LASF8:
 4312 022f 6C6F6E67 		.ascii	"long int\000"
 4312      20696E74 
 4312      00
 4313              	.LASF158:
 4314 0238 70776D5F 		.ascii	"pwm_lld_start\000"
 4314      6C6C645F 
 4314      73746172 
 4314      7400
 4315              	.LASF164:
 4316 0246 70776D5F 		.ascii	"pwm_lld_enable_channel_notification\000"
 4316      6C6C645F 
 4316      656E6162 
 4316      6C655F63 
 4316      68616E6E 
 4317              	.LASF21:
 4318 026a 74737461 		.ascii	"tstate_t\000"
 4318      74655F74 
 4318      00
 4319              	.LASF95:
 4320 0273 63685F74 		.ascii	"ch_trace_event_t\000"
 4320      72616365 
 4320      5F657665 
 4320      6E745F74 
 4320      00
 4321              	.LASF142:
 4322 0284 70776D49 		.ascii	"pwmInit\000"
 4322      6E697400 
 4323              	.LASF81:
ARM GAS  /tmp/ccQyeFPN.s 			page 79


 4324 028c 43434552 		.ascii	"CCER\000"
 4324      00
 4325              	.LASF11:
 4326 0291 6C6F6E67 		.ascii	"long long int\000"
 4326      206C6F6E 
 4326      6720696E 
 4326      7400
 4327              	.LASF15:
 4328 029f 75696E74 		.ascii	"uint16_t\000"
 4328      31365F74 
 4328      00
 4329              	.LASF124:
 4330 02a8 70776D63 		.ascii	"pwmcallback_t\000"
 4330      616C6C62 
 4330      61636B5F 
 4330      7400
 4331              	.LASF98:
 4332 02b6 62756666 		.ascii	"buffer\000"
 4332      657200
 4333              	.LASF32:
 4334 02bd 6F6C6465 		.ascii	"older\000"
 4334      7200
 4335              	.LASF9:
 4336 02c3 5F5F7569 		.ascii	"__uint32_t\000"
 4336      6E743332 
 4336      5F7400
 4337              	.LASF154:
 4338 02ce 70776D44 		.ascii	"pwmDisablePeriodicNotification\000"
 4338      69736162 
 4338      6C655065 
 4338      72696F64 
 4338      69634E6F 
 4339              	.LASF73:
 4340 02ed 72656761 		.ascii	"regarm_t\000"
 4340      726D5F74 
 4340      00
 4341              	.LASF38:
 4342 02f6 77616974 		.ascii	"waiting\000"
 4342      696E6700 
 4343              	.LASF140:
 4344 02fe 6F73616C 		.ascii	"osalSysLock\000"
 4344      5379734C 
 4344      6F636B00 
 4345              	.LASF112:
 4346 030a 6D757465 		.ascii	"mutex_t\000"
 4346      785F7400 
 4347              	.LASF168:
 4348 0312 76616C75 		.ascii	"value\000"
 4348      6500
 4349              	.LASF162:
 4350 0318 70776D5F 		.ascii	"pwm_lld_enable_periodic_notification\000"
 4350      6C6C645F 
 4350      656E6162 
 4350      6C655F70 
 4350      6572696F 
 4351              	.LASF26:
 4352 033d 636E745F 		.ascii	"cnt_t\000"
ARM GAS  /tmp/ccQyeFPN.s 			page 80


 4352      7400
 4353              	.LASF39:
 4354 0343 6D736771 		.ascii	"msgqueue\000"
 4354      75657565 
 4354      00
 4355              	.LASF0:
 4356 034c 756E7369 		.ascii	"unsigned int\000"
 4356      676E6564 
 4356      20696E74 
 4356      00
 4357              	.LASF155:
 4358 0359 70776D45 		.ascii	"pwmEnableChannelNotification\000"
 4358      6E61626C 
 4358      65436861 
 4358      6E6E656C 
 4358      4E6F7469 
 4359              	.LASF167:
 4360 0376 2F686F6D 		.ascii	"/home/johnnyco/Documentos/Embebidos/Chibios Johnny/"
 4360      652F6A6F 
 4360      686E6E79 
 4360      636F2F44 
 4360      6F63756D 
 4361 03a9 43686962 		.ascii	"ChibiOS-Contrib/testhal/STM32/STM32F4xx/1WIRE + RTC"
 4361      694F532D 
 4361      436F6E74 
 4361      7269622F 
 4361      74657374 
 4362 03dc 202B2055 		.ascii	" + UART + PWM + ADC 1.0\000"
 4362      41525420 
 4362      2B205057 
 4362      4D202B20 
 4362      41444320 
 4363              	.LASF106:
 4364 03f4 77747365 		.ascii	"wtsemp\000"
 4364      6D7000
 4365              	.LASF10:
 4366 03fb 6C6F6E67 		.ascii	"long unsigned int\000"
 4366      20756E73 
 4366      69676E65 
 4366      6420696E 
 4366      7400
 4367              	.LASF46:
 4368 040d 63685F74 		.ascii	"ch_thread\000"
 4368      68726561 
 4368      6400
 4369              	.LASF33:
 4370 0417 6E616D65 		.ascii	"name\000"
 4370      00
 4371              	.LASF29:
 4372 041c 71756575 		.ascii	"queue\000"
 4372      6500
 4373              	.LASF151:
 4374 0422 77696474 		.ascii	"width\000"
 4374      6800
 4375              	.LASF43:
 4376 0428 6D706F6F 		.ascii	"mpool\000"
 4376      6C00
ARM GAS  /tmp/ccQyeFPN.s 			page 81


 4377              	.LASF77:
 4378 042e 534D4352 		.ascii	"SMCR\000"
 4378      00
 4379              	.LASF24:
 4380 0433 6D73675F 		.ascii	"msg_t\000"
 4380      7400
 4381              	.LASF47:
 4382 0439 63685F74 		.ascii	"ch_threads_list\000"
 4382      68726561 
 4382      64735F6C 
 4382      69737400 
 4383              	.LASF40:
 4384 0449 6570656E 		.ascii	"epending\000"
 4384      64696E67 
 4384      00
 4385              	.LASF67:
 4386 0452 63685F73 		.ascii	"ch_system_t\000"
 4386      79737465 
 4386      6D5F7400 
 4387              	.LASF130:
 4388 045e 63616C6C 		.ascii	"callback\000"
 4388      6261636B 
 4388      00
 4389              	.LASF86:
 4390 0467 73746D33 		.ascii	"stm32_tim_t\000"
 4390      325F7469 
 4390      6D5F7400 
 4391              	.LASF53:
 4392 0473 63685F72 		.ascii	"ch_ready_list\000"
 4392      65616479 
 4392      5F6C6973 
 4392      7400
 4393              	.LASF25:
 4394 0481 6576656E 		.ascii	"eventmask_t\000"
 4394      746D6173 
 4394      6B5F7400 
 4395              	.LASF170:
 4396 048d 70776D5F 		.ascii	"pwm_lld_disable_channel_notification\000"
 4396      6C6C645F 
 4396      64697361 
 4396      626C655F 
 4396      6368616E 
 4397              	.LASF7:
 4398 04b2 5F5F696E 		.ascii	"__int32_t\000"
 4398      7433325F 
 4398      7400
 4399              	.LASF145:
 4400 04bc 70776D70 		.ascii	"pwmp\000"
 4400      00
 4401              	.LASF74:
 4402 04c1 73746B61 		.ascii	"stkalign_t\000"
 4402      6C69676E 
 4402      5F7400
 4403              	.LASF31:
 4404 04cc 6E657765 		.ascii	"newer\000"
 4404      7200
 4405              	.LASF93:
ARM GAS  /tmp/ccQyeFPN.s 			page 82


 4406 04d2 72747374 		.ascii	"rtstamp\000"
 4406      616D7000 
 4407              	.LASF42:
 4408 04da 7265616C 		.ascii	"realprio\000"
 4408      7072696F 
 4408      00
 4409              	.LASF146:
 4410 04e3 70776D53 		.ascii	"pwmStop\000"
 4410      746F7000 
 4411              	.LASF72:
 4412 04eb 73697A65 		.ascii	"sizetype\000"
 4412      74797065 
 4412      00
 4413              	.LASF44:
 4414 04f4 74687265 		.ascii	"thread_reference_t\000"
 4414      61645F72 
 4414      65666572 
 4414      656E6365 
 4414      5F7400
 4415              	.LASF61:
 4416 0507 63685F76 		.ascii	"ch_virtual_timers_list\000"
 4416      69727475 
 4416      616C5F74 
 4416      696D6572 
 4416      735F6C69 
 4417              	.LASF96:
 4418 051e 73757370 		.ascii	"suspended\000"
 4418      656E6465 
 4418      6400
 4419              	.LASF166:
 4420 0528 2E2E2F2E 		.ascii	"../../../../../ChibiOS-RT/os/hal/src/hal_pwm.c\000"
 4420      2E2F2E2E 
 4420      2F2E2E2F 
 4420      2E2E2F43 
 4420      68696269 
 4421              	.LASF169:
 4422 0557 70776D5F 		.ascii	"pwm_lld_init\000"
 4422      6C6C645F 
 4422      696E6974 
 4422      00
 4423              	.LASF75:
 4424 0564 706F7274 		.ascii	"port_context\000"
 4424      5F636F6E 
 4424      74657874 
 4424      00
 4425              	.LASF101:
 4426 0571 746D5F63 		.ascii	"tm_calibration_t\000"
 4426      616C6962 
 4426      72617469 
 4426      6F6E5F74 
 4426      00
 4427              	.LASF94:
 4428 0582 74696D65 		.ascii	"time\000"
 4428      00
 4429              	.LASF30:
 4430 0587 7072696F 		.ascii	"prio\000"
 4430      00
ARM GAS  /tmp/ccQyeFPN.s 			page 83


 4431              	.LASF54:
 4432 058c 63757272 		.ascii	"current\000"
 4432      656E7400 
 4433              	.LASF12:
 4434 0594 5F5F7569 		.ascii	"__uint64_t\000"
 4434      6E743634 
 4434      5F7400
 4435              	.LASF163:
 4436 059f 70776D5F 		.ascii	"pwm_lld_disable_periodic_notification\000"
 4436      6C6C645F 
 4436      64697361 
 4436      626C655F 
 4436      70657269 
 4437              	.LASF22:
 4438 05c5 74726566 		.ascii	"trefs_t\000"
 4438      735F7400 
 4439              	.LASF37:
 4440 05cd 72656673 		.ascii	"refs\000"
 4440      00
 4441              	.LASF56:
 4442 05d2 76697274 		.ascii	"virtual_timer_t\000"
 4442      75616C5F 
 4442      74696D65 
 4442      725F7400 
 4443              	.LASF91:
 4444 05e2 75736572 		.ascii	"user\000"
 4444      00
 4445              	.LASF116:
 4446 05e7 50574D5F 		.ascii	"PWM_READY\000"
 4446      52454144 
 4446      5900
 4447              	.LASF23:
 4448 05f1 74707269 		.ascii	"tprio_t\000"
 4448      6F5F7400 
 4449              	.LASF64:
 4450 05f9 63685F73 		.ascii	"ch_system_debug\000"
 4450      79737465 
 4450      6D5F6465 
 4450      62756700 
 4451              	.LASF113:
 4452 0609 5F426F6F 		.ascii	"_Bool\000"
 4452      6C00
 4453              	.LASF16:
 4454 060f 696E7433 		.ascii	"int32_t\000"
 4454      325F7400 
 4455              	.LASF2:
 4456 0617 756E7369 		.ascii	"unsigned char\000"
 4456      676E6564 
 4456      20636861 
 4456      7200
 4457              	.LASF157:
 4458 0625 49544D5F 		.ascii	"ITM_RxBuffer\000"
 4458      52784275 
 4458      66666572 
 4458      00
 4459              	.LASF3:
 4460 0632 73686F72 		.ascii	"short int\000"
ARM GAS  /tmp/ccQyeFPN.s 			page 84


 4460      7420696E 
 4460      7400
 4461              	.LASF62:
 4462 063c 6C617374 		.ascii	"lasttime\000"
 4462      74696D65 
 4462      00
 4463              	.LASF90:
 4464 0645 68616C74 		.ascii	"halt\000"
 4464      00
 4465              	.LASF108:
 4466 064a 65776D61 		.ascii	"ewmask\000"
 4466      736B00
 4467              	.LASF68:
 4468 0651 63685F73 		.ascii	"ch_system\000"
 4468      79737465 
 4468      6D00
 4469              	.LASF127:
 4470 065b 70776D63 		.ascii	"pwmchnmsk_t\000"
 4470      686E6D73 
 4470      6B5F7400 
 4471              	.LASF147:
 4472 0667 5F5F6675 		.ascii	"__func__\000"
 4472      6E635F5F 
 4472      00
 4473              	.LASF137:
 4474 0670 63685379 		.ascii	"chSysLock\000"
 4474      734C6F63 
 4474      6B00
 4475              	.LASF141:
 4476 067a 6F73616C 		.ascii	"osalSysUnlock\000"
 4476      53797355 
 4476      6E6C6F63 
 4476      6B00
 4477              	.LASF89:
 4478 0688 72656173 		.ascii	"reason\000"
 4478      6F6E00
 4479              	.LASF150:
 4480 068f 6368616E 		.ascii	"channel\000"
 4480      6E656C00 
 4481              	.LASF57:
 4482 0697 63685F76 		.ascii	"ch_virtual_timer\000"
 4482      69727475 
 4482      616C5F74 
 4482      696D6572 
 4482      00
 4483              	.LASF109:
 4484 06a8 63685F73 		.ascii	"ch_semaphore\000"
 4484      656D6170 
 4484      686F7265 
 4484      00
 4485              	.LASF85:
 4486 06b5 43435852 		.ascii	"CCXR\000"
 4486      00
 4487              	.LASF159:
 4488 06ba 70776D5F 		.ascii	"pwm_lld_stop\000"
 4488      6C6C645F 
 4488      73746F70 
ARM GAS  /tmp/ccQyeFPN.s 			page 85


 4488      00
 4489              	.LASF17:
 4490 06c7 75696E74 		.ascii	"uint32_t\000"
 4490      33325F74 
 4490      00
 4491              	.LASF107:
 4492 06d0 77746D74 		.ascii	"wtmtxp\000"
 4492      787000
 4493              	.LASF121:
 4494 06d7 656E6162 		.ascii	"enabled\000"
 4494      6C656400 
 4495              	.LASF111:
 4496 06df 6F776E65 		.ascii	"owner\000"
 4496      7200
 4497              	.LASF34:
 4498 06e5 77616261 		.ascii	"wabase\000"
 4498      736500
 4499              	.LASF115:
 4500 06ec 50574D5F 		.ascii	"PWM_STOP\000"
 4500      53544F50 
 4500      00
 4501              	.LASF88:
 4502 06f5 63686172 		.ascii	"char\000"
 4502      00
 4503              	.LASF5:
 4504 06fa 5F5F7569 		.ascii	"__uint16_t\000"
 4504      6E743136 
 4504      5F7400
 4505              	.LASF129:
 4506 0705 6D6F6465 		.ascii	"mode\000"
 4506      00
 4507              	.LASF152:
 4508 070a 70776D44 		.ascii	"pwmDisableChannel\000"
 4508      69736162 
 4508      6C654368 
 4508      616E6E65 
 4508      6C00
 4509              	.LASF119:
 4510 071c 636F6E66 		.ascii	"config\000"
 4510      696700
 4511              	.LASF83:
 4512 0723 444D4152 		.ascii	"DMAR\000"
 4512      00
 4513              	.LASF28:
 4514 0728 74687265 		.ascii	"thread_t\000"
 4514      61645F74 
 4514      00
 4515              	.LASF27:
 4516 0731 73797374 		.ascii	"systime_t\000"
 4516      696D655F 
 4516      7400
 4517              	.LASF55:
 4518 073b 76746675 		.ascii	"vtfunc_t\000"
 4518      6E635F74 
 4518      00
 4519              	.LASF138:
 4520 0744 5F5F7365 		.ascii	"__set_BASEPRI\000"
ARM GAS  /tmp/ccQyeFPN.s 			page 86


 4520      745F4241 
 4520      53455052 
 4520      4900
 4521              	.LASF153:
 4522 0752 70776D45 		.ascii	"pwmEnablePeriodicNotification\000"
 4522      6E61626C 
 4522      65506572 
 4522      696F6469 
 4522      634E6F74 
 4523              	.LASF65:
 4524 0770 70616E69 		.ascii	"panic_msg\000"
 4524      635F6D73 
 4524      6700
 4525              	.LASF143:
 4526 077a 70776D4F 		.ascii	"pwmObjectInit\000"
 4526      626A6563 
 4526      74496E69 
 4526      7400
 4527              	.LASF100:
 4528 0788 6F666673 		.ascii	"offset\000"
 4528      657400
 4529              	.LASF6:
 4530 078f 73686F72 		.ascii	"short unsigned int\000"
 4530      7420756E 
 4530      7369676E 
 4530      65642069 
 4530      6E7400
 4531              	.LASF131:
 4532 07a2 50574D43 		.ascii	"PWMChannelConfig\000"
 4532      68616E6E 
 4532      656C436F 
 4532      6E666967 
 4532      00
 4533              	.LASF19:
 4534 07b3 7274636E 		.ascii	"rtcnt_t\000"
 4534      745F7400 
 4535              	.LASF134:
 4536 07bb 50574D43 		.ascii	"PWMConfig\000"
 4536      6F6E6669 
 4536      6700
 4537              	.LASF49:
 4538 07c5 74687265 		.ascii	"threads_queue_t\000"
 4538      6164735F 
 4538      71756575 
 4538      655F7400 
 4539              	.LASF110:
 4540 07d5 63685F6D 		.ascii	"ch_mutex\000"
 4540      75746578 
 4540      00
 4541              	.LASF69:
 4542 07de 726C6973 		.ascii	"rlist\000"
 4542      7400
 4543              	.LASF14:
 4544 07e4 75696E74 		.ascii	"uint8_t\000"
 4544      385F7400 
 4545              	.LASF156:
 4546 07ec 70776D44 		.ascii	"pwmDisableChannelNotification\000"
ARM GAS  /tmp/ccQyeFPN.s 			page 87


 4546      69736162 
 4546      6C654368 
 4546      616E6E65 
 4546      6C4E6F74 
 4547              	.LASF118:
 4548 080a 50574D44 		.ascii	"PWMDriver\000"
 4548      72697665 
 4548      7200
 4549              	.LASF36:
 4550 0814 666C6167 		.ascii	"flags\000"
 4550      7300
 4551              	.LASF117:
 4552 081a 70776D73 		.ascii	"pwmstate_t\000"
 4552      74617465 
 4552      5F7400
 4553              	.LASF128:
 4554 0825 70776D63 		.ascii	"pwmcnt_t\000"
 4554      6E745F74 
 4554      00
 4555              	.LASF87:
 4556 082e 77746F62 		.ascii	"wtobjp\000"
 4556      6A7000
 4557              	.LASF97:
 4558 0835 73697A65 		.ascii	"size\000"
 4558      00
 4559              	.LASF45:
 4560 083a 74687265 		.ascii	"threads_list_t\000"
 4560      6164735F 
 4560      6C697374 
 4560      5F7400
 4561              	.LASF20:
 4562 0849 746D6F64 		.ascii	"tmode_t\000"
 4562      655F7400 
 4563              	.LASF66:
 4564 0851 74726163 		.ascii	"trace_buffer\000"
 4564      655F6275 
 4564      66666572 
 4564      00
 4565              	.LASF139:
 4566 085e 63685379 		.ascii	"chSysUnlock\000"
 4566      73556E6C 
 4566      6F636B00 
 4567              	.LASF123:
 4568 086a 636C6F63 		.ascii	"clock\000"
 4568      6B00
 4569              	.LASF41:
 4570 0870 6D74786C 		.ascii	"mtxlist\000"
 4570      69737400 
 4571              	.LASF114:
 4572 0878 50574D5F 		.ascii	"PWM_UNINIT\000"
 4572      554E494E 
 4572      495400
 4573              	.LASF149:
 4574 0883 70776D45 		.ascii	"pwmEnableChannel\000"
 4574      6E61626C 
 4574      65436861 
 4574      6E6E656C 
ARM GAS  /tmp/ccQyeFPN.s 			page 88


 4574      00
 4575              	.LASF133:
 4576 0894 64696572 		.ascii	"dier\000"
 4576      00
 4577              		.ident	"GCC: (4.8.2-14ubuntu1+6) 4.8.2"
ARM GAS  /tmp/ccQyeFPN.s 			page 89


DEFINED SYMBOLS
                            *ABS*:0000000000000000 hal_pwm.c
     /tmp/ccQyeFPN.s:19     .text.pwmInit:0000000000000000 $t
     /tmp/ccQyeFPN.s:25     .text.pwmInit:0000000000000000 pwmInit
     /tmp/ccQyeFPN.s:40     .text.pwmObjectInit:0000000000000000 $t
     /tmp/ccQyeFPN.s:46     .text.pwmObjectInit:0000000000000000 pwmObjectInit
     /tmp/ccQyeFPN.s:70     .text.pwmStart:0000000000000000 $t
     /tmp/ccQyeFPN.s:76     .text.pwmStart:0000000000000000 pwmStart
     /tmp/ccQyeFPN.s:157    .text.pwmStop:0000000000000000 $t
     /tmp/ccQyeFPN.s:163    .text.pwmStop:0000000000000000 pwmStop
     /tmp/ccQyeFPN.s:237    .text.pwmChangePeriod:0000000000000000 $t
     /tmp/ccQyeFPN.s:243    .text.pwmChangePeriod:0000000000000000 pwmChangePeriod
     /tmp/ccQyeFPN.s:297    .text.pwmEnableChannel:0000000000000000 $t
     /tmp/ccQyeFPN.s:303    .text.pwmEnableChannel:0000000000000000 pwmEnableChannel
     /tmp/ccQyeFPN.s:361    .text.pwmDisableChannel:0000000000000000 $t
     /tmp/ccQyeFPN.s:367    .text.pwmDisableChannel:0000000000000000 pwmDisableChannel
     /tmp/ccQyeFPN.s:425    .text.pwmEnablePeriodicNotification:0000000000000000 $t
     /tmp/ccQyeFPN.s:431    .text.pwmEnablePeriodicNotification:0000000000000000 pwmEnablePeriodicNotification
     /tmp/ccQyeFPN.s:484    .text.pwmDisablePeriodicNotification:0000000000000000 $t
     /tmp/ccQyeFPN.s:490    .text.pwmDisablePeriodicNotification:0000000000000000 pwmDisablePeriodicNotification
     /tmp/ccQyeFPN.s:543    .text.pwmEnableChannelNotification:0000000000000000 $t
     /tmp/ccQyeFPN.s:549    .text.pwmEnableChannelNotification:0000000000000000 pwmEnableChannelNotification
     /tmp/ccQyeFPN.s:602    .text.pwmDisableChannelNotification:0000000000000000 $t
     /tmp/ccQyeFPN.s:608    .text.pwmDisableChannelNotification:0000000000000000 pwmDisableChannelNotification
                     .debug_frame:0000000000000010 $d

UNDEFINED SYMBOLS
pwm_lld_init
pwm_lld_start
pwm_lld_stop
pwm_lld_enable_channel
pwm_lld_disable_channel
pwm_lld_enable_periodic_notification
pwm_lld_disable_periodic_notification
pwm_lld_enable_channel_notification
pwm_lld_disable_channel_notification
