ARM GAS  /tmp/ccoswKWT.s 			page 1


   1              		.syntax unified
   2              		.cpu cortex-m4
   3              		.fpu softvfp
   4              		.eabi_attribute 20, 1
   5              		.eabi_attribute 21, 1
   6              		.eabi_attribute 23, 3
   7              		.eabi_attribute 24, 1
   8              		.eabi_attribute 25, 1
   9              		.eabi_attribute 26, 1
  10              		.eabi_attribute 30, 2
  11              		.eabi_attribute 34, 1
  12              		.eabi_attribute 18, 4
  13              		.thumb
  14              		.file	"hal_st.c"
  15              		.text
  16              	.Ltext0:
  17              		.cfi_sections	.debug_frame
  18              		.section	.text.stInit,"ax",%progbits
  19              		.align	2
  20              		.p2align 4,,15
  21              		.global	stInit
  22              		.thumb
  23              		.thumb_func
  24              		.type	stInit, %function
  25              	stInit:
  26              	.LFB270:
  27              		.file 1 "../../../../../ChibiOS-RT/os/hal/src/hal_st.c"
  28              		.loc 1 60 0
  29              		.cfi_startproc
  30              		@ args = 0, pretend = 0, frame = 0
  31              		@ frame_needed = 0, uses_anonymous_args = 0
  32              		@ link register save eliminated.
  33              		.loc 1 62 0
  34 0000 FFF7FEBF 		b	st_lld_init
  35              	.LVL0:
  36              		.cfi_endproc
  37              	.LFE270:
  38              		.size	stInit, .-stInit
  39 0004 AFF30080 		.section	.text.stStartAlarm,"ax",%progbits
  39      AFF30080 
  39      AFF30080 
  40              		.align	2
  41              		.p2align 4,,15
  42              		.global	stStartAlarm
  43              		.thumb
  44              		.thumb_func
  45              		.type	stStartAlarm, %function
  46              	stStartAlarm:
  47              	.LFB271:
  48              		.loc 1 77 0
  49              		.cfi_startproc
  50              		@ args = 0, pretend = 0, frame = 0
  51              		@ frame_needed = 0, uses_anonymous_args = 0
  52              		@ link register save eliminated.
  53              	.LVL1:
  54              	.LBB10:
  55              	.LBB11:
ARM GAS  /tmp/ccoswKWT.s 			page 2


  56              		.file 2 "../../../../../ChibiOS-RT/os/hal/ports/STM32/LLD/TIMv1/hal_st_lld.h"
  57              		.loc 2 155 0
  58 0000 4FF08043 		mov	r3, #1073741824
  59              	.LVL2:
  60              		.loc 2 156 0
  61 0004 0021     		movs	r1, #0
  62              		.loc 2 157 0
  63 0006 0222     		movs	r2, #2
  64              		.loc 2 155 0
  65 0008 5863     		str	r0, [r3, #52]
  66              		.loc 2 156 0
  67 000a 1961     		str	r1, [r3, #16]
  68              		.loc 2 157 0
  69 000c DA60     		str	r2, [r3, #12]
  70 000e 7047     		bx	lr
  71              	.LBE11:
  72              	.LBE10:
  73              		.cfi_endproc
  74              	.LFE271:
  75              		.size	stStartAlarm, .-stStartAlarm
  76              		.section	.text.stStopAlarm,"ax",%progbits
  77              		.align	2
  78              		.p2align 4,,15
  79              		.global	stStopAlarm
  80              		.thumb
  81              		.thumb_func
  82              		.type	stStopAlarm, %function
  83              	stStopAlarm:
  84              	.LFB272:
  85              		.loc 1 91 0
  86              		.cfi_startproc
  87              		@ args = 0, pretend = 0, frame = 0
  88              		@ frame_needed = 0, uses_anonymous_args = 0
  89              		@ link register save eliminated.
  90              	.LBB12:
  91              	.LBB13:
  92              		.loc 2 167 0
  93 0000 4FF08043 		mov	r3, #1073741824
  94 0004 0022     		movs	r2, #0
  95 0006 DA60     		str	r2, [r3, #12]
  96 0008 7047     		bx	lr
  97              	.LBE13:
  98              	.LBE12:
  99              		.cfi_endproc
 100              	.LFE272:
 101              		.size	stStopAlarm, .-stStopAlarm
 102              		.section	.text.stSetAlarm,"ax",%progbits
 103              		.align	2
 104              		.p2align 4,,15
 105              		.global	stSetAlarm
 106              		.thumb
 107              		.thumb_func
 108              		.type	stSetAlarm, %function
 109              	stSetAlarm:
 110              	.LFB273:
 111              		.loc 1 105 0
 112              		.cfi_startproc
ARM GAS  /tmp/ccoswKWT.s 			page 3


 113              		@ args = 0, pretend = 0, frame = 0
 114              		@ frame_needed = 0, uses_anonymous_args = 0
 115              		@ link register save eliminated.
 116              	.LVL3:
 117              	.LBB14:
 118              	.LBB15:
 119              		.loc 2 179 0
 120 0000 4FF08043 		mov	r3, #1073741824
 121              	.LVL4:
 122 0004 5863     		str	r0, [r3, #52]
 123 0006 7047     		bx	lr
 124              	.LBE15:
 125              	.LBE14:
 126              		.cfi_endproc
 127              	.LFE273:
 128              		.size	stSetAlarm, .-stSetAlarm
 129 0008 AFF30080 		.section	.text.stGetAlarm,"ax",%progbits
 129      AFF30080 
 130              		.align	2
 131              		.p2align 4,,15
 132              		.global	stGetAlarm
 133              		.thumb
 134              		.thumb_func
 135              		.type	stGetAlarm, %function
 136              	stGetAlarm:
 137              	.LFB274:
 138              		.loc 1 121 0
 139              		.cfi_startproc
 140              		@ args = 0, pretend = 0, frame = 0
 141              		@ frame_needed = 0, uses_anonymous_args = 0
 142              		@ link register save eliminated.
 143              	.LBB16:
 144              	.LBB17:
 145              		.loc 2 191 0
 146 0000 4FF08043 		mov	r3, #1073741824
 147 0004 586B     		ldr	r0, [r3, #52]
 148              	.LBE17:
 149              	.LBE16:
 150              		.loc 1 126 0
 151 0006 7047     		bx	lr
 152              		.cfi_endproc
 153              	.LFE274:
 154              		.size	stGetAlarm, .-stGetAlarm
 155 0008 AFF30080 		.text
 155      AFF30080 
 156              	.Letext0:
 157              		.file 3 "/usr/include/newlib/machine/_default_types.h"
 158              		.file 4 "/usr/include/newlib/stdint.h"
 159              		.file 5 "../../../../../ChibiOS-RT/os/common/ports/ARMCMx/compilers/GCC/chtypes.h"
 160              		.file 6 "../../../../../ChibiOS-RT/os/rt/include/chsystypes.h"
 161              		.file 7 "../../../../../ChibiOS-RT/os/rt/include/chschd.h"
 162              		.file 8 "../../../../../ChibiOS-RT/os/common/ports/ARMCMx/chcore.h"
 163              		.file 9 "../../../../../ChibiOS-RT/os/common/ports/ARMCMx/chcore_v7m.h"
 164              		.file 10 "../../../../../ChibiOS-RT/os/hal/ports/STM32/LLD/TIMv1/stm32_tim.h"
 165              		.file 11 "../../../../../ChibiOS-RT/os/rt/include/chtrace.h"
 166              		.file 12 "../../../../../ChibiOS-RT/os/rt/include/chtm.h"
 167              		.file 13 "../../../../../ChibiOS-RT/os/rt/include/chsem.h"
ARM GAS  /tmp/ccoswKWT.s 			page 4


 168              		.file 14 "../../../../../ChibiOS-RT/os/rt/include/chmtx.h"
 169              		.file 15 "../../../../../ChibiOS-RT/os/common/ext/CMSIS/include/core_cm4.h"