ARM GAS  /tmp/cc2F28k2.s 			page 1


   1              		.syntax unified
   2              		.cpu cortex-m4
   3              		.fpu softvfp
   4              		.eabi_attribute 20, 1
   5              		.eabi_attribute 21, 1
   6              		.eabi_attribute 23, 3
   7              		.eabi_attribute 24, 1
   8              		.eabi_attribute 25, 1
   9              		.eabi_attribute 26, 1
  10              		.eabi_attribute 30, 2
  11              		.eabi_attribute 34, 1
  12              		.eabi_attribute 18, 4
  13              		.thumb
  14              		.file	"hal_buffers.c"
  15              		.text
  16              	.Ltext0:
  17              		.cfi_sections	.debug_frame
  18              		.section	.text.ibqObjectInit,"ax",%progbits
  19              		.align	2
  20              		.p2align 4,,15
  21              		.global	ibqObjectInit
  22              		.thumb
  23              		.thumb_func
  24              		.type	ibqObjectInit, %function
  25              	ibqObjectInit:
  26              	.LFB270:
  27              		.file 1 "../../../../../ChibiOS-RT/os/hal/src/hal_buffers.c"
  28              		.loc 1 77 0
  29              		.cfi_startproc
  30              		@ args = 8, pretend = 0, frame = 0
  31              		@ frame_needed = 0, uses_anonymous_args = 0
  32              		@ link register save eliminated.
  33              	.LVL0:
  34 0000 F0B4     		push	{r4, r5, r6, r7}
  35              		.cfi_def_cfa_offset 16
  36              		.cfi_offset 4, -16
  37              		.cfi_offset 5, -12
  38              		.cfi_offset 6, -8
  39              		.cfi_offset 7, -4
  40              		.loc 1 85 0
  41 0002 0432     		adds	r2, r2, #4
  42              	.LVL1:
  43              		.loc 1 77 0
  44 0004 049E     		ldr	r6, [sp, #16]
  45 0006 059D     		ldr	r5, [sp, #20]
  46              		.loc 1 91 0
  47 0008 C662     		str	r6, [r0, #44]
  48              		.loc 1 82 0
  49 000a 0024     		movs	r4, #0
  50              		.loc 1 85 0
  51 000c 03FB0217 		mla	r7, r3, r2, r1
  52 0010 4761     		str	r7, [r0, #20]
  53              		.loc 1 92 0
  54 0012 0563     		str	r5, [r0, #48]
  55              		.loc 1 82 0
  56 0014 8460     		str	r4, [r0, #8]
  57              		.loc 1 89 0
ARM GAS  /tmp/cc2F28k2.s 			page 2


  58 0016 4462     		str	r4, [r0, #36]
  59              		.loc 1 90 0
  60 0018 8462     		str	r4, [r0, #40]
  61              	.LBB273:
  62              	.LBB274:
  63              	.LBB275:
  64              	.LBB276:
  65              		.file 2 "../../../../../ChibiOS-RT/os/rt/include/chschd.h"
  66              		.loc 2 550 0
  67 001a 0060     		str	r0, [r0]
  68              		.loc 2 551 0
  69 001c 4060     		str	r0, [r0, #4]
  70              	.LBE276:
  71              	.LBE275:
  72              	.LBE274:
  73              	.LBE273:
  74              		.loc 1 83 0
  75 001e 0161     		str	r1, [r0, #16]
  76              		.loc 1 84 0
  77 0020 C160     		str	r1, [r0, #12]
  78              		.loc 1 86 0
  79 0022 8261     		str	r2, [r0, #24]
  80              		.loc 1 87 0
  81 0024 C361     		str	r3, [r0, #28]
  82              		.loc 1 88 0
  83 0026 0162     		str	r1, [r0, #32]
  84              		.loc 1 93 0
  85 0028 F0BC     		pop	{r4, r5, r6, r7}
  86              	.LVL2:
  87 002a 7047     		bx	lr
  88              		.cfi_endproc
  89              	.LFE270:
  90              		.size	ibqObjectInit, .-ibqObjectInit
  91 002c AFF30080 		.section	.text.ibqResetI,"ax",%progbits
  92              		.align	2
  93              		.p2align 4,,15
  94              		.global	ibqResetI
  95              		.thumb
  96              		.thumb_func
  97              		.type	ibqResetI, %function
  98              	ibqResetI:
  99              	.LFB271:
 100              		.loc 1 106 0
 101              		.cfi_startproc
 102              		@ args = 0, pretend = 0, frame = 0
 103              		@ frame_needed = 0, uses_anonymous_args = 0
 104              		@ link register save eliminated.
 105              	.LVL3:
 106              		.loc 1 111 0
 107 0000 016A     		ldr	r1, [r0, #32]
 108              		.loc 1 110 0
 109 0002 0022     		movs	r2, #0
 110              		.loc 1 111 0
 111 0004 0161     		str	r1, [r0, #16]
 112              		.loc 1 112 0
 113 0006 C160     		str	r1, [r0, #12]
 114              		.loc 1 110 0
ARM GAS  /tmp/cc2F28k2.s 			page 3


 115 0008 8260     		str	r2, [r0, #8]
 116              		.loc 1 113 0
 117 000a 4262     		str	r2, [r0, #36]
 118              		.loc 1 114 0
 119 000c 8262     		str	r2, [r0, #40]
 120              	.LVL4:
 121              	.LBB277:
 122              	.LBB278:
 123              		.file 3 "../../../../../ChibiOS-RT/os/hal/osal/rt/osal.h"
 124              		.loc 3 810 0
 125 000e 6FF00101 		mvn	r1, #1
 126 0012 FFF7FEBF 		b	chThdDequeueAllI
 127              	.LVL5:
 128              	.LBE278:
 129              	.LBE277:
 130              		.cfi_endproc
 131              	.LFE271:
 132              		.size	ibqResetI, .-ibqResetI
 133 0016 00BFAFF3 		.section	.text.ibqGetEmptyBufferI,"ax",%progbits
 133      0080AFF3 
 133      0080
 134              		.align	2
 135              		.p2align 4,,15
 136              		.global	ibqGetEmptyBufferI
 137              		.thumb
 138              		.thumb_func
 139              		.type	ibqGetEmptyBufferI, %function
 140              	ibqGetEmptyBufferI:
 141              	.LFB272:
 142              		.loc 1 128 0
 143              		.cfi_startproc
 144              		@ args = 0, pretend = 0, frame = 0
 145              		@ frame_needed = 0, uses_anonymous_args = 0
 146              		@ link register save eliminated.
 147              	.LVL6:
 148              		.loc 1 132 0
 149 0000 C368     		ldr	r3, [r0, #12]
 150 0002 0269     		ldr	r2, [r0, #16]
 151 0004 9342     		cmp	r3, r2
 152 0006 01D0     		beq	.L11
 153              	.L4:
 154              		.loc 1 136 0
 155 0008 181D     		adds	r0, r3, #4
 156              	.LVL7:
 157              		.loc 1 137 0
 158 000a 7047     		bx	lr
 159              	.LVL8:
 160              	.L11:
 161              		.loc 1 132 0 discriminator 1
 162 000c 8268     		ldr	r2, [r0, #8]
 163 000e 002A     		cmp	r2, #0
 164 0010 FAD0     		beq	.L4
 165              		.loc 1 133 0
 166 0012 0020     		movs	r0, #0
 167              	.LVL9:
 168 0014 7047     		bx	lr
 169              		.cfi_endproc
ARM GAS  /tmp/cc2F28k2.s 			page 4


 170              	.LFE272:
 171              		.size	ibqGetEmptyBufferI, .-ibqGetEmptyBufferI
 172 0016 00BFAFF3 		.section	.text.ibqPostFullBufferI,"ax",%progbits
 172      0080AFF3 
 172      0080
 173              		.align	2
 174              		.p2align 4,,15
 175              		.global	ibqPostFullBufferI
 176              		.thumb
 177              		.thumb_func
 178              		.type	ibqPostFullBufferI, %function
 179              	ibqPostFullBufferI:
 180              	.LFB273:
 181              		.loc 1 147 0
 182              		.cfi_startproc
 183              		@ args = 0, pretend = 0, frame = 0
 184              		@ frame_needed = 0, uses_anonymous_args = 0
 185              		@ link register save eliminated.
 186              	.LVL10:
 187              		.loc 1 155 0
 188 0000 C368     		ldr	r3, [r0, #12]
 189              		.loc 1 147 0
 190 0002 10B4     		push	{r4}
 191              		.cfi_def_cfa_offset 4
 192              		.cfi_offset 4, -4
 193              		.loc 1 160 0
 194 0004 4469     		ldr	r4, [r0, #20]
 195              		.loc 1 155 0
 196 0006 1960     		str	r1, [r3]
 197              		.loc 1 159 0
 198 0008 8269     		ldr	r2, [r0, #24]
 199              		.loc 1 158 0
 200 000a 8168     		ldr	r1, [r0, #8]
 201              	.LVL11:
 202              		.loc 1 159 0
 203 000c 1344     		add	r3, r3, r2
 204              	.LVL12:
 205              		.loc 1 160 0
 206 000e A342     		cmp	r3, r4
 207              		.loc 1 159 0
 208 0010 C360     		str	r3, [r0, #12]
 209              	.LVL13:
 210              		.loc 1 161 0
 211 0012 28BF     		it	cs
 212 0014 036A     		ldrcs	r3, [r0, #32]
 213              		.loc 1 166 0
 214 0016 5DF8044B 		ldr	r4, [sp], #4
 215              		.loc 1 161 0
 216 001a 28BF     		it	cs
 217 001c C360     		strcs	r3, [r0, #12]
 218              	.LVL14:
 219              		.loc 1 158 0
 220 001e 0131     		adds	r1, r1, #1
 221 0020 8160     		str	r1, [r0, #8]
 222              	.LBB279:
 223              	.LBB280:
 224              		.loc 3 797 0
ARM GAS  /tmp/cc2F28k2.s 			page 5


 225 0022 0021     		movs	r1, #0
 226 0024 FFF7FEBF 		b	chThdDequeueNextI
 227              	.LVL15:
 228              	.LBE280:
 229              	.LBE279:
 230              		.cfi_endproc
 231              	.LFE273:
 232              		.size	ibqPostFullBufferI, .-ibqPostFullBufferI
 233 0028 AFF30080 		.section	.text.ibqGetFullBufferTimeoutS,"ax",%progbits
 233      AFF30080 
 234              		.align	2
 235              		.p2align 4,,15
 236              		.global	ibqGetFullBufferTimeoutS
 237              		.thumb
 238              		.thumb_func
 239              		.type	ibqGetFullBufferTimeoutS, %function
 240              	ibqGetFullBufferTimeoutS:
 241              	.LFB275:
 242              		.loc 1 220 0
 243              		.cfi_startproc
 244              		@ args = 0, pretend = 0, frame = 0
 245              		@ frame_needed = 0, uses_anonymous_args = 0
 246              	.LVL16:
 247 0000 38B5     		push	{r3, r4, r5, lr}
 248              		.cfi_def_cfa_offset 16
 249              		.cfi_offset 3, -16
 250              		.cfi_offset 4, -12
 251              		.cfi_offset 5, -8
 252              		.cfi_offset 14, -4
 253              		.loc 1 220 0
 254 0002 0446     		mov	r4, r0
 255 0004 0D46     		mov	r5, r1
 256              		.loc 1 224 0
 257 0006 03E0     		b	.L15
 258              	.LVL17:
 259              	.L17:
 260              	.LBB289:
 261              	.LBB290:
 262              	.LBB291:
 263              		.loc 3 784 0
 264 0008 FFF7FEFF 		bl	chThdEnqueueTimeoutS
 265              	.LVL18:
 266              	.LBE291:
 267              	.LBE290:
 268              		.loc 1 226 0
 269 000c 0028     		cmp	r0, #0
 270 000e 0BDB     		blt	.L16
 271              	.LVL19:
 272              	.L15:
 273              	.LBE289:
 274              		.loc 1 224 0 discriminator 1
 275 0010 A368     		ldr	r3, [r4, #8]
 276              	.LBB294:
 277              	.LBB293:
 278              	.LBB292:
 279              		.loc 3 784 0 discriminator 1
 280 0012 2046     		mov	r0, r4
ARM GAS  /tmp/cc2F28k2.s 			page 6


 281 0014 2946     		mov	r1, r5
 282              	.LBE292:
 283              	.LBE293:
 284              	.LBE294:
 285              		.loc 1 224 0 discriminator 1
 286 0016 002B     		cmp	r3, #0
 287 0018 F6D0     		beq	.L17
 288              	.LVL20:
 289              	.LBB295:
 290              	.LBB296:
 291              		.loc 1 234 0
 292 001a 2369     		ldr	r3, [r4, #16]
 293              		.loc 1 235 0
 294 001c 1A68     		ldr	r2, [r3]
 295              		.loc 1 234 0
 296 001e 0433     		adds	r3, r3, #4
 297              		.loc 1 235 0
 298 0020 1A44     		add	r2, r2, r3
 299 0022 A262     		str	r2, [r4, #40]
 300              		.loc 1 234 0
 301 0024 6362     		str	r3, [r4, #36]
 302              		.loc 1 235 0
 303 0026 0020     		movs	r0, #0
 304              	.LVL21:
 305              	.L16:
 306              	.LBE296:
 307              	.LBE295:
 308              		.loc 1 238 0
 309 0028 38BD     		pop	{r3, r4, r5, pc}
 310              		.cfi_endproc
 311              	.LFE275:
 312              		.size	ibqGetFullBufferTimeoutS, .-ibqGetFullBufferTimeoutS
 313 002a 00BFAFF3 		.section	.text.ibqGetFullBufferTimeout,"ax",%progbits
 313      0080
 314              		.align	2
 315              		.p2align 4,,15
 316              		.global	ibqGetFullBufferTimeout
 317              		.thumb
 318              		.thumb_func
 319              		.type	ibqGetFullBufferTimeout, %function
 320              	ibqGetFullBufferTimeout:
 321              	.LFB274:
 322              		.loc 1 189 0
 323              		.cfi_startproc
 324              		@ args = 0, pretend = 0, frame = 0
 325              		@ frame_needed = 0, uses_anonymous_args = 0
 326              	.LVL22:
 327 0000 08B5     		push	{r3, lr}
 328              		.cfi_def_cfa_offset 8
 329              		.cfi_offset 3, -8
 330              		.cfi_offset 14, -4
 331              	.LBB297:
 332              	.LBB298:
 333              	.LBB299:
 334              	.LBB300:
 335              	.LBB301:
 336              		.file 4 "../../../../../ChibiOS-RT/os/common/ext/CMSIS/include/cmsis_gcc.h"
ARM GAS  /tmp/cc2F28k2.s 			page 7


 337              		.loc 4 264 0
 338 0002 2023     		movs	r3, #32
 339              	@ 264 "../../../../../ChibiOS-RT/os/common/ext/CMSIS/include/cmsis_gcc.h" 1
 340 0004 83F31188 		MSR basepri, r3
 341              	@ 0 "" 2
 342              		.thumb
 343              	.LBE301:
 344              	.LBE300:
 345              	.LBE299:
 346              	.LBE298:
 347              	.LBE297:
 348              		.loc 1 193 0
 349 0008 FFF7FEFF 		bl	ibqGetFullBufferTimeoutS
 350              	.LVL23:
 351              	.LBB302:
 352              	.LBB303:
 353              	.LBB304:
 354              	.LBB305:
 355              	.LBB306:
 356              	.LBB307:
 357              		.loc 4 264 0
 358 000c 0023     		movs	r3, #0
 359              	@ 264 "../../../../../ChibiOS-RT/os/common/ext/CMSIS/include/cmsis_gcc.h" 1
 360 000e 83F31188 		MSR basepri, r3
 361              	@ 0 "" 2
 362              		.thumb
 363              	.LBE307:
 364              	.LBE306:
 365              	.LBE305:
 366              	.LBE304:
 367              	.LBE303:
 368              	.LBE302:
 369              		.loc 1 197 0
 370 0012 08BD     		pop	{r3, pc}
 371              		.cfi_endproc
 372              	.LFE274:
 373              		.size	ibqGetFullBufferTimeout, .-ibqGetFullBufferTimeout
 374 0014 AFF30080 		.section	.text.ibqReleaseEmptyBufferS,"ax",%progbits
 374      AFF30080 
 374      AFF30080 
 375              		.align	2
 376              		.p2align 4,,15
 377              		.global	ibqReleaseEmptyBufferS
 378              		.thumb
 379              		.thumb_func
 380              		.type	ibqReleaseEmptyBufferS, %function
 381              	ibqReleaseEmptyBufferS:
 382              	.LFB277:
 383              		.loc 1 263 0
 384              		.cfi_startproc
 385              		@ args = 0, pretend = 0, frame = 0
 386              		@ frame_needed = 0, uses_anonymous_args = 0
 387              	.LVL24:
 388              		.loc 1 271 0
 389 0000 00F11001 		add	r1, r0, #16
 390 0004 0EC9     		ldmia	r1, {r1, r2, r3}
 391              		.loc 1 270 0
ARM GAS  /tmp/cc2F28k2.s 			page 8


 392 0006 0B44     		add	r3, r3, r1
 393              		.loc 1 271 0
 394 0008 9342     		cmp	r3, r2
 395              		.loc 1 270 0
 396 000a 0361     		str	r3, [r0, #16]
 397              		.loc 1 272 0
 398 000c 28BF     		it	cs
 399 000e 036A     		ldrcs	r3, [r0, #32]
 400              		.loc 1 263 0
 401 0010 10B5     		push	{r4, lr}
 402              		.cfi_def_cfa_offset 8
 403              		.cfi_offset 4, -8
 404              		.cfi_offset 14, -4
 405              		.loc 1 269 0
 406 0012 8468     		ldr	r4, [r0, #8]
 407              		.loc 1 272 0
 408 0014 28BF     		it	cs
 409 0016 0361     		strcs	r3, [r0, #16]
 410              		.loc 1 279 0
 411 0018 C36A     		ldr	r3, [r0, #44]
 412              		.loc 1 269 0
 413 001a 013C     		subs	r4, r4, #1
 414              		.loc 1 276 0
 415 001c 0022     		movs	r2, #0
 416              		.loc 1 269 0
 417 001e 8460     		str	r4, [r0, #8]
 418              		.loc 1 276 0
 419 0020 4262     		str	r2, [r0, #36]
 420              		.loc 1 279 0
 421 0022 03B1     		cbz	r3, .L19
 422              		.loc 1 280 0
 423 0024 9847     		blx	r3
 424              	.LVL25:
 425              	.L19:
 426 0026 10BD     		pop	{r4, pc}
 427              		.cfi_endproc
 428              	.LFE277:
 429              		.size	ibqReleaseEmptyBufferS, .-ibqReleaseEmptyBufferS
 430 0028 AFF30080 		.section	.text.ibqReleaseEmptyBuffer,"ax",%progbits
 430      AFF30080 
 431              		.align	2
 432              		.p2align 4,,15
 433              		.global	ibqReleaseEmptyBuffer
 434              		.thumb
 435              		.thumb_func
 436              		.type	ibqReleaseEmptyBuffer, %function
 437              	ibqReleaseEmptyBuffer:
 438              	.LFB276:
 439              		.loc 1 248 0
 440              		.cfi_startproc
 441              		@ args = 0, pretend = 0, frame = 0
 442              		@ frame_needed = 0, uses_anonymous_args = 0
 443              	.LVL26:
 444 0000 08B5     		push	{r3, lr}
 445              		.cfi_def_cfa_offset 8
 446              		.cfi_offset 3, -8
 447              		.cfi_offset 14, -4
ARM GAS  /tmp/cc2F28k2.s 			page 9


 448              	.LBB308:
 449              	.LBB309:
 450              	.LBB310:
 451              	.LBB311:
 452              	.LBB312:
 453              		.loc 4 264 0
 454 0002 2023     		movs	r3, #32
 455              	@ 264 "../../../../../ChibiOS-RT/os/common/ext/CMSIS/include/cmsis_gcc.h" 1
 456 0004 83F31188 		MSR basepri, r3
 457              	@ 0 "" 2
 458              		.thumb
 459              	.LBE312:
 460              	.LBE311:
 461              	.LBE310:
 462              	.LBE309:
 463              	.LBE308:
 464              		.loc 1 251 0
 465 0008 FFF7FEFF 		bl	ibqReleaseEmptyBufferS
 466              	.LVL27:
 467              	.LBB313:
 468              	.LBB314:
 469              	.LBB315:
 470              	.LBB316:
 471              	.LBB317:
 472              	.LBB318:
 473              		.loc 4 264 0
 474 000c 0023     		movs	r3, #0
 475              	@ 264 "../../../../../ChibiOS-RT/os/common/ext/CMSIS/include/cmsis_gcc.h" 1
 476 000e 83F31188 		MSR basepri, r3
 477              	@ 0 "" 2
 478              		.thumb
 479 0012 08BD     		pop	{r3, pc}
 480              	.LBE318:
 481              	.LBE317:
 482              	.LBE316:
 483              	.LBE315:
 484              	.LBE314:
 485              	.LBE313:
 486              		.cfi_endproc
 487              	.LFE276:
 488              		.size	ibqReleaseEmptyBuffer, .-ibqReleaseEmptyBuffer
 489 0014 AFF30080 		.section	.text.ibqGetTimeout,"ax",%progbits
 489      AFF30080 
 489      AFF30080 
 490              		.align	2
 491              		.p2align 4,,15
 492              		.global	ibqGetTimeout
 493              		.thumb
 494              		.thumb_func
 495              		.type	ibqGetTimeout, %function
 496              	ibqGetTimeout:
 497              	.LFB278:
 498              		.loc 1 302 0
 499              		.cfi_startproc
 500              		@ args = 0, pretend = 0, frame = 0
 501              		@ frame_needed = 0, uses_anonymous_args = 0
 502              	.LVL28:
ARM GAS  /tmp/cc2F28k2.s 			page 10


 503 0000 38B5     		push	{r3, r4, r5, lr}
 504              		.cfi_def_cfa_offset 16
 505              		.cfi_offset 3, -16
 506              		.cfi_offset 4, -12
 507              		.cfi_offset 5, -8
 508              		.cfi_offset 14, -4
 509              		.loc 1 302 0
 510 0002 0446     		mov	r4, r0
 511              	.LBB319:
 512              	.LBB320:
 513              	.LBB321:
 514              	.LBB322:
 515              	.LBB323:
 516              		.loc 4 264 0
 517 0004 2023     		movs	r3, #32
 518              	@ 264 "../../../../../ChibiOS-RT/os/common/ext/CMSIS/include/cmsis_gcc.h" 1
 519 0006 83F31188 		MSR basepri, r3
 520              	@ 0 "" 2
 521              		.thumb
 522              	.LBE323:
 523              	.LBE322:
 524              	.LBE321:
 525              	.LBE320:
 526              	.LBE319:
 527              		.loc 1 308 0
 528 000a 456A     		ldr	r5, [r0, #36]
 529 000c 9DB1     		cbz	r5, .L31
 530              	.LVL29:
 531              	.L27:
 532              		.loc 1 317 0
 533 000e 2B46     		mov	r3, r5
 534              		.loc 1 322 0
 535 0010 A26A     		ldr	r2, [r4, #40]
 536              		.loc 1 317 0
 537 0012 13F8015B 		ldrb	r5, [r3], #1	@ zero_extendqisi2
 538              	.LVL30:
 539              		.loc 1 322 0
 540 0016 9342     		cmp	r3, r2
 541              		.loc 1 318 0
 542 0018 6362     		str	r3, [r4, #36]
 543              		.loc 1 322 0
 544 001a 04D2     		bcs	.L32
 545              	.LVL31:
 546              	.LBB324:
 547              	.LBB325:
 548              	.LBB326:
 549              	.LBB327:
 550              	.LBB328:
 551              	.LBB329:
 552              		.loc 4 264 0
 553 001c 0023     		movs	r3, #0
 554              	@ 264 "../../../../../ChibiOS-RT/os/common/ext/CMSIS/include/cmsis_gcc.h" 1
 555 001e 83F31188 		MSR basepri, r3
 556              	@ 0 "" 2
 557              		.thumb
 558              	.LBE329:
 559              	.LBE328:
ARM GAS  /tmp/cc2F28k2.s 			page 11


 560              	.LBE327:
 561              	.LBE326:
 562              	.LBE325:
 563              	.LBE324:
 564              		.loc 1 327 0
 565 0022 2846     		mov	r0, r5
 566              		.loc 1 328 0
 567 0024 38BD     		pop	{r3, r4, r5, pc}
 568              	.LVL32:
 569              	.L32:
 570              		.loc 1 323 0
 571 0026 2046     		mov	r0, r4
 572 0028 FFF7FEFF 		bl	ibqReleaseEmptyBufferS
 573              	.LVL33:
 574              	.LBB335:
 575              	.LBB334:
 576              	.LBB333:
 577              	.LBB332:
 578              	.LBB331:
 579              	.LBB330:
 580              		.loc 4 264 0
 581 002c 0023     		movs	r3, #0
 582              	@ 264 "../../../../../ChibiOS-RT/os/common/ext/CMSIS/include/cmsis_gcc.h" 1
 583 002e 83F31188 		MSR basepri, r3
 584              	@ 0 "" 2
 585              		.thumb
 586              	.LBE330:
 587              	.LBE331:
 588              	.LBE332:
 589              	.LBE333:
 590              	.LBE334:
 591              	.LBE335:
 592              		.loc 1 327 0
 593 0032 2846     		mov	r0, r5
 594              		.loc 1 328 0
 595 0034 38BD     		pop	{r3, r4, r5, pc}
 596              	.LVL34:
 597              	.L31:
 598              		.loc 1 309 0
 599 0036 FFF7FEFF 		bl	ibqGetFullBufferTimeoutS
 600              	.LVL35:
 601              		.loc 1 310 0
 602 003a 08B9     		cbnz	r0, .L28
 603 003c 656A     		ldr	r5, [r4, #36]
 604 003e E6E7     		b	.L27
 605              	.L28:
 606              	.LVL36:
 607              	.LBB336:
 608              	.LBB337:
 609              	.LBB338:
 610              	.LBB339:
 611              	.LBB340:
 612              	.LBB341:
 613              		.loc 4 264 0
 614              	@ 264 "../../../../../ChibiOS-RT/os/common/ext/CMSIS/include/cmsis_gcc.h" 1
 615 0040 85F31188 		MSR basepri, r5
 616              	@ 0 "" 2
ARM GAS  /tmp/cc2F28k2.s 			page 12


 617              		.thumb
 618              	.LBE341:
 619              	.LBE340:
 620              	.LBE339:
 621              	.LBE338:
 622              	.LBE337:
 623              	.LBE336:
 624              		.loc 1 312 0
 625 0044 38BD     		pop	{r3, r4, r5, pc}
 626              		.cfi_endproc
 627              	.LFE278:
 628              		.size	ibqGetTimeout, .-ibqGetTimeout
 629 0046 00BFAFF3 		.section	.text.ibqReadTimeout,"ax",%progbits
 629      0080AFF3 
 629      0080
 630              		.align	2
 631              		.p2align 4,,15
 632              		.global	ibqReadTimeout
 633              		.thumb
 634              		.thumb_func
 635              		.type	ibqReadTimeout, %function
 636              	ibqReadTimeout:
 637              	.LFB279:
 638              		.loc 1 352 0
 639              		.cfi_startproc
 640              		@ args = 0, pretend = 0, frame = 16
 641              		@ frame_needed = 0, uses_anonymous_args = 0
 642              	.LVL37:
 643 0000 2DE9F04F 		push	{r4, r5, r6, r7, r8, r9, r10, fp, lr}
 644              		.cfi_def_cfa_offset 36
 645              		.cfi_offset 4, -36
 646              		.cfi_offset 5, -32
 647              		.cfi_offset 6, -28
 648              		.cfi_offset 7, -24
 649              		.cfi_offset 8, -20
 650              		.cfi_offset 9, -16
 651              		.cfi_offset 10, -12
 652              		.cfi_offset 11, -8
 653              		.cfi_offset 14, -4
 654 0004 85B0     		sub	sp, sp, #20
 655              		.cfi_def_cfa_offset 56
 656              		.loc 1 352 0
 657 0006 0446     		mov	r4, r0
 658 0008 0193     		str	r3, [sp, #4]
 659 000a 0F46     		mov	r7, r1
 660 000c 9046     		mov	r8, r2
 661              	.LBB342:
 662              	.LBB343:
 663              	.LBB344:
 664              	.LBB345:
 665              	.LBB346:
 666              		.loc 4 264 0
 667 000e 2023     		movs	r3, #32
 668              	.LVL38:
 669              	@ 264 "../../../../../ChibiOS-RT/os/common/ext/CMSIS/include/cmsis_gcc.h" 1
 670 0010 83F31188 		MSR basepri, r3
 671              	@ 0 "" 2
ARM GAS  /tmp/cc2F28k2.s 			page 13


 672              		.thumb
 673              	.LBE346:
 674              	.LBE345:
 675              	.LBE344:
 676              	.LBE343:
 677              	.LBE342:
 678              	.LBB347:
 679              	.LBB348:
 680              	.LBB349:
 681              	.LBB350:
 682              	.LBB351:
 683              		.file 5 "../../../../../ChibiOS-RT/os/hal/ports/STM32/LLD/TIMv1/hal_st_lld.h"
 684              		.loc 5 141 0
 685 0014 4FF08043 		mov	r3, #1073741824
 686              	.LBE351:
 687              	.LBE350:
 688              	.LBE349:
 689              	.LBE348:
 690              	.LBE347:
 691              	.LBB356:
 692              		.loc 1 367 0
 693 0018 616A     		ldr	r1, [r4, #36]
 694              	.LVL39:
 695              	.LBE356:
 696              	.LBB409:
 697              	.LBB355:
 698              	.LBB354:
 699              	.LBB353:
 700              	.LBB352:
 701              		.loc 5 141 0
 702 001a 5A6A     		ldr	r2, [r3, #36]
 703              	.LVL40:
 704              	.LBE352:
 705              	.LBE353:
 706              	.LBE354:
 707              	.LBE355:
 708              	.LBE409:
 709              		.loc 1 361 0
 710 001c 019B     		ldr	r3, [sp, #4]
 711 001e 1344     		add	r3, r3, r2
 712 0020 0393     		str	r3, [sp, #12]
 713              	.LVL41:
 714              	.LBB410:
 715              	.LBB357:
 716              		.loc 1 372 0
 717 0022 019B     		ldr	r3, [sp, #4]
 718              	.LVL42:
 719              	.LBE357:
 720              	.LBE410:
 721              		.loc 1 353 0
 722 0024 0026     		movs	r6, #0
 723              	.LVL43:
 724              	.LBB411:
 725              	.LBB377:
 726              		.loc 1 372 0
 727 0026 013B     		subs	r3, r3, #1
 728 0028 0293     		str	r3, [sp, #8]
ARM GAS  /tmp/cc2F28k2.s 			page 14


 729              	.LBE377:
 730              	.LBB378:
 731              	.LBB379:
 732              	.LBB380:
 733              	.LBB381:
 734              	.LBB382:
 735              	.LBB383:
 736              		.loc 4 264 0
 737 002a B146     		mov	r9, r6
 738              	.LBE383:
 739              	.LBE382:
 740              	.LBE381:
 741              	.LBE380:
 742              	.LBE379:
 743              	.LBE378:
 744              	.LBB394:
 745              	.LBB395:
 746              	.LBB396:
 747              	.LBB397:
 748              	.LBB398:
 749 002c 4FF0200A 		mov	r10, #32
 750              	.LBE398:
 751              	.LBE397:
 752              	.LBE396:
 753              	.LBE395:
 754              	.LBE394:
 755              		.loc 1 367 0
 756 0030 79B3     		cbz	r1, .L47
 757              	.LVL44:
 758              	.L34:
 759              		.loc 1 396 0
 760 0032 A36A     		ldr	r3, [r4, #40]
 761              		.loc 1 397 0
 762 0034 C6EB0805 		rsb	r5, r6, r8
 763              		.loc 1 396 0
 764 0038 5B1A     		subs	r3, r3, r1
 765              	.LVL45:
 766 003a AB42     		cmp	r3, r5
 767 003c 38BF     		it	cc
 768 003e 1D46     		movcc	r5, r3
 769              	.LVL46:
 770              		.loc 1 403 0
 771 0040 402D     		cmp	r5, #64
 772 0042 38D9     		bls	.L40
 773              		.loc 1 405 0
 774 0044 01F14002 		add	r2, r1, #64
 775 0048 3B46     		mov	r3, r7
 776              	.LVL47:
 777              	.L41:
 778 004a D1F800B0 		ldr	fp, [r1]	@ unaligned
 779 004e D1F804C0 		ldr	ip, [r1, #4]	@ unaligned
 780 0052 8D68     		ldr	r5, [r1, #8]	@ unaligned
 781 0054 C868     		ldr	r0, [r1, #12]	@ unaligned
 782 0056 C3F800B0 		str	fp, [r3]	@ unaligned
 783 005a 1031     		adds	r1, r1, #16
 784 005c 9142     		cmp	r1, r2
 785 005e C3F804C0 		str	ip, [r3, #4]	@ unaligned
ARM GAS  /tmp/cc2F28k2.s 			page 15


 786 0062 9D60     		str	r5, [r3, #8]	@ unaligned
 787 0064 D860     		str	r0, [r3, #12]	@ unaligned
 788 0066 03F11003 		add	r3, r3, #16
 789 006a EED1     		bne	.L41
 790              		.loc 1 407 0
 791 006c 636A     		ldr	r3, [r4, #36]
 792              		.loc 1 418 0
 793 006e A26A     		ldr	r2, [r4, #40]
 794              		.loc 1 407 0
 795 0070 4033     		adds	r3, r3, #64
 796              		.loc 1 418 0
 797 0072 9A42     		cmp	r2, r3
 798              		.loc 1 406 0
 799 0074 07F14007 		add	r7, r7, #64
 800              	.LVL48:
 801              		.loc 1 408 0
 802 0078 06F14006 		add	r6, r6, #64
 803              	.LVL49:
 804              		.loc 1 407 0
 805 007c 6362     		str	r3, [r4, #36]
 806              		.loc 1 418 0
 807 007e 26D9     		bls	.L48
 808              	.L43:
 809              	.LVL50:
 810              	.LBB403:
 811              	.LBB392:
 812              	.LBB390:
 813              	.LBB388:
 814              	.LBB386:
 815              	.LBB384:
 816              		.loc 4 264 0
 817              	@ 264 "../../../../../ChibiOS-RT/os/common/ext/CMSIS/include/cmsis_gcc.h" 1
 818 0080 89F31188 		MSR basepri, r9
 819              	@ 0 "" 2
 820              		.thumb
 821              	.LBE384:
 822              	.LBE386:
 823              	.LBE388:
 824              	.LBE390:
 825              	.LBE392:
 826              	.LBE403:
 827              		.loc 1 424 0
 828 0084 4645     		cmp	r6, r8
 829 0086 29D2     		bcs	.L38
 830              	.L51:
 831              	.LVL51:
 832              	.LBB404:
 833              	.LBB402:
 834              	.LBB401:
 835              	.LBB400:
 836              	.LBB399:
 837              		.loc 4 264 0
 838              	@ 264 "../../../../../ChibiOS-RT/os/common/ext/CMSIS/include/cmsis_gcc.h" 1
 839 0088 8AF31188 		MSR basepri, r10
 840              	@ 0 "" 2
 841              		.thumb
 842              	.LBE399:
ARM GAS  /tmp/cc2F28k2.s 			page 16


 843              	.LBE400:
 844              	.LBE401:
 845              	.LBE402:
 846              	.LBE404:
 847              		.loc 1 367 0
 848 008c 616A     		ldr	r1, [r4, #36]
 849 008e 0029     		cmp	r1, #0
 850 0090 CFD1     		bne	.L34
 851              	.LVL52:
 852              	.L47:
 853              	.LBB405:
 854              		.loc 1 372 0
 855 0092 029B     		ldr	r3, [sp, #8]
 856 0094 0333     		adds	r3, r3, #3
 857 0096 25D8     		bhi	.L49
 858              	.LBB358:
 859              	.LBB359:
 860              	.LBB360:
 861              	.LBB361:
 862              	.LBB362:
 863              	.LBB363:
 864              		.loc 5 141 0
 865 0098 4FF08042 		mov	r2, #1073741824
 866 009c 536A     		ldr	r3, [r2, #36]
 867              	.LBE363:
 868              	.LBE362:
 869              	.LBE361:
 870              	.LBE360:
 871              	.LBE359:
 872              		.loc 1 376 0
 873 009e 039A     		ldr	r2, [sp, #12]
 874 00a0 D31A     		subs	r3, r2, r3
 875              	.LVL53:
 876              		.loc 1 381 0
 877 00a2 019A     		ldr	r2, [sp, #4]
 878 00a4 9A42     		cmp	r2, r3
 879 00a6 2AD3     		bcc	.L50
 880              		.loc 1 385 0
 881 00a8 1946     		mov	r1, r3
 882 00aa 2046     		mov	r0, r4
 883 00ac FFF7FEFF 		bl	ibqGetFullBufferTimeoutS
 884              	.LVL54:
 885              	.LBE358:
 886              		.loc 1 389 0
 887 00b0 F0B9     		cbnz	r0, .L39
 888              	.L52:
 889 00b2 616A     		ldr	r1, [r4, #36]
 890 00b4 BDE7     		b	.L34
 891              	.LVL55:
 892              	.L40:
 893              	.LBE405:
 894              		.loc 1 411 0
 895 00b6 3846     		mov	r0, r7
 896 00b8 2A46     		mov	r2, r5
 897 00ba FFF7FEFF 		bl	memcpy
 898              	.LVL56:
 899              		.loc 1 413 0
ARM GAS  /tmp/cc2F28k2.s 			page 17


 900 00be 636A     		ldr	r3, [r4, #36]
 901              		.loc 1 418 0
 902 00c0 A26A     		ldr	r2, [r4, #40]
 903              		.loc 1 413 0
 904 00c2 2B44     		add	r3, r3, r5
 905              		.loc 1 418 0
 906 00c4 9A42     		cmp	r2, r3
 907              		.loc 1 414 0
 908 00c6 2E44     		add	r6, r6, r5
 909              	.LVL57:
 910              		.loc 1 412 0
 911 00c8 2F44     		add	r7, r7, r5
 912              	.LVL58:
 913              		.loc 1 413 0
 914 00ca 6362     		str	r3, [r4, #36]
 915              		.loc 1 418 0
 916 00cc D8D8     		bhi	.L43
 917              	.LVL59:
 918              	.L48:
 919              		.loc 1 419 0
 920 00ce 2046     		mov	r0, r4
 921 00d0 FFF7FEFF 		bl	ibqReleaseEmptyBufferS
 922              	.LVL60:
 923              	.LBB406:
 924              	.LBB393:
 925              	.LBB391:
 926              	.LBB389:
 927              	.LBB387:
 928              	.LBB385:
 929              		.loc 4 264 0
 930              	@ 264 "../../../../../ChibiOS-RT/os/common/ext/CMSIS/include/cmsis_gcc.h" 1
 931 00d4 89F31188 		MSR basepri, r9
 932              	@ 0 "" 2
 933              		.thumb
 934              	.LBE385:
 935              	.LBE387:
 936              	.LBE389:
 937              	.LBE391:
 938              	.LBE393:
 939              	.LBE406:
 940              		.loc 1 424 0
 941 00d8 4645     		cmp	r6, r8
 942 00da D5D3     		bcc	.L51
 943              	.LVL61:
 944              	.L38:
 945              	.LBE411:
 946              		.loc 1 429 0
 947 00dc 3046     		mov	r0, r6
 948 00de 05B0     		add	sp, sp, #20
 949              		@ sp needed
 950 00e0 BDE8F08F 		pop	{r4, r5, r6, r7, r8, r9, r10, fp, pc}
 951              	.LVL62:
 952              	.L49:
 953              	.LBB412:
 954              	.LBB407:
 955              		.loc 1 373 0
 956 00e4 2046     		mov	r0, r4
ARM GAS  /tmp/cc2F28k2.s 			page 18


 957 00e6 0199     		ldr	r1, [sp, #4]
 958 00e8 FFF7FEFF 		bl	ibqGetFullBufferTimeoutS
 959              	.LVL63:
 960              		.loc 1 389 0
 961 00ec 0028     		cmp	r0, #0
 962 00ee E0D0     		beq	.L52
 963              	.L39:
 964              	.LVL64:
 965              	.LBB370:
 966              	.LBB371:
 967              	.LBB372:
 968              	.LBB373:
 969              	.LBB374:
 970              	.LBB375:
 971              		.loc 4 264 0
 972 00f0 0023     		movs	r3, #0
 973              	@ 264 "../../../../../ChibiOS-RT/os/common/ext/CMSIS/include/cmsis_gcc.h" 1
 974 00f2 83F31188 		MSR basepri, r3
 975              	@ 0 "" 2
 976              		.thumb
 977              	.LBE375:
 978              	.LBE374:
 979              	.LBE373:
 980              	.LBE372:
 981              	.LBE371:
 982              	.LBE370:
 983              	.LBE407:
 984              	.LBE412:
 985              		.loc 1 429 0
 986 00f6 3046     		mov	r0, r6
 987              	.LVL65:
 988 00f8 05B0     		add	sp, sp, #20
 989              		@ sp needed
 990 00fa BDE8F08F 		pop	{r4, r5, r6, r7, r8, r9, r10, fp, pc}
 991              	.LVL66:
 992              	.L50:
 993              	.LBB413:
 994              	.LBB408:
 995              	.LBB376:
 996              	.LBB364:
 997              	.LBB365:
 998              	.LBB366:
 999              	.LBB367:
 1000              	.LBB368:
 1001              	.LBB369:
 1002              		.loc 4 264 0
 1003              	@ 264 "../../../../../ChibiOS-RT/os/common/ext/CMSIS/include/cmsis_gcc.h" 1
 1004 00fe 81F31188 		MSR basepri, r1
 1005              	@ 0 "" 2
 1006              		.thumb
 1007              	.LBE369:
 1008              	.LBE368:
 1009              	.LBE367:
 1010              	.LBE366:
 1011              	.LBE365:
 1012              	.LBE364:
 1013              		.loc 1 383 0
ARM GAS  /tmp/cc2F28k2.s 			page 19


 1014 0102 EBE7     		b	.L38
 1015              	.LBE376:
 1016              	.LBE408:
 1017              	.LBE413:
 1018              		.cfi_endproc
 1019              	.LFE279:
 1020              		.size	ibqReadTimeout, .-ibqReadTimeout
 1021 0104 AFF30080 		.section	.text.obqObjectInit,"ax",%progbits
 1021      AFF30080 
 1021      AFF30080 
 1022              		.align	2
 1023              		.p2align 4,,15
 1024              		.global	obqObjectInit
 1025              		.thumb
 1026              		.thumb_func
 1027              		.type	obqObjectInit, %function
 1028              	obqObjectInit:
 1029              	.LFB280:
 1030              		.loc 1 445 0
 1031              		.cfi_startproc
 1032              		@ args = 8, pretend = 0, frame = 0
 1033              		@ frame_needed = 0, uses_anonymous_args = 0
 1034              		@ link register save eliminated.
 1035              	.LVL67:
 1036 0000 F0B4     		push	{r4, r5, r6, r7}
 1037              		.cfi_def_cfa_offset 16
 1038              		.cfi_offset 4, -16
 1039              		.cfi_offset 5, -12
 1040              		.cfi_offset 6, -8
 1041              		.cfi_offset 7, -4
 1042              		.loc 1 453 0
 1043 0002 0432     		adds	r2, r2, #4
 1044              	.LVL68:
 1045              		.loc 1 445 0
 1046 0004 049E     		ldr	r6, [sp, #16]
 1047 0006 059D     		ldr	r5, [sp, #20]
 1048              		.loc 1 459 0
 1049 0008 C662     		str	r6, [r0, #44]
 1050              		.loc 1 457 0
 1051 000a 0024     		movs	r4, #0
 1052              		.loc 1 453 0
 1053 000c 02FB0317 		mla	r7, r2, r3, r1
 1054 0010 4761     		str	r7, [r0, #20]
 1055              		.loc 1 460 0
 1056 0012 0563     		str	r5, [r0, #48]
 1057              		.loc 1 457 0
 1058 0014 4462     		str	r4, [r0, #36]
 1059              		.loc 1 458 0
 1060 0016 8462     		str	r4, [r0, #40]
 1061              	.LBB414:
 1062              	.LBB415:
 1063              	.LBB416:
 1064              	.LBB417:
 1065              		.loc 2 550 0
 1066 0018 0060     		str	r0, [r0]
 1067              		.loc 2 551 0
 1068 001a 4060     		str	r0, [r0, #4]
ARM GAS  /tmp/cc2F28k2.s 			page 20


 1069              	.LBE417:
 1070              	.LBE416:
 1071              	.LBE415:
 1072              	.LBE414:
 1073              		.loc 1 450 0
 1074 001c 8360     		str	r3, [r0, #8]
 1075              		.loc 1 451 0
 1076 001e 0161     		str	r1, [r0, #16]
 1077              		.loc 1 452 0
 1078 0020 C160     		str	r1, [r0, #12]
 1079              		.loc 1 454 0
 1080 0022 8261     		str	r2, [r0, #24]
 1081              		.loc 1 455 0
 1082 0024 C361     		str	r3, [r0, #28]
 1083              		.loc 1 456 0
 1084 0026 0162     		str	r1, [r0, #32]
 1085              		.loc 1 461 0
 1086 0028 F0BC     		pop	{r4, r5, r6, r7}
 1087              	.LVL69:
 1088 002a 7047     		bx	lr
 1089              		.cfi_endproc
 1090              	.LFE280:
 1091              		.size	obqObjectInit, .-obqObjectInit
 1092 002c AFF30080 		.section	.text.obqResetI,"ax",%progbits
 1093              		.align	2
 1094              		.p2align 4,,15
 1095              		.global	obqResetI
 1096              		.thumb
 1097              		.thumb_func
 1098              		.type	obqResetI, %function
 1099              	obqResetI:
 1100              	.LFB281:
 1101              		.loc 1 474 0
 1102              		.cfi_startproc
 1103              		@ args = 0, pretend = 0, frame = 0
 1104              		@ frame_needed = 0, uses_anonymous_args = 0
 1105              		@ link register save eliminated.
 1106              	.LVL70:
 1107              		.loc 1 479 0
 1108 0000 016A     		ldr	r1, [r0, #32]
 1109              		.loc 1 474 0
 1110 0002 10B4     		push	{r4}
 1111              		.cfi_def_cfa_offset 4
 1112              		.cfi_offset 4, -4
 1113              		.loc 1 478 0
 1114 0004 C469     		ldr	r4, [r0, #28]
 1115              		.loc 1 479 0
 1116 0006 0161     		str	r1, [r0, #16]
 1117              		.loc 1 481 0
 1118 0008 0022     		movs	r2, #0
 1119              		.loc 1 478 0
 1120 000a 8460     		str	r4, [r0, #8]
 1121              		.loc 1 480 0
 1122 000c C160     		str	r1, [r0, #12]
 1123              		.loc 1 481 0
 1124 000e 4262     		str	r2, [r0, #36]
 1125              		.loc 1 482 0
ARM GAS  /tmp/cc2F28k2.s 			page 21


 1126 0010 8262     		str	r2, [r0, #40]
 1127              	.LVL71:
 1128              	.LBB418:
 1129              	.LBB419:
 1130              		.loc 3 810 0
 1131 0012 6FF00101 		mvn	r1, #1
 1132              	.LBE419:
 1133              	.LBE418:
 1134              		.loc 1 484 0
 1135 0016 5DF8044B 		ldr	r4, [sp], #4
 1136              	.LBB421:
 1137              	.LBB420:
 1138              		.loc 3 810 0
 1139 001a FFF7FEBF 		b	chThdDequeueAllI
 1140              	.LVL72:
 1141              	.LBE420:
 1142              	.LBE421:
 1143              		.cfi_endproc
 1144              	.LFE281:
 1145              		.size	obqResetI, .-obqResetI
 1146 001e 00BF     		.section	.text.obqGetFullBufferI,"ax",%progbits
 1147              		.align	2
 1148              		.p2align 4,,15
 1149              		.global	obqGetFullBufferI
 1150              		.thumb
 1151              		.thumb_func
 1152              		.type	obqGetFullBufferI, %function
 1153              	obqGetFullBufferI:
 1154              	.LFB282:
 1155              		.loc 1 498 0
 1156              		.cfi_startproc
 1157              		@ args = 0, pretend = 0, frame = 0
 1158              		@ frame_needed = 0, uses_anonymous_args = 0
 1159              		@ link register save eliminated.
 1160              	.LVL73:
 1161              		.loc 1 502 0
 1162 0000 0369     		ldr	r3, [r0, #16]
 1163 0002 C268     		ldr	r2, [r0, #12]
 1164 0004 9A42     		cmp	r2, r3
 1165 0006 04D0     		beq	.L62
 1166              	.L56:
 1167              		.loc 1 507 0
 1168 0008 1846     		mov	r0, r3
 1169              	.LVL74:
 1170 000a 50F8043B 		ldr	r3, [r0], #4
 1171 000e 0B60     		str	r3, [r1]
 1172              		.loc 1 510 0
 1173 0010 7047     		bx	lr
 1174              	.LVL75:
 1175              	.L62:
 1176              		.loc 1 502 0 discriminator 1
 1177 0012 8268     		ldr	r2, [r0, #8]
 1178 0014 002A     		cmp	r2, #0
 1179 0016 F7D0     		beq	.L56
 1180              		.loc 1 503 0
 1181 0018 0020     		movs	r0, #0
 1182              	.LVL76:
ARM GAS  /tmp/cc2F28k2.s 			page 22


 1183 001a 7047     		bx	lr
 1184              		.cfi_endproc
 1185              	.LFE282:
 1186              		.size	obqGetFullBufferI, .-obqGetFullBufferI
 1187 001c AFF30080 		.section	.text.obqReleaseEmptyBufferI,"ax",%progbits
 1188              		.align	2
 1189              		.p2align 4,,15
 1190              		.global	obqReleaseEmptyBufferI
 1191              		.thumb
 1192              		.thumb_func
 1193              		.type	obqReleaseEmptyBufferI, %function
 1194              	obqReleaseEmptyBufferI:
 1195              	.LFB283:
 1196              		.loc 1 519 0
 1197              		.cfi_startproc
 1198              		@ args = 0, pretend = 0, frame = 0
 1199              		@ frame_needed = 0, uses_anonymous_args = 0
 1200              		@ link register save eliminated.
 1201              	.LVL77:
 1202              		.loc 1 527 0
 1203 0000 00F11001 		add	r1, r0, #16
 1204 0004 0EC9     		ldmia	r1, {r1, r2, r3}
 1205              		.loc 1 526 0
 1206 0006 0B44     		add	r3, r3, r1
 1207              		.loc 1 519 0
 1208 0008 10B4     		push	{r4}
 1209              		.cfi_def_cfa_offset 4
 1210              		.cfi_offset 4, -4
 1211              		.loc 1 527 0
 1212 000a 9342     		cmp	r3, r2
 1213              		.loc 1 525 0
 1214 000c 8468     		ldr	r4, [r0, #8]
 1215              		.loc 1 526 0
 1216 000e 0361     		str	r3, [r0, #16]
 1217              		.loc 1 528 0
 1218 0010 28BF     		it	cs
 1219 0012 036A     		ldrcs	r3, [r0, #32]
 1220              		.loc 1 525 0
 1221 0014 04F10104 		add	r4, r4, #1
 1222 0018 8460     		str	r4, [r0, #8]
 1223              		.loc 1 528 0
 1224 001a 28BF     		it	cs
 1225 001c 0361     		strcs	r3, [r0, #16]
 1226              	.LVL78:
 1227              	.LBB422:
 1228              	.LBB423:
 1229              		.loc 3 797 0
 1230 001e 0021     		movs	r1, #0
 1231              	.LBE423:
 1232              	.LBE422:
 1233              		.loc 1 533 0
 1234 0020 5DF8044B 		ldr	r4, [sp], #4
 1235              	.LBB425:
 1236              	.LBB424:
 1237              		.loc 3 797 0
 1238 0024 FFF7FEBF 		b	chThdDequeueNextI
 1239              	.LVL79:
ARM GAS  /tmp/cc2F28k2.s 			page 23


 1240              	.LBE424:
 1241              	.LBE425:
 1242              		.cfi_endproc
 1243              	.LFE283:
 1244              		.size	obqReleaseEmptyBufferI, .-obqReleaseEmptyBufferI
 1245 0028 AFF30080 		.section	.text.obqGetEmptyBufferTimeoutS,"ax",%progbits
 1245      AFF30080 
 1246              		.align	2
 1247              		.p2align 4,,15
 1248              		.global	obqGetEmptyBufferTimeoutS
 1249              		.thumb
 1250              		.thumb_func
 1251              		.type	obqGetEmptyBufferTimeoutS, %function
 1252              	obqGetEmptyBufferTimeoutS:
 1253              	.LFB285:
 1254              		.loc 1 587 0
 1255              		.cfi_startproc
 1256              		@ args = 0, pretend = 0, frame = 0
 1257              		@ frame_needed = 0, uses_anonymous_args = 0
 1258              	.LVL80:
 1259 0000 38B5     		push	{r3, r4, r5, lr}
 1260              		.cfi_def_cfa_offset 16
 1261              		.cfi_offset 3, -16
 1262              		.cfi_offset 4, -12
 1263              		.cfi_offset 5, -8
 1264              		.cfi_offset 14, -4
 1265              		.loc 1 587 0
 1266 0002 0446     		mov	r4, r0
 1267 0004 0D46     		mov	r5, r1
 1268              		.loc 1 591 0
 1269 0006 03E0     		b	.L66
 1270              	.LVL81:
 1271              	.L68:
 1272              	.LBB434:
 1273              	.LBB435:
 1274              	.LBB436:
 1275              		.loc 3 784 0
 1276 0008 FFF7FEFF 		bl	chThdEnqueueTimeoutS
 1277              	.LVL82:
 1278              	.LBE436:
 1279              	.LBE435:
 1280              		.loc 1 593 0
 1281 000c 0028     		cmp	r0, #0
 1282 000e 0BDB     		blt	.L67
 1283              	.LVL83:
 1284              	.L66:
 1285              	.LBE434:
 1286              		.loc 1 591 0 discriminator 1
 1287 0010 A368     		ldr	r3, [r4, #8]
 1288              	.LBB439:
 1289              	.LBB438:
 1290              	.LBB437:
 1291              		.loc 3 784 0 discriminator 1
 1292 0012 2046     		mov	r0, r4
 1293 0014 2946     		mov	r1, r5
 1294              	.LBE437:
 1295              	.LBE438:
ARM GAS  /tmp/cc2F28k2.s 			page 24


 1296              	.LBE439:
 1297              		.loc 1 591 0 discriminator 1
 1298 0016 002B     		cmp	r3, #0
 1299 0018 F6D0     		beq	.L68
 1300              	.LVL84:
 1301              	.LBB440:
 1302              	.LBB441:
 1303              		.loc 1 601 0
 1304 001a E368     		ldr	r3, [r4, #12]
 1305              		.loc 1 602 0
 1306 001c A269     		ldr	r2, [r4, #24]
 1307              		.loc 1 601 0
 1308 001e 191D     		adds	r1, r3, #4
 1309              	.LVL85:
 1310              		.loc 1 602 0
 1311 0020 1344     		add	r3, r3, r2
 1312              		.loc 1 601 0
 1313 0022 6162     		str	r1, [r4, #36]
 1314              		.loc 1 602 0
 1315 0024 A362     		str	r3, [r4, #40]
 1316 0026 0020     		movs	r0, #0
 1317              	.LVL86:
 1318              	.L67:
 1319              	.LBE441:
 1320              	.LBE440:
 1321              		.loc 1 605 0
 1322 0028 38BD     		pop	{r3, r4, r5, pc}
 1323              		.cfi_endproc
 1324              	.LFE285:
 1325              		.size	obqGetEmptyBufferTimeoutS, .-obqGetEmptyBufferTimeoutS
 1326 002a 00BFAFF3 		.section	.text.obqGetEmptyBufferTimeout,"ax",%progbits
 1326      0080
 1327              		.align	2
 1328              		.p2align 4,,15
 1329              		.global	obqGetEmptyBufferTimeout
 1330              		.thumb
 1331              		.thumb_func
 1332              		.type	obqGetEmptyBufferTimeout, %function
 1333              	obqGetEmptyBufferTimeout:
 1334              	.LFB284:
 1335              		.loc 1 556 0
 1336              		.cfi_startproc
 1337              		@ args = 0, pretend = 0, frame = 0
 1338              		@ frame_needed = 0, uses_anonymous_args = 0
 1339              	.LVL87:
 1340 0000 08B5     		push	{r3, lr}
 1341              		.cfi_def_cfa_offset 8
 1342              		.cfi_offset 3, -8
 1343              		.cfi_offset 14, -4
 1344              	.LBB442:
 1345              	.LBB443:
 1346              	.LBB444:
 1347              	.LBB445:
 1348              	.LBB446:
 1349              		.loc 4 264 0
 1350 0002 2023     		movs	r3, #32
 1351              	@ 264 "../../../../../ChibiOS-RT/os/common/ext/CMSIS/include/cmsis_gcc.h" 1
ARM GAS  /tmp/cc2F28k2.s 			page 25


 1352 0004 83F31188 		MSR basepri, r3
 1353              	@ 0 "" 2
 1354              		.thumb
 1355              	.LBE446:
 1356              	.LBE445:
 1357              	.LBE444:
 1358              	.LBE443:
 1359              	.LBE442:
 1360              		.loc 1 560 0
 1361 0008 FFF7FEFF 		bl	obqGetEmptyBufferTimeoutS
 1362              	.LVL88:
 1363              	.LBB447:
 1364              	.LBB448:
 1365              	.LBB449:
 1366              	.LBB450:
 1367              	.LBB451:
 1368              	.LBB452:
 1369              		.loc 4 264 0
 1370 000c 0023     		movs	r3, #0
 1371              	@ 264 "../../../../../ChibiOS-RT/os/common/ext/CMSIS/include/cmsis_gcc.h" 1
 1372 000e 83F31188 		MSR basepri, r3
 1373              	@ 0 "" 2
 1374              		.thumb
 1375              	.LBE452:
 1376              	.LBE451:
 1377              	.LBE450:
 1378              	.LBE449:
 1379              	.LBE448:
 1380              	.LBE447:
 1381              		.loc 1 564 0
 1382 0012 08BD     		pop	{r3, pc}
 1383              		.cfi_endproc
 1384              	.LFE284:
 1385              		.size	obqGetEmptyBufferTimeout, .-obqGetEmptyBufferTimeout
 1386 0014 AFF30080 		.section	.text.obqPostFullBufferS,"ax",%progbits
 1386      AFF30080 
 1386      AFF30080 
 1387              		.align	2
 1388              		.p2align 4,,15
 1389              		.global	obqPostFullBufferS
 1390              		.thumb
 1391              		.thumb_func
 1392              		.type	obqPostFullBufferS, %function
 1393              	obqPostFullBufferS:
 1394              	.LFB287:
 1395              		.loc 1 632 0
 1396              		.cfi_startproc
 1397              		@ args = 0, pretend = 0, frame = 0
 1398              		@ frame_needed = 0, uses_anonymous_args = 0
 1399              	.LVL89:
 1400              		.loc 1 639 0
 1401 0000 C368     		ldr	r3, [r0, #12]
 1402              		.loc 1 632 0
 1403 0002 10B5     		push	{r4, lr}
 1404              		.cfi_def_cfa_offset 8
 1405              		.cfi_offset 4, -8
 1406              		.cfi_offset 14, -4
ARM GAS  /tmp/cc2F28k2.s 			page 26


 1407              		.loc 1 644 0
 1408 0004 4469     		ldr	r4, [r0, #20]
 1409              		.loc 1 639 0
 1410 0006 1960     		str	r1, [r3]
 1411              		.loc 1 643 0
 1412 0008 8269     		ldr	r2, [r0, #24]
 1413              		.loc 1 642 0
 1414 000a 8168     		ldr	r1, [r0, #8]
 1415              	.LVL90:
 1416              		.loc 1 643 0
 1417 000c 1344     		add	r3, r3, r2
 1418              	.LVL91:
 1419              		.loc 1 644 0
 1420 000e A342     		cmp	r3, r4
 1421              		.loc 1 643 0
 1422 0010 C360     		str	r3, [r0, #12]
 1423              	.LVL92:
 1424              		.loc 1 645 0
 1425 0012 24BF     		itt	cs
 1426 0014 036A     		ldrcs	r3, [r0, #32]
 1427 0016 C360     		strcs	r3, [r0, #12]
 1428              		.loc 1 652 0
 1429 0018 C36A     		ldr	r3, [r0, #44]
 1430              		.loc 1 642 0
 1431 001a 0139     		subs	r1, r1, #1
 1432              		.loc 1 649 0
 1433 001c 0022     		movs	r2, #0
 1434              		.loc 1 642 0
 1435 001e 8160     		str	r1, [r0, #8]
 1436              		.loc 1 649 0
 1437 0020 4262     		str	r2, [r0, #36]
 1438              		.loc 1 652 0
 1439 0022 03B1     		cbz	r3, .L70
 1440              		.loc 1 653 0
 1441 0024 9847     		blx	r3
 1442              	.LVL93:
 1443              	.L70:
 1444 0026 10BD     		pop	{r4, pc}
 1445              		.cfi_endproc
 1446              	.LFE287:
 1447              		.size	obqPostFullBufferS, .-obqPostFullBufferS
 1448 0028 AFF30080 		.section	.text.obqPostFullBuffer,"ax",%progbits
 1448      AFF30080 
 1449              		.align	2
 1450              		.p2align 4,,15
 1451              		.global	obqPostFullBuffer
 1452              		.thumb
 1453              		.thumb_func
 1454              		.type	obqPostFullBuffer, %function
 1455              	obqPostFullBuffer:
 1456              	.LFB286:
 1457              		.loc 1 616 0
 1458              		.cfi_startproc
 1459              		@ args = 0, pretend = 0, frame = 0
 1460              		@ frame_needed = 0, uses_anonymous_args = 0
 1461              	.LVL94:
 1462 0000 08B5     		push	{r3, lr}
ARM GAS  /tmp/cc2F28k2.s 			page 27


 1463              		.cfi_def_cfa_offset 8
 1464              		.cfi_offset 3, -8
 1465              		.cfi_offset 14, -4
 1466              	.LBB453:
 1467              	.LBB454:
 1468              	.LBB455:
 1469              	.LBB456:
 1470              	.LBB457:
 1471              		.loc 4 264 0
 1472 0002 2023     		movs	r3, #32
 1473              	@ 264 "../../../../../ChibiOS-RT/os/common/ext/CMSIS/include/cmsis_gcc.h" 1
 1474 0004 83F31188 		MSR basepri, r3
 1475              	@ 0 "" 2
 1476              		.thumb
 1477              	.LBE457:
 1478              	.LBE456:
 1479              	.LBE455:
 1480              	.LBE454:
 1481              	.LBE453:
 1482              		.loc 1 619 0
 1483 0008 FFF7FEFF 		bl	obqPostFullBufferS
 1484              	.LVL95:
 1485              	.LBB458:
 1486              	.LBB459:
 1487              	.LBB460:
 1488              	.LBB461:
 1489              	.LBB462:
 1490              	.LBB463:
 1491              		.loc 4 264 0
 1492 000c 0023     		movs	r3, #0
 1493              	@ 264 "../../../../../ChibiOS-RT/os/common/ext/CMSIS/include/cmsis_gcc.h" 1
 1494 000e 83F31188 		MSR basepri, r3
 1495              	@ 0 "" 2
 1496              		.thumb
 1497 0012 08BD     		pop	{r3, pc}
 1498              	.LBE463:
 1499              	.LBE462:
 1500              	.LBE461:
 1501              	.LBE460:
 1502              	.LBE459:
 1503              	.LBE458:
 1504              		.cfi_endproc
 1505              	.LFE286:
 1506              		.size	obqPostFullBuffer, .-obqPostFullBuffer
 1507 0014 AFF30080 		.section	.text.obqPutTimeout,"ax",%progbits
 1507      AFF30080 
 1507      AFF30080 
 1508              		.align	2
 1509              		.p2align 4,,15
 1510              		.global	obqPutTimeout
 1511              		.thumb
 1512              		.thumb_func
 1513              		.type	obqPutTimeout, %function
 1514              	obqPutTimeout:
 1515              	.LFB288:
 1516              		.loc 1 677 0
 1517              		.cfi_startproc
ARM GAS  /tmp/cc2F28k2.s 			page 28


 1518              		@ args = 0, pretend = 0, frame = 0
 1519              		@ frame_needed = 0, uses_anonymous_args = 0
 1520              	.LVL96:
 1521 0000 70B5     		push	{r4, r5, r6, lr}
 1522              		.cfi_def_cfa_offset 16
 1523              		.cfi_offset 4, -16
 1524              		.cfi_offset 5, -12
 1525              		.cfi_offset 6, -8
 1526              		.cfi_offset 14, -4
 1527              	.LBB464:
 1528              	.LBB465:
 1529              	.LBB466:
 1530              	.LBB467:
 1531              	.LBB468:
 1532              		.loc 4 264 0
 1533 0002 2023     		movs	r3, #32
 1534              	.LBE468:
 1535              	.LBE467:
 1536              	.LBE466:
 1537              	.LBE465:
 1538              	.LBE464:
 1539              		.loc 1 677 0
 1540 0004 0446     		mov	r4, r0
 1541 0006 0E46     		mov	r6, r1
 1542              	.LBB473:
 1543              	.LBB472:
 1544              	.LBB471:
 1545              	.LBB470:
 1546              	.LBB469:
 1547              		.loc 4 264 0
 1548              	@ 264 "../../../../../ChibiOS-RT/os/common/ext/CMSIS/include/cmsis_gcc.h" 1
 1549 0008 83F31188 		MSR basepri, r3
 1550              	@ 0 "" 2
 1551              		.thumb
 1552              	.LBE469:
 1553              	.LBE470:
 1554              	.LBE471:
 1555              	.LBE472:
 1556              	.LBE473:
 1557              		.loc 1 683 0
 1558 000c 456A     		ldr	r5, [r0, #36]
 1559 000e ADB1     		cbz	r5, .L82
 1560              	.LVL97:
 1561              	.L78:
 1562              		.loc 1 692 0
 1563 0010 2E70     		strb	r6, [r5]
 1564              		.loc 1 693 0
 1565 0012 636A     		ldr	r3, [r4, #36]
 1566              		.loc 1 697 0
 1567 0014 A26A     		ldr	r2, [r4, #40]
 1568              		.loc 1 693 0
 1569 0016 0133     		adds	r3, r3, #1
 1570              		.loc 1 697 0
 1571 0018 9342     		cmp	r3, r2
 1572              		.loc 1 693 0
 1573 001a 6362     		str	r3, [r4, #36]
 1574              		.loc 1 697 0
ARM GAS  /tmp/cc2F28k2.s 			page 29


 1575 001c 04D2     		bcs	.L83
 1576              	.LVL98:
 1577              	.LBB474:
 1578              	.LBB475:
 1579              	.LBB476:
 1580              	.LBB477:
 1581              	.LBB478:
 1582              	.LBB479:
 1583              		.loc 4 264 0
 1584 001e 0023     		movs	r3, #0
 1585              	@ 264 "../../../../../ChibiOS-RT/os/common/ext/CMSIS/include/cmsis_gcc.h" 1
 1586 0020 83F31188 		MSR basepri, r3
 1587              	@ 0 "" 2
 1588              		.thumb
 1589              	.LBE479:
 1590              	.LBE478:
 1591              	.LBE477:
 1592              	.LBE476:
 1593              	.LBE475:
 1594              	.LBE474:
 1595              		.loc 1 702 0
 1596 0024 0020     		movs	r0, #0
 1597              		.loc 1 703 0
 1598 0026 70BD     		pop	{r4, r5, r6, pc}
 1599              	.LVL99:
 1600              	.L83:
 1601              		.loc 1 698 0
 1602 0028 A169     		ldr	r1, [r4, #24]
 1603 002a 2046     		mov	r0, r4
 1604 002c 0439     		subs	r1, r1, #4
 1605 002e FFF7FEFF 		bl	obqPostFullBufferS
 1606              	.LVL100:
 1607              	.LBB485:
 1608              	.LBB484:
 1609              	.LBB483:
 1610              	.LBB482:
 1611              	.LBB481:
 1612              	.LBB480:
 1613              		.loc 4 264 0
 1614 0032 0023     		movs	r3, #0
 1615              	@ 264 "../../../../../ChibiOS-RT/os/common/ext/CMSIS/include/cmsis_gcc.h" 1
 1616 0034 83F31188 		MSR basepri, r3
 1617              	@ 0 "" 2
 1618              		.thumb
 1619              	.LBE480:
 1620              	.LBE481:
 1621              	.LBE482:
 1622              	.LBE483:
 1623              	.LBE484:
 1624              	.LBE485:
 1625              		.loc 1 702 0
 1626 0038 0020     		movs	r0, #0
 1627              		.loc 1 703 0
 1628 003a 70BD     		pop	{r4, r5, r6, pc}
 1629              	.LVL101:
 1630              	.L82:
 1631              		.loc 1 684 0
ARM GAS  /tmp/cc2F28k2.s 			page 30


 1632 003c 1146     		mov	r1, r2
 1633              	.LVL102:
 1634 003e FFF7FEFF 		bl	obqGetEmptyBufferTimeoutS
 1635              	.LVL103:
 1636              		.loc 1 685 0
 1637 0042 08B9     		cbnz	r0, .L79
 1638 0044 656A     		ldr	r5, [r4, #36]
 1639 0046 E3E7     		b	.L78
 1640              	.L79:
 1641              	.LVL104:
 1642              	.LBB486:
 1643              	.LBB487:
 1644              	.LBB488:
 1645              	.LBB489:
 1646              	.LBB490:
 1647              	.LBB491:
 1648              		.loc 4 264 0
 1649              	@ 264 "../../../../../ChibiOS-RT/os/common/ext/CMSIS/include/cmsis_gcc.h" 1
 1650 0048 85F31188 		MSR basepri, r5
 1651              	@ 0 "" 2
 1652              		.thumb
 1653              	.LBE491:
 1654              	.LBE490:
 1655              	.LBE489:
 1656              	.LBE488:
 1657              	.LBE487:
 1658              	.LBE486:
 1659              		.loc 1 687 0
 1660 004c 70BD     		pop	{r4, r5, r6, pc}
 1661              		.cfi_endproc
 1662              	.LFE288:
 1663              		.size	obqPutTimeout, .-obqPutTimeout
 1664 004e 00BF     		.section	.text.obqWriteTimeout,"ax",%progbits
 1665              		.align	2
 1666              		.p2align 4,,15
 1667              		.global	obqWriteTimeout
 1668              		.thumb
 1669              		.thumb_func
 1670              		.type	obqWriteTimeout, %function
 1671              	obqWriteTimeout:
 1672              	.LFB289:
 1673              		.loc 1 727 0
 1674              		.cfi_startproc
 1675              		@ args = 0, pretend = 0, frame = 8
 1676              		@ frame_needed = 0, uses_anonymous_args = 0
 1677              	.LVL105:
 1678 0000 2DE9F04F 		push	{r4, r5, r6, r7, r8, r9, r10, fp, lr}
 1679              		.cfi_def_cfa_offset 36
 1680              		.cfi_offset 4, -36
 1681              		.cfi_offset 5, -32
 1682              		.cfi_offset 6, -28
 1683              		.cfi_offset 7, -24
 1684              		.cfi_offset 8, -20
 1685              		.cfi_offset 9, -16
 1686              		.cfi_offset 10, -12
 1687              		.cfi_offset 11, -8
 1688              		.cfi_offset 14, -4
ARM GAS  /tmp/cc2F28k2.s 			page 31


 1689 0004 9B46     		mov	fp, r3
 1690 0006 83B0     		sub	sp, sp, #12
 1691              		.cfi_def_cfa_offset 48
 1692              		.loc 1 727 0
 1693 0008 0446     		mov	r4, r0
 1694 000a 0D46     		mov	r5, r1
 1695 000c 9046     		mov	r8, r2
 1696              	.LBB492:
 1697              	.LBB493:
 1698              	.LBB494:
 1699              	.LBB495:
 1700              	.LBB496:
 1701              		.loc 4 264 0
 1702 000e 2023     		movs	r3, #32
 1703              	.LVL106:
 1704              	@ 264 "../../../../../ChibiOS-RT/os/common/ext/CMSIS/include/cmsis_gcc.h" 1
 1705 0010 83F31188 		MSR basepri, r3
 1706              	@ 0 "" 2
 1707              		.thumb
 1708              	.LBE496:
 1709              	.LBE495:
 1710              	.LBE494:
 1711              	.LBE493:
 1712              	.LBE492:
 1713              	.LBB497:
 1714              	.LBB498:
 1715              	.LBB499:
 1716              	.LBB500:
 1717              	.LBB501:
 1718              		.loc 5 141 0
 1719 0014 4FF08043 		mov	r3, #1073741824
 1720              	.LBE501:
 1721              	.LBE500:
 1722              	.LBE499:
 1723              	.LBE498:
 1724              	.LBE497:
 1725              	.LBB506:
 1726              		.loc 1 742 0
 1727 0018 606A     		ldr	r0, [r4, #36]
 1728              	.LVL107:
 1729              	.LBE506:
 1730              	.LBB559:
 1731              	.LBB505:
 1732              	.LBB504:
 1733              	.LBB503:
 1734              	.LBB502:
 1735              		.loc 5 141 0
 1736 001a 5A6A     		ldr	r2, [r3, #36]
 1737              	.LVL108:
 1738              	.LBE502:
 1739              	.LBE503:
 1740              	.LBE504:
 1741              	.LBE505:
 1742              	.LBE559:
 1743              		.loc 1 728 0
 1744 001c 0027     		movs	r7, #0
 1745              		.loc 1 736 0
ARM GAS  /tmp/cc2F28k2.s 			page 32


 1746 001e 5A44     		add	r2, fp, r2
 1747              	.LBB560:
 1748              	.LBB507:
 1749              		.loc 1 747 0
 1750 0020 0BF1FF33 		add	r3, fp, #-1
 1751              	.LBE507:
 1752              	.LBE560:
 1753              		.loc 1 736 0
 1754 0024 0192     		str	r2, [sp, #4]
 1755              	.LVL109:
 1756              	.LBB561:
 1757              	.LBB527:
 1758              		.loc 1 747 0
 1759 0026 0093     		str	r3, [sp]
 1760              	.LBE527:
 1761              	.LBB528:
 1762              	.LBB529:
 1763              	.LBB530:
 1764              	.LBB531:
 1765              	.LBB532:
 1766              	.LBB533:
 1767              		.loc 4 264 0
 1768 0028 B946     		mov	r9, r7
 1769              	.LBE533:
 1770              	.LBE532:
 1771              	.LBE531:
 1772              	.LBE530:
 1773              	.LBE529:
 1774              	.LBE528:
 1775              	.LBB544:
 1776              	.LBB545:
 1777              	.LBB546:
 1778              	.LBB547:
 1779              	.LBB548:
 1780 002a 4FF0200A 		mov	r10, #32
 1781              	.LBE548:
 1782              	.LBE547:
 1783              	.LBE546:
 1784              	.LBE545:
 1785              	.LBE544:
 1786              		.loc 1 742 0
 1787 002e 50B3     		cbz	r0, .L98
 1788              	.LVL110:
 1789              	.L85:
 1790              		.loc 1 771 0
 1791 0030 A36A     		ldr	r3, [r4, #40]
 1792              		.loc 1 772 0
 1793 0032 C7EB0806 		rsb	r6, r7, r8
 1794              		.loc 1 771 0
 1795 0036 1B1A     		subs	r3, r3, r0
 1796              	.LVL111:
 1797 0038 B342     		cmp	r3, r6
 1798 003a 38BF     		it	cc
 1799 003c 1E46     		movcc	r6, r3
 1800              	.LVL112:
 1801              		.loc 1 778 0
 1802 003e 402E     		cmp	r6, #64
ARM GAS  /tmp/cc2F28k2.s 			page 33


 1803 0040 31D9     		bls	.L91
 1804              		.loc 1 780 0
 1805 0042 05F14003 		add	r3, r5, #64
 1806              	.LVL113:
 1807              	.L92:
 1808 0046 D5F800C0 		ldr	ip, [r5]	@ unaligned
 1809 004a 6E68     		ldr	r6, [r5, #4]	@ unaligned
 1810 004c A968     		ldr	r1, [r5, #8]	@ unaligned
 1811 004e EA68     		ldr	r2, [r5, #12]	@ unaligned
 1812 0050 C0F800C0 		str	ip, [r0]	@ unaligned
 1813 0054 1035     		adds	r5, r5, #16
 1814 0056 9D42     		cmp	r5, r3
 1815 0058 4660     		str	r6, [r0, #4]	@ unaligned
 1816 005a 8160     		str	r1, [r0, #8]	@ unaligned
 1817 005c C260     		str	r2, [r0, #12]	@ unaligned
 1818 005e 00F11000 		add	r0, r0, #16
 1819 0062 F0D1     		bne	.L92
 1820              		.loc 1 782 0
 1821 0064 636A     		ldr	r3, [r4, #36]
 1822              	.LVL114:
 1823              		.loc 1 793 0
 1824 0066 A26A     		ldr	r2, [r4, #40]
 1825              		.loc 1 782 0
 1826 0068 4033     		adds	r3, r3, #64
 1827              		.loc 1 793 0
 1828 006a 9A42     		cmp	r2, r3
 1829              		.loc 1 783 0
 1830 006c 07F14007 		add	r7, r7, #64
 1831              	.LVL115:
 1832              		.loc 1 782 0
 1833 0070 6362     		str	r3, [r4, #36]
 1834              	.LVL116:
 1835              		.loc 1 793 0
 1836 0072 24D9     		bls	.L99
 1837              	.L94:
 1838              	.LVL117:
 1839              	.LBB553:
 1840              	.LBB542:
 1841              	.LBB540:
 1842              	.LBB538:
 1843              	.LBB536:
 1844              	.LBB534:
 1845              		.loc 4 264 0
 1846              	@ 264 "../../../../../ChibiOS-RT/os/common/ext/CMSIS/include/cmsis_gcc.h" 1
 1847 0074 89F31188 		MSR basepri, r9
 1848              	@ 0 "" 2
 1849              		.thumb
 1850              	.LBE534:
 1851              	.LBE536:
 1852              	.LBE538:
 1853              	.LBE540:
 1854              	.LBE542:
 1855              	.LBE553:
 1856              		.loc 1 799 0
 1857 0078 4745     		cmp	r7, r8
 1858 007a 29D2     		bcs	.L89
 1859              	.L102:
ARM GAS  /tmp/cc2F28k2.s 			page 34


 1860              	.LVL118:
 1861              	.LBB554:
 1862              	.LBB552:
 1863              	.LBB551:
 1864              	.LBB550:
 1865              	.LBB549:
 1866              		.loc 4 264 0
 1867              	@ 264 "../../../../../ChibiOS-RT/os/common/ext/CMSIS/include/cmsis_gcc.h" 1
 1868 007c 8AF31188 		MSR basepri, r10
 1869              	@ 0 "" 2
 1870              		.thumb
 1871              	.LBE549:
 1872              	.LBE550:
 1873              	.LBE551:
 1874              	.LBE552:
 1875              	.LBE554:
 1876              		.loc 1 742 0
 1877 0080 606A     		ldr	r0, [r4, #36]
 1878 0082 0028     		cmp	r0, #0
 1879 0084 D4D1     		bne	.L85
 1880              	.LVL119:
 1881              	.L98:
 1882              	.LBB555:
 1883              		.loc 1 747 0
 1884 0086 009B     		ldr	r3, [sp]
 1885 0088 0333     		adds	r3, r3, #3
 1886 008a 25D8     		bhi	.L100
 1887              	.LBB508:
 1888              	.LBB509:
 1889              	.LBB510:
 1890              	.LBB511:
 1891              	.LBB512:
 1892              	.LBB513:
 1893              		.loc 5 141 0
 1894 008c 4FF08043 		mov	r3, #1073741824
 1895 0090 596A     		ldr	r1, [r3, #36]
 1896              	.LBE513:
 1897              	.LBE512:
 1898              	.LBE511:
 1899              	.LBE510:
 1900              	.LBE509:
 1901              		.loc 1 751 0
 1902 0092 019B     		ldr	r3, [sp, #4]
 1903 0094 591A     		subs	r1, r3, r1
 1904              	.LVL120:
 1905              		.loc 1 756 0
 1906 0096 8B45     		cmp	fp, r1
 1907 0098 2BD3     		bcc	.L101
 1908              		.loc 1 760 0
 1909 009a 2046     		mov	r0, r4
 1910 009c FFF7FEFF 		bl	obqGetEmptyBufferTimeoutS
 1911              	.LVL121:
 1912              	.LBE508:
 1913              		.loc 1 764 0
 1914 00a0 00BB     		cbnz	r0, .L90
 1915              	.L103:
 1916 00a2 606A     		ldr	r0, [r4, #36]
ARM GAS  /tmp/cc2F28k2.s 			page 35


 1917              	.LVL122:
 1918 00a4 C4E7     		b	.L85
 1919              	.LVL123:
 1920              	.L91:
 1921              	.LBE555:
 1922              		.loc 1 786 0
 1923 00a6 2946     		mov	r1, r5
 1924 00a8 3246     		mov	r2, r6
 1925 00aa FFF7FEFF 		bl	memcpy
 1926              	.LVL124:
 1927              		.loc 1 788 0
 1928 00ae 636A     		ldr	r3, [r4, #36]
 1929              		.loc 1 793 0
 1930 00b0 A26A     		ldr	r2, [r4, #40]
 1931              		.loc 1 788 0
 1932 00b2 3344     		add	r3, r3, r6
 1933              		.loc 1 793 0
 1934 00b4 9A42     		cmp	r2, r3
 1935              		.loc 1 789 0
 1936 00b6 3744     		add	r7, r7, r6
 1937              	.LVL125:
 1938              		.loc 1 787 0
 1939 00b8 3544     		add	r5, r5, r6
 1940              	.LVL126:
 1941              		.loc 1 788 0
 1942 00ba 6362     		str	r3, [r4, #36]
 1943              		.loc 1 793 0
 1944 00bc DAD8     		bhi	.L94
 1945              	.LVL127:
 1946              	.L99:
 1947              		.loc 1 794 0
 1948 00be A169     		ldr	r1, [r4, #24]
 1949 00c0 2046     		mov	r0, r4
 1950 00c2 0439     		subs	r1, r1, #4
 1951 00c4 FFF7FEFF 		bl	obqPostFullBufferS
 1952              	.LVL128:
 1953              	.LBB556:
 1954              	.LBB543:
 1955              	.LBB541:
 1956              	.LBB539:
 1957              	.LBB537:
 1958              	.LBB535:
 1959              		.loc 4 264 0
 1960              	@ 264 "../../../../../ChibiOS-RT/os/common/ext/CMSIS/include/cmsis_gcc.h" 1
 1961 00c8 89F31188 		MSR basepri, r9
 1962              	@ 0 "" 2
 1963              		.thumb
 1964              	.LBE535:
 1965              	.LBE537:
 1966              	.LBE539:
 1967              	.LBE541:
 1968              	.LBE543:
 1969              	.LBE556:
 1970              		.loc 1 799 0
 1971 00cc 4745     		cmp	r7, r8
 1972 00ce D5D3     		bcc	.L102
 1973              	.LVL129:
ARM GAS  /tmp/cc2F28k2.s 			page 36


 1974              	.L89:
 1975              	.LBE561:
 1976              		.loc 1 804 0
 1977 00d0 3846     		mov	r0, r7
 1978 00d2 03B0     		add	sp, sp, #12
 1979              		@ sp needed
 1980 00d4 BDE8F08F 		pop	{r4, r5, r6, r7, r8, r9, r10, fp, pc}
 1981              	.LVL130:
 1982              	.L100:
 1983              	.LBB562:
 1984              	.LBB557:
 1985              		.loc 1 748 0
 1986 00d8 2046     		mov	r0, r4
 1987 00da 5946     		mov	r1, fp
 1988 00dc FFF7FEFF 		bl	obqGetEmptyBufferTimeoutS
 1989              	.LVL131:
 1990              		.loc 1 764 0
 1991 00e0 0028     		cmp	r0, #0
 1992 00e2 DED0     		beq	.L103
 1993              	.L90:
 1994              	.LVL132:
 1995              	.LBB520:
 1996              	.LBB521:
 1997              	.LBB522:
 1998              	.LBB523:
 1999              	.LBB524:
 2000              	.LBB525:
 2001              		.loc 4 264 0
 2002 00e4 0023     		movs	r3, #0
 2003              	@ 264 "../../../../../ChibiOS-RT/os/common/ext/CMSIS/include/cmsis_gcc.h" 1
 2004 00e6 83F31188 		MSR basepri, r3
 2005              	@ 0 "" 2
 2006              		.thumb
 2007              	.LBE525:
 2008              	.LBE524:
 2009              	.LBE523:
 2010              	.LBE522:
 2011              	.LBE521:
 2012              	.LBE520:
 2013              	.LBE557:
 2014              	.LBE562:
 2015              		.loc 1 804 0
 2016 00ea 3846     		mov	r0, r7
 2017              	.LVL133:
 2018 00ec 03B0     		add	sp, sp, #12
 2019              		@ sp needed
 2020 00ee BDE8F08F 		pop	{r4, r5, r6, r7, r8, r9, r10, fp, pc}
 2021              	.LVL134:
 2022              	.L101:
 2023              	.LBB563:
 2024              	.LBB558:
 2025              	.LBB526:
 2026              	.LBB514:
 2027              	.LBB515:
 2028              	.LBB516:
 2029              	.LBB517:
 2030              	.LBB518:
ARM GAS  /tmp/cc2F28k2.s 			page 37


 2031              	.LBB519:
 2032              		.loc 4 264 0
 2033              	@ 264 "../../../../../ChibiOS-RT/os/common/ext/CMSIS/include/cmsis_gcc.h" 1
 2034 00f2 80F31188 		MSR basepri, r0
 2035              	@ 0 "" 2
 2036              		.thumb
 2037              	.LBE519:
 2038              	.LBE518:
 2039              	.LBE517:
 2040              	.LBE516:
 2041              	.LBE515:
 2042              	.LBE514:
 2043              		.loc 1 758 0
 2044 00f6 EBE7     		b	.L89
 2045              	.LBE526:
 2046              	.LBE558:
 2047              	.LBE563:
 2048              		.cfi_endproc
 2049              	.LFE289:
 2050              		.size	obqWriteTimeout, .-obqWriteTimeout
 2051 00f8 AFF30080 		.section	.text.obqTryFlushI,"ax",%progbits
 2051      AFF30080 
 2052              		.align	2
 2053              		.p2align 4,,15
 2054              		.global	obqTryFlushI
 2055              		.thumb
 2056              		.thumb_func
 2057              		.type	obqTryFlushI, %function
 2058              	obqTryFlushI:
 2059              	.LFB290:
 2060              		.loc 1 819 0
 2061              		.cfi_startproc
 2062              		@ args = 0, pretend = 0, frame = 0
 2063              		@ frame_needed = 0, uses_anonymous_args = 0
 2064              		@ link register save eliminated.
 2065              	.LVL135:
 2066              		.loc 1 825 0
 2067 0000 C368     		ldr	r3, [r0, #12]
 2068 0002 0269     		ldr	r2, [r0, #16]
 2069 0004 9342     		cmp	r3, r2
 2070              		.loc 1 819 0
 2071 0006 10B4     		push	{r4}
 2072              		.cfi_def_cfa_offset 4
 2073              		.cfi_offset 4, -4
 2074              		.loc 1 825 0
 2075 0008 03D0     		beq	.L113
 2076              	.L109:
 2077              		.loc 1 846 0
 2078 000a 0020     		movs	r0, #0
 2079              	.LVL136:
 2080              	.L111:
 2081              		.loc 1 847 0
 2082 000c 5DF8044B 		ldr	r4, [sp], #4
 2083 0010 7047     		bx	lr
 2084              	.LVL137:
 2085              	.L113:
 2086              		.loc 1 825 0 discriminator 1
ARM GAS  /tmp/cc2F28k2.s 			page 38


 2087 0012 8268     		ldr	r2, [r0, #8]
 2088 0014 C2B1     		cbz	r2, .L112
 2089              		.loc 1 825 0 is_stmt 0
 2090 0016 426A     		ldr	r2, [r0, #36]
 2091 0018 B2B1     		cbz	r2, .L112
 2092              	.LBB564:
 2093              		.loc 1 826 0 is_stmt 1
 2094 001a 043A     		subs	r2, r2, #4
 2095              	.LVL138:
 2096              		.loc 1 828 0
 2097 001c D21A     		subs	r2, r2, r3
 2098              	.LVL139:
 2099 001e F4D0     		beq	.L109
 2100              		.loc 1 831 0
 2101 0020 1A60     		str	r2, [r3]
 2102              		.loc 1 835 0
 2103 0022 8169     		ldr	r1, [r0, #24]
 2104              		.loc 1 836 0
 2105 0024 4269     		ldr	r2, [r0, #20]
 2106              	.LVL140:
 2107              		.loc 1 834 0
 2108 0026 8468     		ldr	r4, [r0, #8]
 2109              		.loc 1 835 0
 2110 0028 0B44     		add	r3, r3, r1
 2111              	.LVL141:
 2112              		.loc 1 836 0
 2113 002a 9342     		cmp	r3, r2
 2114              		.loc 1 835 0
 2115 002c C360     		str	r3, [r0, #12]
 2116              	.LVL142:
 2117              		.loc 1 837 0
 2118 002e 28BF     		it	cs
 2119 0030 036A     		ldrcs	r3, [r0, #32]
 2120              		.loc 1 834 0
 2121 0032 04F1FF34 		add	r4, r4, #-1
 2122              		.loc 1 837 0
 2123 0036 28BF     		it	cs
 2124 0038 C360     		strcs	r3, [r0, #12]
 2125              		.loc 1 841 0
 2126 003a 0023     		movs	r3, #0
 2127              		.loc 1 834 0
 2128 003c 8460     		str	r4, [r0, #8]
 2129              		.loc 1 841 0
 2130 003e 4362     		str	r3, [r0, #36]
 2131              	.LBE564:
 2132              		.loc 1 847 0
 2133 0040 5DF8044B 		ldr	r4, [sp], #4
 2134              	.LBB565:
 2135              		.loc 1 843 0
 2136 0044 0120     		movs	r0, #1
 2137              	.LVL143:
 2138              	.LBE565:
 2139              		.loc 1 847 0
 2140 0046 7047     		bx	lr
 2141              	.LVL144:
 2142              	.L112:
 2143              		.loc 1 846 0
ARM GAS  /tmp/cc2F28k2.s 			page 39


 2144 0048 1046     		mov	r0, r2
 2145              	.LVL145:
 2146 004a DFE7     		b	.L111
 2147              		.cfi_endproc
 2148              	.LFE290:
 2149              		.size	obqTryFlushI, .-obqTryFlushI
 2150 004c AFF30080 		.section	.text.obqFlush,"ax",%progbits
 2151              		.align	2
 2152              		.p2align 4,,15
 2153              		.global	obqFlush
 2154              		.thumb
 2155              		.thumb_func
 2156              		.type	obqFlush, %function
 2157              	obqFlush:
 2158              	.LFB291:
 2159              		.loc 1 856 0
 2160              		.cfi_startproc
 2161              		@ args = 0, pretend = 0, frame = 0
 2162              		@ frame_needed = 0, uses_anonymous_args = 0
 2163              	.LVL146:
 2164 0000 08B5     		push	{r3, lr}
 2165              		.cfi_def_cfa_offset 8
 2166              		.cfi_offset 3, -8
 2167              		.cfi_offset 14, -4
 2168              	.LBB566:
 2169              	.LBB567:
 2170              	.LBB568:
 2171              	.LBB569:
 2172              	.LBB570:
 2173              		.loc 4 264 0
 2174 0002 2023     		movs	r3, #32
 2175              	@ 264 "../../../../../ChibiOS-RT/os/common/ext/CMSIS/include/cmsis_gcc.h" 1
 2176 0004 83F31188 		MSR basepri, r3
 2177              	@ 0 "" 2
 2178              		.thumb
 2179              	.LBE570:
 2180              	.LBE569:
 2181              	.LBE568:
 2182              	.LBE567:
 2183              	.LBE566:
 2184              		.loc 1 861 0
 2185 0008 436A     		ldr	r3, [r0, #36]
 2186 000a 2BB1     		cbz	r3, .L115
 2187              	.LBB571:
 2188              		.loc 1 862 0
 2189 000c C268     		ldr	r2, [r0, #12]
 2190 000e 043B     		subs	r3, r3, #4
 2191              	.LVL147:
 2192              		.loc 1 864 0
 2193 0010 991A     		subs	r1, r3, r2
 2194              	.LVL148:
 2195 0012 01D0     		beq	.L115
 2196              		.loc 1 865 0
 2197 0014 FFF7FEFF 		bl	obqPostFullBufferS
 2198              	.LVL149:
 2199              	.L115:
 2200              	.LBE571:
ARM GAS  /tmp/cc2F28k2.s 			page 40


 2201              	.LBB572:
 2202              	.LBB573:
 2203              	.LBB574:
 2204              	.LBB575:
 2205              	.LBB576:
 2206              	.LBB577:
 2207              		.loc 4 264 0
 2208 0018 0023     		movs	r3, #0
 2209              	@ 264 "../../../../../ChibiOS-RT/os/common/ext/CMSIS/include/cmsis_gcc.h" 1
 2210 001a 83F31188 		MSR basepri, r3
 2211              	@ 0 "" 2
 2212              		.thumb
 2213 001e 08BD     		pop	{r3, pc}
 2214              	.LBE577:
 2215              	.LBE576:
 2216              	.LBE575:
 2217              	.LBE574:
 2218              	.LBE573:
 2219              	.LBE572:
 2220              		.cfi_endproc
 2221              	.LFE291:
 2222              		.size	obqFlush, .-obqFlush
 2223              		.text
 2224              	.Letext0:
 2225              		.file 6 "/usr/lib/gcc/arm-none-eabi/4.8.2/include/stddef.h"
 2226              		.file 7 "/usr/include/newlib/machine/_default_types.h"
 2227              		.file 8 "/usr/include/newlib/stdint.h"
 2228              		.file 9 "../../../../../ChibiOS-RT/os/common/ports/ARMCMx/compilers/GCC/chtypes.h"
 2229              		.file 10 "../../../../../ChibiOS-RT/os/rt/include/chsystypes.h"
 2230              		.file 11 "../../../../../ChibiOS-RT/os/common/ports/ARMCMx/chcore.h"
 2231              		.file 12 "../../../../../ChibiOS-RT/os/common/ports/ARMCMx/chcore_v7m.h"
 2232              		.file 13 "../../../../../ChibiOS-RT/os/hal/ports/STM32/LLD/TIMv1/stm32_tim.h"
 2233              		.file 14 "../../../../../ChibiOS-RT/os/rt/include/chtrace.h"
 2234              		.file 15 "../../../../../ChibiOS-RT/os/rt/include/chtm.h"
 2235              		.file 16 "../../../../../ChibiOS-RT/os/rt/include/chsem.h"
 2236              		.file 17 "../../../../../ChibiOS-RT/os/rt/include/chmtx.h"
 2237              		.file 18 "../../../../../ChibiOS-RT/os/hal/include/hal_buffers.h"
 2238              		.file 19 "../../../../../ChibiOS-RT/os/common/ports/ARMCMx/chcore_timer.h"
 2239              		.file 20 "../../../../../ChibiOS-RT/os/rt/include/chsys.h"
 2240              		.file 21 "../../../../../ChibiOS-RT/os/rt/include/chvt.h"
 2241              		.file 22 "../../../../../ChibiOS-RT/os/rt/include/chthreads.h"
 2242              		.file 23 "../../../../../ChibiOS-RT/os/common/ext/CMSIS/include/core_cm4.h"