ARM GAS  /tmp/ccYlXmaR.s 			page 1


   1              		.syntax unified
   2              		.cpu cortex-m4
   3              		.fpu softvfp
   4              		.eabi_attribute 20, 1
   5              		.eabi_attribute 21, 1
   6              		.eabi_attribute 23, 3
   7              		.eabi_attribute 24, 1
   8              		.eabi_attribute 25, 1
   9              		.eabi_attribute 26, 1
  10              		.eabi_attribute 30, 2
  11              		.eabi_attribute 34, 1
  12              		.eabi_attribute 18, 4
  13              		.thumb
  14              		.file	"hal_rtc.c"
  15              		.text
  16              	.Ltext0:
  17              		.cfi_sections	.debug_frame
  18              		.section	.text.rtcInit,"ax",%progbits
  19              		.align	2
  20              		.p2align 4,,15
  21              		.global	rtcInit
  22              		.thumb
  23              		.thumb_func
  24              		.type	rtcInit, %function
  25              	rtcInit:
  26              	.LFB270:
  27              		.file 1 "../../../../../ChibiOS-RT/os/hal/src/hal_rtc.c"
  28              		.loc 1 67 0
  29              		.cfi_startproc
  30              		@ args = 0, pretend = 0, frame = 0
  31              		@ frame_needed = 0, uses_anonymous_args = 0
  32              		@ link register save eliminated.
  33              		.loc 1 69 0
  34 0000 FFF7FEBF 		b	rtc_lld_init
  35              	.LVL0:
  36              		.cfi_endproc
  37              	.LFE270:
  38              		.size	rtcInit, .-rtcInit
  39 0004 AFF30080 		.section	.text.rtcObjectInit,"ax",%progbits
  39      AFF30080 
  39      AFF30080 
  40              		.align	2
  41              		.p2align 4,,15
  42              		.global	rtcObjectInit
  43              		.thumb
  44              		.thumb_func
  45              		.type	rtcObjectInit, %function
  46              	rtcObjectInit:
  47              	.LFB271:
  48              		.loc 1 81 0
  49              		.cfi_startproc
  50              		@ args = 0, pretend = 0, frame = 0
  51              		@ frame_needed = 0, uses_anonymous_args = 0
  52              		@ link register save eliminated.
  53              	.LVL1:
  54 0000 7047     		bx	lr
  55              		.cfi_endproc
ARM GAS  /tmp/ccYlXmaR.s 			page 2


  56              	.LFE271:
  57              		.size	rtcObjectInit, .-rtcObjectInit
  58 0002 00BFAFF3 		.section	.text.rtcSetTime,"ax",%progbits
  58      0080AFF3 
  58      0080AFF3 
  58      0080
  59              		.align	2
  60              		.p2align 4,,15
  61              		.global	rtcSetTime
  62              		.thumb
  63              		.thumb_func
  64              		.type	rtcSetTime, %function
  65              	rtcSetTime:
  66              	.LFB272:
  67              		.loc 1 104 0
  68              		.cfi_startproc
  69              		@ args = 0, pretend = 0, frame = 0
  70              		@ frame_needed = 0, uses_anonymous_args = 0
  71              		@ link register save eliminated.
  72              	.LVL2:
  73              		.loc 1 108 0
  74 0000 FFF7FEBF 		b	rtc_lld_set_time
  75              	.LVL3:
  76              		.cfi_endproc
  77              	.LFE272:
  78              		.size	rtcSetTime, .-rtcSetTime
  79 0004 AFF30080 		.section	.text.rtcGetTime,"ax",%progbits
  79      AFF30080 
  79      AFF30080 
  80              		.align	2
  81              		.p2align 4,,15
  82              		.global	rtcGetTime
  83              		.thumb
  84              		.thumb_func
  85              		.type	rtcGetTime, %function
  86              	rtcGetTime:
  87              	.LFB273:
  88              		.loc 1 125 0
  89              		.cfi_startproc
  90              		@ args = 0, pretend = 0, frame = 0
  91              		@ frame_needed = 0, uses_anonymous_args = 0
  92              		@ link register save eliminated.
  93              	.LVL4:
  94              		.loc 1 129 0
  95 0000 FFF7FEBF 		b	rtc_lld_get_time
  96              	.LVL5:
  97              		.cfi_endproc
  98              	.LFE273:
  99              		.size	rtcGetTime, .-rtcGetTime
 100 0004 AFF30080 		.section	.text.rtcSetAlarm,"ax",%progbits
 100      AFF30080 
 100      AFF30080 
 101              		.align	2
 102              		.p2align 4,,15
 103              		.global	rtcSetAlarm
 104              		.thumb
 105              		.thumb_func
ARM GAS  /tmp/ccYlXmaR.s 			page 3


 106              		.type	rtcSetAlarm, %function
 107              	rtcSetAlarm:
 108              	.LFB274:
 109              		.loc 1 150 0
 110              		.cfi_startproc
 111              		@ args = 0, pretend = 0, frame = 0
 112              		@ frame_needed = 0, uses_anonymous_args = 0
 113              		@ link register save eliminated.
 114              	.LVL6:
 115              		.loc 1 154 0
 116 0000 FFF7FEBF 		b	rtc_lld_set_alarm
 117              	.LVL7:
 118              		.cfi_endproc
 119              	.LFE274:
 120              		.size	rtcSetAlarm, .-rtcSetAlarm
 121 0004 AFF30080 		.section	.text.rtcGetAlarm,"ax",%progbits
 121      AFF30080 
 121      AFF30080 
 122              		.align	2
 123              		.p2align 4,,15
 124              		.global	rtcGetAlarm
 125              		.thumb
 126              		.thumb_func
 127              		.type	rtcGetAlarm, %function
 128              	rtcGetAlarm:
 129              	.LFB275:
 130              		.loc 1 176 0
 131              		.cfi_startproc
 132              		@ args = 0, pretend = 0, frame = 0
 133              		@ frame_needed = 0, uses_anonymous_args = 0
 134              		@ link register save eliminated.
 135              	.LVL8:
 136              		.loc 1 182 0
 137 0000 FFF7FEBF 		b	rtc_lld_get_alarm
 138              	.LVL9:
 139              		.cfi_endproc
 140              	.LFE275:
 141              		.size	rtcGetAlarm, .-rtcGetAlarm
 142 0004 AFF30080 		.section	.text.rtcConvertDateTimeToStructTm,"ax",%progbits
 142      AFF30080 
 142      AFF30080 
 143              		.align	2
 144              		.p2align 4,,15
 145              		.global	rtcConvertDateTimeToStructTm
 146              		.thumb
 147              		.thumb_func
 148              		.type	rtcConvertDateTimeToStructTm, %function
 149              	rtcConvertDateTimeToStructTm:
 150              	.LFB276:
 151              		.loc 1 222 0
 152              		.cfi_startproc
 153              		@ args = 0, pretend = 0, frame = 0
 154              		@ frame_needed = 0, uses_anonymous_args = 0
 155              		@ link register save eliminated.
 156              	.LVL10:
 157 0000 2DE9F00F 		push	{r4, r5, r6, r7, r8, r9, r10, fp}
 158              		.cfi_def_cfa_offset 32
ARM GAS  /tmp/ccYlXmaR.s 			page 4


 159              		.cfi_offset 4, -32
 160              		.cfi_offset 5, -28
 161              		.cfi_offset 6, -24
 162              		.cfi_offset 7, -20
 163              		.cfi_offset 8, -16
 164              		.cfi_offset 9, -12
 165              		.cfi_offset 10, -8
 166              		.cfi_offset 11, -4
 167              		.loc 1 231 0
 168 0004 4668     		ldr	r6, [r0, #4]
 169              		.loc 1 226 0
 170 0006 4478     		ldrb	r4, [r0, #1]	@ zero_extendqisi2
 171              		.loc 1 225 0
 172 0008 90F800C0 		ldrb	ip, [r0]	@ zero_extendqisi2
 173              		.loc 1 227 0
 174 000c 90F80280 		ldrb	r8, [r0, #2]	@ zero_extendqisi2
 175              		.loc 1 231 0
 176 0010 44F6D355 		movw	r5, #19923
 177 0014 C6F31A06 		ubfx	r6, r6, #0, #27
 178 0018 C1F26205 		movt	r5, 4194
 179 001c 85FB0603 		smull	r0, r3, r5, r6
 180              	.LVL11:
 181              		.loc 1 232 0
 182 0020 4BF2C537 		movw	r7, #46021
 183              		.loc 1 231 0
 184 0024 9B09     		lsrs	r3, r3, #6
 185              	.LVL12:
 186              		.loc 1 232 0
 187 0026 C9F2A217 		movt	r7, 37282
 188 002a 87FB0397 		smull	r9, r7, r7, r3
 189 002e 1F44     		add	r7, r7, r3
 190              		.loc 1 233 0
 191 0030 4FF46169 		mov	r9, #3600
 192              		.loc 1 232 0
 193 0034 FF12     		asrs	r7, r7, #11
 194              		.loc 1 234 0
 195 0036 48F68900 		movw	r0, #34953
 196              		.loc 1 233 0
 197 003a 09FB1733 		mls	r3, r9, r7, r3
 198              	.LVL13:
 199              		.loc 1 234 0
 200 003e C8F68800 		movt	r0, 34952
 201 0042 80FB0390 		smull	r9, r0, r0, r3
 202 0046 1844     		add	r0, r0, r3
 203 0048 4FEAE379 		asr	r9, r3, #31
 204 004c C9EB6010 		rsb	r0, r9, r0, asr #5
 205              		.loc 1 226 0
 206 0050 04F00F0B 		and	fp, r4, #15
 207              		.loc 1 229 0
 208 0054 4FEA541A 		lsr	r10, r4, #5
 209              		.loc 1 235 0
 210 0058 C0EB0019 		rsb	r9, r0, r0, lsl #4
 211              		.loc 1 225 0
 212 005c 0CF1500C 		add	ip, ip, #80
 213              		.loc 1 226 0
 214 0060 0BF1FF3B 		add	fp, fp, #-1
 215              		.loc 1 227 0
ARM GAS  /tmp/ccYlXmaR.s 			page 5


 216 0064 08F01F08 		and	r8, r8, #31
 217              		.loc 1 228 0
 218 0068 C4F30014 		ubfx	r4, r4, #4, #1
 219              		.loc 1 229 0
 220 006c 0AF1FF3A 		add	r10, r10, #-1
 221              		.loc 1 235 0
 222 0070 A3EB8903 		sub	r3, r3, r9, lsl #2
 223              	.LVL14:
 224              		.loc 1 225 0
 225 0074 C1F814C0 		str	ip, [r1, #20]
 226              		.loc 1 226 0
 227 0078 C1F810B0 		str	fp, [r1, #16]
 228              		.loc 1 227 0
 229 007c C1F80C80 		str	r8, [r1, #12]
 230              		.loc 1 228 0
 231 0080 0C62     		str	r4, [r1, #32]
 232              		.loc 1 229 0
 233 0082 C1F818A0 		str	r10, [r1, #24]
 234              		.loc 1 232 0
 235 0086 8F60     		str	r7, [r1, #8]
 236              		.loc 1 234 0
 237 0088 4860     		str	r0, [r1, #4]
 238              		.loc 1 235 0
 239 008a 0B60     		str	r3, [r1]
 240              		.loc 1 237 0
 241 008c 3AB1     		cbz	r2, .L7
 242              		.loc 1 238 0
 243 008e A5FB0605 		umull	r0, r5, r5, r6
 244              	.LVL15:
 245 0092 AD09     		lsrs	r5, r5, #6
 246 0094 4FF47A73 		mov	r3, #1000
 247 0098 03FB1566 		mls	r6, r3, r5, r6
 248 009c 1660     		str	r6, [r2]
 249              	.L7:
 250              		.loc 1 240 0
 251 009e BDE8F00F 		pop	{r4, r5, r6, r7, r8, r9, r10, fp}
 252 00a2 7047     		bx	lr
 253              		.cfi_endproc
 254              	.LFE276:
 255              		.size	rtcConvertDateTimeToStructTm, .-rtcConvertDateTimeToStructTm
 256 00a4 AFF30080 		.section	.text.rtcConvertStructTmToDateTime,"ax",%progbits
 256      AFF30080 
 256      AFF30080 
 257              		.align	2
 258              		.p2align 4,,15
 259              		.global	rtcConvertStructTmToDateTime
 260              		.thumb
 261              		.thumb_func
 262              		.type	rtcConvertStructTmToDateTime, %function
 263              	rtcConvertStructTmToDateTime:
 264              	.LFB277:
 265              		.loc 1 253 0
 266              		.cfi_startproc
 267              		@ args = 0, pretend = 0, frame = 0
 268              		@ frame_needed = 0, uses_anonymous_args = 0
 269              		@ link register save eliminated.
 270              	.LVL16:
ARM GAS  /tmp/ccYlXmaR.s 			page 6


 271 0000 2DE9F001 		push	{r4, r5, r6, r7, r8}
 272              		.cfi_def_cfa_offset 20
 273              		.cfi_offset 4, -20
 274              		.cfi_offset 5, -16
 275              		.cfi_offset 6, -12
 276              		.cfi_offset 7, -8
 277              		.cfi_offset 8, -4
 278              		.loc 1 257 0
 279 0004 0669     		ldr	r6, [r0, #16]
 280              		.loc 1 258 0
 281 0006 9478     		ldrb	r4, [r2, #2]	@ zero_extendqisi2
 282              		.loc 1 260 0
 283 0008 056A     		ldr	r5, [r0, #32]
 284              		.loc 1 259 0
 285 000a 8769     		ldr	r7, [r0, #24]
 286              		.loc 1 257 0
 287 000c 5378     		ldrb	r3, [r2, #1]	@ zero_extendqisi2
 288 000e 06F10108 		add	r8, r6, #1
 289              		.loc 1 256 0
 290 0012 4669     		ldr	r6, [r0, #20]
 291 0014 A6F1500C 		sub	ip, r6, #80
 292              		.loc 1 258 0
 293 0018 C668     		ldr	r6, [r0, #12]
 294              		.loc 1 256 0
 295 001a 82F800C0 		strb	ip, [r2]
 296              		.loc 1 258 0
 297 001e 66F30404 		bfi	r4, r6, #0, #5
 298              		.loc 1 257 0
 299 0022 68F30303 		bfi	r3, r8, #0, #4
 300              		.loc 1 259 0
 301 0026 0137     		adds	r7, r7, #1
 302              		.loc 1 258 0
 303 0028 9470     		strb	r4, [r2, #2]
 304              		.loc 1 260 0
 305 002a 6C1C     		adds	r4, r5, #1
 306              		.loc 1 269 0
 307 002c 51C8     		ldmia	r0, {r0, r4, r6}
 308              	.LVL17:
 309              		.loc 1 259 0
 310 002e 67F34713 		bfi	r3, r7, #5, #3
 311 0032 5370     		strb	r3, [r2, #1]
 312              		.loc 1 264 0
 313 0034 18BF     		it	ne
 314 0036 5378     		ldrbne	r3, [r2, #1]	@ zero_extendqisi2
 315              		.loc 1 269 0
 316 0038 C4EB0414 		rsb	r4, r4, r4, lsl #4
 317              		.loc 1 261 0
 318 003c 0CBF     		ite	eq
 319 003e DBB2     		uxtbeq	r3, r3
 320              		.loc 1 264 0
 321 0040 65F30413 		bfine	r3, r5, #4, #1
 322              		.loc 1 269 0
 323 0044 4FEA8405 		lsl	r5, r4, #2
 324              		.loc 1 268 0
 325 0048 4FF46164 		mov	r4, #3600
 326              		.loc 1 261 0
 327 004c 08BF     		it	eq
ARM GAS  /tmp/ccYlXmaR.s 			page 7


 328 004e 6FF30413 		bfceq	r3, #4, #1
 329              		.loc 1 268 0
 330 0052 04FB0654 		mla	r4, r4, r6, r5
 331              		.loc 1 269 0
 332 0056 0444     		add	r4, r4, r0
 333              		.loc 1 264 0
 334 0058 5370     		strb	r3, [r2, #1]
 335              		.loc 1 270 0
 336 005a 4FF47A70 		mov	r0, #1000
 337              		.loc 1 268 0
 338 005e 5368     		ldr	r3, [r2, #4]
 339 0060 00FB0411 		mla	r1, r0, r4, r1
 340              	.LVL18:
 341 0064 61F31A03 		bfi	r3, r1, #0, #27
 342 0068 5360     		str	r3, [r2, #4]
 343              		.loc 1 272 0
 344 006a BDE8F001 		pop	{r4, r5, r6, r7, r8}
 345 006e 7047     		bx	lr
 346              		.cfi_endproc
 347              	.LFE277:
 348              		.size	rtcConvertStructTmToDateTime, .-rtcConvertStructTmToDateTime
 349              		.section	.text.rtcConvertDateTimeToFAT,"ax",%progbits
 350              		.align	2
 351              		.p2align 4,,15
 352              		.global	rtcConvertDateTimeToFAT
 353              		.thumb
 354              		.thumb_func
 355              		.type	rtcConvertDateTimeToFAT, %function
 356              	rtcConvertDateTimeToFAT:
 357              	.LFB278:
 358              		.loc 1 284 0
 359              		.cfi_startproc
 360              		@ args = 0, pretend = 0, frame = 0
 361              		@ frame_needed = 0, uses_anonymous_args = 0
 362              		@ link register save eliminated.
 363              	.LVL19:
 364              		.loc 1 288 0
 365 0000 4168     		ldr	r1, [r0, #4]
 366              		.loc 1 294 0
 367 0002 4278     		ldrb	r2, [r0, #1]	@ zero_extendqisi2
 368              		.loc 1 288 0
 369 0004 44F6D353 		movw	r3, #19923
 370 0008 C1F26203 		movt	r3, 4194
 371 000c C1F31A01 		ubfx	r1, r1, #0, #27
 372              		.loc 1 284 0
 373 0010 70B4     		push	{r4, r5, r6}
 374              		.cfi_def_cfa_offset 12
 375              		.cfi_offset 4, -12
 376              		.cfi_offset 5, -8
 377              		.cfi_offset 6, -4
 378              		.loc 1 288 0
 379 0012 A3FB0141 		umull	r4, r1, r3, r1
 380              		.loc 1 289 0
 381 0016 4BF2C533 		movw	r3, #46021
 382              		.loc 1 288 0
 383 001a 8909     		lsrs	r1, r1, #6
 384              	.LVL20:
ARM GAS  /tmp/ccYlXmaR.s 			page 8


 385              		.loc 1 289 0
 386 001c C9F2A213 		movt	r3, 37282
 387 0020 A3FB0163 		umull	r6, r3, r3, r1
 388 0024 DC0A     		lsrs	r4, r3, #11
 389              	.LVL21:
 390              		.loc 1 290 0
 391 0026 4FF46166 		mov	r6, #3600
 392              		.loc 1 291 0
 393 002a 48F68903 		movw	r3, #34953
 394              		.loc 1 290 0
 395 002e 06FB1411 		mls	r1, r6, r4, r1
 396              	.LVL22:
 397              		.loc 1 291 0
 398 0032 C8F68803 		movt	r3, 34952
 399 0036 A3FB0163 		umull	r6, r3, r3, r1
 400              		.loc 1 293 0
 401 003a 8578     		ldrb	r5, [r0, #2]	@ zero_extendqisi2
 402              		.loc 1 291 0
 403 003c 5B09     		lsrs	r3, r3, #5
 404              	.LVL23:
 405              		.loc 1 292 0
 406 003e C3EB0316 		rsb	r6, r3, r3, lsl #4
 407 0042 A1EB8601 		sub	r1, r1, r6, lsl #2
 408              	.LVL24:
 409              		.loc 1 293 0
 410 0046 05F01F06 		and	r6, r5, #31
 411              	.LVL25:
 412              		.loc 1 294 0
 413 004a 02F00F05 		and	r5, r2, #15
 414              	.LVL26:
 415              		.loc 1 297 0
 416 004e D206     		lsls	r2, r2, #27
 417 0050 0ED4     		bmi	.L17
 418              	.L21:
 419 0052 E402     		lsls	r4, r4, #11
 420              	.LVL27:
 421 0054 3604     		lsls	r6, r6, #16
 422              	.LVL28:
 423              	.L18:
 424              		.loc 1 314 0
 425 0056 0278     		ldrb	r2, [r0]	@ zero_extendqisi2
 426              		.loc 1 310 0
 427 0058 5B01     		lsls	r3, r3, #5
 428              	.LVL29:
 429 005a 43EA5101 		orr	r1, r3, r1, lsr #1
 430              	.LVL30:
 431              		.loc 1 311 0
 432 005e 41EA4261 		orr	r1, r1, r2, lsl #25
 433              	.LVL31:
 434              		.loc 1 312 0
 435 0062 0C43     		orrs	r4, r4, r1
 436              		.loc 1 313 0
 437 0064 44EA0600 		orr	r0, r4, r6
 438              	.LVL32:
 439              		.loc 1 317 0
 440 0068 40EA4550 		orr	r0, r0, r5, lsl #21
 441              	.LVL33:
ARM GAS  /tmp/ccYlXmaR.s 			page 9


 442 006c 70BC     		pop	{r4, r5, r6}
 443              	.LVL34:
 444 006e 7047     		bx	lr
 445              	.LVL35:
 446              	.L17:
 447              		.loc 1 298 0
 448 0070 0134     		adds	r4, r4, #1
 449              	.LVL36:
 450              		.loc 1 299 0
 451 0072 182C     		cmp	r4, #24
 452 0074 EDD1     		bne	.L21
 453              	.LVL37:
 454              		.loc 1 302 0
 455 0076 40F20002 		movw	r2, #:lower16:.LANCHOR0
 456 007a C0F20002 		movt	r2, #:upper16:.LANCHOR0
 457 007e 2A44     		add	r2, r2, r5
 458              		.loc 1 301 0
 459 0080 0136     		adds	r6, r6, #1
 460              	.LVL38:
 461              		.loc 1 302 0
 462 0082 12F8012C 		ldrb	r2, [r2, #-1]	@ zero_extendqisi2
 463 0086 9642     		cmp	r6, r2
 464 0088 92BF     		itee	ls
 465 008a 3604     		lslls	r6, r6, #16
 466              	.LVL39:
 467              		.loc 1 304 0
 468 008c 0135     		addhi	r5, r5, #1
 469              	.LVL40:
 470 008e 4FF48036 		movhi	r6, #65536
 471 0092 0024     		movs	r4, #0
 472 0094 DFE7     		b	.L18
 473              		.cfi_endproc
 474              	.LFE278:
 475              		.size	rtcConvertDateTimeToFAT, .-rtcConvertDateTimeToFAT
 476 0096 00BFAFF3 		.section	.rodata.month_len,"a",%progbits
 476      0080AFF3 
 476      0080
 477              		.align	2
 478              		.set	.LANCHOR0,. + 0
 479              		.type	month_len, %object
 480              		.size	month_len, 12
 481              	month_len:
 482 0000 1F       		.byte	31
 483 0001 1E       		.byte	30
 484 0002 1F       		.byte	31
 485 0003 1E       		.byte	30
 486 0004 1F       		.byte	31
 487 0005 1E       		.byte	30
 488 0006 1F       		.byte	31
 489 0007 1F       		.byte	31
 490 0008 1E       		.byte	30
 491 0009 1F       		.byte	31
 492 000a 1E       		.byte	30
 493 000b 1F       		.byte	31
 494              		.text
 495              	.Letext0:
 496              		.file 2 "/usr/include/newlib/machine/_default_types.h"
ARM GAS  /tmp/ccYlXmaR.s 			page 10


 497              		.file 3 "/usr/include/newlib/stdint.h"
 498              		.file 4 "../../../../../ChibiOS-RT/os/common/ports/ARMCMx/compilers/GCC/chtypes.h"
 499              		.file 5 "../../../../../ChibiOS-RT/os/rt/include/chsystypes.h"
 500              		.file 6 "../../../../../ChibiOS-RT/os/rt/include/chschd.h"
 501              		.file 7 "../../../../../ChibiOS-RT/os/common/ext/CMSIS/ST/STM32F4xx/stm32f401xe.h"
 502              		.file 8 "../../../../../ChibiOS-RT/os/common/ports/ARMCMx/chcore.h"
 503              		.file 9 "../../../../../ChibiOS-RT/os/common/ports/ARMCMx/chcore_v7m.h"
 504              		.file 10 "../../../../../ChibiOS-RT/os/rt/include/chtrace.h"
 505              		.file 11 "../../../../../ChibiOS-RT/os/rt/include/chtm.h"
 506              		.file 12 "../../../../../ChibiOS-RT/os/rt/include/chsem.h"
 507              		.file 13 "../../../../../ChibiOS-RT/os/rt/include/chmtx.h"
 508              		.file 14 "/usr/include/newlib/time.h"
 509              		.file 15 "../../../../../ChibiOS-RT/os/hal/include/hal_rtc.h"
 510              		.file 16 "../../../../../ChibiOS-RT/os/hal/ports/STM32/LLD/RTCv2/hal_rtc_lld.h"
 511              		.file 17 "../../../../../ChibiOS-RT/os/common/ext/CMSIS/include/core_cm4.h"
 512              		.section	.debug_info,"",%progbits
 513              	.Ldebug_info0:
 514 0000 C30E0000 		.4byte	0xec3
 515 0004 0400     		.2byte	0x4
 516 0006 00000000 		.4byte	.Ldebug_abbrev0
 517 000a 04       		.byte	0x4
 518 000b 01       		.uleb128 0x1
 519 000c 97000000 		.4byte	.LASF180
 520 0010 01       		.byte	0x1
 521 0011 B9070000 		.4byte	.LASF181
 522 0015 55030000 		.4byte	.LASF182
 523 0019 00000000 		.4byte	.Ldebug_ranges0+0
 524 001d 00000000 		.4byte	0
 525 0021 00000000 		.4byte	.Ldebug_line0
 526 0025 02       		.uleb128 0x2
 527 0026 08       		.byte	0x8
 528 0027 07       		.byte	0x7
 529 0028 3B010000 		.4byte	.LASF0
 530 002c 03       		.uleb128 0x3
 531 002d 04       		.byte	0x4
 532 002e 05       		.byte	0x5
 533 002f 696E7400 		.ascii	"int\000"
 534 0033 02       		.uleb128 0x2
 535 0034 04       		.byte	0x4
 536 0035 07       		.byte	0x7
 537 0036 BA060000 		.4byte	.LASF1
 538 003a 02       		.uleb128 0x2
 539 003b 01       		.byte	0x1
 540 003c 06       		.byte	0x6
 541 003d 11020000 		.4byte	.LASF2
 542 0041 04       		.uleb128 0x4
 543 0042 47000000 		.4byte	.LASF5
 544 0046 02       		.byte	0x2
 545 0047 1C       		.byte	0x1c
 546 0048 4C000000 		.4byte	0x4c
 547 004c 02       		.uleb128 0x2
 548 004d 01       		.byte	0x1
 549 004e 08       		.byte	0x8
 550 004f F6050000 		.4byte	.LASF3
 551 0053 02       		.uleb128 0x2
 552 0054 02       		.byte	0x2
 553 0055 05       		.byte	0x5
ARM GAS  /tmp/ccYlXmaR.s 			page 11


 554 0056 16060000 		.4byte	.LASF4
 555 005a 04       		.uleb128 0x4
 556 005b C7060000 		.4byte	.LASF6
 557 005f 02       		.byte	0x2
 558 0060 26       		.byte	0x26
 559 0061 65000000 		.4byte	0x65
 560 0065 02       		.uleb128 0x2
 561 0066 02       		.byte	0x2
 562 0067 07       		.byte	0x7
 563 0068 EB030000 		.4byte	.LASF7
 564 006c 04       		.uleb128 0x4
 565 006d 77040000 		.4byte	.LASF8
 566 0071 02       		.byte	0x2
 567 0072 37       		.byte	0x37
 568 0073 77000000 		.4byte	0x77
 569 0077 02       		.uleb128 0x2
 570 0078 04       		.byte	0x4
 571 0079 05       		.byte	0x5
 572 007a 41020000 		.4byte	.LASF9
 573 007e 04       		.uleb128 0x4
 574 007f 9C020000 		.4byte	.LASF10
 575 0083 02       		.byte	0x2
 576 0084 38       		.byte	0x38
 577 0085 89000000 		.4byte	0x89
 578 0089 02       		.uleb128 0x2
 579 008a 04       		.byte	0x4
 580 008b 07       		.byte	0x7
 581 008c 27030000 		.4byte	.LASF11
 582 0090 02       		.uleb128 0x2
 583 0091 08       		.byte	0x8
 584 0092 05       		.byte	0x5
 585 0093 03020000 		.4byte	.LASF12
 586 0097 04       		.uleb128 0x4
 587 0098 5F050000 		.4byte	.LASF13
 588 009c 02       		.byte	0x2
 589 009d 4E       		.byte	0x4e
 590 009e 25000000 		.4byte	0x25
 591 00a2 04       		.uleb128 0x4
 592 00a3 A4070000 		.4byte	.LASF14
 593 00a7 03       		.byte	0x3
 594 00a8 2A       		.byte	0x2a
 595 00a9 41000000 		.4byte	0x41
 596 00ad 04       		.uleb128 0x4
 597 00ae 76020000 		.4byte	.LASF15
 598 00b2 03       		.byte	0x3
 599 00b3 36       		.byte	0x36
 600 00b4 5A000000 		.4byte	0x5a
 601 00b8 04       		.uleb128 0x4
 602 00b9 EE050000 		.4byte	.LASF16
 603 00bd 03       		.byte	0x3
 604 00be 41       		.byte	0x41
 605 00bf 6C000000 		.4byte	0x6c
 606 00c3 04       		.uleb128 0x4
 607 00c4 57070000 		.4byte	.LASF17
 608 00c8 03       		.byte	0x3
 609 00c9 42       		.byte	0x42
 610 00ca 7E000000 		.4byte	0x7e
ARM GAS  /tmp/ccYlXmaR.s 			page 12


 611 00ce 04       		.uleb128 0x4
 612 00cf 3E000000 		.4byte	.LASF18
 613 00d3 03       		.byte	0x3
 614 00d4 4E       		.byte	0x4e
 615 00d5 97000000 		.4byte	0x97
 616 00d9 04       		.uleb128 0x4
 617 00da 3E070000 		.4byte	.LASF19
 618 00de 04       		.byte	0x4
 619 00df 39       		.byte	0x39
 620 00e0 C3000000 		.4byte	0xc3
 621 00e4 04       		.uleb128 0x4
 622 00e5 50040000 		.4byte	.LASF20
 623 00e9 04       		.byte	0x4
 624 00ea 3C       		.byte	0x3c
 625 00eb A2000000 		.4byte	0xa2
 626 00ef 04       		.uleb128 0x4
 627 00f0 50020000 		.4byte	.LASF21
 628 00f4 04       		.byte	0x4
 629 00f5 3D       		.byte	0x3d
 630 00f6 A2000000 		.4byte	0xa2
 631 00fa 04       		.uleb128 0x4
 632 00fb 8F050000 		.4byte	.LASF22
 633 00ff 04       		.byte	0x4
 634 0100 3E       		.byte	0x3e
 635 0101 A2000000 		.4byte	0xa2
 636 0105 04       		.uleb128 0x4
 637 0106 CA050000 		.4byte	.LASF23
 638 010a 04       		.byte	0x4
 639 010b 40       		.byte	0x40
 640 010c C3000000 		.4byte	0xc3
 641 0110 04       		.uleb128 0x4
 642 0111 2E040000 		.4byte	.LASF24
 643 0115 04       		.byte	0x4
 644 0116 41       		.byte	0x41
 645 0117 B8000000 		.4byte	0xb8
 646 011b 04       		.uleb128 0x4
 647 011c 6B040000 		.4byte	.LASF25
 648 0120 04       		.byte	0x4
 649 0121 43       		.byte	0x43
 650 0122 C3000000 		.4byte	0xc3
 651 0126 04       		.uleb128 0x4
 652 0127 00030000 		.4byte	.LASF26
 653 012b 04       		.byte	0x4
 654 012c 45       		.byte	0x45
 655 012d B8000000 		.4byte	0xb8
 656 0131 04       		.uleb128 0x4
 657 0132 E3060000 		.4byte	.LASF27
 658 0136 05       		.byte	0x5
 659 0137 33       		.byte	0x33
 660 0138 C3000000 		.4byte	0xc3
 661 013c 04       		.uleb128 0x4
 662 013d D2060000 		.4byte	.LASF28
 663 0141 05       		.byte	0x5
 664 0142 3F       		.byte	0x3f
 665 0143 47010000 		.4byte	0x147
 666 0147 05       		.uleb128 0x5
 667 0148 07040000 		.4byte	.LASF46
ARM GAS  /tmp/ccYlXmaR.s 			page 13


 668 014c 44       		.byte	0x44
 669 014d 06       		.byte	0x6
 670 014e 9A       		.byte	0x9a
 671 014f 25020000 		.4byte	0x225
 672 0153 06       		.uleb128 0x6
 673 0154 3E030000 		.4byte	.LASF29
 674 0158 06       		.byte	0x6
 675 0159 9B       		.byte	0x9b
 676 015a 5A020000 		.4byte	0x25a
 677 015e 00       		.byte	0
 678 015f 06       		.uleb128 0x6
 679 0160 47050000 		.4byte	.LASF30
 680 0164 06       		.byte	0x6
 681 0165 9C       		.byte	0x9c
 682 0166 05010000 		.4byte	0x105
 683 016a 08       		.byte	0x8
 684 016b 07       		.uleb128 0x7
 685 016c 63747800 		.ascii	"ctx\000"
 686 0170 06       		.byte	0x6
 687 0171 9D       		.byte	0x9d
 688 0172 93060000 		.4byte	0x693
 689 0176 0C       		.byte	0xc
 690 0177 06       		.uleb128 0x6
 691 0178 46070000 		.4byte	.LASF31
 692 017c 06       		.byte	0x6
 693 017d 9F       		.byte	0x9f
 694 017e 30020000 		.4byte	0x230
 695 0182 10       		.byte	0x10
 696 0183 06       		.uleb128 0x6
 697 0184 B4060000 		.4byte	.LASF32
 698 0188 06       		.byte	0x6
 699 0189 A0       		.byte	0xa0
 700 018a 30020000 		.4byte	0x230
 701 018e 14       		.byte	0x14
 702 018f 06       		.uleb128 0x6
 703 0190 39030000 		.4byte	.LASF33
 704 0194 06       		.byte	0x6
 705 0195 A7       		.byte	0xa7
 706 0196 63070000 		.4byte	0x763
 707 019a 18       		.byte	0x18
 708 019b 06       		.uleb128 0x6
 709 019c A8060000 		.4byte	.LASF34
 710 01a0 06       		.byte	0x6
 711 01a1 B0       		.byte	0xb0
 712 01a2 7C090000 		.4byte	0x97c
 713 01a6 1C       		.byte	0x1c
 714 01a7 06       		.uleb128 0x6
 715 01a8 3B020000 		.4byte	.LASF35
 716 01ac 06       		.byte	0x6
 717 01ad B5       		.byte	0xb5
 718 01ae EF000000 		.4byte	0xef
 719 01b2 20       		.byte	0x20
 720 01b3 06       		.uleb128 0x6
 721 01b4 B3070000 		.4byte	.LASF36
 722 01b8 06       		.byte	0x6
 723 01b9 B9       		.byte	0xb9
 724 01ba E4000000 		.4byte	0xe4
ARM GAS  /tmp/ccYlXmaR.s 			page 14


 725 01be 21       		.byte	0x21
 726 01bf 06       		.uleb128 0x6
 727 01c0 A6050000 		.4byte	.LASF37
 728 01c4 06       		.byte	0x6
 729 01c5 BE       		.byte	0xbe
 730 01c6 FA000000 		.4byte	0xfa
 731 01ca 22       		.byte	0x22
 732 01cb 08       		.uleb128 0x8
 733 01cc 7500     		.ascii	"u\000"
 734 01ce 06       		.byte	0x6
 735 01cf 0F01     		.2byte	0x10f
 736 01d1 B1080000 		.4byte	0x8b1
 737 01d5 24       		.byte	0x24
 738 01d6 09       		.uleb128 0x9
 739 01d7 CA020000 		.4byte	.LASF38
 740 01db 06       		.byte	0x6
 741 01dc 1401     		.2byte	0x114
 742 01de 36020000 		.4byte	0x236
 743 01e2 28       		.byte	0x28
 744 01e3 09       		.uleb128 0x9
 745 01e4 81040000 		.4byte	.LASF39
 746 01e8 06       		.byte	0x6
 747 01e9 1A01     		.2byte	0x11a
 748 01eb 5A020000 		.4byte	0x25a
 749 01ef 2C       		.byte	0x2c
 750 01f0 09       		.uleb128 0x9
 751 01f1 34040000 		.4byte	.LASF40
 752 01f5 06       		.byte	0x6
 753 01f6 2001     		.2byte	0x120
 754 01f8 1B010000 		.4byte	0x11b
 755 01fc 34       		.byte	0x34
 756 01fd 09       		.uleb128 0x9
 757 01fe 0E080000 		.4byte	.LASF41
 758 0202 06       		.byte	0x6
 759 0203 2701     		.2byte	0x127
 760 0205 76090000 		.4byte	0x976
 761 0209 38       		.byte	0x38
 762 020a 09       		.uleb128 0x9
 763 020b 9F060000 		.4byte	.LASF42
 764 020f 06       		.byte	0x6
 765 0210 2B01     		.2byte	0x12b
 766 0212 05010000 		.4byte	0x105
 767 0216 3C       		.byte	0x3c
 768 0217 09       		.uleb128 0x9
 769 0218 D3030000 		.4byte	.LASF43
 770 021c 06       		.byte	0x6
 771 021d 3201     		.2byte	0x132
 772 021f 0D030000 		.4byte	0x30d
 773 0223 40       		.byte	0x40
 774 0224 00       		.byte	0
 775 0225 04       		.uleb128 0x4
 776 0226 D6040000 		.4byte	.LASF44
 777 022a 05       		.byte	0x5
 778 022b 44       		.byte	0x44
 779 022c 30020000 		.4byte	0x230
 780 0230 0A       		.uleb128 0xa
 781 0231 04       		.byte	0x4
ARM GAS  /tmp/ccYlXmaR.s 			page 15


 782 0232 3C010000 		.4byte	0x13c
 783 0236 04       		.uleb128 0x4
 784 0237 07000000 		.4byte	.LASF45
 785 023b 05       		.byte	0x5
 786 023c 49       		.byte	0x49
 787 023d 41020000 		.4byte	0x241
 788 0241 05       		.uleb128 0x5
 789 0242 89060000 		.4byte	.LASF47
 790 0246 04       		.byte	0x4
 791 0247 06       		.byte	0x6
 792 0248 88       		.byte	0x88
 793 0249 5A020000 		.4byte	0x25a
 794 024d 06       		.uleb128 0x6
 795 024e EF070000 		.4byte	.LASF48
 796 0252 06       		.byte	0x6
 797 0253 89       		.byte	0x89
 798 0254 30020000 		.4byte	0x230
 799 0258 00       		.byte	0
 800 0259 00       		.byte	0
 801 025a 04       		.uleb128 0x4
 802 025b 77070000 		.4byte	.LASF49
 803 025f 05       		.byte	0x5
 804 0260 50       		.byte	0x50
 805 0261 65020000 		.4byte	0x265
 806 0265 05       		.uleb128 0x5
 807 0266 62000000 		.4byte	.LASF50
 808 026a 08       		.byte	0x8
 809 026b 06       		.byte	0x6
 810 026c 8F       		.byte	0x8f
 811 026d 8A020000 		.4byte	0x28a
 812 0271 06       		.uleb128 0x6
 813 0272 EF070000 		.4byte	.LASF48
 814 0276 06       		.byte	0x6
 815 0277 90       		.byte	0x90
 816 0278 30020000 		.4byte	0x230
 817 027c 00       		.byte	0
 818 027d 06       		.uleb128 0x6
 819 027e 51000000 		.4byte	.LASF51
 820 0282 06       		.byte	0x6
 821 0283 91       		.byte	0x91
 822 0284 30020000 		.4byte	0x230
 823 0288 04       		.byte	0x4
 824 0289 00       		.byte	0
 825 028a 04       		.uleb128 0x4
 826 028b 16000000 		.4byte	.LASF52
 827 028f 05       		.byte	0x5
 828 0290 57       		.byte	0x57
 829 0291 95020000 		.4byte	0x295
 830 0295 0B       		.uleb128 0xb
 831 0296 5D040000 		.4byte	.LASF53
 832 029a 1C       		.byte	0x1c
 833 029b 06       		.byte	0x6
 834 029c 6A01     		.2byte	0x16a
 835 029e F1020000 		.4byte	0x2f1
 836 02a2 09       		.uleb128 0x9
 837 02a3 3E030000 		.4byte	.LASF29
 838 02a7 06       		.byte	0x6
ARM GAS  /tmp/ccYlXmaR.s 			page 16


 839 02a8 6B01     		.2byte	0x16b
 840 02aa 5A020000 		.4byte	0x25a
 841 02ae 00       		.byte	0
 842 02af 09       		.uleb128 0x9
 843 02b0 47050000 		.4byte	.LASF30
 844 02b4 06       		.byte	0x6
 845 02b5 6C01     		.2byte	0x16c
 846 02b7 05010000 		.4byte	0x105
 847 02bb 08       		.byte	0x8
 848 02bc 08       		.uleb128 0x8
 849 02bd 63747800 		.ascii	"ctx\000"
 850 02c1 06       		.byte	0x6
 851 02c2 6E01     		.2byte	0x16e
 852 02c4 93060000 		.4byte	0x693
 853 02c8 0C       		.byte	0xc
 854 02c9 09       		.uleb128 0x9
 855 02ca 46070000 		.4byte	.LASF31
 856 02ce 06       		.byte	0x6
 857 02cf 7101     		.2byte	0x171
 858 02d1 30020000 		.4byte	0x230
 859 02d5 10       		.byte	0x10
 860 02d6 09       		.uleb128 0x9
 861 02d7 B4060000 		.4byte	.LASF32
 862 02db 06       		.byte	0x6
 863 02dc 7201     		.2byte	0x172
 864 02de 30020000 		.4byte	0x230
 865 02e2 14       		.byte	0x14
 866 02e3 09       		.uleb128 0x9
 867 02e4 57050000 		.4byte	.LASF54
 868 02e8 06       		.byte	0x6
 869 02e9 7501     		.2byte	0x175
 870 02eb 30020000 		.4byte	0x230
 871 02ef 18       		.byte	0x18
 872 02f0 00       		.byte	0
 873 02f1 04       		.uleb128 0x4
 874 02f2 ED060000 		.4byte	.LASF55
 875 02f6 05       		.byte	0x5
 876 02f7 5C       		.byte	0x5c
 877 02f8 FC020000 		.4byte	0x2fc
 878 02fc 0A       		.uleb128 0xa
 879 02fd 04       		.byte	0x4
 880 02fe 02030000 		.4byte	0x302
 881 0302 0C       		.uleb128 0xc
 882 0303 0D030000 		.4byte	0x30d
 883 0307 0D       		.uleb128 0xd
 884 0308 0D030000 		.4byte	0x30d
 885 030c 00       		.byte	0
 886 030d 0E       		.uleb128 0xe
 887 030e 04       		.byte	0x4
 888 030f 04       		.uleb128 0x4
 889 0310 AB050000 		.4byte	.LASF56
 890 0314 05       		.byte	0x5
 891 0315 61       		.byte	0x61
 892 0316 1A030000 		.4byte	0x31a
 893 031a 0B       		.uleb128 0xb
 894 031b 25070000 		.4byte	.LASF57
 895 031f 14       		.byte	0x14
ARM GAS  /tmp/ccYlXmaR.s 			page 17


 896 0320 06       		.byte	0x6
 897 0321 4501     		.2byte	0x145
 898 0323 69030000 		.4byte	0x369
 899 0327 09       		.uleb128 0x9
 900 0328 EF070000 		.4byte	.LASF48
 901 032c 06       		.byte	0x6
 902 032d 4601     		.2byte	0x146
 903 032f 82090000 		.4byte	0x982
 904 0333 00       		.byte	0
 905 0334 09       		.uleb128 0x9
 906 0335 51000000 		.4byte	.LASF51
 907 0339 06       		.byte	0x6
 908 033a 4701     		.2byte	0x147
 909 033c 82090000 		.4byte	0x982
 910 0340 04       		.byte	0x4
 911 0341 09       		.uleb128 0x9
 912 0342 31000000 		.4byte	.LASF58
 913 0346 06       		.byte	0x6
 914 0347 4801     		.2byte	0x148
 915 0349 31010000 		.4byte	0x131
 916 034d 08       		.byte	0x8
 917 034e 09       		.uleb128 0x9
 918 034f 6A020000 		.4byte	.LASF59
 919 0353 06       		.byte	0x6
 920 0354 4901     		.2byte	0x149
 921 0356 F1020000 		.4byte	0x2f1
 922 035a 0C       		.byte	0xc
 923 035b 08       		.uleb128 0x8
 924 035c 70617200 		.ascii	"par\000"
 925 0360 06       		.byte	0x6
 926 0361 4B01     		.2byte	0x14b
 927 0363 0D030000 		.4byte	0x30d
 928 0367 10       		.byte	0x10
 929 0368 00       		.byte	0
 930 0369 04       		.uleb128 0x4
 931 036a A8010000 		.4byte	.LASF60
 932 036e 05       		.byte	0x5
 933 036f 66       		.byte	0x66
 934 0370 74030000 		.4byte	0x374
 935 0374 0B       		.uleb128 0xb
 936 0375 E9040000 		.4byte	.LASF61
 937 0379 10       		.byte	0x10
 938 037a 06       		.byte	0x6
 939 037b 5501     		.2byte	0x155
 940 037d B6030000 		.4byte	0x3b6
 941 0381 09       		.uleb128 0x9
 942 0382 EF070000 		.4byte	.LASF48
 943 0386 06       		.byte	0x6
 944 0387 5601     		.2byte	0x156
 945 0389 82090000 		.4byte	0x982
 946 038d 00       		.byte	0
 947 038e 09       		.uleb128 0x9
 948 038f 51000000 		.4byte	.LASF51
 949 0393 06       		.byte	0x6
 950 0394 5801     		.2byte	0x158
 951 0396 82090000 		.4byte	0x982
 952 039a 04       		.byte	0x4
ARM GAS  /tmp/ccYlXmaR.s 			page 18


 953 039b 09       		.uleb128 0x9
 954 039c 31000000 		.4byte	.LASF58
 955 03a0 06       		.byte	0x6
 956 03a1 5A01     		.2byte	0x15a
 957 03a3 31010000 		.4byte	0x131
 958 03a7 08       		.byte	0x8
 959 03a8 09       		.uleb128 0x9
 960 03a9 20060000 		.4byte	.LASF62
 961 03ad 06       		.byte	0x6
 962 03ae 6201     		.2byte	0x162
 963 03b0 31010000 		.4byte	0x131
 964 03b4 0C       		.byte	0xc
 965 03b5 00       		.byte	0
 966 03b6 04       		.uleb128 0x4
 967 03b7 73000000 		.4byte	.LASF63
 968 03bb 05       		.byte	0x5
 969 03bc 6B       		.byte	0x6b
 970 03bd C1030000 		.4byte	0x3c1
 971 03c1 0F       		.uleb128 0xf
 972 03c2 D8050000 		.4byte	.LASF64
 973 03c6 0C08     		.2byte	0x80c
 974 03c8 06       		.byte	0x6
 975 03c9 7C01     		.2byte	0x17c
 976 03cb EA030000 		.4byte	0x3ea
 977 03cf 09       		.uleb128 0x9
 978 03d0 FE060000 		.4byte	.LASF65
 979 03d4 06       		.byte	0x6
 980 03d5 8401     		.2byte	0x184
 981 03d7 88090000 		.4byte	0x988
 982 03db 00       		.byte	0
 983 03dc 09       		.uleb128 0x9
 984 03dd FA070000 		.4byte	.LASF66
 985 03e1 06       		.byte	0x6
 986 03e2 9301     		.2byte	0x193
 987 03e4 86080000 		.4byte	0x886
 988 03e8 04       		.byte	0x4
 989 03e9 00       		.byte	0
 990 03ea 04       		.uleb128 0x4
 991 03eb 3D040000 		.4byte	.LASF67
 992 03ef 05       		.byte	0x5
 993 03f0 70       		.byte	0x70
 994 03f1 F5030000 		.4byte	0x3f5
 995 03f5 0F       		.uleb128 0xf
 996 03f6 3B060000 		.4byte	.LASF68
 997 03fa 8008     		.2byte	0x880
 998 03fc 06       		.byte	0x6
 999 03fd 9C01     		.2byte	0x19c
 1000 03ff 46040000 		.4byte	0x446
 1001 0403 09       		.uleb128 0x9
 1002 0404 9E070000 		.4byte	.LASF69
 1003 0408 06       		.byte	0x6
 1004 0409 A001     		.2byte	0x1a0
 1005 040b 8A020000 		.4byte	0x28a
 1006 040f 00       		.byte	0
 1007 0410 09       		.uleb128 0x9
 1008 0411 2F020000 		.4byte	.LASF70
 1009 0415 06       		.byte	0x6
ARM GAS  /tmp/ccYlXmaR.s 			page 19


 1010 0416 A401     		.2byte	0x1a4
 1011 0418 69030000 		.4byte	0x369
 1012 041c 1C       		.byte	0x1c
 1013 041d 08       		.uleb128 0x8
 1014 041e 64626700 		.ascii	"dbg\000"
 1015 0422 06       		.byte	0x6
 1016 0423 A801     		.2byte	0x1a8
 1017 0425 B6030000 		.4byte	0x3b6
 1018 0429 2C       		.byte	0x2c
 1019 042a 10       		.uleb128 0x10
 1020 042b 78010000 		.4byte	.LASF71
 1021 042f 06       		.byte	0x6
 1022 0430 AC01     		.2byte	0x1ac
 1023 0432 3C010000 		.4byte	0x13c
 1024 0436 3808     		.2byte	0x838
 1025 0438 11       		.uleb128 0x11
 1026 0439 746D00   		.ascii	"tm\000"
 1027 043c 06       		.byte	0x6
 1028 043d B101     		.2byte	0x1b1
 1029 043f A6080000 		.4byte	0x8a6
 1030 0443 7C08     		.2byte	0x87c
 1031 0445 00       		.byte	0
 1032 0446 02       		.uleb128 0x2
 1033 0447 04       		.byte	0x4
 1034 0448 07       		.byte	0x7
 1035 0449 CD040000 		.4byte	.LASF72
 1036 044d 12       		.uleb128 0x12
 1037 044e C3000000 		.4byte	0xc3
 1038 0452 13       		.uleb128 0x13
 1039 0453 A2000000 		.4byte	0xa2
 1040 0457 62040000 		.4byte	0x462
 1041 045b 14       		.uleb128 0x14
 1042 045c 46040000 		.4byte	0x446
 1043 0460 0B       		.byte	0xb
 1044 0461 00       		.byte	0
 1045 0462 15       		.uleb128 0x15
 1046 0463 A0       		.byte	0xa0
 1047 0464 07       		.byte	0x7
 1048 0465 8A01     		.2byte	0x18a
 1049 0467 71060000 		.4byte	0x671
 1050 046b 08       		.uleb128 0x8
 1051 046c 545200   		.ascii	"TR\000"
 1052 046f 07       		.byte	0x7
 1053 0470 8C01     		.2byte	0x18c
 1054 0472 4D040000 		.4byte	0x44d
 1055 0476 00       		.byte	0
 1056 0477 08       		.uleb128 0x8
 1057 0478 445200   		.ascii	"DR\000"
 1058 047b 07       		.byte	0x7
 1059 047c 8D01     		.2byte	0x18d
 1060 047e 4D040000 		.4byte	0x44d
 1061 0482 04       		.byte	0x4
 1062 0483 08       		.uleb128 0x8
 1063 0484 435200   		.ascii	"CR\000"
 1064 0487 07       		.byte	0x7
 1065 0488 8E01     		.2byte	0x18e
 1066 048a 4D040000 		.4byte	0x44d
ARM GAS  /tmp/ccYlXmaR.s 			page 20


 1067 048e 08       		.byte	0x8
 1068 048f 08       		.uleb128 0x8
 1069 0490 49535200 		.ascii	"ISR\000"
 1070 0494 07       		.byte	0x7
 1071 0495 8F01     		.2byte	0x18f
 1072 0497 4D040000 		.4byte	0x44d
 1073 049b 0C       		.byte	0xc
 1074 049c 09       		.uleb128 0x9
 1075 049d 92000000 		.4byte	.LASF73
 1076 04a1 07       		.byte	0x7
 1077 04a2 9001     		.2byte	0x190
 1078 04a4 4D040000 		.4byte	0x44d
 1079 04a8 10       		.byte	0x10
 1080 04a9 09       		.uleb128 0x9
 1081 04aa 84060000 		.4byte	.LASF74
 1082 04ae 07       		.byte	0x7
 1083 04af 9101     		.2byte	0x191
 1084 04b1 4D040000 		.4byte	0x44d
 1085 04b5 14       		.byte	0x14
 1086 04b6 09       		.uleb128 0x9
 1087 04b7 00000000 		.4byte	.LASF75
 1088 04bb 07       		.byte	0x7
 1089 04bc 9201     		.2byte	0x192
 1090 04be 4D040000 		.4byte	0x44d
 1091 04c2 18       		.byte	0x18
 1092 04c3 09       		.uleb128 0x9
 1093 04c4 6A050000 		.4byte	.LASF76
 1094 04c8 07       		.byte	0x7
 1095 04c9 9301     		.2byte	0x193
 1096 04cb 4D040000 		.4byte	0x44d
 1097 04cf 1C       		.byte	0x1c
 1098 04d0 09       		.uleb128 0x9
 1099 04d1 69060000 		.4byte	.LASF77
 1100 04d5 07       		.byte	0x7
 1101 04d6 9401     		.2byte	0x194
 1102 04d8 4D040000 		.4byte	0x44d
 1103 04dc 20       		.byte	0x20
 1104 04dd 08       		.uleb128 0x8
 1105 04de 57505200 		.ascii	"WPR\000"
 1106 04e2 07       		.byte	0x7
 1107 04e3 9501     		.2byte	0x195
 1108 04e5 4D040000 		.4byte	0x44d
 1109 04e9 24       		.byte	0x24
 1110 04ea 08       		.uleb128 0x8
 1111 04eb 53535200 		.ascii	"SSR\000"
 1112 04ef 07       		.byte	0x7
 1113 04f0 9601     		.2byte	0x196
 1114 04f2 4D040000 		.4byte	0x44d
 1115 04f6 28       		.byte	0x28
 1116 04f7 09       		.uleb128 0x9
 1117 04f8 66070000 		.4byte	.LASF78
 1118 04fc 07       		.byte	0x7
 1119 04fd 9701     		.2byte	0x197
 1120 04ff 4D040000 		.4byte	0x44d
 1121 0503 2C       		.byte	0x2c
 1122 0504 09       		.uleb128 0x9
 1123 0505 58040000 		.4byte	.LASF79
ARM GAS  /tmp/ccYlXmaR.s 			page 21


 1124 0509 07       		.byte	0x7
 1125 050a 9801     		.2byte	0x198
 1126 050c 4D040000 		.4byte	0x44d
 1127 0510 30       		.byte	0x30
 1128 0511 09       		.uleb128 0x9
 1129 0512 0C030000 		.4byte	.LASF80
 1130 0516 07       		.byte	0x7
 1131 0517 9901     		.2byte	0x199
 1132 0519 4D040000 		.4byte	0x44d
 1133 051d 34       		.byte	0x34
 1134 051e 09       		.uleb128 0x9
 1135 051f 4C050000 		.4byte	.LASF81
 1136 0523 07       		.byte	0x7
 1137 0524 9A01     		.2byte	0x19a
 1138 0526 4D040000 		.4byte	0x44d
 1139 052a 38       		.byte	0x38
 1140 052b 09       		.uleb128 0x9
 1141 052c 82000000 		.4byte	.LASF82
 1142 0530 07       		.byte	0x7
 1143 0531 9B01     		.2byte	0x19b
 1144 0533 4D040000 		.4byte	0x44d
 1145 0537 3C       		.byte	0x3c
 1146 0538 09       		.uleb128 0x9
 1147 0539 89050000 		.4byte	.LASF83
 1148 053d 07       		.byte	0x7
 1149 053e 9C01     		.2byte	0x19c
 1150 0540 4D040000 		.4byte	0x44d
 1151 0544 40       		.byte	0x40
 1152 0545 09       		.uleb128 0x9
 1153 0546 F7020000 		.4byte	.LASF84
 1154 054a 07       		.byte	0x7
 1155 054b 9D01     		.2byte	0x19d
 1156 054d 4D040000 		.4byte	0x44d
 1157 0551 44       		.byte	0x44
 1158 0552 09       		.uleb128 0x9
 1159 0553 15070000 		.4byte	.LASF85
 1160 0557 07       		.byte	0x7
 1161 0558 9E01     		.2byte	0x19e
 1162 055a 4D040000 		.4byte	0x44d
 1163 055e 48       		.byte	0x48
 1164 055f 09       		.uleb128 0x9
 1165 0560 C0050000 		.4byte	.LASF86
 1166 0564 07       		.byte	0x7
 1167 0565 9F01     		.2byte	0x19f
 1168 0567 C3000000 		.4byte	0xc3
 1169 056b 4C       		.byte	0x4c
 1170 056c 09       		.uleb128 0x9
 1171 056d 2E060000 		.4byte	.LASF87
 1172 0571 07       		.byte	0x7
 1173 0572 A001     		.2byte	0x1a0
 1174 0574 4D040000 		.4byte	0x44d
 1175 0578 50       		.byte	0x50
 1176 0579 09       		.uleb128 0x9
 1177 057a 08070000 		.4byte	.LASF88
 1178 057e 07       		.byte	0x7
 1179 057f A101     		.2byte	0x1a1
 1180 0581 4D040000 		.4byte	0x44d
ARM GAS  /tmp/ccYlXmaR.s 			page 22


 1181 0585 54       		.byte	0x54
 1182 0586 09       		.uleb128 0x9
 1183 0587 F4070000 		.4byte	.LASF89
 1184 058b 07       		.byte	0x7
 1185 058c A201     		.2byte	0x1a2
 1186 058e 4D040000 		.4byte	0x44d
 1187 0592 58       		.byte	0x58
 1188 0593 09       		.uleb128 0x9
 1189 0594 8C000000 		.4byte	.LASF90
 1190 0598 07       		.byte	0x7
 1191 0599 A301     		.2byte	0x1a3
 1192 059b 4D040000 		.4byte	0x44d
 1193 059f 5C       		.byte	0x5c
 1194 05a0 09       		.uleb128 0x9
 1195 05a1 4A020000 		.4byte	.LASF91
 1196 05a5 07       		.byte	0x7
 1197 05a6 A401     		.2byte	0x1a4
 1198 05a8 4D040000 		.4byte	0x44d
 1199 05ac 60       		.byte	0x60
 1200 05ad 09       		.uleb128 0x9
 1201 05ae 11030000 		.4byte	.LASF92
 1202 05b2 07       		.byte	0x7
 1203 05b3 A501     		.2byte	0x1a5
 1204 05b5 4D040000 		.4byte	0x44d
 1205 05b9 64       		.byte	0x64
 1206 05ba 09       		.uleb128 0x9
 1207 05bb 95040000 		.4byte	.LASF93
 1208 05bf 07       		.byte	0x7
 1209 05c0 A601     		.2byte	0x1a6
 1210 05c2 4D040000 		.4byte	0x44d
 1211 05c6 68       		.byte	0x68
 1212 05c7 09       		.uleb128 0x9
 1213 05c8 83050000 		.4byte	.LASF94
 1214 05cc 07       		.byte	0x7
 1215 05cd A701     		.2byte	0x1a7
 1216 05cf 4D040000 		.4byte	0x44d
 1217 05d3 6C       		.byte	0x6c
 1218 05d4 09       		.uleb128 0x9
 1219 05d5 70060000 		.4byte	.LASF95
 1220 05d9 07       		.byte	0x7
 1221 05da A801     		.2byte	0x1a8
 1222 05dc 4D040000 		.4byte	0x44d
 1223 05e0 70       		.byte	0x70
 1224 05e1 09       		.uleb128 0x9
 1225 05e2 60070000 		.4byte	.LASF96
 1226 05e6 07       		.byte	0x7
 1227 05e7 A901     		.2byte	0x1a9
 1228 05e9 4D040000 		.4byte	0x44d
 1229 05ed 74       		.byte	0x74
 1230 05ee 09       		.uleb128 0x9
 1231 05ef 49040000 		.4byte	.LASF97
 1232 05f3 07       		.byte	0x7
 1233 05f4 AA01     		.2byte	0x1aa
 1234 05f6 4D040000 		.4byte	0x44d
 1235 05fa 78       		.byte	0x78
 1236 05fb 09       		.uleb128 0x9
 1237 05fc 3B050000 		.4byte	.LASF98
ARM GAS  /tmp/ccYlXmaR.s 			page 23


 1238 0600 07       		.byte	0x7
 1239 0601 AB01     		.2byte	0x1ab
 1240 0603 4D040000 		.4byte	0x44d
 1241 0607 7C       		.byte	0x7c
 1242 0608 09       		.uleb128 0x9
 1243 0609 45060000 		.4byte	.LASF99
 1244 060d 07       		.byte	0x7
 1245 060e AC01     		.2byte	0x1ac
 1246 0610 4D040000 		.4byte	0x44d
 1247 0614 80       		.byte	0x80
 1248 0615 09       		.uleb128 0x9
 1249 0616 1E070000 		.4byte	.LASF100
 1250 061a 07       		.byte	0x7
 1251 061b AD01     		.2byte	0x1ad
 1252 061d 4D040000 		.4byte	0x44d
 1253 0621 84       		.byte	0x84
 1254 0622 09       		.uleb128 0x9
 1255 0623 07080000 		.4byte	.LASF101
 1256 0627 07       		.byte	0x7
 1257 0628 AE01     		.2byte	0x1ae
 1258 062a 4D040000 		.4byte	0x44d
 1259 062e 88       		.byte	0x88
 1260 062f 09       		.uleb128 0x9
 1261 0630 34010000 		.4byte	.LASF102
 1262 0634 07       		.byte	0x7
 1263 0635 AF01     		.2byte	0x1af
 1264 0637 4D040000 		.4byte	0x44d
 1265 063b 8C       		.byte	0x8c
 1266 063c 09       		.uleb128 0x9
 1267 063d 6F020000 		.4byte	.LASF103
 1268 0641 07       		.byte	0x7
 1269 0642 B001     		.2byte	0x1b0
 1270 0644 4D040000 		.4byte	0x44d
 1271 0648 90       		.byte	0x90
 1272 0649 09       		.uleb128 0x9
 1273 064a AC070000 		.4byte	.LASF104
 1274 064e 07       		.byte	0x7
 1275 064f B101     		.2byte	0x1b1
 1276 0651 4D040000 		.4byte	0x44d
 1277 0655 94       		.byte	0x94
 1278 0656 09       		.uleb128 0x9
 1279 0657 AD040000 		.4byte	.LASF105
 1280 065b 07       		.byte	0x7
 1281 065c B201     		.2byte	0x1b2
 1282 065e 4D040000 		.4byte	0x44d
 1283 0662 98       		.byte	0x98
 1284 0663 09       		.uleb128 0x9
 1285 0664 9F050000 		.4byte	.LASF106
 1286 0668 07       		.byte	0x7
 1287 0669 B301     		.2byte	0x1b3
 1288 066b 4D040000 		.4byte	0x44d
 1289 066f 9C       		.byte	0x9c
 1290 0670 00       		.byte	0
 1291 0671 16       		.uleb128 0x16
 1292 0672 D3010000 		.4byte	.LASF107
 1293 0676 07       		.byte	0x7
 1294 0677 B401     		.2byte	0x1b4
ARM GAS  /tmp/ccYlXmaR.s 			page 24


 1295 0679 62040000 		.4byte	0x462
 1296 067d 04       		.uleb128 0x4
 1297 067e A7020000 		.4byte	.LASF108
 1298 0682 08       		.byte	0x8
 1299 0683 65       		.byte	0x65
 1300 0684 0D030000 		.4byte	0x30d
 1301 0688 04       		.uleb128 0x4
 1302 0689 8A040000 		.4byte	.LASF109
 1303 068d 08       		.byte	0x8
 1304 068e 6D       		.byte	0x6d
 1305 068f CE000000 		.4byte	0xce
 1306 0693 05       		.uleb128 0x5
 1307 0694 1D050000 		.4byte	.LASF110
 1308 0698 04       		.byte	0x4
 1309 0699 08       		.byte	0x8
 1310 069a 89       		.byte	0x89
 1311 069b AB060000 		.4byte	0x6ab
 1312 069f 07       		.uleb128 0x7
 1313 06a0 737000   		.ascii	"sp\000"
 1314 06a3 08       		.byte	0x8
 1315 06a4 8A       		.byte	0x8a
 1316 06a5 27070000 		.4byte	0x727
 1317 06a9 00       		.byte	0
 1318 06aa 00       		.byte	0
 1319 06ab 0B       		.uleb128 0xb
 1320 06ac 56000000 		.4byte	.LASF111
 1321 06b0 24       		.byte	0x24
 1322 06b1 09       		.byte	0x9
 1323 06b2 5901     		.2byte	0x159
 1324 06b4 27070000 		.4byte	0x727
 1325 06b8 08       		.uleb128 0x8
 1326 06b9 723400   		.ascii	"r4\000"
 1327 06bc 09       		.byte	0x9
 1328 06bd 6C01     		.2byte	0x16c
 1329 06bf 7D060000 		.4byte	0x67d
 1330 06c3 00       		.byte	0
 1331 06c4 08       		.uleb128 0x8
 1332 06c5 723500   		.ascii	"r5\000"
 1333 06c8 09       		.byte	0x9
 1334 06c9 6D01     		.2byte	0x16d
 1335 06cb 7D060000 		.4byte	0x67d
 1336 06cf 04       		.byte	0x4
 1337 06d0 08       		.uleb128 0x8
 1338 06d1 723600   		.ascii	"r6\000"
 1339 06d4 09       		.byte	0x9
 1340 06d5 6E01     		.2byte	0x16e
 1341 06d7 7D060000 		.4byte	0x67d
 1342 06db 08       		.byte	0x8
 1343 06dc 08       		.uleb128 0x8
 1344 06dd 723700   		.ascii	"r7\000"
 1345 06e0 09       		.byte	0x9
 1346 06e1 6F01     		.2byte	0x16f
 1347 06e3 7D060000 		.4byte	0x67d
 1348 06e7 0C       		.byte	0xc
 1349 06e8 08       		.uleb128 0x8
 1350 06e9 723800   		.ascii	"r8\000"
 1351 06ec 09       		.byte	0x9
ARM GAS  /tmp/ccYlXmaR.s 			page 25


 1352 06ed 7001     		.2byte	0x170
 1353 06ef 7D060000 		.4byte	0x67d
 1354 06f3 10       		.byte	0x10
 1355 06f4 08       		.uleb128 0x8
 1356 06f5 723900   		.ascii	"r9\000"
 1357 06f8 09       		.byte	0x9
 1358 06f9 7101     		.2byte	0x171
 1359 06fb 7D060000 		.4byte	0x67d
 1360 06ff 14       		.byte	0x14
 1361 0700 08       		.uleb128 0x8
 1362 0701 72313000 		.ascii	"r10\000"
 1363 0705 09       		.byte	0x9
 1364 0706 7201     		.2byte	0x172
 1365 0708 7D060000 		.4byte	0x67d
 1366 070c 18       		.byte	0x18
 1367 070d 08       		.uleb128 0x8
 1368 070e 72313100 		.ascii	"r11\000"
 1369 0712 09       		.byte	0x9
 1370 0713 7301     		.2byte	0x173
 1371 0715 7D060000 		.4byte	0x67d
 1372 0719 1C       		.byte	0x1c
 1373 071a 08       		.uleb128 0x8
 1374 071b 6C7200   		.ascii	"lr\000"
 1375 071e 09       		.byte	0x9
 1376 071f 7401     		.2byte	0x174
 1377 0721 7D060000 		.4byte	0x67d
 1378 0725 20       		.byte	0x20
 1379 0726 00       		.byte	0
 1380 0727 0A       		.uleb128 0xa
 1381 0728 04       		.byte	0x4
 1382 0729 AB060000 		.4byte	0x6ab
 1383 072d 17       		.uleb128 0x17
 1384 072e 08       		.byte	0x8
 1385 072f 0A       		.byte	0xa
 1386 0730 80       		.byte	0x80
 1387 0731 4E070000 		.4byte	0x74e
 1388 0735 07       		.uleb128 0x7
 1389 0736 6E747000 		.ascii	"ntp\000"
 1390 073a 0A       		.byte	0xa
 1391 073b 84       		.byte	0x84
 1392 073c 30020000 		.4byte	0x230
 1393 0740 00       		.byte	0
 1394 0741 06       		.uleb128 0x6
 1395 0742 E8070000 		.4byte	.LASF112
 1396 0746 0A       		.byte	0xa
 1397 0747 88       		.byte	0x88
 1398 0748 0D030000 		.4byte	0x30d
 1399 074c 04       		.byte	0x4
 1400 074d 00       		.byte	0
 1401 074e 17       		.uleb128 0x17
 1402 074f 04       		.byte	0x4
 1403 0750 0A       		.byte	0xa
 1404 0751 8D       		.byte	0x8d
 1405 0752 63070000 		.4byte	0x763
 1406 0756 06       		.uleb128 0x6
 1407 0757 39030000 		.4byte	.LASF33
 1408 075b 0A       		.byte	0xa
ARM GAS  /tmp/ccYlXmaR.s 			page 26


 1409 075c 91       		.byte	0x91
 1410 075d 63070000 		.4byte	0x763
 1411 0761 00       		.byte	0
 1412 0762 00       		.byte	0
 1413 0763 0A       		.uleb128 0xa
 1414 0764 04       		.byte	0x4
 1415 0765 69070000 		.4byte	0x769
 1416 0769 18       		.uleb128 0x18
 1417 076a 6E070000 		.4byte	0x76e
 1418 076e 02       		.uleb128 0x2
 1419 076f 01       		.byte	0x1
 1420 0770 08       		.byte	0x8
 1421 0771 AF060000 		.4byte	.LASF113
 1422 0775 17       		.uleb128 0x17
 1423 0776 04       		.byte	0x4
 1424 0777 0A       		.byte	0xa
 1425 0778 96       		.byte	0x96
 1426 0779 8A070000 		.4byte	0x78a
 1427 077d 06       		.uleb128 0x6
 1428 077e 55060000 		.4byte	.LASF114
 1429 0782 0A       		.byte	0xa
 1430 0783 9A       		.byte	0x9a
 1431 0784 63070000 		.4byte	0x763
 1432 0788 00       		.byte	0
 1433 0789 00       		.byte	0
 1434 078a 17       		.uleb128 0x17
 1435 078b 08       		.byte	0x8
 1436 078c 0A       		.byte	0xa
 1437 078d 9F       		.byte	0x9f
 1438 078e AB070000 		.4byte	0x7ab
 1439 0792 07       		.uleb128 0x7
 1440 0793 75703100 		.ascii	"up1\000"
 1441 0797 0A       		.byte	0xa
 1442 0798 A3       		.byte	0xa3
 1443 0799 0D030000 		.4byte	0x30d
 1444 079d 00       		.byte	0
 1445 079e 07       		.uleb128 0x7
 1446 079f 75703200 		.ascii	"up2\000"
 1447 07a3 0A       		.byte	0xa
 1448 07a4 A7       		.byte	0xa7
 1449 07a5 0D030000 		.4byte	0x30d
 1450 07a9 04       		.byte	0x4
 1451 07aa 00       		.byte	0
 1452 07ab 19       		.uleb128 0x19
 1453 07ac 08       		.byte	0x8
 1454 07ad 0A       		.byte	0xa
 1455 07ae 7C       		.byte	0x7c
 1456 07af DF070000 		.4byte	0x7df
 1457 07b3 1A       		.uleb128 0x1a
 1458 07b4 737700   		.ascii	"sw\000"
 1459 07b7 0A       		.byte	0xa
 1460 07b8 89       		.byte	0x89
 1461 07b9 2D070000 		.4byte	0x72d
 1462 07bd 1A       		.uleb128 0x1a
 1463 07be 69737200 		.ascii	"isr\000"
 1464 07c2 0A       		.byte	0xa
 1465 07c3 92       		.byte	0x92
ARM GAS  /tmp/ccYlXmaR.s 			page 27


 1466 07c4 4E070000 		.4byte	0x74e
 1467 07c8 1B       		.uleb128 0x1b
 1468 07c9 29060000 		.4byte	.LASF115
 1469 07cd 0A       		.byte	0xa
 1470 07ce 9B       		.byte	0x9b
 1471 07cf 75070000 		.4byte	0x775
 1472 07d3 1B       		.uleb128 0x1b
 1473 07d4 BB050000 		.4byte	.LASF116
 1474 07d8 0A       		.byte	0xa
 1475 07d9 A8       		.byte	0xa8
 1476 07da 8A070000 		.4byte	0x78a
 1477 07de 00       		.byte	0
 1478 07df 17       		.uleb128 0x17
 1479 07e0 10       		.byte	0x10
 1480 07e1 0A       		.byte	0xa
 1481 07e2 69       		.byte	0x69
 1482 07e3 2B080000 		.4byte	0x82b
 1483 07e7 1C       		.uleb128 0x1c
 1484 07e8 87000000 		.4byte	.LASF117
 1485 07ec 0A       		.byte	0xa
 1486 07ed 6D       		.byte	0x6d
 1487 07ee C3000000 		.4byte	0xc3
 1488 07f2 04       		.byte	0x4
 1489 07f3 03       		.byte	0x3
 1490 07f4 1D       		.byte	0x1d
 1491 07f5 00       		.byte	0
 1492 07f6 1C       		.uleb128 0x1c
 1493 07f7 3B020000 		.4byte	.LASF35
 1494 07fb 0A       		.byte	0xa
 1495 07fc 71       		.byte	0x71
 1496 07fd C3000000 		.4byte	0xc3
 1497 0801 04       		.byte	0x4
 1498 0802 05       		.byte	0x5
 1499 0803 18       		.byte	0x18
 1500 0804 00       		.byte	0
 1501 0805 1C       		.uleb128 0x1c
 1502 0806 A5040000 		.4byte	.LASF118
 1503 080a 0A       		.byte	0xa
 1504 080b 77       		.byte	0x77
 1505 080c C3000000 		.4byte	0xc3
 1506 0810 04       		.byte	0x4
 1507 0811 18       		.byte	0x18
 1508 0812 00       		.byte	0
 1509 0813 00       		.byte	0
 1510 0814 06       		.uleb128 0x6
 1511 0815 42050000 		.4byte	.LASF119
 1512 0819 0A       		.byte	0xa
 1513 081a 7B       		.byte	0x7b
 1514 081b 31010000 		.4byte	0x131
 1515 081f 04       		.byte	0x4
 1516 0820 07       		.uleb128 0x7
 1517 0821 7500     		.ascii	"u\000"
 1518 0823 0A       		.byte	0xa
 1519 0824 A9       		.byte	0xa9
 1520 0825 AB070000 		.4byte	0x7ab
 1521 0829 08       		.byte	0x8
 1522 082a 00       		.byte	0
ARM GAS  /tmp/ccYlXmaR.s 			page 28


 1523 082b 04       		.uleb128 0x4
 1524 082c 59020000 		.4byte	.LASF120
 1525 0830 0A       		.byte	0xa
 1526 0831 AA       		.byte	0xaa
 1527 0832 DF070000 		.4byte	0x7df
 1528 0836 1D       		.uleb128 0x1d
 1529 0837 0808     		.2byte	0x808
 1530 0839 0A       		.byte	0xa
 1531 083a B0       		.byte	0xb0
 1532 083b 70080000 		.4byte	0x870
 1533 083f 06       		.uleb128 0x6
 1534 0840 13050000 		.4byte	.LASF121
 1535 0844 0A       		.byte	0xa
 1536 0845 B4       		.byte	0xb4
 1537 0846 AD000000 		.4byte	0xad
 1538 084a 00       		.byte	0
 1539 084b 06       		.uleb128 0x6
 1540 084c 1D020000 		.4byte	.LASF122
 1541 0850 0A       		.byte	0xa
 1542 0851 B8       		.byte	0xb8
 1543 0852 AD000000 		.4byte	0xad
 1544 0856 02       		.byte	0x2
 1545 0857 07       		.uleb128 0x7
 1546 0858 70747200 		.ascii	"ptr\000"
 1547 085c 0A       		.byte	0xa
 1548 085d BC       		.byte	0xbc
 1549 085e 70080000 		.4byte	0x870
 1550 0862 04       		.byte	0x4
 1551 0863 06       		.uleb128 0x6
 1552 0864 95020000 		.4byte	.LASF123
 1553 0868 0A       		.byte	0xa
 1554 0869 C0       		.byte	0xc0
 1555 086a 76080000 		.4byte	0x876
 1556 086e 08       		.byte	0x8
 1557 086f 00       		.byte	0
 1558 0870 0A       		.uleb128 0xa
 1559 0871 04       		.byte	0x4
 1560 0872 2B080000 		.4byte	0x82b
 1561 0876 13       		.uleb128 0x13
 1562 0877 2B080000 		.4byte	0x82b
 1563 087b 86080000 		.4byte	0x886
 1564 087f 14       		.uleb128 0x14
 1565 0880 46040000 		.4byte	0x446
 1566 0884 7F       		.byte	0x7f
 1567 0885 00       		.byte	0
 1568 0886 04       		.uleb128 0x4
 1569 0887 52010000 		.4byte	.LASF124
 1570 088b 0A       		.byte	0xa
 1571 088c C1       		.byte	0xc1
 1572 088d 36080000 		.4byte	0x836
 1573 0891 17       		.uleb128 0x17
 1574 0892 04       		.byte	0x4
 1575 0893 0B       		.byte	0xb
 1576 0894 38       		.byte	0x38
 1577 0895 A6080000 		.4byte	0x8a6
 1578 0899 06       		.uleb128 0x6
 1579 089a 0E070000 		.4byte	.LASF125
ARM GAS  /tmp/ccYlXmaR.s 			page 29


 1580 089e 0B       		.byte	0xb
 1581 089f 3C       		.byte	0x3c
 1582 08a0 D9000000 		.4byte	0xd9
 1583 08a4 00       		.byte	0
 1584 08a5 00       		.byte	0
 1585 08a6 04       		.uleb128 0x4
 1586 08a7 2A050000 		.4byte	.LASF126
 1587 08ab 0B       		.byte	0xb
 1588 08ac 3D       		.byte	0x3d
 1589 08ad 91080000 		.4byte	0x891
 1590 08b1 19       		.uleb128 0x19
 1591 08b2 04       		.byte	0x4
 1592 08b3 06       		.byte	0x6
 1593 08b4 D2       		.byte	0xd2
 1594 08b5 14090000 		.4byte	0x914
 1595 08b9 1B       		.uleb128 0x1b
 1596 08ba 37000000 		.4byte	.LASF127
 1597 08be 06       		.byte	0x6
 1598 08bf D9       		.byte	0xd9
 1599 08c0 10010000 		.4byte	0x110
 1600 08c4 1B       		.uleb128 0x1b
 1601 08c5 6F010000 		.4byte	.LASF128
 1602 08c9 06       		.byte	0x6
 1603 08ca E0       		.byte	0xe0
 1604 08cb 10010000 		.4byte	0x110
 1605 08cf 1B       		.uleb128 0x1b
 1606 08d0 E8070000 		.4byte	.LASF112
 1607 08d4 06       		.byte	0x6
 1608 08d5 E7       		.byte	0xe7
 1609 08d6 0D030000 		.4byte	0x30d
 1610 08da 1B       		.uleb128 0x1b
 1611 08db 2B000000 		.4byte	.LASF129
 1612 08df 06       		.byte	0x6
 1613 08e0 EE       		.byte	0xee
 1614 08e1 14090000 		.4byte	0x914
 1615 08e5 1B       		.uleb128 0x1b
 1616 08e6 83010000 		.4byte	.LASF130
 1617 08ea 06       		.byte	0x6
 1618 08eb F3       		.byte	0xf3
 1619 08ec 10010000 		.4byte	0x110
 1620 08f0 1B       		.uleb128 0x1b
 1621 08f1 17030000 		.4byte	.LASF131
 1622 08f5 06       		.byte	0x6
 1623 08f6 FC       		.byte	0xfc
 1624 08f7 3F090000 		.4byte	0x93f
 1625 08fb 1E       		.uleb128 0x1e
 1626 08fc 7D060000 		.4byte	.LASF132
 1627 0900 06       		.byte	0x6
 1628 0901 0501     		.2byte	0x105
 1629 0903 76090000 		.4byte	0x976
 1630 0907 1E       		.uleb128 0x1e
 1631 0908 34060000 		.4byte	.LASF133
 1632 090c 06       		.byte	0x6
 1633 090d 0D01     		.2byte	0x10d
 1634 090f 1B010000 		.4byte	0x11b
 1635 0913 00       		.byte	0
 1636 0914 0A       		.uleb128 0xa
ARM GAS  /tmp/ccYlXmaR.s 			page 30


 1637 0915 04       		.byte	0x4
 1638 0916 25020000 		.4byte	0x225
 1639 091a 05       		.uleb128 0x5
 1640 091b 5C060000 		.4byte	.LASF134
 1641 091f 0C       		.byte	0xc
 1642 0920 0C       		.byte	0xc
 1643 0921 34       		.byte	0x34
 1644 0922 3F090000 		.4byte	0x93f
 1645 0926 06       		.uleb128 0x6
 1646 0927 3E030000 		.4byte	.LASF29
 1647 092b 0C       		.byte	0xc
 1648 092c 35       		.byte	0x35
 1649 092d 5A020000 		.4byte	0x25a
 1650 0931 00       		.byte	0
 1651 0932 07       		.uleb128 0x7
 1652 0933 636E7400 		.ascii	"cnt\000"
 1653 0937 0C       		.byte	0xc
 1654 0938 37       		.byte	0x37
 1655 0939 26010000 		.4byte	0x126
 1656 093d 08       		.byte	0x8
 1657 093e 00       		.byte	0
 1658 093f 0A       		.uleb128 0xa
 1659 0940 04       		.byte	0x4
 1660 0941 1A090000 		.4byte	0x91a
 1661 0945 05       		.uleb128 0x5
 1662 0946 87070000 		.4byte	.LASF135
 1663 094a 10       		.byte	0x10
 1664 094b 0D       		.byte	0xd
 1665 094c 39       		.byte	0x39
 1666 094d 76090000 		.4byte	0x976
 1667 0951 06       		.uleb128 0x6
 1668 0952 3E030000 		.4byte	.LASF29
 1669 0956 0D       		.byte	0xd
 1670 0957 3A       		.byte	0x3a
 1671 0958 5A020000 		.4byte	0x25a
 1672 095c 00       		.byte	0
 1673 095d 06       		.uleb128 0x6
 1674 095e 99060000 		.4byte	.LASF136
 1675 0962 0D       		.byte	0xd
 1676 0963 3C       		.byte	0x3c
 1677 0964 30020000 		.4byte	0x230
 1678 0968 08       		.byte	0x8
 1679 0969 06       		.uleb128 0x6
 1680 096a EF070000 		.4byte	.LASF48
 1681 096e 0D       		.byte	0xd
 1682 096f 3E       		.byte	0x3e
 1683 0970 98090000 		.4byte	0x998
 1684 0974 0C       		.byte	0xc
 1685 0975 00       		.byte	0
 1686 0976 0A       		.uleb128 0xa
 1687 0977 04       		.byte	0x4
 1688 0978 45090000 		.4byte	0x945
 1689 097c 0A       		.uleb128 0xa
 1690 097d 04       		.byte	0x4
 1691 097e 88060000 		.4byte	0x688
 1692 0982 0A       		.uleb128 0xa
 1693 0983 04       		.byte	0x4
ARM GAS  /tmp/ccYlXmaR.s 			page 31


 1694 0984 0F030000 		.4byte	0x30f
 1695 0988 12       		.uleb128 0x12
 1696 0989 63070000 		.4byte	0x763
 1697 098d 04       		.uleb128 0x4
 1698 098e EF020000 		.4byte	.LASF137
 1699 0992 0D       		.byte	0xd
 1700 0993 34       		.byte	0x34
 1701 0994 45090000 		.4byte	0x945
 1702 0998 0A       		.uleb128 0xa
 1703 0999 04       		.byte	0x4
 1704 099a 8D090000 		.4byte	0x98d
 1705 099e 02       		.uleb128 0x2
 1706 099f 01       		.byte	0x1
 1707 09a0 02       		.byte	0x2
 1708 09a1 E8050000 		.4byte	.LASF138
 1709 09a5 1F       		.uleb128 0x1f
 1710 09a6 746D00   		.ascii	"tm\000"
 1711 09a9 24       		.byte	0x24
 1712 09aa 0E       		.byte	0xe
 1713 09ab 1F       		.byte	0x1f
 1714 09ac 1D0A0000 		.4byte	0xa1d
 1715 09b0 06       		.uleb128 0x6
 1716 09b1 76060000 		.4byte	.LASF139
 1717 09b5 0E       		.byte	0xe
 1718 09b6 21       		.byte	0x21
 1719 09b7 2C000000 		.4byte	0x2c
 1720 09bb 00       		.byte	0
 1721 09bc 06       		.uleb128 0x6
 1722 09bd C6040000 		.4byte	.LASF140
 1723 09c1 0E       		.byte	0xe
 1724 09c2 22       		.byte	0x22
 1725 09c3 2C000000 		.4byte	0x2c
 1726 09c7 04       		.byte	0x4
 1727 09c8 06       		.uleb128 0x6
 1728 09c9 DB060000 		.4byte	.LASF141
 1729 09cd 0E       		.byte	0xe
 1730 09ce 23       		.byte	0x23
 1731 09cf 2C000000 		.4byte	0x2c
 1732 09d3 08       		.byte	0x8
 1733 09d4 06       		.uleb128 0x6
 1734 09d5 36070000 		.4byte	.LASF142
 1735 09d9 0E       		.byte	0xe
 1736 09da 24       		.byte	0x24
 1737 09db 2C000000 		.4byte	0x2c
 1738 09df 0C       		.byte	0xc
 1739 09e0 06       		.uleb128 0x6
 1740 09e1 B0020000 		.4byte	.LASF143
 1741 09e5 0E       		.byte	0xe
 1742 09e6 25       		.byte	0x25
 1743 09e7 2C000000 		.4byte	0x2c
 1744 09eb 10       		.byte	0x10
 1745 09ec 06       		.uleb128 0x6
 1746 09ed 0E060000 		.4byte	.LASF144
 1747 09f1 0E       		.byte	0xe
 1748 09f2 26       		.byte	0x26
 1749 09f3 2C000000 		.4byte	0x2c
 1750 09f7 14       		.byte	0x14
ARM GAS  /tmp/ccYlXmaR.s 			page 32


 1751 09f8 06       		.uleb128 0x6
 1752 09f9 F6060000 		.4byte	.LASF145
 1753 09fd 0E       		.byte	0xe
 1754 09fe 27       		.byte	0x27
 1755 09ff 2C000000 		.4byte	0x2c
 1756 0a03 18       		.byte	0x18
 1757 0a04 06       		.uleb128 0x6
 1758 0a05 00050000 		.4byte	.LASF146
 1759 0a09 0E       		.byte	0xe
 1760 0a0a 28       		.byte	0x28
 1761 0a0b 2C000000 		.4byte	0x2c
 1762 0a0f 1C       		.byte	0x1c
 1763 0a10 06       		.uleb128 0x6
 1764 0a11 FE030000 		.4byte	.LASF147
 1765 0a15 0E       		.byte	0xe
 1766 0a16 29       		.byte	0x29
 1767 0a17 2C000000 		.4byte	0x2c
 1768 0a1b 20       		.byte	0x20
 1769 0a1c 00       		.byte	0
 1770 0a1d 04       		.uleb128 0x4
 1771 0a1e 04060000 		.4byte	.LASF148
 1772 0a22 0F       		.byte	0xf
 1773 0a23 58       		.byte	0x58
 1774 0a24 280A0000 		.4byte	0xa28
 1775 0a28 05       		.uleb128 0x5
 1776 0a29 04060000 		.4byte	.LASF148
 1777 0a2d 04       		.byte	0x4
 1778 0a2e 10       		.byte	0x10
 1779 0a2f B6       		.byte	0xb6
 1780 0a30 410A0000 		.4byte	0xa41
 1781 0a34 07       		.uleb128 0x7
 1782 0a35 72746300 		.ascii	"rtc\000"
 1783 0a39 10       		.byte	0x10
 1784 0a3a C1       		.byte	0xc1
 1785 0a3b DA0A0000 		.4byte	0xada
 1786 0a3f 00       		.byte	0
 1787 0a40 00       		.byte	0
 1788 0a41 17       		.uleb128 0x17
 1789 0a42 08       		.byte	0x8
 1790 0a43 0F       		.byte	0xf
 1791 0a44 5D       		.byte	0x5d
 1792 0a45 A40A0000 		.4byte	0xaa4
 1793 0a49 1C       		.uleb128 0x1c
 1794 0a4a 36020000 		.4byte	.LASF149
 1795 0a4e 0F       		.byte	0xf
 1796 0a4f 5F       		.byte	0x5f
 1797 0a50 C3000000 		.4byte	0xc3
 1798 0a54 04       		.byte	0x4
 1799 0a55 08       		.byte	0x8
 1800 0a56 18       		.byte	0x18
 1801 0a57 00       		.byte	0
 1802 0a58 1C       		.uleb128 0x1c
 1803 0a59 06030000 		.4byte	.LASF150
 1804 0a5d 0F       		.byte	0xf
 1805 0a5e 60       		.byte	0x60
 1806 0a5f C3000000 		.4byte	0xc3
 1807 0a63 04       		.byte	0x4
ARM GAS  /tmp/ccYlXmaR.s 			page 33


 1808 0a64 04       		.byte	0x4
 1809 0a65 14       		.byte	0x14
 1810 0a66 00       		.byte	0
 1811 0a67 1C       		.uleb128 0x1c
 1812 0a68 CB010000 		.4byte	.LASF151
 1813 0a6c 0F       		.byte	0xf
 1814 0a6d 61       		.byte	0x61
 1815 0a6e C3000000 		.4byte	0xc3
 1816 0a72 04       		.byte	0x4
 1817 0a73 01       		.byte	0x1
 1818 0a74 13       		.byte	0x13
 1819 0a75 00       		.byte	0
 1820 0a76 1C       		.uleb128 0x1c
 1821 0a77 6D070000 		.4byte	.LASF152
 1822 0a7b 0F       		.byte	0xf
 1823 0a7c 62       		.byte	0x62
 1824 0a7d C3000000 		.4byte	0xc3
 1825 0a81 04       		.byte	0x4
 1826 0a82 03       		.byte	0x3
 1827 0a83 10       		.byte	0x10
 1828 0a84 00       		.byte	0
 1829 0a85 20       		.uleb128 0x20
 1830 0a86 64617900 		.ascii	"day\000"
 1831 0a8a 0F       		.byte	0xf
 1832 0a8b 63       		.byte	0x63
 1833 0a8c C3000000 		.4byte	0xc3
 1834 0a90 04       		.byte	0x4
 1835 0a91 05       		.byte	0x5
 1836 0a92 0B       		.byte	0xb
 1837 0a93 00       		.byte	0
 1838 0a94 1C       		.uleb128 0x1c
 1839 0a95 11040000 		.4byte	.LASF153
 1840 0a99 0F       		.byte	0xf
 1841 0a9a 64       		.byte	0x64
 1842 0a9b C3000000 		.4byte	0xc3
 1843 0a9f 04       		.byte	0x4
 1844 0aa0 1B       		.byte	0x1b
 1845 0aa1 05       		.byte	0x5
 1846 0aa2 04       		.byte	0x4
 1847 0aa3 00       		.byte	0
 1848 0aa4 04       		.uleb128 0x4
 1849 0aa5 BA040000 		.4byte	.LASF154
 1850 0aa9 0F       		.byte	0xf
 1851 0aaa 66       		.byte	0x66
 1852 0aab 410A0000 		.4byte	0xa41
 1853 0aaf 04       		.uleb128 0x4
 1854 0ab0 08050000 		.4byte	.LASF155
 1855 0ab4 10       		.byte	0x10
 1856 0ab5 8F       		.byte	0x8f
 1857 0ab6 C3000000 		.4byte	0xc3
 1858 0aba 17       		.uleb128 0x17
 1859 0abb 04       		.byte	0x4
 1860 0abc 10       		.byte	0x10
 1861 0abd 94       		.byte	0x94
 1862 0abe CF0A0000 		.4byte	0xacf
 1863 0ac2 06       		.uleb128 0x6
 1864 0ac3 B4040000 		.4byte	.LASF156
ARM GAS  /tmp/ccYlXmaR.s 			page 34


 1865 0ac7 10       		.byte	0x10
 1866 0ac8 98       		.byte	0x98
 1867 0ac9 C3000000 		.4byte	0xc3
 1868 0acd 00       		.byte	0
 1869 0ace 00       		.byte	0
 1870 0acf 04       		.uleb128 0x4
 1871 0ad0 90070000 		.4byte	.LASF157
 1872 0ad4 10       		.byte	0x10
 1873 0ad5 99       		.byte	0x99
 1874 0ad6 BA0A0000 		.4byte	0xaba
 1875 0ada 0A       		.uleb128 0xa
 1876 0adb 04       		.byte	0x4
 1877 0adc 71060000 		.4byte	0x671
 1878 0ae0 21       		.uleb128 0x21
 1879 0ae1 16080000 		.4byte	.LASF158
 1880 0ae5 01       		.byte	0x1
 1881 0ae6 43       		.byte	0x43
 1882 0ae7 00000000 		.4byte	.LFB270
 1883 0aeb 04000000 		.4byte	.LFE270-.LFB270
 1884 0aef 01       		.uleb128 0x1
 1885 0af0 9C       		.byte	0x9c
 1886 0af1 FF0A0000 		.4byte	0xaff
 1887 0af5 22       		.uleb128 0x22
 1888 0af6 04000000 		.4byte	.LVL0
 1889 0afa 610E0000 		.4byte	0xe61
 1890 0afe 00       		.byte	0
 1891 0aff 21       		.uleb128 0x21
 1892 0b00 BC020000 		.4byte	.LASF159
 1893 0b04 01       		.byte	0x1
 1894 0b05 51       		.byte	0x51
 1895 0b06 00000000 		.4byte	.LFB271
 1896 0b0a 02000000 		.4byte	.LFE271-.LFB271
 1897 0b0e 01       		.uleb128 0x1
 1898 0b0f 9C       		.byte	0x9c
 1899 0b10 220B0000 		.4byte	0xb22
 1900 0b14 23       		.uleb128 0x23
 1901 0b15 B7020000 		.4byte	.LASF161
 1902 0b19 01       		.byte	0x1
 1903 0b1a 51       		.byte	0x51
 1904 0b1b 220B0000 		.4byte	0xb22
 1905 0b1f 01       		.uleb128 0x1
 1906 0b20 50       		.byte	0x50
 1907 0b21 00       		.byte	0
 1908 0b22 0A       		.uleb128 0xa
 1909 0b23 04       		.byte	0x4
 1910 0b24 1D0A0000 		.4byte	0xa1d
 1911 0b28 21       		.uleb128 0x21
 1912 0b29 64010000 		.4byte	.LASF160
 1913 0b2d 01       		.byte	0x1
 1914 0b2e 68       		.byte	0x68
 1915 0b2f 00000000 		.4byte	.LFB272
 1916 0b33 04000000 		.4byte	.LFE272-.LFB272
 1917 0b37 01       		.uleb128 0x1
 1918 0b38 9C       		.byte	0x9c
 1919 0b39 7D0B0000 		.4byte	0xb7d
 1920 0b3d 24       		.uleb128 0x24
 1921 0b3e B7020000 		.4byte	.LASF161
ARM GAS  /tmp/ccYlXmaR.s 			page 35


 1922 0b42 01       		.byte	0x1
 1923 0b43 68       		.byte	0x68
 1924 0b44 220B0000 		.4byte	0xb22
 1925 0b48 00000000 		.4byte	.LLST0
 1926 0b4c 24       		.uleb128 0x24
 1927 0b4d 1E030000 		.4byte	.LASF162
 1928 0b51 01       		.byte	0x1
 1929 0b52 68       		.byte	0x68
 1930 0b53 7D0B0000 		.4byte	0xb7d
 1931 0b57 21000000 		.4byte	.LLST1
 1932 0b5b 25       		.uleb128 0x25
 1933 0b5c 4C060000 		.4byte	.LASF164
 1934 0b60 980B0000 		.4byte	0xb98
 1935 0b64 26       		.uleb128 0x26
 1936 0b65 04000000 		.4byte	.LVL3
 1937 0b69 680E0000 		.4byte	0xe68
 1938 0b6d 27       		.uleb128 0x27
 1939 0b6e 01       		.uleb128 0x1
 1940 0b6f 51       		.byte	0x51
 1941 0b70 03       		.uleb128 0x3
 1942 0b71 F3       		.byte	0xf3
 1943 0b72 01       		.uleb128 0x1
 1944 0b73 51       		.byte	0x51
 1945 0b74 27       		.uleb128 0x27
 1946 0b75 01       		.uleb128 0x1
 1947 0b76 50       		.byte	0x50
 1948 0b77 03       		.uleb128 0x3
 1949 0b78 F3       		.byte	0xf3
 1950 0b79 01       		.uleb128 0x1
 1951 0b7a 50       		.byte	0x50
 1952 0b7b 00       		.byte	0
 1953 0b7c 00       		.byte	0
 1954 0b7d 0A       		.uleb128 0xa
 1955 0b7e 04       		.byte	0x4
 1956 0b7f 830B0000 		.4byte	0xb83
 1957 0b83 18       		.uleb128 0x18
 1958 0b84 A40A0000 		.4byte	0xaa4
 1959 0b88 13       		.uleb128 0x13
 1960 0b89 6E070000 		.4byte	0x76e
 1961 0b8d 980B0000 		.4byte	0xb98
 1962 0b91 14       		.uleb128 0x14
 1963 0b92 46040000 		.4byte	0x446
 1964 0b96 0A       		.byte	0xa
 1965 0b97 00       		.byte	0
 1966 0b98 18       		.uleb128 0x18
 1967 0b99 880B0000 		.4byte	0xb88
 1968 0b9d 21       		.uleb128 0x21
 1969 0b9e 4C070000 		.4byte	.LASF163
 1970 0ba2 01       		.byte	0x1
 1971 0ba3 7D       		.byte	0x7d
 1972 0ba4 00000000 		.4byte	.LFB273
 1973 0ba8 04000000 		.4byte	.LFE273-.LFB273
 1974 0bac 01       		.uleb128 0x1
 1975 0bad 9C       		.byte	0x9c
 1976 0bae F20B0000 		.4byte	0xbf2
 1977 0bb2 24       		.uleb128 0x24
 1978 0bb3 B7020000 		.4byte	.LASF161
ARM GAS  /tmp/ccYlXmaR.s 			page 36


 1979 0bb7 01       		.byte	0x1
 1980 0bb8 7D       		.byte	0x7d
 1981 0bb9 220B0000 		.4byte	0xb22
 1982 0bbd 42000000 		.4byte	.LLST2
 1983 0bc1 24       		.uleb128 0x24
 1984 0bc2 1E030000 		.4byte	.LASF162
 1985 0bc6 01       		.byte	0x1
 1986 0bc7 7D       		.byte	0x7d
 1987 0bc8 F20B0000 		.4byte	0xbf2
 1988 0bcc 63000000 		.4byte	.LLST3
 1989 0bd0 25       		.uleb128 0x25
 1990 0bd1 4C060000 		.4byte	.LASF164
 1991 0bd5 F80B0000 		.4byte	0xbf8
 1992 0bd9 26       		.uleb128 0x26
 1993 0bda 04000000 		.4byte	.LVL5
 1994 0bde 7E0E0000 		.4byte	0xe7e
 1995 0be2 27       		.uleb128 0x27
 1996 0be3 01       		.uleb128 0x1
 1997 0be4 51       		.byte	0x51
 1998 0be5 03       		.uleb128 0x3
 1999 0be6 F3       		.byte	0xf3
 2000 0be7 01       		.uleb128 0x1
 2001 0be8 51       		.byte	0x51
 2002 0be9 27       		.uleb128 0x27
 2003 0bea 01       		.uleb128 0x1
 2004 0beb 50       		.byte	0x50
 2005 0bec 03       		.uleb128 0x3
 2006 0bed F3       		.byte	0xf3
 2007 0bee 01       		.uleb128 0x1
 2008 0bef 50       		.byte	0x50
 2009 0bf0 00       		.byte	0
 2010 0bf1 00       		.byte	0
 2011 0bf2 0A       		.uleb128 0xa
 2012 0bf3 04       		.byte	0x4
 2013 0bf4 A40A0000 		.4byte	0xaa4
 2014 0bf8 18       		.uleb128 0x18
 2015 0bf9 880B0000 		.4byte	0xb88
 2016 0bfd 21       		.uleb128 0x21
 2017 0bfe 7F020000 		.4byte	.LASF165
 2018 0c02 01       		.byte	0x1
 2019 0c03 94       		.byte	0x94
 2020 0c04 00000000 		.4byte	.LFB274
 2021 0c08 04000000 		.4byte	.LFE274-.LFB274
 2022 0c0c 01       		.uleb128 0x1
 2023 0c0d 9C       		.byte	0x9c
 2024 0c0e 680C0000 		.4byte	0xc68
 2025 0c12 24       		.uleb128 0x24
 2026 0c13 B7020000 		.4byte	.LASF161
 2027 0c17 01       		.byte	0x1
 2028 0c18 94       		.byte	0x94
 2029 0c19 220B0000 		.4byte	0xb22
 2030 0c1d 84000000 		.4byte	.LLST4
 2031 0c21 24       		.uleb128 0x24
 2032 0c22 D2050000 		.4byte	.LASF166
 2033 0c26 01       		.byte	0x1
 2034 0c27 95       		.byte	0x95
 2035 0c28 AF0A0000 		.4byte	0xaaf
ARM GAS  /tmp/ccYlXmaR.s 			page 37


 2036 0c2c A5000000 		.4byte	.LLST5
 2037 0c30 24       		.uleb128 0x24
 2038 0c31 8B020000 		.4byte	.LASF167
 2039 0c35 01       		.byte	0x1
 2040 0c36 96       		.byte	0x96
 2041 0c37 680C0000 		.4byte	0xc68
 2042 0c3b C6000000 		.4byte	.LLST6
 2043 0c3f 25       		.uleb128 0x25
 2044 0c40 4C060000 		.4byte	.LASF164
 2045 0c44 830C0000 		.4byte	0xc83
 2046 0c48 26       		.uleb128 0x26
 2047 0c49 04000000 		.4byte	.LVL7
 2048 0c4d 940E0000 		.4byte	0xe94
 2049 0c51 27       		.uleb128 0x27
 2050 0c52 01       		.uleb128 0x1
 2051 0c53 52       		.byte	0x52
 2052 0c54 03       		.uleb128 0x3
 2053 0c55 F3       		.byte	0xf3
 2054 0c56 01       		.uleb128 0x1
 2055 0c57 52       		.byte	0x52
 2056 0c58 27       		.uleb128 0x27
 2057 0c59 01       		.uleb128 0x1
 2058 0c5a 51       		.byte	0x51
 2059 0c5b 03       		.uleb128 0x3
 2060 0c5c F3       		.byte	0xf3
 2061 0c5d 01       		.uleb128 0x1
 2062 0c5e 51       		.byte	0x51
 2063 0c5f 27       		.uleb128 0x27
 2064 0c60 01       		.uleb128 0x1
 2065 0c61 50       		.byte	0x50
 2066 0c62 03       		.uleb128 0x3
 2067 0c63 F3       		.byte	0xf3
 2068 0c64 01       		.uleb128 0x1
 2069 0c65 50       		.byte	0x50
 2070 0c66 00       		.byte	0
 2071 0c67 00       		.byte	0
 2072 0c68 0A       		.uleb128 0xa
 2073 0c69 04       		.byte	0x4
 2074 0c6a 6E0C0000 		.4byte	0xc6e
 2075 0c6e 18       		.uleb128 0x18
 2076 0c6f CF0A0000 		.4byte	0xacf
 2077 0c73 13       		.uleb128 0x13
 2078 0c74 6E070000 		.4byte	0x76e
 2079 0c78 830C0000 		.4byte	0xc83
 2080 0c7c 14       		.uleb128 0x14
 2081 0c7d 46040000 		.4byte	0x446
 2082 0c81 0B       		.byte	0xb
 2083 0c82 00       		.byte	0
 2084 0c83 18       		.uleb128 0x18
 2085 0c84 730C0000 		.4byte	0xc73
 2086 0c88 21       		.uleb128 0x21
 2087 0c89 F7010000 		.4byte	.LASF168
 2088 0c8d 01       		.byte	0x1
 2089 0c8e AE       		.byte	0xae
 2090 0c8f 00000000 		.4byte	.LFB275
 2091 0c93 04000000 		.4byte	.LFE275-.LFB275
 2092 0c97 01       		.uleb128 0x1
ARM GAS  /tmp/ccYlXmaR.s 			page 38


 2093 0c98 9C       		.byte	0x9c
 2094 0c99 F30C0000 		.4byte	0xcf3
 2095 0c9d 24       		.uleb128 0x24
 2096 0c9e B7020000 		.4byte	.LASF161
 2097 0ca2 01       		.byte	0x1
 2098 0ca3 AE       		.byte	0xae
 2099 0ca4 220B0000 		.4byte	0xb22
 2100 0ca8 E7000000 		.4byte	.LLST7
 2101 0cac 24       		.uleb128 0x24
 2102 0cad D2050000 		.4byte	.LASF166
 2103 0cb1 01       		.byte	0x1
 2104 0cb2 AF       		.byte	0xaf
 2105 0cb3 AF0A0000 		.4byte	0xaaf
 2106 0cb7 08010000 		.4byte	.LLST8
 2107 0cbb 24       		.uleb128 0x24
 2108 0cbc 8B020000 		.4byte	.LASF167
 2109 0cc0 01       		.byte	0x1
 2110 0cc1 B0       		.byte	0xb0
 2111 0cc2 F30C0000 		.4byte	0xcf3
 2112 0cc6 29010000 		.4byte	.LLST9
 2113 0cca 25       		.uleb128 0x25
 2114 0ccb 4C060000 		.4byte	.LASF164
 2115 0ccf F90C0000 		.4byte	0xcf9
 2116 0cd3 26       		.uleb128 0x26
 2117 0cd4 04000000 		.4byte	.LVL9
 2118 0cd8 AF0E0000 		.4byte	0xeaf
 2119 0cdc 27       		.uleb128 0x27
 2120 0cdd 01       		.uleb128 0x1
 2121 0cde 52       		.byte	0x52
 2122 0cdf 03       		.uleb128 0x3
 2123 0ce0 F3       		.byte	0xf3
 2124 0ce1 01       		.uleb128 0x1
 2125 0ce2 52       		.byte	0x52
 2126 0ce3 27       		.uleb128 0x27
 2127 0ce4 01       		.uleb128 0x1
 2128 0ce5 51       		.byte	0x51
 2129 0ce6 03       		.uleb128 0x3
 2130 0ce7 F3       		.byte	0xf3
 2131 0ce8 01       		.uleb128 0x1
 2132 0ce9 51       		.byte	0x51
 2133 0cea 27       		.uleb128 0x27
 2134 0ceb 01       		.uleb128 0x1
 2135 0cec 50       		.byte	0x50
 2136 0ced 03       		.uleb128 0x3
 2137 0cee F3       		.byte	0xf3
 2138 0cef 01       		.uleb128 0x1
 2139 0cf0 50       		.byte	0x50
 2140 0cf1 00       		.byte	0
 2141 0cf2 00       		.byte	0
 2142 0cf3 0A       		.uleb128 0xa
 2143 0cf4 04       		.byte	0x4
 2144 0cf5 CF0A0000 		.4byte	0xacf
 2145 0cf9 18       		.uleb128 0x18
 2146 0cfa 730C0000 		.4byte	0xc73
 2147 0cfe 21       		.uleb128 0x21
 2148 0cff 8B010000 		.4byte	.LASF169
 2149 0d03 01       		.byte	0x1
ARM GAS  /tmp/ccYlXmaR.s 			page 39


 2150 0d04 DC       		.byte	0xdc
 2151 0d05 00000000 		.4byte	.LFB276
 2152 0d09 A4000000 		.4byte	.LFE276-.LFB276
 2153 0d0d 01       		.uleb128 0x1
 2154 0d0e 9C       		.byte	0x9c
 2155 0d0f 4C0D0000 		.4byte	0xd4c
 2156 0d13 24       		.uleb128 0x24
 2157 0d14 1E030000 		.4byte	.LASF162
 2158 0d18 01       		.byte	0x1
 2159 0d19 DC       		.byte	0xdc
 2160 0d1a 7D0B0000 		.4byte	0xb7d
 2161 0d1e 4A010000 		.4byte	.LLST10
 2162 0d22 23       		.uleb128 0x23
 2163 0d23 99070000 		.4byte	.LASF170
 2164 0d27 01       		.byte	0x1
 2165 0d28 DD       		.byte	0xdd
 2166 0d29 4C0D0000 		.4byte	0xd4c
 2167 0d2d 01       		.uleb128 0x1
 2168 0d2e 51       		.byte	0x51
 2169 0d2f 23       		.uleb128 0x23
 2170 0d30 97050000 		.4byte	.LASF171
 2171 0d34 01       		.byte	0x1
 2172 0d35 DE       		.byte	0xde
 2173 0d36 520D0000 		.4byte	0xd52
 2174 0d3a 01       		.uleb128 0x1
 2175 0d3b 52       		.byte	0x52
 2176 0d3c 28       		.uleb128 0x28
 2177 0d3d 73656300 		.ascii	"sec\000"
 2178 0d41 01       		.byte	0x1
 2179 0d42 DF       		.byte	0xdf
 2180 0d43 2C000000 		.4byte	0x2c
 2181 0d47 6B010000 		.4byte	.LLST11
 2182 0d4b 00       		.byte	0
 2183 0d4c 0A       		.uleb128 0xa
 2184 0d4d 04       		.byte	0x4
 2185 0d4e A5090000 		.4byte	0x9a5
 2186 0d52 0A       		.uleb128 0xa
 2187 0d53 04       		.byte	0x4
 2188 0d54 C3000000 		.4byte	0xc3
 2189 0d58 21       		.uleb128 0x21
 2190 0d59 D2020000 		.4byte	.LASF172
 2191 0d5d 01       		.byte	0x1
 2192 0d5e FB       		.byte	0xfb
 2193 0d5f 00000000 		.4byte	.LFB277
 2194 0d63 70000000 		.4byte	.LFE277-.LFB277
 2195 0d67 01       		.uleb128 0x1
 2196 0d68 9C       		.byte	0x9c
 2197 0d69 990D0000 		.4byte	0xd99
 2198 0d6d 24       		.uleb128 0x24
 2199 0d6e 99070000 		.4byte	.LASF170
 2200 0d72 01       		.byte	0x1
 2201 0d73 FB       		.byte	0xfb
 2202 0d74 990D0000 		.4byte	0xd99
 2203 0d78 A6010000 		.4byte	.LLST12
 2204 0d7c 24       		.uleb128 0x24
 2205 0d7d 97050000 		.4byte	.LASF171
 2206 0d81 01       		.byte	0x1
ARM GAS  /tmp/ccYlXmaR.s 			page 40


 2207 0d82 FC       		.byte	0xfc
 2208 0d83 C3000000 		.4byte	0xc3
 2209 0d87 C7010000 		.4byte	.LLST13
 2210 0d8b 23       		.uleb128 0x23
 2211 0d8c 1E030000 		.4byte	.LASF162
 2212 0d90 01       		.byte	0x1
 2213 0d91 FD       		.byte	0xfd
 2214 0d92 F20B0000 		.4byte	0xbf2
 2215 0d96 01       		.uleb128 0x1
 2216 0d97 52       		.byte	0x52
 2217 0d98 00       		.byte	0
 2218 0d99 0A       		.uleb128 0xa
 2219 0d9a 04       		.byte	0x4
 2220 0d9b 9F0D0000 		.4byte	0xd9f
 2221 0d9f 18       		.uleb128 0x18
 2222 0da0 A5090000 		.4byte	0x9a5
 2223 0da4 29       		.uleb128 0x29
 2224 0da5 DF010000 		.4byte	.LASF183
 2225 0da9 01       		.byte	0x1
 2226 0daa 1C01     		.2byte	0x11c
 2227 0dac C3000000 		.4byte	0xc3
 2228 0db0 00000000 		.4byte	.LFB278
 2229 0db4 96000000 		.4byte	.LFE278-.LFB278
 2230 0db8 01       		.uleb128 0x1
 2231 0db9 9C       		.byte	0x9c
 2232 0dba 2F0E0000 		.4byte	0xe2f
 2233 0dbe 2A       		.uleb128 0x2a
 2234 0dbf 1E030000 		.4byte	.LASF162
 2235 0dc3 01       		.byte	0x1
 2236 0dc4 1C01     		.2byte	0x11c
 2237 0dc6 7D0B0000 		.4byte	0xb7d
 2238 0dca E8010000 		.4byte	.LLST14
 2239 0dce 2B       		.uleb128 0x2b
 2240 0dcf 23000000 		.4byte	.LASF173
 2241 0dd3 01       		.byte	0x1
 2242 0dd4 1D01     		.2byte	0x11d
 2243 0dd6 C3000000 		.4byte	0xc3
 2244 0dda 14020000 		.4byte	.LLST15
 2245 0dde 2C       		.uleb128 0x2c
 2246 0ddf 73656300 		.ascii	"sec\000"
 2247 0de3 01       		.byte	0x1
 2248 0de4 1E01     		.2byte	0x11e
 2249 0de6 C3000000 		.4byte	0xc3
 2250 0dea 70020000 		.4byte	.LLST16
 2251 0dee 2C       		.uleb128 0x2c
 2252 0def 6D696E00 		.ascii	"min\000"
 2253 0df3 01       		.byte	0x1
 2254 0df4 1E01     		.2byte	0x11e
 2255 0df6 C3000000 		.4byte	0xc3
 2256 0dfa 8E020000 		.4byte	.LLST17
 2257 0dfe 2B       		.uleb128 0x2b
 2258 0dff 52050000 		.4byte	.LASF174
 2259 0e03 01       		.byte	0x1
 2260 0e04 1E01     		.2byte	0x11e
 2261 0e06 C3000000 		.4byte	0xc3
 2262 0e0a AC020000 		.4byte	.LLST18
 2263 0e0e 2C       		.uleb128 0x2c
ARM GAS  /tmp/ccYlXmaR.s 			page 41


 2264 0e0f 64617900 		.ascii	"day\000"
 2265 0e13 01       		.byte	0x1
 2266 0e14 1E01     		.2byte	0x11e
 2267 0e16 C3000000 		.4byte	0xc3
 2268 0e1a D6020000 		.4byte	.LLST19
 2269 0e1e 2B       		.uleb128 0x2b
 2270 0e1f 06030000 		.4byte	.LASF150
 2271 0e23 01       		.byte	0x1
 2272 0e24 1E01     		.2byte	0x11e
 2273 0e26 C3000000 		.4byte	0xc3
 2274 0e2a 00030000 		.4byte	.LLST20
 2275 0e2e 00       		.byte	0
 2276 0e2f 2D       		.uleb128 0x2d
 2277 0e30 9B040000 		.4byte	.LASF175
 2278 0e34 01       		.byte	0x1
 2279 0e35 30       		.byte	0x30
 2280 0e36 400E0000 		.4byte	0xe40
 2281 0e3a 05       		.uleb128 0x5
 2282 0e3b 03       		.byte	0x3
 2283 0e3c 00000000 		.4byte	month_len
 2284 0e40 18       		.uleb128 0x18
 2285 0e41 52040000 		.4byte	0x452
 2286 0e45 2E       		.uleb128 0x2e
 2287 0e46 BE010000 		.4byte	.LASF176
 2288 0e4a 11       		.byte	0x11
 2289 0e4b 4407     		.2byte	0x744
 2290 0e4d 510E0000 		.4byte	0xe51
 2291 0e51 12       		.uleb128 0x12
 2292 0e52 B8000000 		.4byte	0xb8
 2293 0e56 2F       		.uleb128 0x2f
 2294 0e57 636800   		.ascii	"ch\000"
 2295 0e5a 06       		.byte	0x6
 2296 0e5b D201     		.2byte	0x1d2
 2297 0e5d EA030000 		.4byte	0x3ea
 2298 0e61 30       		.uleb128 0x30
 2299 0e62 22020000 		.4byte	.LASF184
 2300 0e66 10       		.byte	0x10
 2301 0e67 D6       		.byte	0xd6
 2302 0e68 31       		.uleb128 0x31
 2303 0e69 44030000 		.4byte	.LASF177
 2304 0e6d 10       		.byte	0x10
 2305 0e6e D7       		.byte	0xd7
 2306 0e6f 7E0E0000 		.4byte	0xe7e
 2307 0e73 0D       		.uleb128 0xd
 2308 0e74 220B0000 		.4byte	0xb22
 2309 0e78 0D       		.uleb128 0xd
 2310 0e79 7D0B0000 		.4byte	0xb7d
 2311 0e7d 00       		.byte	0
 2312 0e7e 31       		.uleb128 0x31
 2313 0e7f 1D040000 		.4byte	.LASF178
 2314 0e83 10       		.byte	0x10
 2315 0e84 D8       		.byte	0xd8
 2316 0e85 940E0000 		.4byte	0xe94
 2317 0e89 0D       		.uleb128 0xd
 2318 0e8a 220B0000 		.4byte	0xb22
 2319 0e8e 0D       		.uleb128 0xd
 2320 0e8f F20B0000 		.4byte	0xbf2
ARM GAS  /tmp/ccYlXmaR.s 			page 42


 2321 0e93 00       		.byte	0
 2322 0e94 31       		.uleb128 0x31
 2323 0e95 D9030000 		.4byte	.LASF179
 2324 0e99 10       		.byte	0x10
 2325 0e9a DA       		.byte	0xda
 2326 0e9b AF0E0000 		.4byte	0xeaf
 2327 0e9f 0D       		.uleb128 0xd
 2328 0ea0 220B0000 		.4byte	0xb22
 2329 0ea4 0D       		.uleb128 0xd
 2330 0ea5 AF0A0000 		.4byte	0xaaf
 2331 0ea9 0D       		.uleb128 0xd
 2332 0eaa 680C0000 		.4byte	0xc68
 2333 0eae 00       		.byte	0
 2334 0eaf 32       		.uleb128 0x32
 2335 0eb0 71050000 		.4byte	.LASF185
 2336 0eb4 10       		.byte	0x10
 2337 0eb5 DD       		.byte	0xdd
 2338 0eb6 0D       		.uleb128 0xd
 2339 0eb7 220B0000 		.4byte	0xb22
 2340 0ebb 0D       		.uleb128 0xd
 2341 0ebc AF0A0000 		.4byte	0xaaf
 2342 0ec0 0D       		.uleb128 0xd
 2343 0ec1 F30C0000 		.4byte	0xcf3
 2344 0ec5 00       		.byte	0
 2345 0ec6 00       		.byte	0
 2346              		.section	.debug_abbrev,"",%progbits
 2347              	.Ldebug_abbrev0:
 2348 0000 01       		.uleb128 0x1
 2349 0001 11       		.uleb128 0x11
 2350 0002 01       		.byte	0x1
 2351 0003 25       		.uleb128 0x25
 2352 0004 0E       		.uleb128 0xe
 2353 0005 13       		.uleb128 0x13
 2354 0006 0B       		.uleb128 0xb
 2355 0007 03       		.uleb128 0x3
 2356 0008 0E       		.uleb128 0xe
 2357 0009 1B       		.uleb128 0x1b
 2358 000a 0E       		.uleb128 0xe
 2359 000b 55       		.uleb128 0x55
 2360 000c 17       		.uleb128 0x17
 2361 000d 11       		.uleb128 0x11
 2362 000e 01       		.uleb128 0x1
 2363 000f 10       		.uleb128 0x10
 2364 0010 17       		.uleb128 0x17
 2365 0011 00       		.byte	0
 2366 0012 00       		.byte	0
 2367 0013 02       		.uleb128 0x2
 2368 0014 24       		.uleb128 0x24
 2369 0015 00       		.byte	0
 2370 0016 0B       		.uleb128 0xb
 2371 0017 0B       		.uleb128 0xb
 2372 0018 3E       		.uleb128 0x3e
 2373 0019 0B       		.uleb128 0xb
 2374 001a 03       		.uleb128 0x3
 2375 001b 0E       		.uleb128 0xe
 2376 001c 00       		.byte	0
 2377 001d 00       		.byte	0
ARM GAS  /tmp/ccYlXmaR.s 			page 43


 2378 001e 03       		.uleb128 0x3
 2379 001f 24       		.uleb128 0x24
 2380 0020 00       		.byte	0
 2381 0021 0B       		.uleb128 0xb
 2382 0022 0B       		.uleb128 0xb
 2383 0023 3E       		.uleb128 0x3e
 2384 0024 0B       		.uleb128 0xb
 2385 0025 03       		.uleb128 0x3
 2386 0026 08       		.uleb128 0x8
 2387 0027 00       		.byte	0
 2388 0028 00       		.byte	0
 2389 0029 04       		.uleb128 0x4
 2390 002a 16       		.uleb128 0x16
 2391 002b 00       		.byte	0
 2392 002c 03       		.uleb128 0x3
 2393 002d 0E       		.uleb128 0xe
 2394 002e 3A       		.uleb128 0x3a
 2395 002f 0B       		.uleb128 0xb
 2396 0030 3B       		.uleb128 0x3b
 2397 0031 0B       		.uleb128 0xb
 2398 0032 49       		.uleb128 0x49
 2399 0033 13       		.uleb128 0x13
 2400 0034 00       		.byte	0
 2401 0035 00       		.byte	0
 2402 0036 05       		.uleb128 0x5
 2403 0037 13       		.uleb128 0x13
 2404 0038 01       		.byte	0x1
 2405 0039 03       		.uleb128 0x3
 2406 003a 0E       		.uleb128 0xe
 2407 003b 0B       		.uleb128 0xb
 2408 003c 0B       		.uleb128 0xb
 2409 003d 3A       		.uleb128 0x3a
 2410 003e 0B       		.uleb128 0xb
 2411 003f 3B       		.uleb128 0x3b
 2412 0040 0B       		.uleb128 0xb
 2413 0041 01       		.uleb128 0x1
 2414 0042 13       		.uleb128 0x13
 2415 0043 00       		.byte	0
 2416 0044 00       		.byte	0
 2417 0045 06       		.uleb128 0x6
 2418 0046 0D       		.uleb128 0xd
 2419 0047 00       		.byte	0
 2420 0048 03       		.uleb128 0x3
 2421 0049 0E       		.uleb128 0xe
 2422 004a 3A       		.uleb128 0x3a
 2423 004b 0B       		.uleb128 0xb
 2424 004c 3B       		.uleb128 0x3b
 2425 004d 0B       		.uleb128 0xb
 2426 004e 49       		.uleb128 0x49
 2427 004f 13       		.uleb128 0x13
 2428 0050 38       		.uleb128 0x38
 2429 0051 0B       		.uleb128 0xb
 2430 0052 00       		.byte	0
 2431 0053 00       		.byte	0
 2432 0054 07       		.uleb128 0x7
 2433 0055 0D       		.uleb128 0xd
 2434 0056 00       		.byte	0
ARM GAS  /tmp/ccYlXmaR.s 			page 44


 2435 0057 03       		.uleb128 0x3
 2436 0058 08       		.uleb128 0x8
 2437 0059 3A       		.uleb128 0x3a
 2438 005a 0B       		.uleb128 0xb
 2439 005b 3B       		.uleb128 0x3b
 2440 005c 0B       		.uleb128 0xb
 2441 005d 49       		.uleb128 0x49
 2442 005e 13       		.uleb128 0x13
 2443 005f 38       		.uleb128 0x38
 2444 0060 0B       		.uleb128 0xb
 2445 0061 00       		.byte	0
 2446 0062 00       		.byte	0
 2447 0063 08       		.uleb128 0x8
 2448 0064 0D       		.uleb128 0xd
 2449 0065 00       		.byte	0
 2450 0066 03       		.uleb128 0x3
 2451 0067 08       		.uleb128 0x8
 2452 0068 3A       		.uleb128 0x3a
 2453 0069 0B       		.uleb128 0xb
 2454 006a 3B       		.uleb128 0x3b
 2455 006b 05       		.uleb128 0x5
 2456 006c 49       		.uleb128 0x49
 2457 006d 13       		.uleb128 0x13
 2458 006e 38       		.uleb128 0x38
 2459 006f 0B       		.uleb128 0xb
 2460 0070 00       		.byte	0
 2461 0071 00       		.byte	0
 2462 0072 09       		.uleb128 0x9
 2463 0073 0D       		.uleb128 0xd
 2464 0074 00       		.byte	0
 2465 0075 03       		.uleb128 0x3
 2466 0076 0E       		.uleb128 0xe
 2467 0077 3A       		.uleb128 0x3a
 2468 0078 0B       		.uleb128 0xb
 2469 0079 3B       		.uleb128 0x3b
 2470 007a 05       		.uleb128 0x5
 2471 007b 49       		.uleb128 0x49
 2472 007c 13       		.uleb128 0x13
 2473 007d 38       		.uleb128 0x38
 2474 007e 0B       		.uleb128 0xb
 2475 007f 00       		.byte	0
 2476 0080 00       		.byte	0
 2477 0081 0A       		.uleb128 0xa
 2478 0082 0F       		.uleb128 0xf
 2479 0083 00       		.byte	0
 2480 0084 0B       		.uleb128 0xb
 2481 0085 0B       		.uleb128 0xb
 2482 0086 49       		.uleb128 0x49
 2483 0087 13       		.uleb128 0x13
 2484 0088 00       		.byte	0
 2485 0089 00       		.byte	0
 2486 008a 0B       		.uleb128 0xb
 2487 008b 13       		.uleb128 0x13
 2488 008c 01       		.byte	0x1
 2489 008d 03       		.uleb128 0x3
 2490 008e 0E       		.uleb128 0xe
 2491 008f 0B       		.uleb128 0xb
ARM GAS  /tmp/ccYlXmaR.s 			page 45


 2492 0090 0B       		.uleb128 0xb
 2493 0091 3A       		.uleb128 0x3a
 2494 0092 0B       		.uleb128 0xb
 2495 0093 3B       		.uleb128 0x3b
 2496 0094 05       		.uleb128 0x5
 2497 0095 01       		.uleb128 0x1
 2498 0096 13       		.uleb128 0x13
 2499 0097 00       		.byte	0
 2500 0098 00       		.byte	0
 2501 0099 0C       		.uleb128 0xc
 2502 009a 15       		.uleb128 0x15
 2503 009b 01       		.byte	0x1
 2504 009c 27       		.uleb128 0x27
 2505 009d 19       		.uleb128 0x19
 2506 009e 01       		.uleb128 0x1
 2507 009f 13       		.uleb128 0x13
 2508 00a0 00       		.byte	0
 2509 00a1 00       		.byte	0
 2510 00a2 0D       		.uleb128 0xd
 2511 00a3 05       		.uleb128 0x5
 2512 00a4 00       		.byte	0
 2513 00a5 49       		.uleb128 0x49
 2514 00a6 13       		.uleb128 0x13
 2515 00a7 00       		.byte	0
 2516 00a8 00       		.byte	0
 2517 00a9 0E       		.uleb128 0xe
 2518 00aa 0F       		.uleb128 0xf
 2519 00ab 00       		.byte	0
 2520 00ac 0B       		.uleb128 0xb
 2521 00ad 0B       		.uleb128 0xb
 2522 00ae 00       		.byte	0
 2523 00af 00       		.byte	0
 2524 00b0 0F       		.uleb128 0xf
 2525 00b1 13       		.uleb128 0x13
 2526 00b2 01       		.byte	0x1
 2527 00b3 03       		.uleb128 0x3
 2528 00b4 0E       		.uleb128 0xe
 2529 00b5 0B       		.uleb128 0xb
 2530 00b6 05       		.uleb128 0x5
 2531 00b7 3A       		.uleb128 0x3a
 2532 00b8 0B       		.uleb128 0xb
 2533 00b9 3B       		.uleb128 0x3b
 2534 00ba 05       		.uleb128 0x5
 2535 00bb 01       		.uleb128 0x1
 2536 00bc 13       		.uleb128 0x13
 2537 00bd 00       		.byte	0
 2538 00be 00       		.byte	0
 2539 00bf 10       		.uleb128 0x10
 2540 00c0 0D       		.uleb128 0xd
 2541 00c1 00       		.byte	0
 2542 00c2 03       		.uleb128 0x3
 2543 00c3 0E       		.uleb128 0xe
 2544 00c4 3A       		.uleb128 0x3a
 2545 00c5 0B       		.uleb128 0xb
 2546 00c6 3B       		.uleb128 0x3b
 2547 00c7 05       		.uleb128 0x5
 2548 00c8 49       		.uleb128 0x49
ARM GAS  /tmp/ccYlXmaR.s 			page 46


 2549 00c9 13       		.uleb128 0x13
 2550 00ca 38       		.uleb128 0x38
 2551 00cb 05       		.uleb128 0x5
 2552 00cc 00       		.byte	0
 2553 00cd 00       		.byte	0
 2554 00ce 11       		.uleb128 0x11
 2555 00cf 0D       		.uleb128 0xd
 2556 00d0 00       		.byte	0
 2557 00d1 03       		.uleb128 0x3
 2558 00d2 08       		.uleb128 0x8
 2559 00d3 3A       		.uleb128 0x3a
 2560 00d4 0B       		.uleb128 0xb
 2561 00d5 3B       		.uleb128 0x3b
 2562 00d6 05       		.uleb128 0x5
 2563 00d7 49       		.uleb128 0x49
 2564 00d8 13       		.uleb128 0x13
 2565 00d9 38       		.uleb128 0x38
 2566 00da 05       		.uleb128 0x5
 2567 00db 00       		.byte	0
 2568 00dc 00       		.byte	0
 2569 00dd 12       		.uleb128 0x12
 2570 00de 35       		.uleb128 0x35
 2571 00df 00       		.byte	0
 2572 00e0 49       		.uleb128 0x49
 2573 00e1 13       		.uleb128 0x13
 2574 00e2 00       		.byte	0
 2575 00e3 00       		.byte	0
 2576 00e4 13       		.uleb128 0x13
 2577 00e5 01       		.uleb128 0x1
 2578 00e6 01       		.byte	0x1
 2579 00e7 49       		.uleb128 0x49
 2580 00e8 13       		.uleb128 0x13
 2581 00e9 01       		.uleb128 0x1
 2582 00ea 13       		.uleb128 0x13
 2583 00eb 00       		.byte	0
 2584 00ec 00       		.byte	0
 2585 00ed 14       		.uleb128 0x14
 2586 00ee 21       		.uleb128 0x21
 2587 00ef 00       		.byte	0
 2588 00f0 49       		.uleb128 0x49
 2589 00f1 13       		.uleb128 0x13
 2590 00f2 2F       		.uleb128 0x2f
 2591 00f3 0B       		.uleb128 0xb
 2592 00f4 00       		.byte	0
 2593 00f5 00       		.byte	0
 2594 00f6 15       		.uleb128 0x15
 2595 00f7 13       		.uleb128 0x13
 2596 00f8 01       		.byte	0x1
 2597 00f9 0B       		.uleb128 0xb
 2598 00fa 0B       		.uleb128 0xb
 2599 00fb 3A       		.uleb128 0x3a
 2600 00fc 0B       		.uleb128 0xb
 2601 00fd 3B       		.uleb128 0x3b
 2602 00fe 05       		.uleb128 0x5
 2603 00ff 01       		.uleb128 0x1
 2604 0100 13       		.uleb128 0x13
 2605 0101 00       		.byte	0
ARM GAS  /tmp/ccYlXmaR.s 			page 47


 2606 0102 00       		.byte	0
 2607 0103 16       		.uleb128 0x16
 2608 0104 16       		.uleb128 0x16
 2609 0105 00       		.byte	0
 2610 0106 03       		.uleb128 0x3
 2611 0107 0E       		.uleb128 0xe
 2612 0108 3A       		.uleb128 0x3a
 2613 0109 0B       		.uleb128 0xb
 2614 010a 3B       		.uleb128 0x3b
 2615 010b 05       		.uleb128 0x5
 2616 010c 49       		.uleb128 0x49
 2617 010d 13       		.uleb128 0x13
 2618 010e 00       		.byte	0
 2619 010f 00       		.byte	0
 2620 0110 17       		.uleb128 0x17
 2621 0111 13       		.uleb128 0x13
 2622 0112 01       		.byte	0x1
 2623 0113 0B       		.uleb128 0xb
 2624 0114 0B       		.uleb128 0xb
 2625 0115 3A       		.uleb128 0x3a
 2626 0116 0B       		.uleb128 0xb
 2627 0117 3B       		.uleb128 0x3b
 2628 0118 0B       		.uleb128 0xb
 2629 0119 01       		.uleb128 0x1
 2630 011a 13       		.uleb128 0x13
 2631 011b 00       		.byte	0
 2632 011c 00       		.byte	0
 2633 011d 18       		.uleb128 0x18
 2634 011e 26       		.uleb128 0x26
 2635 011f 00       		.byte	0
 2636 0120 49       		.uleb128 0x49
 2637 0121 13       		.uleb128 0x13
 2638 0122 00       		.byte	0
 2639 0123 00       		.byte	0
 2640 0124 19       		.uleb128 0x19
 2641 0125 17       		.uleb128 0x17
 2642 0126 01       		.byte	0x1
 2643 0127 0B       		.uleb128 0xb
 2644 0128 0B       		.uleb128 0xb
 2645 0129 3A       		.uleb128 0x3a
 2646 012a 0B       		.uleb128 0xb
 2647 012b 3B       		.uleb128 0x3b
 2648 012c 0B       		.uleb128 0xb
 2649 012d 01       		.uleb128 0x1
 2650 012e 13       		.uleb128 0x13
 2651 012f 00       		.byte	0
 2652 0130 00       		.byte	0
 2653 0131 1A       		.uleb128 0x1a
 2654 0132 0D       		.uleb128 0xd
 2655 0133 00       		.byte	0
 2656 0134 03       		.uleb128 0x3
 2657 0135 08       		.uleb128 0x8
 2658 0136 3A       		.uleb128 0x3a
 2659 0137 0B       		.uleb128 0xb
 2660 0138 3B       		.uleb128 0x3b
 2661 0139 0B       		.uleb128 0xb
 2662 013a 49       		.uleb128 0x49
ARM GAS  /tmp/ccYlXmaR.s 			page 48


 2663 013b 13       		.uleb128 0x13
 2664 013c 00       		.byte	0
 2665 013d 00       		.byte	0
 2666 013e 1B       		.uleb128 0x1b
 2667 013f 0D       		.uleb128 0xd
 2668 0140 00       		.byte	0
 2669 0141 03       		.uleb128 0x3
 2670 0142 0E       		.uleb128 0xe
 2671 0143 3A       		.uleb128 0x3a
 2672 0144 0B       		.uleb128 0xb
 2673 0145 3B       		.uleb128 0x3b
 2674 0146 0B       		.uleb128 0xb
 2675 0147 49       		.uleb128 0x49
 2676 0148 13       		.uleb128 0x13
 2677 0149 00       		.byte	0
 2678 014a 00       		.byte	0
 2679 014b 1C       		.uleb128 0x1c
 2680 014c 0D       		.uleb128 0xd
 2681 014d 00       		.byte	0
 2682 014e 03       		.uleb128 0x3
 2683 014f 0E       		.uleb128 0xe
 2684 0150 3A       		.uleb128 0x3a
 2685 0151 0B       		.uleb128 0xb
 2686 0152 3B       		.uleb128 0x3b
 2687 0153 0B       		.uleb128 0xb
 2688 0154 49       		.uleb128 0x49
 2689 0155 13       		.uleb128 0x13
 2690 0156 0B       		.uleb128 0xb
 2691 0157 0B       		.uleb128 0xb
 2692 0158 0D       		.uleb128 0xd
 2693 0159 0B       		.uleb128 0xb
 2694 015a 0C       		.uleb128 0xc
 2695 015b 0B       		.uleb128 0xb
 2696 015c 38       		.uleb128 0x38
 2697 015d 0B       		.uleb128 0xb
 2698 015e 00       		.byte	0
 2699 015f 00       		.byte	0
 2700 0160 1D       		.uleb128 0x1d
 2701 0161 13       		.uleb128 0x13
 2702 0162 01       		.byte	0x1
 2703 0163 0B       		.uleb128 0xb
 2704 0164 05       		.uleb128 0x5
 2705 0165 3A       		.uleb128 0x3a
 2706 0166 0B       		.uleb128 0xb
 2707 0167 3B       		.uleb128 0x3b
 2708 0168 0B       		.uleb128 0xb
 2709 0169 01       		.uleb128 0x1
 2710 016a 13       		.uleb128 0x13
 2711 016b 00       		.byte	0
 2712 016c 00       		.byte	0
 2713 016d 1E       		.uleb128 0x1e
 2714 016e 0D       		.uleb128 0xd
 2715 016f 00       		.byte	0
 2716 0170 03       		.uleb128 0x3
 2717 0171 0E       		.uleb128 0xe
 2718 0172 3A       		.uleb128 0x3a
 2719 0173 0B       		.uleb128 0xb
ARM GAS  /tmp/ccYlXmaR.s 			page 49


 2720 0174 3B       		.uleb128 0x3b
 2721 0175 05       		.uleb128 0x5
 2722 0176 49       		.uleb128 0x49
 2723 0177 13       		.uleb128 0x13
 2724 0178 00       		.byte	0
 2725 0179 00       		.byte	0
 2726 017a 1F       		.uleb128 0x1f
 2727 017b 13       		.uleb128 0x13
 2728 017c 01       		.byte	0x1
 2729 017d 03       		.uleb128 0x3
 2730 017e 08       		.uleb128 0x8
 2731 017f 0B       		.uleb128 0xb
 2732 0180 0B       		.uleb128 0xb
 2733 0181 3A       		.uleb128 0x3a
 2734 0182 0B       		.uleb128 0xb
 2735 0183 3B       		.uleb128 0x3b
 2736 0184 0B       		.uleb128 0xb
 2737 0185 01       		.uleb128 0x1
 2738 0186 13       		.uleb128 0x13
 2739 0187 00       		.byte	0
 2740 0188 00       		.byte	0
 2741 0189 20       		.uleb128 0x20
 2742 018a 0D       		.uleb128 0xd
 2743 018b 00       		.byte	0
 2744 018c 03       		.uleb128 0x3
 2745 018d 08       		.uleb128 0x8
 2746 018e 3A       		.uleb128 0x3a
 2747 018f 0B       		.uleb128 0xb
 2748 0190 3B       		.uleb128 0x3b
 2749 0191 0B       		.uleb128 0xb
 2750 0192 49       		.uleb128 0x49
 2751 0193 13       		.uleb128 0x13
 2752 0194 0B       		.uleb128 0xb
 2753 0195 0B       		.uleb128 0xb
 2754 0196 0D       		.uleb128 0xd
 2755 0197 0B       		.uleb128 0xb
 2756 0198 0C       		.uleb128 0xc
 2757 0199 0B       		.uleb128 0xb
 2758 019a 38       		.uleb128 0x38
 2759 019b 0B       		.uleb128 0xb
 2760 019c 00       		.byte	0
 2761 019d 00       		.byte	0
 2762 019e 21       		.uleb128 0x21
 2763 019f 2E       		.uleb128 0x2e
 2764 01a0 01       		.byte	0x1
 2765 01a1 3F       		.uleb128 0x3f
 2766 01a2 19       		.uleb128 0x19
 2767 01a3 03       		.uleb128 0x3
 2768 01a4 0E       		.uleb128 0xe
 2769 01a5 3A       		.uleb128 0x3a
 2770 01a6 0B       		.uleb128 0xb
 2771 01a7 3B       		.uleb128 0x3b
 2772 01a8 0B       		.uleb128 0xb
 2773 01a9 27       		.uleb128 0x27
 2774 01aa 19       		.uleb128 0x19
 2775 01ab 11       		.uleb128 0x11
 2776 01ac 01       		.uleb128 0x1
ARM GAS  /tmp/ccYlXmaR.s 			page 50


 2777 01ad 12       		.uleb128 0x12
 2778 01ae 06       		.uleb128 0x6
 2779 01af 40       		.uleb128 0x40
 2780 01b0 18       		.uleb128 0x18
 2781 01b1 9742     		.uleb128 0x2117
 2782 01b3 19       		.uleb128 0x19
 2783 01b4 01       		.uleb128 0x1
 2784 01b5 13       		.uleb128 0x13
 2785 01b6 00       		.byte	0
 2786 01b7 00       		.byte	0
 2787 01b8 22       		.uleb128 0x22
 2788 01b9 898201   		.uleb128 0x4109
 2789 01bc 00       		.byte	0
 2790 01bd 11       		.uleb128 0x11
 2791 01be 01       		.uleb128 0x1
 2792 01bf 9542     		.uleb128 0x2115
 2793 01c1 19       		.uleb128 0x19
 2794 01c2 31       		.uleb128 0x31
 2795 01c3 13       		.uleb128 0x13
 2796 01c4 00       		.byte	0
 2797 01c5 00       		.byte	0
 2798 01c6 23       		.uleb128 0x23
 2799 01c7 05       		.uleb128 0x5
 2800 01c8 00       		.byte	0
 2801 01c9 03       		.uleb128 0x3
 2802 01ca 0E       		.uleb128 0xe
 2803 01cb 3A       		.uleb128 0x3a
 2804 01cc 0B       		.uleb128 0xb
 2805 01cd 3B       		.uleb128 0x3b
 2806 01ce 0B       		.uleb128 0xb
 2807 01cf 49       		.uleb128 0x49
 2808 01d0 13       		.uleb128 0x13
 2809 01d1 02       		.uleb128 0x2
 2810 01d2 18       		.uleb128 0x18
 2811 01d3 00       		.byte	0
 2812 01d4 00       		.byte	0
 2813 01d5 24       		.uleb128 0x24
 2814 01d6 05       		.uleb128 0x5
 2815 01d7 00       		.byte	0
 2816 01d8 03       		.uleb128 0x3
 2817 01d9 0E       		.uleb128 0xe
 2818 01da 3A       		.uleb128 0x3a
 2819 01db 0B       		.uleb128 0xb
 2820 01dc 3B       		.uleb128 0x3b
 2821 01dd 0B       		.uleb128 0xb
 2822 01de 49       		.uleb128 0x49
 2823 01df 13       		.uleb128 0x13
 2824 01e0 02       		.uleb128 0x2
 2825 01e1 17       		.uleb128 0x17
 2826 01e2 00       		.byte	0
 2827 01e3 00       		.byte	0
 2828 01e4 25       		.uleb128 0x25
 2829 01e5 34       		.uleb128 0x34
 2830 01e6 00       		.byte	0
 2831 01e7 03       		.uleb128 0x3
 2832 01e8 0E       		.uleb128 0xe
 2833 01e9 49       		.uleb128 0x49
ARM GAS  /tmp/ccYlXmaR.s 			page 51


 2834 01ea 13       		.uleb128 0x13
 2835 01eb 34       		.uleb128 0x34
 2836 01ec 19       		.uleb128 0x19
 2837 01ed 00       		.byte	0
 2838 01ee 00       		.byte	0
 2839 01ef 26       		.uleb128 0x26
 2840 01f0 898201   		.uleb128 0x4109
 2841 01f3 01       		.byte	0x1
 2842 01f4 11       		.uleb128 0x11
 2843 01f5 01       		.uleb128 0x1
 2844 01f6 9542     		.uleb128 0x2115
 2845 01f8 19       		.uleb128 0x19
 2846 01f9 31       		.uleb128 0x31
 2847 01fa 13       		.uleb128 0x13
 2848 01fb 00       		.byte	0
 2849 01fc 00       		.byte	0
 2850 01fd 27       		.uleb128 0x27
 2851 01fe 8A8201   		.uleb128 0x410a
 2852 0201 00       		.byte	0
 2853 0202 02       		.uleb128 0x2
 2854 0203 18       		.uleb128 0x18
 2855 0204 9142     		.uleb128 0x2111
 2856 0206 18       		.uleb128 0x18
 2857 0207 00       		.byte	0
 2858 0208 00       		.byte	0
 2859 0209 28       		.uleb128 0x28
 2860 020a 34       		.uleb128 0x34
 2861 020b 00       		.byte	0
 2862 020c 03       		.uleb128 0x3
 2863 020d 08       		.uleb128 0x8
 2864 020e 3A       		.uleb128 0x3a
 2865 020f 0B       		.uleb128 0xb
 2866 0210 3B       		.uleb128 0x3b
 2867 0211 0B       		.uleb128 0xb
 2868 0212 49       		.uleb128 0x49
 2869 0213 13       		.uleb128 0x13
 2870 0214 02       		.uleb128 0x2
 2871 0215 17       		.uleb128 0x17
 2872 0216 00       		.byte	0
 2873 0217 00       		.byte	0
 2874 0218 29       		.uleb128 0x29
 2875 0219 2E       		.uleb128 0x2e
 2876 021a 01       		.byte	0x1
 2877 021b 3F       		.uleb128 0x3f
 2878 021c 19       		.uleb128 0x19
 2879 021d 03       		.uleb128 0x3
 2880 021e 0E       		.uleb128 0xe
 2881 021f 3A       		.uleb128 0x3a
 2882 0220 0B       		.uleb128 0xb
 2883 0221 3B       		.uleb128 0x3b
 2884 0222 05       		.uleb128 0x5
 2885 0223 27       		.uleb128 0x27
 2886 0224 19       		.uleb128 0x19
 2887 0225 49       		.uleb128 0x49
 2888 0226 13       		.uleb128 0x13
 2889 0227 11       		.uleb128 0x11
 2890 0228 01       		.uleb128 0x1
ARM GAS  /tmp/ccYlXmaR.s 			page 52


 2891 0229 12       		.uleb128 0x12
 2892 022a 06       		.uleb128 0x6
 2893 022b 40       		.uleb128 0x40
 2894 022c 18       		.uleb128 0x18
 2895 022d 9742     		.uleb128 0x2117
 2896 022f 19       		.uleb128 0x19
 2897 0230 01       		.uleb128 0x1
 2898 0231 13       		.uleb128 0x13
 2899 0232 00       		.byte	0
 2900 0233 00       		.byte	0
 2901 0234 2A       		.uleb128 0x2a
 2902 0235 05       		.uleb128 0x5
 2903 0236 00       		.byte	0
 2904 0237 03       		.uleb128 0x3
 2905 0238 0E       		.uleb128 0xe
 2906 0239 3A       		.uleb128 0x3a
 2907 023a 0B       		.uleb128 0xb
 2908 023b 3B       		.uleb128 0x3b
 2909 023c 05       		.uleb128 0x5
 2910 023d 49       		.uleb128 0x49
 2911 023e 13       		.uleb128 0x13
 2912 023f 02       		.uleb128 0x2
 2913 0240 17       		.uleb128 0x17
 2914 0241 00       		.byte	0
 2915 0242 00       		.byte	0
 2916 0243 2B       		.uleb128 0x2b
 2917 0244 34       		.uleb128 0x34
 2918 0245 00       		.byte	0
 2919 0246 03       		.uleb128 0x3
 2920 0247 0E       		.uleb128 0xe
 2921 0248 3A       		.uleb128 0x3a
 2922 0249 0B       		.uleb128 0xb
 2923 024a 3B       		.uleb128 0x3b
 2924 024b 05       		.uleb128 0x5
 2925 024c 49       		.uleb128 0x49
 2926 024d 13       		.uleb128 0x13
 2927 024e 02       		.uleb128 0x2
 2928 024f 17       		.uleb128 0x17
 2929 0250 00       		.byte	0
 2930 0251 00       		.byte	0
 2931 0252 2C       		.uleb128 0x2c
 2932 0253 34       		.uleb128 0x34
 2933 0254 00       		.byte	0
 2934 0255 03       		.uleb128 0x3
 2935 0256 08       		.uleb128 0x8
 2936 0257 3A       		.uleb128 0x3a
 2937 0258 0B       		.uleb128 0xb
 2938 0259 3B       		.uleb128 0x3b
 2939 025a 05       		.uleb128 0x5
 2940 025b 49       		.uleb128 0x49
 2941 025c 13       		.uleb128 0x13
 2942 025d 02       		.uleb128 0x2
 2943 025e 17       		.uleb128 0x17
 2944 025f 00       		.byte	0
 2945 0260 00       		.byte	0
 2946 0261 2D       		.uleb128 0x2d
 2947 0262 34       		.uleb128 0x34
ARM GAS  /tmp/ccYlXmaR.s 			page 53


 2948 0263 00       		.byte	0
 2949 0264 03       		.uleb128 0x3
 2950 0265 0E       		.uleb128 0xe
 2951 0266 3A       		.uleb128 0x3a
 2952 0267 0B       		.uleb128 0xb
 2953 0268 3B       		.uleb128 0x3b
 2954 0269 0B       		.uleb128 0xb
 2955 026a 49       		.uleb128 0x49
 2956 026b 13       		.uleb128 0x13
 2957 026c 02       		.uleb128 0x2
 2958 026d 18       		.uleb128 0x18
 2959 026e 00       		.byte	0
 2960 026f 00       		.byte	0
 2961 0270 2E       		.uleb128 0x2e
 2962 0271 34       		.uleb128 0x34
 2963 0272 00       		.byte	0
 2964 0273 03       		.uleb128 0x3
 2965 0274 0E       		.uleb128 0xe
 2966 0275 3A       		.uleb128 0x3a
 2967 0276 0B       		.uleb128 0xb
 2968 0277 3B       		.uleb128 0x3b
 2969 0278 05       		.uleb128 0x5
 2970 0279 49       		.uleb128 0x49
 2971 027a 13       		.uleb128 0x13
 2972 027b 3F       		.uleb128 0x3f
 2973 027c 19       		.uleb128 0x19
 2974 027d 3C       		.uleb128 0x3c
 2975 027e 19       		.uleb128 0x19
 2976 027f 00       		.byte	0
 2977 0280 00       		.byte	0
 2978 0281 2F       		.uleb128 0x2f
 2979 0282 34       		.uleb128 0x34
 2980 0283 00       		.byte	0
 2981 0284 03       		.uleb128 0x3
 2982 0285 08       		.uleb128 0x8
 2983 0286 3A       		.uleb128 0x3a
 2984 0287 0B       		.uleb128 0xb
 2985 0288 3B       		.uleb128 0x3b
 2986 0289 05       		.uleb128 0x5
 2987 028a 49       		.uleb128 0x49
 2988 028b 13       		.uleb128 0x13
 2989 028c 3F       		.uleb128 0x3f
 2990 028d 19       		.uleb128 0x19
 2991 028e 3C       		.uleb128 0x3c
 2992 028f 19       		.uleb128 0x19
 2993 0290 00       		.byte	0
 2994 0291 00       		.byte	0
 2995 0292 30       		.uleb128 0x30
 2996 0293 2E       		.uleb128 0x2e
 2997 0294 00       		.byte	0
 2998 0295 3F       		.uleb128 0x3f
 2999 0296 19       		.uleb128 0x19
 3000 0297 03       		.uleb128 0x3
 3001 0298 0E       		.uleb128 0xe
 3002 0299 3A       		.uleb128 0x3a
 3003 029a 0B       		.uleb128 0xb
 3004 029b 3B       		.uleb128 0x3b
ARM GAS  /tmp/ccYlXmaR.s 			page 54


 3005 029c 0B       		.uleb128 0xb
 3006 029d 27       		.uleb128 0x27
 3007 029e 19       		.uleb128 0x19
 3008 029f 3C       		.uleb128 0x3c
 3009 02a0 19       		.uleb128 0x19
 3010 02a1 00       		.byte	0
 3011 02a2 00       		.byte	0
 3012 02a3 31       		.uleb128 0x31
 3013 02a4 2E       		.uleb128 0x2e
 3014 02a5 01       		.byte	0x1
 3015 02a6 3F       		.uleb128 0x3f
 3016 02a7 19       		.uleb128 0x19
 3017 02a8 03       		.uleb128 0x3
 3018 02a9 0E       		.uleb128 0xe
 3019 02aa 3A       		.uleb128 0x3a
 3020 02ab 0B       		.uleb128 0xb
 3021 02ac 3B       		.uleb128 0x3b
 3022 02ad 0B       		.uleb128 0xb
 3023 02ae 27       		.uleb128 0x27
 3024 02af 19       		.uleb128 0x19
 3025 02b0 3C       		.uleb128 0x3c
 3026 02b1 19       		.uleb128 0x19
 3027 02b2 01       		.uleb128 0x1
 3028 02b3 13       		.uleb128 0x13
 3029 02b4 00       		.byte	0
 3030 02b5 00       		.byte	0
 3031 02b6 32       		.uleb128 0x32
 3032 02b7 2E       		.uleb128 0x2e
 3033 02b8 01       		.byte	0x1
 3034 02b9 3F       		.uleb128 0x3f
 3035 02ba 19       		.uleb128 0x19
 3036 02bb 03       		.uleb128 0x3
 3037 02bc 0E       		.uleb128 0xe
 3038 02bd 3A       		.uleb128 0x3a
 3039 02be 0B       		.uleb128 0xb
 3040 02bf 3B       		.uleb128 0x3b
 3041 02c0 0B       		.uleb128 0xb
 3042 02c1 27       		.uleb128 0x27
 3043 02c2 19       		.uleb128 0x19
 3044 02c3 3C       		.uleb128 0x3c
 3045 02c4 19       		.uleb128 0x19
 3046 02c5 00       		.byte	0
 3047 02c6 00       		.byte	0
 3048 02c7 00       		.byte	0
 3049              		.section	.debug_loc,"",%progbits
 3050              	.Ldebug_loc0:
 3051              	.LLST0:
 3052 0000 00000000 		.4byte	.LVL2
 3053 0004 03000000 		.4byte	.LVL3-1
 3054 0008 0100     		.2byte	0x1
 3055 000a 50       		.byte	0x50
 3056 000b 03000000 		.4byte	.LVL3-1
 3057 000f 04000000 		.4byte	.LFE272
 3058 0013 0400     		.2byte	0x4
 3059 0015 F3       		.byte	0xf3
 3060 0016 01       		.uleb128 0x1
 3061 0017 50       		.byte	0x50
ARM GAS  /tmp/ccYlXmaR.s 			page 55


 3062 0018 9F       		.byte	0x9f
 3063 0019 00000000 		.4byte	0
 3064 001d 00000000 		.4byte	0
 3065              	.LLST1:
 3066 0021 00000000 		.4byte	.LVL2
 3067 0025 03000000 		.4byte	.LVL3-1
 3068 0029 0100     		.2byte	0x1
 3069 002b 51       		.byte	0x51
 3070 002c 03000000 		.4byte	.LVL3-1
 3071 0030 04000000 		.4byte	.LFE272
 3072 0034 0400     		.2byte	0x4
 3073 0036 F3       		.byte	0xf3
 3074 0037 01       		.uleb128 0x1
 3075 0038 51       		.byte	0x51
 3076 0039 9F       		.byte	0x9f
 3077 003a 00000000 		.4byte	0
 3078 003e 00000000 		.4byte	0
 3079              	.LLST2:
 3080 0042 00000000 		.4byte	.LVL4
 3081 0046 03000000 		.4byte	.LVL5-1
 3082 004a 0100     		.2byte	0x1
 3083 004c 50       		.byte	0x50
 3084 004d 03000000 		.4byte	.LVL5-1
 3085 0051 04000000 		.4byte	.LFE273
 3086 0055 0400     		.2byte	0x4
 3087 0057 F3       		.byte	0xf3
 3088 0058 01       		.uleb128 0x1
 3089 0059 50       		.byte	0x50
 3090 005a 9F       		.byte	0x9f
 3091 005b 00000000 		.4byte	0
 3092 005f 00000000 		.4byte	0
 3093              	.LLST3:
 3094 0063 00000000 		.4byte	.LVL4
 3095 0067 03000000 		.4byte	.LVL5-1
 3096 006b 0100     		.2byte	0x1
 3097 006d 51       		.byte	0x51
 3098 006e 03000000 		.4byte	.LVL5-1
 3099 0072 04000000 		.4byte	.LFE273
 3100 0076 0400     		.2byte	0x4
 3101 0078 F3       		.byte	0xf3
 3102 0079 01       		.uleb128 0x1
 3103 007a 51       		.byte	0x51
 3104 007b 9F       		.byte	0x9f
 3105 007c 00000000 		.4byte	0
 3106 0080 00000000 		.4byte	0
 3107              	.LLST4:
 3108 0084 00000000 		.4byte	.LVL6
 3109 0088 03000000 		.4byte	.LVL7-1
 3110 008c 0100     		.2byte	0x1
 3111 008e 50       		.byte	0x50
 3112 008f 03000000 		.4byte	.LVL7-1
 3113 0093 04000000 		.4byte	.LFE274
 3114 0097 0400     		.2byte	0x4
 3115 0099 F3       		.byte	0xf3
 3116 009a 01       		.uleb128 0x1
 3117 009b 50       		.byte	0x50
 3118 009c 9F       		.byte	0x9f
ARM GAS  /tmp/ccYlXmaR.s 			page 56


 3119 009d 00000000 		.4byte	0
 3120 00a1 00000000 		.4byte	0
 3121              	.LLST5:
 3122 00a5 00000000 		.4byte	.LVL6
 3123 00a9 03000000 		.4byte	.LVL7-1
 3124 00ad 0100     		.2byte	0x1
 3125 00af 51       		.byte	0x51
 3126 00b0 03000000 		.4byte	.LVL7-1
 3127 00b4 04000000 		.4byte	.LFE274
 3128 00b8 0400     		.2byte	0x4
 3129 00ba F3       		.byte	0xf3
 3130 00bb 01       		.uleb128 0x1
 3131 00bc 51       		.byte	0x51
 3132 00bd 9F       		.byte	0x9f
 3133 00be 00000000 		.4byte	0
 3134 00c2 00000000 		.4byte	0
 3135              	.LLST6:
 3136 00c6 00000000 		.4byte	.LVL6
 3137 00ca 03000000 		.4byte	.LVL7-1
 3138 00ce 0100     		.2byte	0x1
 3139 00d0 52       		.byte	0x52
 3140 00d1 03000000 		.4byte	.LVL7-1
 3141 00d5 04000000 		.4byte	.LFE274
 3142 00d9 0400     		.2byte	0x4
 3143 00db F3       		.byte	0xf3
 3144 00dc 01       		.uleb128 0x1
 3145 00dd 52       		.byte	0x52
 3146 00de 9F       		.byte	0x9f
 3147 00df 00000000 		.4byte	0
 3148 00e3 00000000 		.4byte	0
 3149              	.LLST7:
 3150 00e7 00000000 		.4byte	.LVL8
 3151 00eb 03000000 		.4byte	.LVL9-1
 3152 00ef 0100     		.2byte	0x1
 3153 00f1 50       		.byte	0x50
 3154 00f2 03000000 		.4byte	.LVL9-1
 3155 00f6 04000000 		.4byte	.LFE275
 3156 00fa 0400     		.2byte	0x4
 3157 00fc F3       		.byte	0xf3
 3158 00fd 01       		.uleb128 0x1
 3159 00fe 50       		.byte	0x50
 3160 00ff 9F       		.byte	0x9f
 3161 0100 00000000 		.4byte	0
 3162 0104 00000000 		.4byte	0
 3163              	.LLST8:
 3164 0108 00000000 		.4byte	.LVL8
 3165 010c 03000000 		.4byte	.LVL9-1
 3166 0110 0100     		.2byte	0x1
 3167 0112 51       		.byte	0x51
 3168 0113 03000000 		.4byte	.LVL9-1
 3169 0117 04000000 		.4byte	.LFE275
 3170 011b 0400     		.2byte	0x4
 3171 011d F3       		.byte	0xf3
 3172 011e 01       		.uleb128 0x1
 3173 011f 51       		.byte	0x51
 3174 0120 9F       		.byte	0x9f
 3175 0121 00000000 		.4byte	0
ARM GAS  /tmp/ccYlXmaR.s 			page 57


 3176 0125 00000000 		.4byte	0
 3177              	.LLST9:
 3178 0129 00000000 		.4byte	.LVL8
 3179 012d 03000000 		.4byte	.LVL9-1
 3180 0131 0100     		.2byte	0x1
 3181 0133 52       		.byte	0x52
 3182 0134 03000000 		.4byte	.LVL9-1
 3183 0138 04000000 		.4byte	.LFE275
 3184 013c 0400     		.2byte	0x4
 3185 013e F3       		.byte	0xf3
 3186 013f 01       		.uleb128 0x1
 3187 0140 52       		.byte	0x52
 3188 0141 9F       		.byte	0x9f
 3189 0142 00000000 		.4byte	0
 3190 0146 00000000 		.4byte	0
 3191              	.LLST10:
 3192 014a 00000000 		.4byte	.LVL10
 3193 014e 20000000 		.4byte	.LVL11
 3194 0152 0100     		.2byte	0x1
 3195 0154 50       		.byte	0x50
 3196 0155 20000000 		.4byte	.LVL11
 3197 0159 A4000000 		.4byte	.LFE276
 3198 015d 0400     		.2byte	0x4
 3199 015f F3       		.byte	0xf3
 3200 0160 01       		.uleb128 0x1
 3201 0161 50       		.byte	0x50
 3202 0162 9F       		.byte	0x9f
 3203 0163 00000000 		.4byte	0
 3204 0167 00000000 		.4byte	0
 3205              	.LLST11:
 3206 016b 26000000 		.4byte	.LVL12
 3207 016f 74000000 		.4byte	.LVL14
 3208 0173 0100     		.2byte	0x1
 3209 0175 53       		.byte	0x53
 3210 0176 74000000 		.4byte	.LVL14
 3211 017a 92000000 		.4byte	.LVL15
 3212 017e 1E00     		.2byte	0x1e
 3213 0180 76       		.byte	0x76
 3214 0181 00       		.sleb128 0
 3215 0182 F7       		.byte	0xf7
 3216 0183 2C       		.uleb128 0x2c
 3217 0184 F7       		.byte	0xf7
 3218 0185 25       		.uleb128 0x25
 3219 0186 75       		.byte	0x75
 3220 0187 00       		.sleb128 0
 3221 0188 F7       		.byte	0xf7
 3222 0189 2C       		.uleb128 0x2c
 3223 018a F7       		.byte	0xf7
 3224 018b 25       		.uleb128 0x25
 3225 018c 1E       		.byte	0x1e
 3226 018d 08       		.byte	0x8
 3227 018e 20       		.byte	0x20
 3228 018f F7       		.byte	0xf7
 3229 0190 25       		.uleb128 0x25
 3230 0191 25       		.byte	0x25
 3231 0192 F7       		.byte	0xf7
 3232 0193 33       		.uleb128 0x33
ARM GAS  /tmp/ccYlXmaR.s 			page 58


 3233 0194 36       		.byte	0x36
 3234 0195 25       		.byte	0x25
 3235 0196 77       		.byte	0x77
 3236 0197 00       		.sleb128 0
 3237 0198 0A       		.byte	0xa
 3238 0199 100E     		.2byte	0xe10
 3239 019b 1E       		.byte	0x1e
 3240 019c 1C       		.byte	0x1c
 3241 019d 9F       		.byte	0x9f
 3242 019e 00000000 		.4byte	0
 3243 01a2 00000000 		.4byte	0
 3244              	.LLST12:
 3245 01a6 00000000 		.4byte	.LVL16
 3246 01aa 2E000000 		.4byte	.LVL17
 3247 01ae 0100     		.2byte	0x1
 3248 01b0 50       		.byte	0x50
 3249 01b1 2E000000 		.4byte	.LVL17
 3250 01b5 70000000 		.4byte	.LFE277
 3251 01b9 0400     		.2byte	0x4
 3252 01bb F3       		.byte	0xf3
 3253 01bc 01       		.uleb128 0x1
 3254 01bd 50       		.byte	0x50
 3255 01be 9F       		.byte	0x9f
 3256 01bf 00000000 		.4byte	0
 3257 01c3 00000000 		.4byte	0
 3258              	.LLST13:
 3259 01c7 00000000 		.4byte	.LVL16
 3260 01cb 64000000 		.4byte	.LVL18
 3261 01cf 0100     		.2byte	0x1
 3262 01d1 51       		.byte	0x51
 3263 01d2 64000000 		.4byte	.LVL18
 3264 01d6 70000000 		.4byte	.LFE277
 3265 01da 0400     		.2byte	0x4
 3266 01dc F3       		.byte	0xf3
 3267 01dd 01       		.uleb128 0x1
 3268 01de 51       		.byte	0x51
 3269 01df 9F       		.byte	0x9f
 3270 01e0 00000000 		.4byte	0
 3271 01e4 00000000 		.4byte	0
 3272              	.LLST14:
 3273 01e8 00000000 		.4byte	.LVL19
 3274 01ec 68000000 		.4byte	.LVL32
 3275 01f0 0100     		.2byte	0x1
 3276 01f2 50       		.byte	0x50
 3277 01f3 68000000 		.4byte	.LVL32
 3278 01f7 70000000 		.4byte	.LVL35
 3279 01fb 0400     		.2byte	0x4
 3280 01fd F3       		.byte	0xf3
 3281 01fe 01       		.uleb128 0x1
 3282 01ff 50       		.byte	0x50
 3283 0200 9F       		.byte	0x9f
 3284 0201 70000000 		.4byte	.LVL35
 3285 0205 96000000 		.4byte	.LFE278
 3286 0209 0100     		.2byte	0x1
 3287 020b 50       		.byte	0x50
 3288 020c 00000000 		.4byte	0
 3289 0210 00000000 		.4byte	0
ARM GAS  /tmp/ccYlXmaR.s 			page 59


 3290              	.LLST15:
 3291 0214 56000000 		.4byte	.LVL28
 3292 0218 5A000000 		.4byte	.LVL29
 3293 021c 1500     		.2byte	0x15
 3294 021e 73       		.byte	0x73
 3295 021f 00       		.sleb128 0
 3296 0220 35       		.byte	0x35
 3297 0221 24       		.byte	0x24
 3298 0222 71       		.byte	0x71
 3299 0223 00       		.sleb128 0
 3300 0224 31       		.byte	0x31
 3301 0225 25       		.byte	0x25
 3302 0226 21       		.byte	0x21
 3303 0227 75       		.byte	0x75
 3304 0228 00       		.sleb128 0
 3305 0229 45       		.byte	0x45
 3306 022a 24       		.byte	0x24
 3307 022b 21       		.byte	0x21
 3308 022c 74       		.byte	0x74
 3309 022d 00       		.sleb128 0
 3310 022e 21       		.byte	0x21
 3311 022f 76       		.byte	0x76
 3312 0230 00       		.sleb128 0
 3313 0231 21       		.byte	0x21
 3314 0232 9F       		.byte	0x9f
 3315 0233 5E000000 		.4byte	.LVL30
 3316 0237 62000000 		.4byte	.LVL31
 3317 023b 0E00     		.2byte	0xe
 3318 023d 75       		.byte	0x75
 3319 023e 00       		.sleb128 0
 3320 023f 45       		.byte	0x45
 3321 0240 24       		.byte	0x24
 3322 0241 71       		.byte	0x71
 3323 0242 00       		.sleb128 0
 3324 0243 21       		.byte	0x21
 3325 0244 74       		.byte	0x74
 3326 0245 00       		.sleb128 0
 3327 0246 21       		.byte	0x21
 3328 0247 76       		.byte	0x76
 3329 0248 00       		.sleb128 0
 3330 0249 21       		.byte	0x21
 3331 024a 9F       		.byte	0x9f
 3332 024b 68000000 		.4byte	.LVL32
 3333 024f 6C000000 		.4byte	.LVL33
 3334 0253 0800     		.2byte	0x8
 3335 0255 75       		.byte	0x75
 3336 0256 00       		.sleb128 0
 3337 0257 45       		.byte	0x45
 3338 0258 24       		.byte	0x24
 3339 0259 70       		.byte	0x70
 3340 025a 00       		.sleb128 0
 3341 025b 21       		.byte	0x21
 3342 025c 9F       		.byte	0x9f
 3343 025d 6C000000 		.4byte	.LVL33
 3344 0261 70000000 		.4byte	.LVL35
 3345 0265 0100     		.2byte	0x1
 3346 0267 50       		.byte	0x50
ARM GAS  /tmp/ccYlXmaR.s 			page 60


 3347 0268 00000000 		.4byte	0
 3348 026c 00000000 		.4byte	0
 3349              	.LLST16:
 3350 0270 1C000000 		.4byte	.LVL20
 3351 0274 5E000000 		.4byte	.LVL30
 3352 0278 0100     		.2byte	0x1
 3353 027a 51       		.byte	0x51
 3354 027b 70000000 		.4byte	.LVL35
 3355 027f 96000000 		.4byte	.LFE278
 3356 0283 0100     		.2byte	0x1
 3357 0285 51       		.byte	0x51
 3358 0286 00000000 		.4byte	0
 3359 028a 00000000 		.4byte	0
 3360              	.LLST17:
 3361 028e 3E000000 		.4byte	.LVL23
 3362 0292 5A000000 		.4byte	.LVL29
 3363 0296 0100     		.2byte	0x1
 3364 0298 53       		.byte	0x53
 3365 0299 70000000 		.4byte	.LVL35
 3366 029d 96000000 		.4byte	.LFE278
 3367 02a1 0100     		.2byte	0x1
 3368 02a3 53       		.byte	0x53
 3369 02a4 00000000 		.4byte	0
 3370 02a8 00000000 		.4byte	0
 3371              	.LLST18:
 3372 02ac 26000000 		.4byte	.LVL21
 3373 02b0 54000000 		.4byte	.LVL27
 3374 02b4 0100     		.2byte	0x1
 3375 02b6 54       		.byte	0x54
 3376 02b7 70000000 		.4byte	.LVL35
 3377 02bb 76000000 		.4byte	.LVL37
 3378 02bf 0100     		.2byte	0x1
 3379 02c1 54       		.byte	0x54
 3380 02c2 76000000 		.4byte	.LVL37
 3381 02c6 96000000 		.4byte	.LFE278
 3382 02ca 0200     		.2byte	0x2
 3383 02cc 30       		.byte	0x30
 3384 02cd 9F       		.byte	0x9f
 3385 02ce 00000000 		.4byte	0
 3386 02d2 00000000 		.4byte	0
 3387              	.LLST19:
 3388 02d6 4A000000 		.4byte	.LVL25
 3389 02da 56000000 		.4byte	.LVL28
 3390 02de 0100     		.2byte	0x1
 3391 02e0 56       		.byte	0x56
 3392 02e1 70000000 		.4byte	.LVL35
 3393 02e5 8C000000 		.4byte	.LVL39
 3394 02e9 0100     		.2byte	0x1
 3395 02eb 56       		.byte	0x56
 3396 02ec 8C000000 		.4byte	.LVL39
 3397 02f0 96000000 		.4byte	.LFE278
 3398 02f4 0200     		.2byte	0x2
 3399 02f6 31       		.byte	0x31
 3400 02f7 9F       		.byte	0x9f
 3401 02f8 00000000 		.4byte	0
 3402 02fc 00000000 		.4byte	0
 3403              	.LLST20:
ARM GAS  /tmp/ccYlXmaR.s 			page 61


 3404 0300 4E000000 		.4byte	.LVL26
 3405 0304 6E000000 		.4byte	.LVL34
 3406 0308 0100     		.2byte	0x1
 3407 030a 55       		.byte	0x55
 3408 030b 70000000 		.4byte	.LVL35
 3409 030f 96000000 		.4byte	.LFE278
 3410 0313 0100     		.2byte	0x1
 3411 0315 55       		.byte	0x55
 3412 0316 00000000 		.4byte	0
 3413 031a 00000000 		.4byte	0
 3414              		.section	.debug_aranges,"",%progbits
 3415 0000 5C000000 		.4byte	0x5c
 3416 0004 0200     		.2byte	0x2
 3417 0006 00000000 		.4byte	.Ldebug_info0
 3418 000a 04       		.byte	0x4
 3419 000b 00       		.byte	0
 3420 000c 0000     		.2byte	0
 3421 000e 0000     		.2byte	0
 3422 0010 00000000 		.4byte	.LFB270
 3423 0014 04000000 		.4byte	.LFE270-.LFB270
 3424 0018 00000000 		.4byte	.LFB271
 3425 001c 02000000 		.4byte	.LFE271-.LFB271
 3426 0020 00000000 		.4byte	.LFB272
 3427 0024 04000000 		.4byte	.LFE272-.LFB272
 3428 0028 00000000 		.4byte	.LFB273
 3429 002c 04000000 		.4byte	.LFE273-.LFB273
 3430 0030 00000000 		.4byte	.LFB274
 3431 0034 04000000 		.4byte	.LFE274-.LFB274
 3432 0038 00000000 		.4byte	.LFB275
 3433 003c 04000000 		.4byte	.LFE275-.LFB275
 3434 0040 00000000 		.4byte	.LFB276
 3435 0044 A4000000 		.4byte	.LFE276-.LFB276
 3436 0048 00000000 		.4byte	.LFB277
 3437 004c 70000000 		.4byte	.LFE277-.LFB277
 3438 0050 00000000 		.4byte	.LFB278
 3439 0054 96000000 		.4byte	.LFE278-.LFB278
 3440 0058 00000000 		.4byte	0
 3441 005c 00000000 		.4byte	0
 3442              		.section	.debug_ranges,"",%progbits
 3443              	.Ldebug_ranges0:
 3444 0000 00000000 		.4byte	.LFB270
 3445 0004 04000000 		.4byte	.LFE270
 3446 0008 00000000 		.4byte	.LFB271
 3447 000c 02000000 		.4byte	.LFE271
 3448 0010 00000000 		.4byte	.LFB272
 3449 0014 04000000 		.4byte	.LFE272
 3450 0018 00000000 		.4byte	.LFB273
 3451 001c 04000000 		.4byte	.LFE273
 3452 0020 00000000 		.4byte	.LFB274
 3453 0024 04000000 		.4byte	.LFE274
 3454 0028 00000000 		.4byte	.LFB275
 3455 002c 04000000 		.4byte	.LFE275
 3456 0030 00000000 		.4byte	.LFB276
 3457 0034 A4000000 		.4byte	.LFE276
 3458 0038 00000000 		.4byte	.LFB277
 3459 003c 70000000 		.4byte	.LFE277
 3460 0040 00000000 		.4byte	.LFB278
ARM GAS  /tmp/ccYlXmaR.s 			page 62


 3461 0044 96000000 		.4byte	.LFE278
 3462 0048 00000000 		.4byte	0
 3463 004c 00000000 		.4byte	0
 3464              		.section	.debug_line,"",%progbits
 3465              	.Ldebug_line0:
 3466 0000 C3030000 		.section	.debug_str,"MS",%progbits,1
 3466      0200B702 
 3466      00000201 
 3466      FB0E0D00 
 3466      01010101 
 3467              	.LASF75:
 3468 0000 43414C49 		.ascii	"CALIBR\000"
 3468      425200
 3469              	.LASF45:
 3470 0007 74687265 		.ascii	"threads_list_t\000"
 3470      6164735F 
 3470      6C697374 
 3470      5F7400
 3471              	.LASF52:
 3472 0016 72656164 		.ascii	"ready_list_t\000"
 3472      795F6C69 
 3472      73745F74 
 3472      00
 3473              	.LASF173:
 3474 0023 66617474 		.ascii	"fattime\000"
 3474      696D6500 
 3475              	.LASF129:
 3476 002b 77747472 		.ascii	"wttrp\000"
 3476      7000
 3477              	.LASF58:
 3478 0031 64656C74 		.ascii	"delta\000"
 3478      6100
 3479              	.LASF127:
 3480 0037 7264796D 		.ascii	"rdymsg\000"
 3480      736700
 3481              	.LASF18:
 3482 003e 75696E74 		.ascii	"uint64_t\000"
 3482      36345F74 
 3482      00
 3483              	.LASF5:
 3484 0047 5F5F7569 		.ascii	"__uint8_t\000"
 3484      6E74385F 
 3484      7400
 3485              	.LASF51:
 3486 0051 70726576 		.ascii	"prev\000"
 3486      00
 3487              	.LASF111:
 3488 0056 706F7274 		.ascii	"port_intctx\000"
 3488      5F696E74 
 3488      63747800 
 3489              	.LASF50:
 3490 0062 63685F74 		.ascii	"ch_threads_queue\000"
 3490      68726561 
 3490      64735F71 
 3490      75657565 
 3490      00
 3491              	.LASF63:
ARM GAS  /tmp/ccYlXmaR.s 			page 63


 3492 0073 73797374 		.ascii	"system_debug_t\000"
 3492      656D5F64 
 3492      65627567 
 3492      5F7400
 3493              	.LASF82:
 3494 0082 43414C52 		.ascii	"CALR\000"
 3494      00
 3495              	.LASF117:
 3496 0087 74797065 		.ascii	"type\000"
 3496      00
 3497              	.LASF90:
 3498 008c 424B5033 		.ascii	"BKP3R\000"
 3498      5200
 3499              	.LASF73:
 3500 0092 50524552 		.ascii	"PRER\000"
 3500      00
 3501              	.LASF180:
 3502 0097 474E5520 		.ascii	"GNU C 4.8.2 -mcpu=cortex-m4 -mno-thumb-interwork -m"
 3502      4320342E 
 3502      382E3220 
 3502      2D6D6370 
 3502      753D636F 
 3503 00ca 7468756D 		.ascii	"thumb -ggdb -O2 -fomit-frame-pointer -falign-functi"
 3503      62202D67 
 3503      67646220 
 3503      2D4F3220 
 3503      2D666F6D 
 3504 00fd 6F6E733D 		.ascii	"ons=16 -ffunction-sections -fdata-sections -fno-com"
 3504      3136202D 
 3504      6666756E 
 3504      6374696F 
 3504      6E2D7365 
 3505 0130 6D6F6E00 		.ascii	"mon\000"
 3506              	.LASF102:
 3507 0134 424B5031 		.ascii	"BKP15R\000"
 3507      355200
 3508              	.LASF0:
 3509 013b 6C6F6E67 		.ascii	"long long unsigned int\000"
 3509      206C6F6E 
 3509      6720756E 
 3509      7369676E 
 3509      65642069 
 3510              	.LASF124:
 3511 0152 63685F74 		.ascii	"ch_trace_buffer_t\000"
 3511      72616365 
 3511      5F627566 
 3511      6665725F 
 3511      7400
 3512              	.LASF160:
 3513 0164 72746353 		.ascii	"rtcSetTime\000"
 3513      65745469 
 3513      6D6500
 3514              	.LASF128:
 3515 016f 65786974 		.ascii	"exitcode\000"
 3515      636F6465 
 3515      00
 3516              	.LASF71:
ARM GAS  /tmp/ccYlXmaR.s 			page 64


 3517 0178 6D61696E 		.ascii	"mainthread\000"
 3517      74687265 
 3517      616400
 3518              	.LASF130:
 3519 0183 73656E74 		.ascii	"sentmsg\000"
 3519      6D736700 
 3520              	.LASF169:
 3521 018b 72746343 		.ascii	"rtcConvertDateTimeToStructTm\000"
 3521      6F6E7665 
 3521      72744461 
 3521      74655469 
 3521      6D65546F 
 3522              	.LASF60:
 3523 01a8 76697274 		.ascii	"virtual_timers_list_t\000"
 3523      75616C5F 
 3523      74696D65 
 3523      72735F6C 
 3523      6973745F 
 3524              	.LASF176:
 3525 01be 49544D5F 		.ascii	"ITM_RxBuffer\000"
 3525      52784275 
 3525      66666572 
 3525      00
 3526              	.LASF151:
 3527 01cb 64737466 		.ascii	"dstflag\000"
 3527      6C616700 
 3528              	.LASF107:
 3529 01d3 5254435F 		.ascii	"RTC_TypeDef\000"
 3529      54797065 
 3529      44656600 
 3530              	.LASF183:
 3531 01df 72746343 		.ascii	"rtcConvertDateTimeToFAT\000"
 3531      6F6E7665 
 3531      72744461 
 3531      74655469 
 3531      6D65546F 
 3532              	.LASF168:
 3533 01f7 72746347 		.ascii	"rtcGetAlarm\000"
 3533      6574416C 
 3533      61726D00 
 3534              	.LASF12:
 3535 0203 6C6F6E67 		.ascii	"long long int\000"
 3535      206C6F6E 
 3535      6720696E 
 3535      7400
 3536              	.LASF2:
 3537 0211 7369676E 		.ascii	"signed char\000"
 3537      65642063 
 3537      68617200 
 3538              	.LASF122:
 3539 021d 73697A65 		.ascii	"size\000"
 3539      00
 3540              	.LASF184:
 3541 0222 7274635F 		.ascii	"rtc_lld_init\000"
 3541      6C6C645F 
 3541      696E6974 
 3541      00
ARM GAS  /tmp/ccYlXmaR.s 			page 65


 3542              	.LASF70:
 3543 022f 76746C69 		.ascii	"vtlist\000"
 3543      737400
 3544              	.LASF149:
 3545 0236 79656172 		.ascii	"year\000"
 3545      00
 3546              	.LASF35:
 3547 023b 73746174 		.ascii	"state\000"
 3547      6500
 3548              	.LASF9:
 3549 0241 6C6F6E67 		.ascii	"long int\000"
 3549      20696E74 
 3549      00
 3550              	.LASF91:
 3551 024a 424B5034 		.ascii	"BKP4R\000"
 3551      5200
 3552              	.LASF21:
 3553 0250 74737461 		.ascii	"tstate_t\000"
 3553      74655F74 
 3553      00
 3554              	.LASF120:
 3555 0259 63685F74 		.ascii	"ch_trace_event_t\000"
 3555      72616365 
 3555      5F657665 
 3555      6E745F74 
 3555      00
 3556              	.LASF59:
 3557 026a 66756E63 		.ascii	"func\000"
 3557      00
 3558              	.LASF103:
 3559 026f 424B5031 		.ascii	"BKP16R\000"
 3559      365200
 3560              	.LASF15:
 3561 0276 75696E74 		.ascii	"uint16_t\000"
 3561      31365F74 
 3561      00
 3562              	.LASF165:
 3563 027f 72746353 		.ascii	"rtcSetAlarm\000"
 3563      6574416C 
 3563      61726D00 
 3564              	.LASF167:
 3565 028b 616C6172 		.ascii	"alarmspec\000"
 3565      6D737065 
 3565      6300
 3566              	.LASF123:
 3567 0295 62756666 		.ascii	"buffer\000"
 3567      657200
 3568              	.LASF10:
 3569 029c 5F5F7569 		.ascii	"__uint32_t\000"
 3569      6E743332 
 3569      5F7400
 3570              	.LASF108:
 3571 02a7 72656761 		.ascii	"regarm_t\000"
 3571      726D5F74 
 3571      00
 3572              	.LASF143:
 3573 02b0 746D5F6D 		.ascii	"tm_mon\000"
ARM GAS  /tmp/ccYlXmaR.s 			page 66


 3573      6F6E00
 3574              	.LASF161:
 3575 02b7 72746370 		.ascii	"rtcp\000"
 3575      00
 3576              	.LASF159:
 3577 02bc 7274634F 		.ascii	"rtcObjectInit\000"
 3577      626A6563 
 3577      74496E69 
 3577      7400
 3578              	.LASF38:
 3579 02ca 77616974 		.ascii	"waiting\000"
 3579      696E6700 
 3580              	.LASF172:
 3581 02d2 72746343 		.ascii	"rtcConvertStructTmToDateTime\000"
 3581      6F6E7665 
 3581      72745374 
 3581      72756374 
 3581      546D546F 
 3582              	.LASF137:
 3583 02ef 6D757465 		.ascii	"mutex_t\000"
 3583      785F7400 
 3584              	.LASF84:
 3585 02f7 414C524D 		.ascii	"ALRMASSR\000"
 3585      41535352 
 3585      00
 3586              	.LASF26:
 3587 0300 636E745F 		.ascii	"cnt_t\000"
 3587      7400
 3588              	.LASF150:
 3589 0306 6D6F6E74 		.ascii	"month\000"
 3589      6800
 3590              	.LASF80:
 3591 030c 54534452 		.ascii	"TSDR\000"
 3591      00
 3592              	.LASF92:
 3593 0311 424B5035 		.ascii	"BKP5R\000"
 3593      5200
 3594              	.LASF131:
 3595 0317 77747365 		.ascii	"wtsemp\000"
 3595      6D7000
 3596              	.LASF162:
 3597 031e 74696D65 		.ascii	"timespec\000"
 3597      73706563 
 3597      00
 3598              	.LASF11:
 3599 0327 6C6F6E67 		.ascii	"long unsigned int\000"
 3599      20756E73 
 3599      69676E65 
 3599      6420696E 
 3599      7400
 3600              	.LASF33:
 3601 0339 6E616D65 		.ascii	"name\000"
 3601      00
 3602              	.LASF29:
 3603 033e 71756575 		.ascii	"queue\000"
 3603      6500
 3604              	.LASF177:
ARM GAS  /tmp/ccYlXmaR.s 			page 67


 3605 0344 7274635F 		.ascii	"rtc_lld_set_time\000"
 3605      6C6C645F 
 3605      7365745F 
 3605      74696D65 
 3605      00
 3606              	.LASF182:
 3607 0355 2F686F6D 		.ascii	"/home/johnnyco/Documentos/Embebidos/Chibios Johnny/"
 3607      652F6A6F 
 3607      686E6E79 
 3607      636F2F44 
 3607      6F63756D 
 3608 0388 43686962 		.ascii	"ChibiOS-Contrib/testhal/STM32/STM32F4xx/1WIRE + RTC"
 3608      694F532D 
 3608      436F6E74 
 3608      7269622F 
 3608      74657374 
 3609 03bb 202B2055 		.ascii	" + UART + PWM + ADC 1.0\000"
 3609      41525420 
 3609      2B205057 
 3609      4D202B20 
 3609      41444320 
 3610              	.LASF43:
 3611 03d3 6D706F6F 		.ascii	"mpool\000"
 3611      6C00
 3612              	.LASF179:
 3613 03d9 7274635F 		.ascii	"rtc_lld_set_alarm\000"
 3613      6C6C645F 
 3613      7365745F 
 3613      616C6172 
 3613      6D00
 3614              	.LASF7:
 3615 03eb 73686F72 		.ascii	"short unsigned int\000"
 3615      7420756E 
 3615      7369676E 
 3615      65642069 
 3615      6E7400
 3616              	.LASF147:
 3617 03fe 746D5F69 		.ascii	"tm_isdst\000"
 3617      73647374 
 3617      00
 3618              	.LASF46:
 3619 0407 63685F74 		.ascii	"ch_thread\000"
 3619      68726561 
 3619      6400
 3620              	.LASF153:
 3621 0411 6D696C6C 		.ascii	"millisecond\000"
 3621      69736563 
 3621      6F6E6400 
 3622              	.LASF178:
 3623 041d 7274635F 		.ascii	"rtc_lld_get_time\000"
 3623      6C6C645F 
 3623      6765745F 
 3623      74696D65 
 3623      00
 3624              	.LASF24:
 3625 042e 6D73675F 		.ascii	"msg_t\000"
 3625      7400
ARM GAS  /tmp/ccYlXmaR.s 			page 68


 3626              	.LASF40:
 3627 0434 6570656E 		.ascii	"epending\000"
 3627      64696E67 
 3627      00
 3628              	.LASF67:
 3629 043d 63685F73 		.ascii	"ch_system_t\000"
 3629      79737465 
 3629      6D5F7400 
 3630              	.LASF97:
 3631 0449 424B5031 		.ascii	"BKP10R\000"
 3631      305200
 3632              	.LASF20:
 3633 0450 746D6F64 		.ascii	"tmode_t\000"
 3633      655F7400 
 3634              	.LASF79:
 3635 0458 54535452 		.ascii	"TSTR\000"
 3635      00
 3636              	.LASF53:
 3637 045d 63685F72 		.ascii	"ch_ready_list\000"
 3637      65616479 
 3637      5F6C6973 
 3637      7400
 3638              	.LASF25:
 3639 046b 6576656E 		.ascii	"eventmask_t\000"
 3639      746D6173 
 3639      6B5F7400 
 3640              	.LASF8:
 3641 0477 5F5F696E 		.ascii	"__int32_t\000"
 3641      7433325F 
 3641      7400
 3642              	.LASF39:
 3643 0481 6D736771 		.ascii	"msgqueue\000"
 3643      75657565 
 3643      00
 3644              	.LASF109:
 3645 048a 73746B61 		.ascii	"stkalign_t\000"
 3645      6C69676E 
 3645      5F7400
 3646              	.LASF93:
 3647 0495 424B5036 		.ascii	"BKP6R\000"
 3647      5200
 3648              	.LASF175:
 3649 049b 6D6F6E74 		.ascii	"month_len\000"
 3649      685F6C65 
 3649      6E00
 3650              	.LASF118:
 3651 04a5 72747374 		.ascii	"rtstamp\000"
 3651      616D7000 
 3652              	.LASF105:
 3653 04ad 424B5031 		.ascii	"BKP18R\000"
 3653      385200
 3654              	.LASF156:
 3655 04b4 616C726D 		.ascii	"alrmr\000"
 3655      7200
 3656              	.LASF154:
 3657 04ba 52544344 		.ascii	"RTCDateTime\000"
 3657      61746554 
ARM GAS  /tmp/ccYlXmaR.s 			page 69


 3657      696D6500 
 3658              	.LASF140:
 3659 04c6 746D5F6D 		.ascii	"tm_min\000"
 3659      696E00
 3660              	.LASF72:
 3661 04cd 73697A65 		.ascii	"sizetype\000"
 3661      74797065 
 3661      00
 3662              	.LASF44:
 3663 04d6 74687265 		.ascii	"thread_reference_t\000"
 3663      61645F72 
 3663      65666572 
 3663      656E6365 
 3663      5F7400
 3664              	.LASF61:
 3665 04e9 63685F76 		.ascii	"ch_virtual_timers_list\000"
 3665      69727475 
 3665      616C5F74 
 3665      696D6572 
 3665      735F6C69 
 3666              	.LASF146:
 3667 0500 746D5F79 		.ascii	"tm_yday\000"
 3667      64617900 
 3668              	.LASF155:
 3669 0508 72746361 		.ascii	"rtcalarm_t\000"
 3669      6C61726D 
 3669      5F7400
 3670              	.LASF121:
 3671 0513 73757370 		.ascii	"suspended\000"
 3671      656E6465 
 3671      6400
 3672              	.LASF110:
 3673 051d 706F7274 		.ascii	"port_context\000"
 3673      5F636F6E 
 3673      74657874 
 3673      00
 3674              	.LASF126:
 3675 052a 746D5F63 		.ascii	"tm_calibration_t\000"
 3675      616C6962 
 3675      72617469 
 3675      6F6E5F74 
 3675      00
 3676              	.LASF98:
 3677 053b 424B5031 		.ascii	"BKP11R\000"
 3677      315200
 3678              	.LASF119:
 3679 0542 74696D65 		.ascii	"time\000"
 3679      00
 3680              	.LASF30:
 3681 0547 7072696F 		.ascii	"prio\000"
 3681      00
 3682              	.LASF81:
 3683 054c 54535353 		.ascii	"TSSSR\000"
 3683      5200
 3684              	.LASF174:
 3685 0552 686F7572 		.ascii	"hour\000"
 3685      00
ARM GAS  /tmp/ccYlXmaR.s 			page 70


 3686              	.LASF54:
 3687 0557 63757272 		.ascii	"current\000"
 3687      656E7400 
 3688              	.LASF13:
 3689 055f 5F5F7569 		.ascii	"__uint64_t\000"
 3689      6E743634 
 3689      5F7400
 3690              	.LASF76:
 3691 056a 414C524D 		.ascii	"ALRMAR\000"
 3691      415200
 3692              	.LASF185:
 3693 0571 7274635F 		.ascii	"rtc_lld_get_alarm\000"
 3693      6C6C645F 
 3693      6765745F 
 3693      616C6172 
 3693      6D00
 3694              	.LASF94:
 3695 0583 424B5037 		.ascii	"BKP7R\000"
 3695      5200
 3696              	.LASF83:
 3697 0589 54414643 		.ascii	"TAFCR\000"
 3697      5200
 3698              	.LASF22:
 3699 058f 74726566 		.ascii	"trefs_t\000"
 3699      735F7400 
 3700              	.LASF171:
 3701 0597 74765F6D 		.ascii	"tv_msec\000"
 3701      73656300 
 3702              	.LASF106:
 3703 059f 424B5031 		.ascii	"BKP19R\000"
 3703      395200
 3704              	.LASF37:
 3705 05a6 72656673 		.ascii	"refs\000"
 3705      00
 3706              	.LASF56:
 3707 05ab 76697274 		.ascii	"virtual_timer_t\000"
 3707      75616C5F 
 3707      74696D65 
 3707      725F7400 
 3708              	.LASF116:
 3709 05bb 75736572 		.ascii	"user\000"
 3709      00
 3710              	.LASF86:
 3711 05c0 52455345 		.ascii	"RESERVED7\000"
 3711      52564544 
 3711      3700
 3712              	.LASF23:
 3713 05ca 74707269 		.ascii	"tprio_t\000"
 3713      6F5F7400 
 3714              	.LASF166:
 3715 05d2 616C6172 		.ascii	"alarm\000"
 3715      6D00
 3716              	.LASF64:
 3717 05d8 63685F73 		.ascii	"ch_system_debug\000"
 3717      79737465 
 3717      6D5F6465 
 3717      62756700 
ARM GAS  /tmp/ccYlXmaR.s 			page 71


 3718              	.LASF138:
 3719 05e8 5F426F6F 		.ascii	"_Bool\000"
 3719      6C00
 3720              	.LASF16:
 3721 05ee 696E7433 		.ascii	"int32_t\000"
 3721      325F7400 
 3722              	.LASF3:
 3723 05f6 756E7369 		.ascii	"unsigned char\000"
 3723      676E6564 
 3723      20636861 
 3723      7200
 3724              	.LASF148:
 3725 0604 52544344 		.ascii	"RTCDriver\000"
 3725      72697665 
 3725      7200
 3726              	.LASF144:
 3727 060e 746D5F79 		.ascii	"tm_year\000"
 3727      65617200 
 3728              	.LASF4:
 3729 0616 73686F72 		.ascii	"short int\000"
 3729      7420696E 
 3729      7400
 3730              	.LASF62:
 3731 0620 6C617374 		.ascii	"lasttime\000"
 3731      74696D65 
 3731      00
 3732              	.LASF115:
 3733 0629 68616C74 		.ascii	"halt\000"
 3733      00
 3734              	.LASF87:
 3735 062e 424B5030 		.ascii	"BKP0R\000"
 3735      5200
 3736              	.LASF133:
 3737 0634 65776D61 		.ascii	"ewmask\000"
 3737      736B00
 3738              	.LASF68:
 3739 063b 63685F73 		.ascii	"ch_system\000"
 3739      79737465 
 3739      6D00
 3740              	.LASF99:
 3741 0645 424B5031 		.ascii	"BKP12R\000"
 3741      325200
 3742              	.LASF164:
 3743 064c 5F5F6675 		.ascii	"__func__\000"
 3743      6E635F5F 
 3743      00
 3744              	.LASF114:
 3745 0655 72656173 		.ascii	"reason\000"
 3745      6F6E00
 3746              	.LASF134:
 3747 065c 63685F73 		.ascii	"ch_semaphore\000"
 3747      656D6170 
 3747      686F7265 
 3747      00
 3748              	.LASF77:
 3749 0669 414C524D 		.ascii	"ALRMBR\000"
 3749      425200
ARM GAS  /tmp/ccYlXmaR.s 			page 72


 3750              	.LASF95:
 3751 0670 424B5038 		.ascii	"BKP8R\000"
 3751      5200
 3752              	.LASF139:
 3753 0676 746D5F73 		.ascii	"tm_sec\000"
 3753      656300
 3754              	.LASF132:
 3755 067d 77746D74 		.ascii	"wtmtxp\000"
 3755      787000
 3756              	.LASF74:
 3757 0684 57555452 		.ascii	"WUTR\000"
 3757      00
 3758              	.LASF47:
 3759 0689 63685F74 		.ascii	"ch_threads_list\000"
 3759      68726561 
 3759      64735F6C 
 3759      69737400 
 3760              	.LASF136:
 3761 0699 6F776E65 		.ascii	"owner\000"
 3761      7200
 3762              	.LASF42:
 3763 069f 7265616C 		.ascii	"realprio\000"
 3763      7072696F 
 3763      00
 3764              	.LASF34:
 3765 06a8 77616261 		.ascii	"wabase\000"
 3765      736500
 3766              	.LASF113:
 3767 06af 63686172 		.ascii	"char\000"
 3767      00
 3768              	.LASF32:
 3769 06b4 6F6C6465 		.ascii	"older\000"
 3769      7200
 3770              	.LASF1:
 3771 06ba 756E7369 		.ascii	"unsigned int\000"
 3771      676E6564 
 3771      20696E74 
 3771      00
 3772              	.LASF6:
 3773 06c7 5F5F7569 		.ascii	"__uint16_t\000"
 3773      6E743136 
 3773      5F7400
 3774              	.LASF28:
 3775 06d2 74687265 		.ascii	"thread_t\000"
 3775      61645F74 
 3775      00
 3776              	.LASF141:
 3777 06db 746D5F68 		.ascii	"tm_hour\000"
 3777      6F757200 
 3778              	.LASF27:
 3779 06e3 73797374 		.ascii	"systime_t\000"
 3779      696D655F 
 3779      7400
 3780              	.LASF55:
 3781 06ed 76746675 		.ascii	"vtfunc_t\000"
 3781      6E635F74 
 3781      00
ARM GAS  /tmp/ccYlXmaR.s 			page 73


 3782              	.LASF145:
 3783 06f6 746D5F77 		.ascii	"tm_wday\000"
 3783      64617900 
 3784              	.LASF65:
 3785 06fe 70616E69 		.ascii	"panic_msg\000"
 3785      635F6D73 
 3785      6700
 3786              	.LASF88:
 3787 0708 424B5031 		.ascii	"BKP1R\000"
 3787      5200
 3788              	.LASF125:
 3789 070e 6F666673 		.ascii	"offset\000"
 3789      657400
 3790              	.LASF85:
 3791 0715 414C524D 		.ascii	"ALRMBSSR\000"
 3791      42535352 
 3791      00
 3792              	.LASF100:
 3793 071e 424B5031 		.ascii	"BKP13R\000"
 3793      335200
 3794              	.LASF57:
 3795 0725 63685F76 		.ascii	"ch_virtual_timer\000"
 3795      69727475 
 3795      616C5F74 
 3795      696D6572 
 3795      00
 3796              	.LASF142:
 3797 0736 746D5F6D 		.ascii	"tm_mday\000"
 3797      64617900 
 3798              	.LASF19:
 3799 073e 7274636E 		.ascii	"rtcnt_t\000"
 3799      745F7400 
 3800              	.LASF31:
 3801 0746 6E657765 		.ascii	"newer\000"
 3801      7200
 3802              	.LASF163:
 3803 074c 72746347 		.ascii	"rtcGetTime\000"
 3803      65745469 
 3803      6D6500
 3804              	.LASF17:
 3805 0757 75696E74 		.ascii	"uint32_t\000"
 3805      33325F74 
 3805      00
 3806              	.LASF96:
 3807 0760 424B5039 		.ascii	"BKP9R\000"
 3807      5200
 3808              	.LASF78:
 3809 0766 53484946 		.ascii	"SHIFTR\000"
 3809      545200
 3810              	.LASF152:
 3811 076d 6461796F 		.ascii	"dayofweek\000"
 3811      66776565 
 3811      6B00
 3812              	.LASF49:
 3813 0777 74687265 		.ascii	"threads_queue_t\000"
 3813      6164735F 
 3813      71756575 
ARM GAS  /tmp/ccYlXmaR.s 			page 74


 3813      655F7400 
 3814              	.LASF135:
 3815 0787 63685F6D 		.ascii	"ch_mutex\000"
 3815      75746578 
 3815      00
 3816              	.LASF157:
 3817 0790 52544341 		.ascii	"RTCAlarm\000"
 3817      6C61726D 
 3817      00
 3818              	.LASF170:
 3819 0799 74696D70 		.ascii	"timp\000"
 3819      00
 3820              	.LASF69:
 3821 079e 726C6973 		.ascii	"rlist\000"
 3821      7400
 3822              	.LASF14:
 3823 07a4 75696E74 		.ascii	"uint8_t\000"
 3823      385F7400 
 3824              	.LASF104:
 3825 07ac 424B5031 		.ascii	"BKP17R\000"
 3825      375200
 3826              	.LASF36:
 3827 07b3 666C6167 		.ascii	"flags\000"
 3827      7300
 3828              	.LASF181:
 3829 07b9 2E2E2F2E 		.ascii	"../../../../../ChibiOS-RT/os/hal/src/hal_rtc.c\000"
 3829      2E2F2E2E 
 3829      2F2E2E2F 
 3829      2E2E2F43 
 3829      68696269 
 3830              	.LASF112:
 3831 07e8 77746F62 		.ascii	"wtobjp\000"
 3831      6A7000
 3832              	.LASF48:
 3833 07ef 6E657874 		.ascii	"next\000"
 3833      00
 3834              	.LASF89:
 3835 07f4 424B5032 		.ascii	"BKP2R\000"
 3835      5200
 3836              	.LASF66:
 3837 07fa 74726163 		.ascii	"trace_buffer\000"
 3837      655F6275 
 3837      66666572 
 3837      00
 3838              	.LASF101:
 3839 0807 424B5031 		.ascii	"BKP14R\000"
 3839      345200
 3840              	.LASF41:
 3841 080e 6D74786C 		.ascii	"mtxlist\000"
 3841      69737400 
 3842              	.LASF158:
 3843 0816 72746349 		.ascii	"rtcInit\000"
 3843      6E697400 
 3844              		.ident	"GCC: (4.8.2-14ubuntu1+6) 4.8.2"
ARM GAS  /tmp/ccYlXmaR.s 			page 75


DEFINED SYMBOLS
                            *ABS*:0000000000000000 hal_rtc.c
     /tmp/ccYlXmaR.s:19     .text.rtcInit:0000000000000000 $t
     /tmp/ccYlXmaR.s:25     .text.rtcInit:0000000000000000 rtcInit
     /tmp/ccYlXmaR.s:40     .text.rtcObjectInit:0000000000000000 $t
     /tmp/ccYlXmaR.s:46     .text.rtcObjectInit:0000000000000000 rtcObjectInit
     /tmp/ccYlXmaR.s:59     .text.rtcSetTime:0000000000000000 $t
     /tmp/ccYlXmaR.s:65     .text.rtcSetTime:0000000000000000 rtcSetTime
     /tmp/ccYlXmaR.s:80     .text.rtcGetTime:0000000000000000 $t
     /tmp/ccYlXmaR.s:86     .text.rtcGetTime:0000000000000000 rtcGetTime
     /tmp/ccYlXmaR.s:101    .text.rtcSetAlarm:0000000000000000 $t
     /tmp/ccYlXmaR.s:107    .text.rtcSetAlarm:0000000000000000 rtcSetAlarm
     /tmp/ccYlXmaR.s:122    .text.rtcGetAlarm:0000000000000000 $t
     /tmp/ccYlXmaR.s:128    .text.rtcGetAlarm:0000000000000000 rtcGetAlarm
     /tmp/ccYlXmaR.s:143    .text.rtcConvertDateTimeToStructTm:0000000000000000 $t
     /tmp/ccYlXmaR.s:149    .text.rtcConvertDateTimeToStructTm:0000000000000000 rtcConvertDateTimeToStructTm
     /tmp/ccYlXmaR.s:257    .text.rtcConvertStructTmToDateTime:0000000000000000 $t
     /tmp/ccYlXmaR.s:263    .text.rtcConvertStructTmToDateTime:0000000000000000 rtcConvertStructTmToDateTime
     /tmp/ccYlXmaR.s:350    .text.rtcConvertDateTimeToFAT:0000000000000000 $t
     /tmp/ccYlXmaR.s:356    .text.rtcConvertDateTimeToFAT:0000000000000000 rtcConvertDateTimeToFAT
     /tmp/ccYlXmaR.s:478    .rodata.month_len:0000000000000000 .LANCHOR0
     /tmp/ccYlXmaR.s:477    .rodata.month_len:0000000000000000 $d
     /tmp/ccYlXmaR.s:481    .rodata.month_len:0000000000000000 month_len
                     .debug_frame:0000000000000010 $d

UNDEFINED SYMBOLS
rtc_lld_init
rtc_lld_set_time
rtc_lld_get_time
rtc_lld_set_alarm
rtc_lld_get_alarm
