ARM GAS  /tmp/ccCJHwVb.s 			page 1


   1              		.syntax unified
   2              		.cpu cortex-m4
   3              		.fpu softvfp
   4              		.eabi_attribute 20, 1
   5              		.eabi_attribute 21, 1
   6              		.eabi_attribute 23, 3
   7              		.eabi_attribute 24, 1
   8              		.eabi_attribute 25, 1
   9              		.eabi_attribute 26, 1
  10              		.eabi_attribute 30, 2
  11              		.eabi_attribute 34, 1
  12              		.eabi_attribute 18, 4
  13              		.thumb
  14              		.file	"hal_lld.c"
  15              		.text
  16              	.Ltext0:
  17              		.cfi_sections	.debug_frame
  18              		.section	.text.hal_lld_init,"ax",%progbits
  19              		.align	2
  20              		.p2align 4,,15
  21              		.global	hal_lld_init
  22              		.thumb
  23              		.thumb_func
  24              		.type	hal_lld_init, %function
  25              	hal_lld_init:
  26              	.LFB271:
  27              		.file 1 "../../../../../ChibiOS-RT/os/hal/ports/STM32/STM32F4xx/hal_lld.c"
  28              		.loc 1 114 0
  29              		.cfi_startproc
  30              		@ args = 0, pretend = 0, frame = 0
  31              		@ frame_needed = 0, uses_anonymous_args = 0
  32              		@ link register save eliminated.
  33              		.loc 1 118 0
  34 0000 4FF46053 		mov	r3, #14336
  35 0004 C4F20203 		movt	r3, 16386
  36 0008 0022     		movs	r2, #0
  37 000a 4FF0FF31 		mov	r1, #-1
  38 000e 1869     		ldr	r0, [r3, #16]
  39 0010 1961     		str	r1, [r3, #16]
  40 0012 1A61     		str	r2, [r3, #16]
  41              		.loc 1 119 0
  42 0014 5869     		ldr	r0, [r3, #20]
  43 0016 5961     		str	r1, [r3, #20]
  44 0018 5A61     		str	r2, [r3, #20]
  45              		.loc 1 120 0
  46 001a 186A     		ldr	r0, [r3, #32]
  47 001c 60F08050 		orn	r0, r0, #268435456
  48 0020 1862     		str	r0, [r3, #32]
  49 0022 1A62     		str	r2, [r3, #32]
  50              		.loc 1 121 0
  51 0024 586A     		ldr	r0, [r3, #36]
  52 0026 5962     		str	r1, [r3, #36]
  53 0028 5A62     		str	r2, [r3, #36]
  54              		.loc 1 124 0
  55 002a 186C     		ldr	r0, [r3, #64]
  56              	.LBB4:
  57              	.LBB5:
ARM GAS  /tmp/ccCJHwVb.s 			page 2


  58              		.loc 1 57 0
  59 002c 4FF4E041 		mov	r1, #28672
  60 0030 C4F20001 		movt	r1, 16384
  61              	.LBE5:
  62              	.LBE4:
  63              		.loc 1 124 0
  64 0034 40F08050 		orr	r0, r0, #268435456
  65 0038 1864     		str	r0, [r3, #64]
  66              	.LBB7:
  67              	.LBB6:
  68              		.loc 1 57 0
  69 003a 0868     		ldr	r0, [r1]
  70 003c 40F48070 		orr	r0, r0, #256
  71 0040 0860     		str	r0, [r1]
  72              		.loc 1 60 0
  73 0042 196F     		ldr	r1, [r3, #112]
  74 0044 01F44071 		and	r1, r1, #768
  75 0048 B1F5007F 		cmp	r1, #512
  76              		.loc 1 62 0
  77 004c 1EBF     		ittt	ne
  78 004e 4FF48031 		movne	r1, #65536
  79 0052 1967     		strne	r1, [r3, #112]
  80              		.loc 1 63 0
  81 0054 1A67     		strne	r2, [r3, #112]
  82              		.loc 1 81 0
  83 0056 4FF46053 		mov	r3, #14336
  84 005a C4F20203 		movt	r3, 16386
  85 005e 1A6F     		ldr	r2, [r3, #112]
  86 0060 1204     		lsls	r2, r2, #16
  87 0062 07D4     		bmi	.L3
  88              		.loc 1 83 0
  89 0064 1A6F     		ldr	r2, [r3, #112]
  90 0066 42F40072 		orr	r2, r2, #512
  91 006a 1A67     		str	r2, [r3, #112]
  92              		.loc 1 86 0
  93 006c 1A6F     		ldr	r2, [r3, #112]
  94 006e 42F40042 		orr	r2, r2, #32768
  95 0072 1A67     		str	r2, [r3, #112]
  96              	.L3:
  97              		.loc 1 97 0
  98 0074 4FF4E043 		mov	r3, #28672
  99 0078 C4F20003 		movt	r3, 16384
 100 007c 5A68     		ldr	r2, [r3, #4]
 101 007e 22F40072 		bic	r2, r2, #512
 102 0082 5A60     		str	r2, [r3, #4]
 103              	.LBE6:
 104              	.LBE7:
 105              		.loc 1 130 0
 106 0084 FFF7FEBF 		b	dmaInit
 107              	.LVL0:
 108              		.cfi_endproc
 109              	.LFE271:
 110              		.size	hal_lld_init, .-hal_lld_init
 111 0088 AFF30080 		.section	.text.stm32_clock_init,"ax",%progbits
 111      AFF30080 
 112              		.align	2
 113              		.p2align 4,,15
ARM GAS  /tmp/ccCJHwVb.s 			page 3


 114              		.global	stm32_clock_init
 115              		.thumb
 116              		.thumb_func
 117              		.type	stm32_clock_init, %function
 118              	stm32_clock_init:
 119              	.LFB272:
 120              		.loc 1 146 0
 121              		.cfi_startproc
 122              		@ args = 0, pretend = 0, frame = 0
 123              		@ frame_needed = 0, uses_anonymous_args = 0
 124              		@ link register save eliminated.
 125              		.loc 1 150 0
 126 0000 4FF46051 		mov	r1, #14336
 127              		.loc 1 154 0
 128 0004 4FF4E043 		mov	r3, #28672
 129              		.loc 1 150 0
 130 0008 C4F20201 		movt	r1, 16386
 131              		.loc 1 154 0
 132 000c C4F20003 		movt	r3, 16384
 133              		.loc 1 150 0
 134 0010 4FF08050 		mov	r0, #268435456
 135              		.loc 1 154 0
 136 0014 4FF40042 		mov	r2, #32768
 137              		.loc 1 150 0
 138 0018 0864     		str	r0, [r1, #64]
 139              		.loc 1 154 0
 140 001a 1A60     		str	r2, [r3]
 141              		.loc 1 161 0
 142 001c 0B68     		ldr	r3, [r1]
 143 001e 43F00103 		orr	r3, r3, #1
 144 0022 0B60     		str	r3, [r1]
 145              	.L10:
 146              		.loc 1 162 0 discriminator 1
 147 0024 0A68     		ldr	r2, [r1]
 148 0026 4FF46053 		mov	r3, #14336
 149 002a 9007     		lsls	r0, r2, #30
 150 002c C4F20203 		movt	r3, 16386
 151 0030 F8D5     		bpl	.L10
 152              		.loc 1 168 0
 153 0032 9A68     		ldr	r2, [r3, #8]
 154 0034 22F00302 		bic	r2, r2, #3
 155 0038 9A60     		str	r2, [r3, #8]
 156              		.loc 1 169 0
 157 003a 9A68     		ldr	r2, [r3, #8]
 158              		.loc 1 170 0
 159 003c 1946     		mov	r1, r3
 160              		.loc 1 169 0
 161 003e 9A60     		str	r2, [r3, #8]
 162              	.L12:
 163              		.loc 1 170 0 discriminator 1
 164 0040 8B68     		ldr	r3, [r1, #8]
 165 0042 4FF46052 		mov	r2, #14336
 166 0046 13F00C03 		ands	r3, r3, #12
 167 004a C4F20202 		movt	r2, 16386
 168 004e F7D1     		bne	.L12
 169              		.loc 1 174 0
 170 0050 1168     		ldr	r1, [r2]
ARM GAS  /tmp/ccCJHwVb.s 			page 4


 171 0052 01F0F901 		and	r1, r1, #249
 172 0056 1160     		str	r1, [r2]
 173              		.loc 1 175 0
 174 0058 9360     		str	r3, [r2, #8]
 175              		.loc 1 192 0
 176 005a 536F     		ldr	r3, [r2, #116]
 177 005c 43F00103 		orr	r3, r3, #1
 178 0060 5367     		str	r3, [r2, #116]
 179              	.L14:
 180              		.loc 1 193 0 discriminator 1
 181 0062 516F     		ldr	r1, [r2, #116]
 182 0064 4FF46053 		mov	r3, #14336
 183 0068 8907     		lsls	r1, r1, #30
 184 006a C4F20203 		movt	r3, 16386
 185 006e F8D5     		bpl	.L14
 186              		.loc 1 199 0
 187 0070 45F21042 		movw	r2, #21520
 188 0074 C0F20172 		movt	r2, 1793
 189 0078 5A60     		str	r2, [r3, #4]
 190              		.loc 1 201 0
 191 007a 1968     		ldr	r1, [r3]
 192              		.loc 1 205 0
 193 007c 4FF4E042 		mov	r2, #28672
 194              		.loc 1 201 0
 195 0080 41F08071 		orr	r1, r1, #16777216
 196 0084 1960     		str	r1, [r3]
 197              		.loc 1 205 0
 198 0086 C4F20002 		movt	r2, 16384
 199              	.L16:
 200              		.loc 1 205 0 is_stmt 0 discriminator 1
 201 008a 5368     		ldr	r3, [r2, #4]
 202 008c 5B04     		lsls	r3, r3, #17
 203 008e FCD5     		bpl	.L16
 204              		.loc 1 221 0 is_stmt 1
 205 0090 4FF46051 		mov	r1, #14336
 206 0094 C4F20201 		movt	r1, 16386
 207              	.L18:
 208 0098 0A68     		ldr	r2, [r1]
 209 009a 4FF46053 		mov	r3, #14336
 210 009e 9001     		lsls	r0, r2, #6
 211 00a0 C4F20203 		movt	r3, 16386
 212 00a4 F8D5     		bpl	.L18
 213              		.loc 1 247 0
 214 00a6 4FF48051 		mov	r1, #4096
 215              		.loc 1 255 0
 216 00aa 4FF40052 		mov	r2, #8192
 217              		.loc 1 247 0
 218 00ae C3F68801 		movt	r1, 14472
 219              		.loc 1 255 0
 220 00b2 CEF20402 		movt	r2, 57348
 221              		.loc 1 247 0
 222 00b6 9960     		str	r1, [r3, #8]
 223              		.loc 1 255 0
 224 00b8 1268     		ldr	r2, [r2]
 225 00ba 46F21143 		movw	r3, #25617
 226 00be C2F20003 		movt	r3, 8192
 227 00c2 9A42     		cmp	r2, r3
ARM GAS  /tmp/ccCJHwVb.s 			page 5


 228 00c4 21D0     		beq	.L23
 229              	.L19:
 230              		.loc 1 258 0
 231 00c6 4FF47053 		mov	r3, #15360
 232 00ca C4F20203 		movt	r3, 16386
 233 00ce 40F20272 		movw	r2, #1794
 234 00d2 1A60     		str	r2, [r3]
 235              	.L20:
 236              		.loc 1 267 0
 237 00d4 4FF46053 		mov	r3, #14336
 238 00d8 C4F20203 		movt	r3, 16386
 239              		.loc 1 268 0
 240 00dc 1946     		mov	r1, r3
 241              		.loc 1 267 0
 242 00de 9A68     		ldr	r2, [r3, #8]
 243 00e0 42F00202 		orr	r2, r2, #2
 244 00e4 9A60     		str	r2, [r3, #8]
 245              	.L22:
 246              		.loc 1 268 0 discriminator 1
 247 00e6 8A68     		ldr	r2, [r1, #8]
 248 00e8 02F00C02 		and	r2, r2, #12
 249 00ec 4FF46053 		mov	r3, #14336
 250 00f0 082A     		cmp	r2, #8
 251 00f2 C4F20203 		movt	r3, 16386
 252 00f6 F6D1     		bne	.L22
 253              		.loc 1 275 0
 254 00f8 5A6C     		ldr	r2, [r3, #68]
 255 00fa 42F48042 		orr	r2, r2, #16384
 256 00fe 5A64     		str	r2, [r3, #68]
 257 0100 5A6E     		ldr	r2, [r3, #100]
 258 0102 42F48042 		orr	r2, r2, #16384
 259 0106 5A66     		str	r2, [r3, #100]
 260 0108 7047     		bx	lr
 261              	.L23:
 262              		.loc 1 255 0 discriminator 1
 263 010a 4FF46D42 		mov	r2, #60672
 264 010e CEF20002 		movt	r2, 57344
 265 0112 4CF24123 		movw	r3, #49729
 266 0116 1268     		ldr	r2, [r2]
 267 0118 C4F20F13 		movt	r3, 16655
 268 011c 9A42     		cmp	r2, r3
 269 011e D2D1     		bne	.L19
 270              		.loc 1 256 0
 271 0120 4FF47053 		mov	r3, #15360
 272 0124 C4F20203 		movt	r3, 16386
 273 0128 4FF48172 		mov	r2, #258
 274 012c 1A60     		str	r2, [r3]
 275 012e D1E7     		b	.L20
 276              		.cfi_endproc
 277              	.LFE272:
 278              		.size	stm32_clock_init, .-stm32_clock_init
 279              		.global	SystemCoreClock
 280              		.section	.data.SystemCoreClock,"aw",%progbits
 281              		.align	2
 282              		.type	SystemCoreClock, %object
 283              		.size	SystemCoreClock, 4
 284              	SystemCoreClock:
ARM GAS  /tmp/ccCJHwVb.s 			page 6


 285 0000 00BD0105 		.word	84000000
 286              		.text
 287              	.Letext0:
 288              		.file 2 "/usr/include/newlib/machine/_default_types.h"
 289              		.file 3 "/usr/include/newlib/stdint.h"
 290              		.file 4 "../../../../../ChibiOS-RT/os/common/ports/ARMCMx/compilers/GCC/chtypes.h"
 291              		.file 5 "../../../../../ChibiOS-RT/os/rt/include/chsystypes.h"
 292              		.file 6 "../../../../../ChibiOS-RT/os/rt/include/chschd.h"
 293              		.file 7 "../../../../../ChibiOS-RT/os/common/ext/CMSIS/include/core_cm4.h"
 294              		.file 8 "../../../../../ChibiOS-RT/os/common/ext/CMSIS/ST/STM32F4xx/stm32f401xe.h"
 295              		.file 9 "../../../../../ChibiOS-RT/os/common/ports/ARMCMx/chcore.h"
 296              		.file 10 "../../../../../ChibiOS-RT/os/common/ports/ARMCMx/chcore_v7m.h"
 297              		.file 11 "../../../../../ChibiOS-RT/os/rt/include/chtrace.h"
 298              		.file 12 "../../../../../ChibiOS-RT/os/rt/include/chtm.h"
 299              		.file 13 "../../../../../ChibiOS-RT/os/rt/include/chsem.h"
 300              		.file 14 "../../../../../ChibiOS-RT/os/rt/include/chmtx.h"
 301              		.file 15 "../../../../../ChibiOS-RT/os/hal/ports/STM32/LLD/DMAv2/stm32_dma.h"
 302              		.section	.debug_info,"",%progbits
 303              	.Ldebug_info0:
 304 0000 FE0B0000 		.4byte	0xbfe
 305 0004 0400     		.2byte	0x4
 306 0006 00000000 		.4byte	.Ldebug_abbrev0
 307 000a 04       		.byte	0x4
 308 000b 01       		.uleb128 0x1
 309 000c 5D060000 		.4byte	.LASF159
 310 0010 01       		.byte	0x1
 311 0011 B7010000 		.4byte	.LASF160
 312 0015 74020000 		.4byte	.LASF161
 313 0019 18000000 		.4byte	.Ldebug_ranges0+0x18
 314 001d 00000000 		.4byte	0
 315 0021 00000000 		.4byte	.Ldebug_line0
 316 0025 02       		.uleb128 0x2
 317 0026 04       		.byte	0x4
 318 0027 05       		.byte	0x5
 319 0028 696E7400 		.ascii	"int\000"
 320 002c 03       		.uleb128 0x3
 321 002d 04       		.byte	0x4
 322 002e 07       		.byte	0x7
 323 002f 57020000 		.4byte	.LASF0
 324 0033 03       		.uleb128 0x3
 325 0034 01       		.byte	0x1
 326 0035 06       		.byte	0x6
 327 0036 1D010000 		.4byte	.LASF1
 328 003a 04       		.uleb128 0x4
 329 003b 41000000 		.4byte	.LASF4
 330 003f 02       		.byte	0x2
 331 0040 1C       		.byte	0x1c
 332 0041 45000000 		.4byte	0x45
 333 0045 03       		.uleb128 0x3
 334 0046 01       		.byte	0x1
 335 0047 08       		.byte	0x8
 336 0048 F9040000 		.4byte	.LASF2
 337 004c 03       		.uleb128 0x3
 338 004d 02       		.byte	0x2
 339 004e 05       		.byte	0x5
 340 004f 1A050000 		.4byte	.LASF3
 341 0053 04       		.uleb128 0x4
ARM GAS  /tmp/ccCJHwVb.s 			page 7


 342 0054 CE050000 		.4byte	.LASF5
 343 0058 02       		.byte	0x2
 344 0059 26       		.byte	0x26
 345 005a 5E000000 		.4byte	0x5e
 346 005e 03       		.uleb128 0x3
 347 005f 02       		.byte	0x2
 348 0060 07       		.byte	0x7
 349 0061 35060000 		.4byte	.LASF6
 350 0065 04       		.uleb128 0x4
 351 0066 9B030000 		.4byte	.LASF7
 352 006a 02       		.byte	0x2
 353 006b 37       		.byte	0x37
 354 006c 70000000 		.4byte	0x70
 355 0070 03       		.uleb128 0x3
 356 0071 04       		.byte	0x4
 357 0072 05       		.byte	0x5
 358 0073 5C010000 		.4byte	.LASF8
 359 0077 04       		.uleb128 0x4
 360 0078 F8010000 		.4byte	.LASF9
 361 007c 02       		.byte	0x2
 362 007d 38       		.byte	0x38
 363 007e 82000000 		.4byte	0x82
 364 0082 03       		.uleb128 0x3
 365 0083 04       		.byte	0x4
 366 0084 07       		.byte	0x7
 367 0085 F9020000 		.4byte	.LASF10
 368 0089 03       		.uleb128 0x3
 369 008a 08       		.byte	0x8
 370 008b 05       		.byte	0x5
 371 008c 0F010000 		.4byte	.LASF11
 372 0090 04       		.uleb128 0x4
 373 0091 78040000 		.4byte	.LASF12
 374 0095 02       		.byte	0x2
 375 0096 4E       		.byte	0x4e
 376 0097 9B000000 		.4byte	0x9b
 377 009b 03       		.uleb128 0x3
 378 009c 08       		.byte	0x8
 379 009d 07       		.byte	0x7
 380 009e 7D000000 		.4byte	.LASF13
 381 00a2 04       		.uleb128 0x4
 382 00a3 29070000 		.4byte	.LASF14
 383 00a7 03       		.byte	0x3
 384 00a8 2A       		.byte	0x2a
 385 00a9 3A000000 		.4byte	0x3a
 386 00ad 04       		.uleb128 0x4
 387 00ae 9F010000 		.4byte	.LASF15
 388 00b2 03       		.byte	0x3
 389 00b3 36       		.byte	0x36
 390 00b4 53000000 		.4byte	0x53
 391 00b8 04       		.uleb128 0x4
 392 00b9 F1040000 		.4byte	.LASF16
 393 00bd 03       		.byte	0x3
 394 00be 41       		.byte	0x41
 395 00bf 65000000 		.4byte	0x65
 396 00c3 04       		.uleb128 0x4
 397 00c4 89050000 		.4byte	.LASF17
 398 00c8 03       		.byte	0x3
ARM GAS  /tmp/ccCJHwVb.s 			page 8


 399 00c9 42       		.byte	0x42
 400 00ca 77000000 		.4byte	0x77
 401 00ce 04       		.uleb128 0x4
 402 00cf 38000000 		.4byte	.LASF18
 403 00d3 03       		.byte	0x3
 404 00d4 4E       		.byte	0x4e
 405 00d5 90000000 		.4byte	0x90
 406 00d9 04       		.uleb128 0x4
 407 00da 55060000 		.4byte	.LASF19
 408 00de 04       		.byte	0x4
 409 00df 39       		.byte	0x39
 410 00e0 C3000000 		.4byte	0xc3
 411 00e4 04       		.uleb128 0x4
 412 00e5 6F030000 		.4byte	.LASF20
 413 00e9 04       		.byte	0x4
 414 00ea 3C       		.byte	0x3c
 415 00eb A2000000 		.4byte	0xa2
 416 00ef 04       		.uleb128 0x4
 417 00f0 78010000 		.4byte	.LASF21
 418 00f4 04       		.byte	0x4
 419 00f5 3D       		.byte	0x3d
 420 00f6 A2000000 		.4byte	0xa2
 421 00fa 04       		.uleb128 0x4
 422 00fb 8A040000 		.4byte	.LASF22
 423 00ff 04       		.byte	0x4
 424 0100 3E       		.byte	0x3e
 425 0101 A2000000 		.4byte	0xa2
 426 0105 04       		.uleb128 0x4
 427 0106 D3040000 		.4byte	.LASF23
 428 010a 04       		.byte	0x4
 429 010b 40       		.byte	0x40
 430 010c C3000000 		.4byte	0xc3
 431 0110 04       		.uleb128 0x4
 432 0111 47030000 		.4byte	.LASF24
 433 0115 04       		.byte	0x4
 434 0116 41       		.byte	0x41
 435 0117 B8000000 		.4byte	0xb8
 436 011b 04       		.uleb128 0x4
 437 011c 8F030000 		.4byte	.LASF25
 438 0120 04       		.byte	0x4
 439 0121 43       		.byte	0x43
 440 0122 C3000000 		.4byte	0xc3
 441 0126 04       		.uleb128 0x4
 442 0127 48020000 		.4byte	.LASF26
 443 012b 04       		.byte	0x4
 444 012c 45       		.byte	0x45
 445 012d B8000000 		.4byte	0xb8
 446 0131 04       		.uleb128 0x4
 447 0132 F0050000 		.4byte	.LASF27
 448 0136 05       		.byte	0x5
 449 0137 33       		.byte	0x33
 450 0138 C3000000 		.4byte	0xc3
 451 013c 04       		.uleb128 0x4
 452 013d E7050000 		.4byte	.LASF28
 453 0141 05       		.byte	0x5
 454 0142 3F       		.byte	0x3f
 455 0143 47010000 		.4byte	0x147
ARM GAS  /tmp/ccCJHwVb.s 			page 9


 456 0147 05       		.uleb128 0x5
 457 0148 2D030000 		.4byte	.LASF46
 458 014c 44       		.byte	0x44
 459 014d 06       		.byte	0x6
 460 014e 9A       		.byte	0x9a
 461 014f 25020000 		.4byte	0x225
 462 0153 06       		.uleb128 0x6
 463 0154 0A040000 		.4byte	.LASF29
 464 0158 06       		.byte	0x6
 465 0159 9B       		.byte	0x9b
 466 015a 5A020000 		.4byte	0x25a
 467 015e 00       		.byte	0
 468 015f 06       		.uleb128 0x6
 469 0160 62040000 		.4byte	.LASF30
 470 0164 06       		.byte	0x6
 471 0165 9C       		.byte	0x9c
 472 0166 05010000 		.4byte	0x105
 473 016a 08       		.byte	0x8
 474 016b 07       		.uleb128 0x7
 475 016c 63747800 		.ascii	"ctx\000"
 476 0170 06       		.byte	0x6
 477 0171 9D       		.byte	0x9d
 478 0172 73080000 		.4byte	0x873
 479 0176 0C       		.byte	0xc
 480 0177 06       		.uleb128 0x6
 481 0178 B0030000 		.4byte	.LASF31
 482 017c 06       		.byte	0x6
 483 017d 9F       		.byte	0x9f
 484 017e 30020000 		.4byte	0x230
 485 0182 10       		.byte	0x10
 486 0183 06       		.uleb128 0x6
 487 0184 C8050000 		.4byte	.LASF32
 488 0188 06       		.byte	0x6
 489 0189 A0       		.byte	0xa0
 490 018a 30020000 		.4byte	0x230
 491 018e 14       		.byte	0x14
 492 018f 06       		.uleb128 0x6
 493 0190 17030000 		.4byte	.LASF33
 494 0194 06       		.byte	0x6
 495 0195 A7       		.byte	0xa7
 496 0196 43090000 		.4byte	0x943
 497 019a 18       		.byte	0x18
 498 019b 06       		.uleb128 0x6
 499 019c BC050000 		.4byte	.LASF34
 500 01a0 06       		.byte	0x6
 501 01a1 B0       		.byte	0xb0
 502 01a2 5C0B0000 		.4byte	0xb5c
 503 01a6 1C       		.byte	0x1c
 504 01a7 06       		.uleb128 0x6
 505 01a8 4C010000 		.4byte	.LASF35
 506 01ac 06       		.byte	0x6
 507 01ad B5       		.byte	0xb5
 508 01ae EF000000 		.4byte	0xef
 509 01b2 20       		.byte	0x20
 510 01b3 06       		.uleb128 0x6
 511 01b4 31070000 		.4byte	.LASF36
 512 01b8 06       		.byte	0x6
ARM GAS  /tmp/ccCJHwVb.s 			page 10


 513 01b9 B9       		.byte	0xb9
 514 01ba E4000000 		.4byte	0xe4
 515 01be 21       		.byte	0x21
 516 01bf 06       		.uleb128 0x6
 517 01c0 05010000 		.4byte	.LASF37
 518 01c4 06       		.byte	0x6
 519 01c5 BE       		.byte	0xbe
 520 01c6 FA000000 		.4byte	0xfa
 521 01ca 22       		.byte	0x22
 522 01cb 08       		.uleb128 0x8
 523 01cc 7500     		.ascii	"u\000"
 524 01ce 06       		.byte	0x6
 525 01cf 0F01     		.2byte	0x10f
 526 01d1 910A0000 		.4byte	0xa91
 527 01d5 24       		.byte	0x24
 528 01d6 09       		.uleb128 0x9
 529 01d7 1A020000 		.4byte	.LASF38
 530 01db 06       		.byte	0x6
 531 01dc 1401     		.2byte	0x114
 532 01de 36020000 		.4byte	0x236
 533 01e2 28       		.byte	0x28
 534 01e3 09       		.uleb128 0x9
 535 01e4 4E020000 		.4byte	.LASF39
 536 01e8 06       		.byte	0x6
 537 01e9 1A01     		.2byte	0x11a
 538 01eb 5A020000 		.4byte	0x25a
 539 01ef 2C       		.byte	0x2c
 540 01f0 09       		.uleb128 0x9
 541 01f1 53030000 		.4byte	.LASF40
 542 01f5 06       		.byte	0x6
 543 01f6 2001     		.2byte	0x120
 544 01f8 1B010000 		.4byte	0x11b
 545 01fc 34       		.byte	0x34
 546 01fd 09       		.uleb128 0x9
 547 01fe 63070000 		.4byte	.LASF41
 548 0202 06       		.byte	0x6
 549 0203 2701     		.2byte	0x127
 550 0205 560B0000 		.4byte	0xb56
 551 0209 38       		.byte	0x38
 552 020a 09       		.uleb128 0x9
 553 020b CE030000 		.4byte	.LASF42
 554 020f 06       		.byte	0x6
 555 0210 2B01     		.2byte	0x12b
 556 0212 05010000 		.4byte	0x105
 557 0216 3C       		.byte	0x3c
 558 0217 09       		.uleb128 0x9
 559 0218 27030000 		.4byte	.LASF43
 560 021c 06       		.byte	0x6
 561 021d 3201     		.2byte	0x132
 562 021f 0D030000 		.4byte	0x30d
 563 0223 40       		.byte	0x40
 564 0224 00       		.byte	0
 565 0225 04       		.uleb128 0x4
 566 0226 E0030000 		.4byte	.LASF44
 567 022a 05       		.byte	0x5
 568 022b 44       		.byte	0x44
 569 022c 30020000 		.4byte	0x230
ARM GAS  /tmp/ccCJHwVb.s 			page 11


 570 0230 0A       		.uleb128 0xa
 571 0231 04       		.byte	0x4
 572 0232 3C010000 		.4byte	0x13c
 573 0236 04       		.uleb128 0x4
 574 0237 00000000 		.4byte	.LASF45
 575 023b 05       		.byte	0x5
 576 023c 49       		.byte	0x49
 577 023d 41020000 		.4byte	0x241
 578 0241 05       		.uleb128 0x5
 579 0242 9E050000 		.4byte	.LASF47
 580 0246 04       		.byte	0x4
 581 0247 06       		.byte	0x6
 582 0248 88       		.byte	0x88
 583 0249 5A020000 		.4byte	0x25a
 584 024d 06       		.uleb128 0x6
 585 024e E5000000 		.4byte	.LASF48
 586 0252 06       		.byte	0x6
 587 0253 89       		.byte	0x89
 588 0254 30020000 		.4byte	0x230
 589 0258 00       		.byte	0
 590 0259 00       		.byte	0
 591 025a 04       		.uleb128 0x4
 592 025b 00070000 		.4byte	.LASF49
 593 025f 05       		.byte	0x5
 594 0260 50       		.byte	0x50
 595 0261 65020000 		.4byte	0x265
 596 0265 05       		.uleb128 0x5
 597 0266 EA000000 		.4byte	.LASF50
 598 026a 08       		.byte	0x8
 599 026b 06       		.byte	0x6
 600 026c 8F       		.byte	0x8f
 601 026d 8A020000 		.4byte	0x28a
 602 0271 06       		.uleb128 0x6
 603 0272 E5000000 		.4byte	.LASF48
 604 0276 06       		.byte	0x6
 605 0277 90       		.byte	0x90
 606 0278 30020000 		.4byte	0x230
 607 027c 00       		.byte	0
 608 027d 06       		.uleb128 0x6
 609 027e 4B000000 		.4byte	.LASF51
 610 0282 06       		.byte	0x6
 611 0283 91       		.byte	0x91
 612 0284 30020000 		.4byte	0x230
 613 0288 04       		.byte	0x4
 614 0289 00       		.byte	0
 615 028a 04       		.uleb128 0x4
 616 028b 18000000 		.4byte	.LASF52
 617 028f 05       		.byte	0x5
 618 0290 57       		.byte	0x57
 619 0291 95020000 		.4byte	0x295
 620 0295 0B       		.uleb128 0xb
 621 0296 81030000 		.4byte	.LASF53
 622 029a 1C       		.byte	0x1c
 623 029b 06       		.byte	0x6
 624 029c 6A01     		.2byte	0x16a
 625 029e F1020000 		.4byte	0x2f1
 626 02a2 09       		.uleb128 0x9
ARM GAS  /tmp/ccCJHwVb.s 			page 12


 627 02a3 0A040000 		.4byte	.LASF29
 628 02a7 06       		.byte	0x6
 629 02a8 6B01     		.2byte	0x16b
 630 02aa 5A020000 		.4byte	0x25a
 631 02ae 00       		.byte	0
 632 02af 09       		.uleb128 0x9
 633 02b0 62040000 		.4byte	.LASF30
 634 02b4 06       		.byte	0x6
 635 02b5 6C01     		.2byte	0x16c
 636 02b7 05010000 		.4byte	0x105
 637 02bb 08       		.byte	0x8
 638 02bc 08       		.uleb128 0x8
 639 02bd 63747800 		.ascii	"ctx\000"
 640 02c1 06       		.byte	0x6
 641 02c2 6E01     		.2byte	0x16e
 642 02c4 73080000 		.4byte	0x873
 643 02c8 0C       		.byte	0xc
 644 02c9 09       		.uleb128 0x9
 645 02ca B0030000 		.4byte	.LASF31
 646 02ce 06       		.byte	0x6
 647 02cf 7101     		.2byte	0x171
 648 02d1 30020000 		.4byte	0x230
 649 02d5 10       		.byte	0x10
 650 02d6 09       		.uleb128 0x9
 651 02d7 C8050000 		.4byte	.LASF32
 652 02db 06       		.byte	0x6
 653 02dc 7201     		.2byte	0x172
 654 02de 30020000 		.4byte	0x230
 655 02e2 14       		.byte	0x14
 656 02e3 09       		.uleb128 0x9
 657 02e4 70040000 		.4byte	.LASF54
 658 02e8 06       		.byte	0x6
 659 02e9 7501     		.2byte	0x175
 660 02eb 30020000 		.4byte	0x230
 661 02ef 18       		.byte	0x18
 662 02f0 00       		.byte	0
 663 02f1 04       		.uleb128 0x4
 664 02f2 FA050000 		.4byte	.LASF55
 665 02f6 05       		.byte	0x5
 666 02f7 5C       		.byte	0x5c
 667 02f8 FC020000 		.4byte	0x2fc
 668 02fc 0A       		.uleb128 0xa
 669 02fd 04       		.byte	0x4
 670 02fe 02030000 		.4byte	0x302
 671 0302 0C       		.uleb128 0xc
 672 0303 0D030000 		.4byte	0x30d
 673 0307 0D       		.uleb128 0xd
 674 0308 0D030000 		.4byte	0x30d
 675 030c 00       		.byte	0
 676 030d 0E       		.uleb128 0xe
 677 030e 04       		.byte	0x4
 678 030f 04       		.uleb128 0x4
 679 0310 BE030000 		.4byte	.LASF56
 680 0314 05       		.byte	0x5
 681 0315 61       		.byte	0x61
 682 0316 1A030000 		.4byte	0x31a
 683 031a 0B       		.uleb128 0xb
ARM GAS  /tmp/ccCJHwVb.s 			page 13


 684 031b 52050000 		.4byte	.LASF57
 685 031f 14       		.byte	0x14
 686 0320 06       		.byte	0x6
 687 0321 4501     		.2byte	0x145
 688 0323 69030000 		.4byte	0x369
 689 0327 09       		.uleb128 0x9
 690 0328 E5000000 		.4byte	.LASF48
 691 032c 06       		.byte	0x6
 692 032d 4601     		.2byte	0x146
 693 032f 620B0000 		.4byte	0xb62
 694 0333 00       		.byte	0
 695 0334 09       		.uleb128 0x9
 696 0335 4B000000 		.4byte	.LASF51
 697 0339 06       		.byte	0x6
 698 033a 4701     		.2byte	0x147
 699 033c 620B0000 		.4byte	0xb62
 700 0340 04       		.byte	0x4
 701 0341 09       		.uleb128 0x9
 702 0342 2B000000 		.4byte	.LASF58
 703 0346 06       		.byte	0x6
 704 0347 4801     		.2byte	0x148
 705 0349 31010000 		.4byte	0x131
 706 034d 08       		.byte	0x8
 707 034e 09       		.uleb128 0x9
 708 034f 92010000 		.4byte	.LASF59
 709 0353 06       		.byte	0x6
 710 0354 4901     		.2byte	0x149
 711 0356 F1020000 		.4byte	0x2f1
 712 035a 0C       		.byte	0xc
 713 035b 08       		.uleb128 0x8
 714 035c 70617200 		.ascii	"par\000"
 715 0360 06       		.byte	0x6
 716 0361 4B01     		.2byte	0x14b
 717 0363 0D030000 		.4byte	0x30d
 718 0367 10       		.byte	0x10
 719 0368 00       		.byte	0
 720 0369 04       		.uleb128 0x4
 721 036a C9000000 		.4byte	.LASF60
 722 036e 05       		.byte	0x5
 723 036f 66       		.byte	0x66
 724 0370 74030000 		.4byte	0x374
 725 0374 0B       		.uleb128 0xb
 726 0375 F3030000 		.4byte	.LASF61
 727 0379 10       		.byte	0x10
 728 037a 06       		.byte	0x6
 729 037b 5501     		.2byte	0x155
 730 037d B6030000 		.4byte	0x3b6
 731 0381 09       		.uleb128 0x9
 732 0382 E5000000 		.4byte	.LASF48
 733 0386 06       		.byte	0x6
 734 0387 5601     		.2byte	0x156
 735 0389 620B0000 		.4byte	0xb62
 736 038d 00       		.byte	0
 737 038e 09       		.uleb128 0x9
 738 038f 4B000000 		.4byte	.LASF51
 739 0393 06       		.byte	0x6
 740 0394 5801     		.2byte	0x158
ARM GAS  /tmp/ccCJHwVb.s 			page 14


 741 0396 620B0000 		.4byte	0xb62
 742 039a 04       		.byte	0x4
 743 039b 09       		.uleb128 0x9
 744 039c 2B000000 		.4byte	.LASF58
 745 03a0 06       		.byte	0x6
 746 03a1 5A01     		.2byte	0x15a
 747 03a3 31010000 		.4byte	0x131
 748 03a7 08       		.byte	0x8
 749 03a8 09       		.uleb128 0x9
 750 03a9 24050000 		.4byte	.LASF62
 751 03ad 06       		.byte	0x6
 752 03ae 6201     		.2byte	0x162
 753 03b0 31010000 		.4byte	0x131
 754 03b4 0C       		.byte	0xc
 755 03b5 00       		.byte	0
 756 03b6 04       		.uleb128 0x4
 757 03b7 5C000000 		.4byte	.LASF63
 758 03bb 05       		.byte	0x5
 759 03bc 6B       		.byte	0x6b
 760 03bd C1030000 		.4byte	0x3c1
 761 03c1 0F       		.uleb128 0xf
 762 03c2 DB040000 		.4byte	.LASF64
 763 03c6 0C08     		.2byte	0x80c
 764 03c8 06       		.byte	0x6
 765 03c9 7C01     		.2byte	0x17c
 766 03cb EA030000 		.4byte	0x3ea
 767 03cf 09       		.uleb128 0x9
 768 03d0 03060000 		.4byte	.LASF65
 769 03d4 06       		.byte	0x6
 770 03d5 8401     		.2byte	0x184
 771 03d7 680B0000 		.4byte	0xb68
 772 03db 00       		.byte	0
 773 03dc 09       		.uleb128 0x9
 774 03dd 4B070000 		.4byte	.LASF66
 775 03e1 06       		.byte	0x6
 776 03e2 9301     		.2byte	0x193
 777 03e4 660A0000 		.4byte	0xa66
 778 03e8 04       		.byte	0x4
 779 03e9 00       		.byte	0
 780 03ea 04       		.uleb128 0x4
 781 03eb 63030000 		.4byte	.LASF67
 782 03ef 05       		.byte	0x5
 783 03f0 70       		.byte	0x70
 784 03f1 F5030000 		.4byte	0x3f5
 785 03f5 0F       		.uleb128 0xf
 786 03f6 52010000 		.4byte	.LASF68
 787 03fa 8008     		.2byte	0x880
 788 03fc 06       		.byte	0x6
 789 03fd 9C01     		.2byte	0x19c
 790 03ff 46040000 		.4byte	0x446
 791 0403 09       		.uleb128 0x9
 792 0404 23070000 		.4byte	.LASF69
 793 0408 06       		.byte	0x6
 794 0409 A001     		.2byte	0x1a0
 795 040b 8A020000 		.4byte	0x28a
 796 040f 00       		.byte	0
 797 0410 09       		.uleb128 0x9
ARM GAS  /tmp/ccCJHwVb.s 			page 15


 798 0411 45010000 		.4byte	.LASF70
 799 0415 06       		.byte	0x6
 800 0416 A401     		.2byte	0x1a4
 801 0418 69030000 		.4byte	0x369
 802 041c 1C       		.byte	0x1c
 803 041d 08       		.uleb128 0x8
 804 041e 64626700 		.ascii	"dbg\000"
 805 0422 06       		.byte	0x6
 806 0423 A801     		.2byte	0x1a8
 807 0425 B6030000 		.4byte	0x3b6
 808 0429 2C       		.byte	0x2c
 809 042a 10       		.uleb128 0x10
 810 042b B6000000 		.4byte	.LASF71
 811 042f 06       		.byte	0x6
 812 0430 AC01     		.2byte	0x1ac
 813 0432 3C010000 		.4byte	0x13c
 814 0436 3808     		.2byte	0x838
 815 0438 11       		.uleb128 0x11
 816 0439 746D00   		.ascii	"tm\000"
 817 043c 06       		.byte	0x6
 818 043d B101     		.2byte	0x1b1
 819 043f 860A0000 		.4byte	0xa86
 820 0443 7C08     		.2byte	0x87c
 821 0445 00       		.byte	0
 822 0446 03       		.uleb128 0x3
 823 0447 04       		.byte	0x4
 824 0448 07       		.byte	0x7
 825 0449 D7030000 		.4byte	.LASF72
 826 044d 12       		.uleb128 0x12
 827 044e C3000000 		.4byte	0xc3
 828 0452 13       		.uleb128 0x13
 829 0453 8C       		.byte	0x8c
 830 0454 07       		.byte	0x7
 831 0455 E501     		.2byte	0x1e5
 832 0457 6D050000 		.4byte	0x56d
 833 045b 09       		.uleb128 0x9
 834 045c DF000000 		.4byte	.LASF73
 835 0460 07       		.byte	0x7
 836 0461 E701     		.2byte	0x1e7
 837 0463 6D050000 		.4byte	0x56d
 838 0467 00       		.byte	0
 839 0468 09       		.uleb128 0x9
 840 0469 42030000 		.4byte	.LASF74
 841 046d 07       		.byte	0x7
 842 046e E801     		.2byte	0x1e8
 843 0470 4D040000 		.4byte	0x44d
 844 0474 04       		.byte	0x4
 845 0475 09       		.uleb128 0x9
 846 0476 1C030000 		.4byte	.LASF75
 847 047a 07       		.byte	0x7
 848 047b E901     		.2byte	0x1e9
 849 047d 4D040000 		.4byte	0x44d
 850 0481 08       		.byte	0x8
 851 0482 09       		.uleb128 0x9
 852 0483 4D030000 		.4byte	.LASF76
 853 0487 07       		.byte	0x7
 854 0488 EA01     		.2byte	0x1ea
ARM GAS  /tmp/ccCJHwVb.s 			page 16


 855 048a 4D040000 		.4byte	0x44d
 856 048e 0C       		.byte	0xc
 857 048f 08       		.uleb128 0x8
 858 0490 53435200 		.ascii	"SCR\000"
 859 0494 07       		.byte	0x7
 860 0495 EB01     		.2byte	0x1eb
 861 0497 4D040000 		.4byte	0x44d
 862 049b 10       		.byte	0x10
 863 049c 08       		.uleb128 0x8
 864 049d 43435200 		.ascii	"CCR\000"
 865 04a1 07       		.byte	0x7
 866 04a2 EC01     		.2byte	0x1ec
 867 04a4 4D040000 		.4byte	0x44d
 868 04a8 14       		.byte	0x14
 869 04a9 08       		.uleb128 0x8
 870 04aa 53485000 		.ascii	"SHP\000"
 871 04ae 07       		.byte	0x7
 872 04af ED01     		.2byte	0x1ed
 873 04b1 82050000 		.4byte	0x582
 874 04b5 18       		.byte	0x18
 875 04b6 09       		.uleb128 0x9
 876 04b7 07050000 		.4byte	.LASF77
 877 04bb 07       		.byte	0x7
 878 04bc EE01     		.2byte	0x1ee
 879 04be 4D040000 		.4byte	0x44d
 880 04c2 24       		.byte	0x24
 881 04c3 09       		.uleb128 0x9
 882 04c4 10040000 		.4byte	.LASF78
 883 04c8 07       		.byte	0x7
 884 04c9 EF01     		.2byte	0x1ef
 885 04cb 4D040000 		.4byte	0x44d
 886 04cf 28       		.byte	0x28
 887 04d0 09       		.uleb128 0x9
 888 04d1 5E070000 		.4byte	.LASF79
 889 04d5 07       		.byte	0x7
 890 04d6 F001     		.2byte	0x1f0
 891 04d8 4D040000 		.4byte	0x44d
 892 04dc 2C       		.byte	0x2c
 893 04dd 09       		.uleb128 0x9
 894 04de 0D060000 		.4byte	.LASF80
 895 04e2 07       		.byte	0x7
 896 04e3 F101     		.2byte	0x1f1
 897 04e5 4D040000 		.4byte	0x44d
 898 04e9 30       		.byte	0x30
 899 04ea 09       		.uleb128 0x9
 900 04eb 21030000 		.4byte	.LASF81
 901 04ef 07       		.byte	0x7
 902 04f0 F201     		.2byte	0x1f2
 903 04f2 4D040000 		.4byte	0x44d
 904 04f6 34       		.byte	0x34
 905 04f7 09       		.uleb128 0x9
 906 04f8 D9050000 		.4byte	.LASF82
 907 04fc 07       		.byte	0x7
 908 04fd F301     		.2byte	0x1f3
 909 04ff 4D040000 		.4byte	0x44d
 910 0503 38       		.byte	0x38
 911 0504 09       		.uleb128 0x9
ARM GAS  /tmp/ccCJHwVb.s 			page 17


 912 0505 99050000 		.4byte	.LASF83
 913 0509 07       		.byte	0x7
 914 050a F401     		.2byte	0x1f4
 915 050c 4D040000 		.4byte	0x44d
 916 0510 3C       		.byte	0x3c
 917 0511 08       		.uleb128 0x8
 918 0512 50465200 		.ascii	"PFR\000"
 919 0516 07       		.byte	0x7
 920 0517 F501     		.2byte	0x1f5
 921 0519 97050000 		.4byte	0x597
 922 051d 40       		.byte	0x40
 923 051e 08       		.uleb128 0x8
 924 051f 44465200 		.ascii	"DFR\000"
 925 0523 07       		.byte	0x7
 926 0524 F601     		.2byte	0x1f6
 927 0526 6D050000 		.4byte	0x56d
 928 052a 48       		.byte	0x48
 929 052b 08       		.uleb128 0x8
 930 052c 41445200 		.ascii	"ADR\000"
 931 0530 07       		.byte	0x7
 932 0531 F701     		.2byte	0x1f7
 933 0533 6D050000 		.4byte	0x56d
 934 0537 4C       		.byte	0x4c
 935 0538 09       		.uleb128 0x9
 936 0539 1E070000 		.4byte	.LASF84
 937 053d 07       		.byte	0x7
 938 053e F801     		.2byte	0x1f8
 939 0540 B1050000 		.4byte	0x5b1
 940 0544 50       		.byte	0x50
 941 0545 09       		.uleb128 0x9
 942 0546 0A010000 		.4byte	.LASF85
 943 054a 07       		.byte	0x7
 944 054b F901     		.2byte	0x1f9
 945 054d CB050000 		.4byte	0x5cb
 946 0551 60       		.byte	0x60
 947 0552 09       		.uleb128 0x9
 948 0553 92040000 		.4byte	.LASF86
 949 0557 07       		.byte	0x7
 950 0558 FA01     		.2byte	0x1fa
 951 055a BB050000 		.4byte	0x5bb
 952 055e 74       		.byte	0x74
 953 055f 09       		.uleb128 0x9
 954 0560 58070000 		.4byte	.LASF87
 955 0564 07       		.byte	0x7
 956 0565 FB01     		.2byte	0x1fb
 957 0567 4D040000 		.4byte	0x44d
 958 056b 88       		.byte	0x88
 959 056c 00       		.byte	0
 960 056d 14       		.uleb128 0x14
 961 056e 4D040000 		.4byte	0x44d
 962 0572 15       		.uleb128 0x15
 963 0573 A2000000 		.4byte	0xa2
 964 0577 82050000 		.4byte	0x582
 965 057b 16       		.uleb128 0x16
 966 057c 46040000 		.4byte	0x446
 967 0580 0B       		.byte	0xb
 968 0581 00       		.byte	0
ARM GAS  /tmp/ccCJHwVb.s 			page 18


 969 0582 12       		.uleb128 0x12
 970 0583 72050000 		.4byte	0x572
 971 0587 15       		.uleb128 0x15
 972 0588 C3000000 		.4byte	0xc3
 973 058c 97050000 		.4byte	0x597
 974 0590 16       		.uleb128 0x16
 975 0591 46040000 		.4byte	0x446
 976 0595 01       		.byte	0x1
 977 0596 00       		.byte	0
 978 0597 14       		.uleb128 0x14
 979 0598 9C050000 		.4byte	0x59c
 980 059c 12       		.uleb128 0x12
 981 059d 87050000 		.4byte	0x587
 982 05a1 15       		.uleb128 0x15
 983 05a2 C3000000 		.4byte	0xc3
 984 05a6 B1050000 		.4byte	0x5b1
 985 05aa 16       		.uleb128 0x16
 986 05ab 46040000 		.4byte	0x446
 987 05af 03       		.byte	0x3
 988 05b0 00       		.byte	0
 989 05b1 14       		.uleb128 0x14
 990 05b2 B6050000 		.4byte	0x5b6
 991 05b6 12       		.uleb128 0x12
 992 05b7 A1050000 		.4byte	0x5a1
 993 05bb 15       		.uleb128 0x15
 994 05bc C3000000 		.4byte	0xc3
 995 05c0 CB050000 		.4byte	0x5cb
 996 05c4 16       		.uleb128 0x16
 997 05c5 46040000 		.4byte	0x446
 998 05c9 04       		.byte	0x4
 999 05ca 00       		.byte	0
 1000 05cb 14       		.uleb128 0x14
 1001 05cc D0050000 		.4byte	0x5d0
 1002 05d0 12       		.uleb128 0x12
 1003 05d1 BB050000 		.4byte	0x5bb
 1004 05d5 17       		.uleb128 0x17
 1005 05d6 0C020000 		.4byte	.LASF88
 1006 05da 07       		.byte	0x7
 1007 05db FC01     		.2byte	0x1fc
 1008 05dd 52040000 		.4byte	0x452
 1009 05e1 18       		.uleb128 0x18
 1010 05e2 10       		.byte	0x10
 1011 05e3 08       		.byte	0x8
 1012 05e4 DC       		.byte	0xdc
 1013 05e5 19060000 		.4byte	0x619
 1014 05e9 06       		.uleb128 0x6
 1015 05ea A6000000 		.4byte	.LASF89
 1016 05ee 08       		.byte	0x8
 1017 05ef DE       		.byte	0xde
 1018 05f0 4D040000 		.4byte	0x44d
 1019 05f4 00       		.byte	0
 1020 05f5 07       		.uleb128 0x7
 1021 05f6 435200   		.ascii	"CR\000"
 1022 05f9 08       		.byte	0x8
 1023 05fa DF       		.byte	0xdf
 1024 05fb 4D040000 		.4byte	0x44d
 1025 05ff 04       		.byte	0x4
ARM GAS  /tmp/ccCJHwVb.s 			page 19


 1026 0600 06       		.uleb128 0x6
 1027 0601 83040000 		.4byte	.LASF90
 1028 0605 08       		.byte	0x8
 1029 0606 E0       		.byte	0xe0
 1030 0607 4D040000 		.4byte	0x44d
 1031 060b 08       		.byte	0x8
 1032 060c 06       		.uleb128 0x6
 1033 060d 5C030000 		.4byte	.LASF91
 1034 0611 08       		.byte	0x8
 1035 0612 E1       		.byte	0xe1
 1036 0613 4D040000 		.4byte	0x44d
 1037 0617 0C       		.byte	0xc
 1038 0618 00       		.byte	0
 1039 0619 04       		.uleb128 0x4
 1040 061a 70050000 		.4byte	.LASF92
 1041 061e 08       		.byte	0x8
 1042 061f E2       		.byte	0xe2
 1043 0620 E1050000 		.4byte	0x5e1
 1044 0624 13       		.uleb128 0x13
 1045 0625 1C       		.byte	0x1c
 1046 0626 08       		.byte	0x8
 1047 0627 0E01     		.2byte	0x10e
 1048 0629 87060000 		.4byte	0x687
 1049 062d 08       		.uleb128 0x8
 1050 062e 41435200 		.ascii	"ACR\000"
 1051 0632 08       		.byte	0x8
 1052 0633 1001     		.2byte	0x110
 1053 0635 4D040000 		.4byte	0x44d
 1054 0639 00       		.byte	0
 1055 063a 09       		.uleb128 0x9
 1056 063b 15020000 		.4byte	.LASF93
 1057 063f 08       		.byte	0x8
 1058 0640 1101     		.2byte	0x111
 1059 0642 4D040000 		.4byte	0x44d
 1060 0646 04       		.byte	0x4
 1061 0647 09       		.uleb128 0x9
 1062 0648 97010000 		.4byte	.LASF94
 1063 064c 08       		.byte	0x8
 1064 064d 1201     		.2byte	0x112
 1065 064f 4D040000 		.4byte	0x44d
 1066 0653 08       		.byte	0x8
 1067 0654 08       		.uleb128 0x8
 1068 0655 535200   		.ascii	"SR\000"
 1069 0658 08       		.byte	0x8
 1070 0659 1301     		.2byte	0x113
 1071 065b 4D040000 		.4byte	0x44d
 1072 065f 0C       		.byte	0xc
 1073 0660 08       		.uleb128 0x8
 1074 0661 435200   		.ascii	"CR\000"
 1075 0664 08       		.byte	0x8
 1076 0665 1401     		.2byte	0x114
 1077 0667 4D040000 		.4byte	0x44d
 1078 066b 10       		.byte	0x10
 1079 066c 09       		.uleb128 0x9
 1080 066d 70000000 		.4byte	.LASF95
 1081 0671 08       		.byte	0x8
 1082 0672 1501     		.2byte	0x115
ARM GAS  /tmp/ccCJHwVb.s 			page 20


 1083 0674 4D040000 		.4byte	0x44d
 1084 0678 14       		.byte	0x14
 1085 0679 09       		.uleb128 0x9
 1086 067a 76000000 		.4byte	.LASF96
 1087 067e 08       		.byte	0x8
 1088 067f 1601     		.2byte	0x116
 1089 0681 4D040000 		.4byte	0x44d
 1090 0685 18       		.byte	0x18
 1091 0686 00       		.byte	0
 1092 0687 17       		.uleb128 0x17
 1093 0688 32010000 		.4byte	.LASF97
 1094 068c 08       		.byte	0x8
 1095 068d 1701     		.2byte	0x117
 1096 068f 24060000 		.4byte	0x624
 1097 0693 13       		.uleb128 0x13
 1098 0694 08       		.byte	0x8
 1099 0695 08       		.byte	0x8
 1100 0696 5901     		.2byte	0x159
 1101 0698 B6060000 		.4byte	0x6b6
 1102 069c 08       		.uleb128 0x8
 1103 069d 435200   		.ascii	"CR\000"
 1104 06a0 08       		.byte	0x8
 1105 06a1 5B01     		.2byte	0x15b
 1106 06a3 4D040000 		.4byte	0x44d
 1107 06a7 00       		.byte	0
 1108 06a8 08       		.uleb128 0x8
 1109 06a9 43535200 		.ascii	"CSR\000"
 1110 06ad 08       		.byte	0x8
 1111 06ae 5C01     		.2byte	0x15c
 1112 06b0 4D040000 		.4byte	0x44d
 1113 06b4 04       		.byte	0x4
 1114 06b5 00       		.byte	0
 1115 06b6 17       		.uleb128 0x17
 1116 06b7 21060000 		.4byte	.LASF98
 1117 06bb 08       		.byte	0x8
 1118 06bc 5D01     		.2byte	0x15d
 1119 06be 93060000 		.4byte	0x693
 1120 06c2 13       		.uleb128 0x13
 1121 06c3 88       		.byte	0x88
 1122 06c4 08       		.byte	0x8
 1123 06c5 6301     		.2byte	0x163
 1124 06c7 51080000 		.4byte	0x851
 1125 06cb 08       		.uleb128 0x8
 1126 06cc 435200   		.ascii	"CR\000"
 1127 06cf 08       		.byte	0x8
 1128 06d0 6501     		.2byte	0x165
 1129 06d2 4D040000 		.4byte	0x44d
 1130 06d6 00       		.byte	0
 1131 06d7 09       		.uleb128 0x9
 1132 06d8 AF010000 		.4byte	.LASF99
 1133 06dc 08       		.byte	0x8
 1134 06dd 6601     		.2byte	0x166
 1135 06df 4D040000 		.4byte	0x44d
 1136 06e3 04       		.byte	0x4
 1137 06e4 09       		.uleb128 0x9
 1138 06e5 46070000 		.4byte	.LASF100
 1139 06e9 08       		.byte	0x8
ARM GAS  /tmp/ccCJHwVb.s 			page 21


 1140 06ea 6701     		.2byte	0x167
 1141 06ec 4D040000 		.4byte	0x44d
 1142 06f0 08       		.byte	0x8
 1143 06f1 08       		.uleb128 0x8
 1144 06f2 43495200 		.ascii	"CIR\000"
 1145 06f6 08       		.byte	0x8
 1146 06f7 6801     		.2byte	0x168
 1147 06f9 4D040000 		.4byte	0x44d
 1148 06fd 0C       		.byte	0xc
 1149 06fe 09       		.uleb128 0x9
 1150 06ff 29010000 		.4byte	.LASF101
 1151 0703 08       		.byte	0x8
 1152 0704 6901     		.2byte	0x169
 1153 0706 4D040000 		.4byte	0x44d
 1154 070a 10       		.byte	0x10
 1155 070b 09       		.uleb128 0x9
 1156 070c DE050000 		.4byte	.LASF102
 1157 0710 08       		.byte	0x8
 1158 0711 6A01     		.2byte	0x16a
 1159 0713 4D040000 		.4byte	0x44d
 1160 0717 14       		.byte	0x14
 1161 0718 09       		.uleb128 0x9
 1162 0719 0F000000 		.4byte	.LASF103
 1163 071d 08       		.byte	0x8
 1164 071e 6B01     		.2byte	0x16b
 1165 0720 4D040000 		.4byte	0x44d
 1166 0724 18       		.byte	0x18
 1167 0725 09       		.uleb128 0x9
 1168 0726 92040000 		.4byte	.LASF86
 1169 072a 08       		.byte	0x8
 1170 072b 6C01     		.2byte	0x16c
 1171 072d C3000000 		.4byte	0xc3
 1172 0731 1C       		.byte	0x1c
 1173 0732 09       		.uleb128 0x9
 1174 0733 67040000 		.4byte	.LASF104
 1175 0737 08       		.byte	0x8
 1176 0738 6D01     		.2byte	0x16d
 1177 073a 4D040000 		.4byte	0x44d
 1178 073e 20       		.byte	0x20
 1179 073f 09       		.uleb128 0x9
 1180 0740 65010000 		.4byte	.LASF105
 1181 0744 08       		.byte	0x8
 1182 0745 6E01     		.2byte	0x16e
 1183 0747 4D040000 		.4byte	0x44d
 1184 074b 24       		.byte	0x24
 1185 074c 09       		.uleb128 0x9
 1186 074d 9C040000 		.4byte	.LASF106
 1187 0751 08       		.byte	0x8
 1188 0752 6F01     		.2byte	0x16f
 1189 0754 87050000 		.4byte	0x587
 1190 0758 28       		.byte	0x28
 1191 0759 09       		.uleb128 0x9
 1192 075a 3E070000 		.4byte	.LASF107
 1193 075e 08       		.byte	0x8
 1194 075f 7001     		.2byte	0x170
 1195 0761 4D040000 		.4byte	0x44d
 1196 0765 30       		.byte	0x30
ARM GAS  /tmp/ccCJHwVb.s 			page 22


 1197 0766 09       		.uleb128 0x9
 1198 0767 2D060000 		.4byte	.LASF108
 1199 076b 08       		.byte	0x8
 1200 076c 7101     		.2byte	0x171
 1201 076e 4D040000 		.4byte	0x44d
 1202 0772 34       		.byte	0x34
 1203 0773 09       		.uleb128 0x9
 1204 0774 1F040000 		.4byte	.LASF109
 1205 0778 08       		.byte	0x8
 1206 0779 7201     		.2byte	0x172
 1207 077b 4D040000 		.4byte	0x44d
 1208 077f 38       		.byte	0x38
 1209 0780 09       		.uleb128 0x9
 1210 0781 A6040000 		.4byte	.LASF110
 1211 0785 08       		.byte	0x8
 1212 0786 7301     		.2byte	0x173
 1213 0788 C3000000 		.4byte	0xc3
 1214 078c 3C       		.byte	0x3c
 1215 078d 09       		.uleb128 0x9
 1216 078e 19060000 		.4byte	.LASF111
 1217 0792 08       		.byte	0x8
 1218 0793 7401     		.2byte	0x174
 1219 0795 4D040000 		.4byte	0x44d
 1220 0799 40       		.byte	0x40
 1221 079a 09       		.uleb128 0x9
 1222 079b 43050000 		.4byte	.LASF112
 1223 079f 08       		.byte	0x8
 1224 07a0 7501     		.2byte	0x175
 1225 07a2 4D040000 		.4byte	0x44d
 1226 07a6 44       		.byte	0x44
 1227 07a7 09       		.uleb128 0x9
 1228 07a8 B0040000 		.4byte	.LASF113
 1229 07ac 08       		.byte	0x8
 1230 07ad 7601     		.2byte	0x176
 1231 07af 87050000 		.4byte	0x587
 1232 07b3 48       		.byte	0x48
 1233 07b4 09       		.uleb128 0x9
 1234 07b5 FB000000 		.4byte	.LASF114
 1235 07b9 08       		.byte	0x8
 1236 07ba 7701     		.2byte	0x177
 1237 07bc 4D040000 		.4byte	0x44d
 1238 07c0 50       		.byte	0x50
 1239 07c1 09       		.uleb128 0x9
 1240 07c2 42040000 		.4byte	.LASF115
 1241 07c6 08       		.byte	0x8
 1242 07c7 7801     		.2byte	0x178
 1243 07c9 4D040000 		.4byte	0x44d
 1244 07cd 54       		.byte	0x54
 1245 07ce 09       		.uleb128 0x9
 1246 07cf 32050000 		.4byte	.LASF116
 1247 07d3 08       		.byte	0x8
 1248 07d4 7901     		.2byte	0x179
 1249 07d6 4D040000 		.4byte	0x44d
 1250 07da 58       		.byte	0x58
 1251 07db 09       		.uleb128 0x9
 1252 07dc BA040000 		.4byte	.LASF117
 1253 07e0 08       		.byte	0x8
ARM GAS  /tmp/ccCJHwVb.s 			page 23


 1254 07e1 7A01     		.2byte	0x17a
 1255 07e3 C3000000 		.4byte	0xc3
 1256 07e7 5C       		.byte	0x5c
 1257 07e8 09       		.uleb128 0x9
 1258 07e9 6E010000 		.4byte	.LASF118
 1259 07ed 08       		.byte	0x8
 1260 07ee 7B01     		.2byte	0x17b
 1261 07f0 4D040000 		.4byte	0x44d
 1262 07f4 60       		.byte	0x60
 1263 07f5 09       		.uleb128 0x9
 1264 07f6 77030000 		.4byte	.LASF119
 1265 07fa 08       		.byte	0x8
 1266 07fb 7C01     		.2byte	0x17c
 1267 07fd 4D040000 		.4byte	0x44d
 1268 0801 64       		.byte	0x64
 1269 0802 09       		.uleb128 0x9
 1270 0803 C4040000 		.4byte	.LASF120
 1271 0807 08       		.byte	0x8
 1272 0808 7D01     		.2byte	0x17d
 1273 080a 87050000 		.4byte	0x587
 1274 080e 68       		.byte	0x68
 1275 080f 09       		.uleb128 0x9
 1276 0810 19070000 		.4byte	.LASF121
 1277 0814 08       		.byte	0x8
 1278 0815 7E01     		.2byte	0x17e
 1279 0817 4D040000 		.4byte	0x44d
 1280 081b 70       		.byte	0x70
 1281 081c 08       		.uleb128 0x8
 1282 081d 43535200 		.ascii	"CSR\000"
 1283 0821 08       		.byte	0x8
 1284 0822 7F01     		.2byte	0x17f
 1285 0824 4D040000 		.4byte	0x44d
 1286 0828 74       		.byte	0x74
 1287 0829 09       		.uleb128 0x9
 1288 082a 7F050000 		.4byte	.LASF122
 1289 082e 08       		.byte	0x8
 1290 082f 8001     		.2byte	0x180
 1291 0831 87050000 		.4byte	0x587
 1292 0835 78       		.byte	0x78
 1293 0836 09       		.uleb128 0x9
 1294 0837 FA060000 		.4byte	.LASF123
 1295 083b 08       		.byte	0x8
 1296 083c 8101     		.2byte	0x181
 1297 083e 4D040000 		.4byte	0x44d
 1298 0842 80       		.byte	0x80
 1299 0843 09       		.uleb128 0x9
 1300 0844 37030000 		.4byte	.LASF124
 1301 0848 08       		.byte	0x8
 1302 0849 8201     		.2byte	0x182
 1303 084b 4D040000 		.4byte	0x44d
 1304 084f 84       		.byte	0x84
 1305 0850 00       		.byte	0
 1306 0851 17       		.uleb128 0x17
 1307 0852 0B030000 		.4byte	.LASF125
 1308 0856 08       		.byte	0x8
 1309 0857 8401     		.2byte	0x184
 1310 0859 C2060000 		.4byte	0x6c2
ARM GAS  /tmp/ccCJHwVb.s 			page 24


 1311 085d 04       		.uleb128 0x4
 1312 085e 03020000 		.4byte	.LASF126
 1313 0862 09       		.byte	0x9
 1314 0863 65       		.byte	0x65
 1315 0864 0D030000 		.4byte	0x30d
 1316 0868 04       		.uleb128 0x4
 1317 0869 A5030000 		.4byte	.LASF127
 1318 086d 09       		.byte	0x9
 1319 086e 6D       		.byte	0x6d
 1320 086f CE000000 		.4byte	0xce
 1321 0873 05       		.uleb128 0x5
 1322 0874 3B020000 		.4byte	.LASF128
 1323 0878 04       		.byte	0x4
 1324 0879 09       		.byte	0x9
 1325 087a 89       		.byte	0x89
 1326 087b 8B080000 		.4byte	0x88b
 1327 087f 07       		.uleb128 0x7
 1328 0880 737000   		.ascii	"sp\000"
 1329 0883 09       		.byte	0x9
 1330 0884 8A       		.byte	0x8a
 1331 0885 07090000 		.4byte	0x907
 1332 0889 00       		.byte	0
 1333 088a 00       		.byte	0
 1334 088b 0B       		.uleb128 0xb
 1335 088c 50000000 		.4byte	.LASF129
 1336 0890 24       		.byte	0x24
 1337 0891 0A       		.byte	0xa
 1338 0892 5901     		.2byte	0x159
 1339 0894 07090000 		.4byte	0x907
 1340 0898 08       		.uleb128 0x8
 1341 0899 723400   		.ascii	"r4\000"
 1342 089c 0A       		.byte	0xa
 1343 089d 6C01     		.2byte	0x16c
 1344 089f 5D080000 		.4byte	0x85d
 1345 08a3 00       		.byte	0
 1346 08a4 08       		.uleb128 0x8
 1347 08a5 723500   		.ascii	"r5\000"
 1348 08a8 0A       		.byte	0xa
 1349 08a9 6D01     		.2byte	0x16d
 1350 08ab 5D080000 		.4byte	0x85d
 1351 08af 04       		.byte	0x4
 1352 08b0 08       		.uleb128 0x8
 1353 08b1 723600   		.ascii	"r6\000"
 1354 08b4 0A       		.byte	0xa
 1355 08b5 6E01     		.2byte	0x16e
 1356 08b7 5D080000 		.4byte	0x85d
 1357 08bb 08       		.byte	0x8
 1358 08bc 08       		.uleb128 0x8
 1359 08bd 723700   		.ascii	"r7\000"
 1360 08c0 0A       		.byte	0xa
 1361 08c1 6F01     		.2byte	0x16f
 1362 08c3 5D080000 		.4byte	0x85d
 1363 08c7 0C       		.byte	0xc
 1364 08c8 08       		.uleb128 0x8
 1365 08c9 723800   		.ascii	"r8\000"
 1366 08cc 0A       		.byte	0xa
 1367 08cd 7001     		.2byte	0x170
ARM GAS  /tmp/ccCJHwVb.s 			page 25


 1368 08cf 5D080000 		.4byte	0x85d
 1369 08d3 10       		.byte	0x10
 1370 08d4 08       		.uleb128 0x8
 1371 08d5 723900   		.ascii	"r9\000"
 1372 08d8 0A       		.byte	0xa
 1373 08d9 7101     		.2byte	0x171
 1374 08db 5D080000 		.4byte	0x85d
 1375 08df 14       		.byte	0x14
 1376 08e0 08       		.uleb128 0x8
 1377 08e1 72313000 		.ascii	"r10\000"
 1378 08e5 0A       		.byte	0xa
 1379 08e6 7201     		.2byte	0x172
 1380 08e8 5D080000 		.4byte	0x85d
 1381 08ec 18       		.byte	0x18
 1382 08ed 08       		.uleb128 0x8
 1383 08ee 72313100 		.ascii	"r11\000"
 1384 08f2 0A       		.byte	0xa
 1385 08f3 7301     		.2byte	0x173
 1386 08f5 5D080000 		.4byte	0x85d
 1387 08f9 1C       		.byte	0x1c
 1388 08fa 08       		.uleb128 0x8
 1389 08fb 6C7200   		.ascii	"lr\000"
 1390 08fe 0A       		.byte	0xa
 1391 08ff 7401     		.2byte	0x174
 1392 0901 5D080000 		.4byte	0x85d
 1393 0905 20       		.byte	0x20
 1394 0906 00       		.byte	0
 1395 0907 0A       		.uleb128 0xa
 1396 0908 04       		.byte	0x4
 1397 0909 8B080000 		.4byte	0x88b
 1398 090d 18       		.uleb128 0x18
 1399 090e 08       		.byte	0x8
 1400 090f 0B       		.byte	0xb
 1401 0910 80       		.byte	0x80
 1402 0911 2E090000 		.4byte	0x92e
 1403 0915 07       		.uleb128 0x7
 1404 0916 6E747000 		.ascii	"ntp\000"
 1405 091a 0B       		.byte	0xb
 1406 091b 84       		.byte	0x84
 1407 091c 30020000 		.4byte	0x230
 1408 0920 00       		.byte	0
 1409 0921 06       		.uleb128 0x6
 1410 0922 37070000 		.4byte	.LASF130
 1411 0926 0B       		.byte	0xb
 1412 0927 88       		.byte	0x88
 1413 0928 0D030000 		.4byte	0x30d
 1414 092c 04       		.byte	0x4
 1415 092d 00       		.byte	0
 1416 092e 18       		.uleb128 0x18
 1417 092f 04       		.byte	0x4
 1418 0930 0B       		.byte	0xb
 1419 0931 8D       		.byte	0x8d
 1420 0932 43090000 		.4byte	0x943
 1421 0936 06       		.uleb128 0x6
 1422 0937 17030000 		.4byte	.LASF33
 1423 093b 0B       		.byte	0xb
 1424 093c 91       		.byte	0x91
ARM GAS  /tmp/ccCJHwVb.s 			page 26


 1425 093d 43090000 		.4byte	0x943
 1426 0941 00       		.byte	0
 1427 0942 00       		.byte	0
 1428 0943 0A       		.uleb128 0xa
 1429 0944 04       		.byte	0x4
 1430 0945 49090000 		.4byte	0x949
 1431 0949 14       		.uleb128 0x14
 1432 094a 4E090000 		.4byte	0x94e
 1433 094e 03       		.uleb128 0x3
 1434 094f 01       		.byte	0x1
 1435 0950 08       		.byte	0x8
 1436 0951 C3050000 		.4byte	.LASF131
 1437 0955 18       		.uleb128 0x18
 1438 0956 04       		.byte	0x4
 1439 0957 0B       		.byte	0xb
 1440 0958 96       		.byte	0x96
 1441 0959 6A090000 		.4byte	0x96a
 1442 095d 06       		.uleb128 0x6
 1443 095e 4B050000 		.4byte	.LASF132
 1444 0962 0B       		.byte	0xb
 1445 0963 9A       		.byte	0x9a
 1446 0964 43090000 		.4byte	0x943
 1447 0968 00       		.byte	0
 1448 0969 00       		.byte	0
 1449 096a 18       		.uleb128 0x18
 1450 096b 08       		.byte	0x8
 1451 096c 0B       		.byte	0xb
 1452 096d 9F       		.byte	0x9f
 1453 096e 8B090000 		.4byte	0x98b
 1454 0972 07       		.uleb128 0x7
 1455 0973 75703100 		.ascii	"up1\000"
 1456 0977 0B       		.byte	0xb
 1457 0978 A3       		.byte	0xa3
 1458 0979 0D030000 		.4byte	0x30d
 1459 097d 00       		.byte	0
 1460 097e 07       		.uleb128 0x7
 1461 097f 75703200 		.ascii	"up2\000"
 1462 0983 0B       		.byte	0xb
 1463 0984 A7       		.byte	0xa7
 1464 0985 0D030000 		.4byte	0x30d
 1465 0989 04       		.byte	0x4
 1466 098a 00       		.byte	0
 1467 098b 19       		.uleb128 0x19
 1468 098c 08       		.byte	0x8
 1469 098d 0B       		.byte	0xb
 1470 098e 7C       		.byte	0x7c
 1471 098f BF090000 		.4byte	0x9bf
 1472 0993 1A       		.uleb128 0x1a
 1473 0994 737700   		.ascii	"sw\000"
 1474 0997 0B       		.byte	0xb
 1475 0998 89       		.byte	0x89
 1476 0999 0D090000 		.4byte	0x90d
 1477 099d 1A       		.uleb128 0x1a
 1478 099e 69737200 		.ascii	"isr\000"
 1479 09a2 0B       		.byte	0xb
 1480 09a3 92       		.byte	0x92
 1481 09a4 2E090000 		.4byte	0x92e
ARM GAS  /tmp/ccCJHwVb.s 			page 27


 1482 09a8 1B       		.uleb128 0x1b
 1483 09a9 2D050000 		.4byte	.LASF133
 1484 09ad 0B       		.byte	0xb
 1485 09ae 9B       		.byte	0x9b
 1486 09af 55090000 		.4byte	0x955
 1487 09b3 1B       		.uleb128 0x1b
 1488 09b4 CE040000 		.4byte	.LASF134
 1489 09b8 0B       		.byte	0xb
 1490 09b9 A8       		.byte	0xa8
 1491 09ba 6A090000 		.4byte	0x96a
 1492 09be 00       		.byte	0
 1493 09bf 18       		.uleb128 0x18
 1494 09c0 10       		.byte	0x10
 1495 09c1 0B       		.byte	0xb
 1496 09c2 69       		.byte	0x69
 1497 09c3 0B0A0000 		.4byte	0xa0b
 1498 09c7 1C       		.uleb128 0x1c
 1499 09c8 6B000000 		.4byte	.LASF135
 1500 09cc 0B       		.byte	0xb
 1501 09cd 6D       		.byte	0x6d
 1502 09ce C3000000 		.4byte	0xc3
 1503 09d2 04       		.byte	0x4
 1504 09d3 03       		.byte	0x3
 1505 09d4 1D       		.byte	0x1d
 1506 09d5 00       		.byte	0
 1507 09d6 1C       		.uleb128 0x1c
 1508 09d7 4C010000 		.4byte	.LASF35
 1509 09db 0B       		.byte	0xb
 1510 09dc 71       		.byte	0x71
 1511 09dd C3000000 		.4byte	0xc3
 1512 09e1 04       		.byte	0x4
 1513 09e2 05       		.byte	0x5
 1514 09e3 18       		.byte	0x18
 1515 09e4 00       		.byte	0
 1516 09e5 1C       		.uleb128 0x1c
 1517 09e6 B6030000 		.4byte	.LASF136
 1518 09ea 0B       		.byte	0xb
 1519 09eb 77       		.byte	0x77
 1520 09ec C3000000 		.4byte	0xc3
 1521 09f0 04       		.byte	0x4
 1522 09f1 18       		.byte	0x18
 1523 09f2 00       		.byte	0
 1524 09f3 00       		.byte	0
 1525 09f4 06       		.uleb128 0x6
 1526 09f5 5D040000 		.4byte	.LASF137
 1527 09f9 0B       		.byte	0xb
 1528 09fa 7B       		.byte	0x7b
 1529 09fb 31010000 		.4byte	0x131
 1530 09ff 04       		.byte	0x4
 1531 0a00 07       		.uleb128 0x7
 1532 0a01 7500     		.ascii	"u\000"
 1533 0a03 0B       		.byte	0xb
 1534 0a04 A9       		.byte	0xa9
 1535 0a05 8B090000 		.4byte	0x98b
 1536 0a09 08       		.byte	0x8
 1537 0a0a 00       		.byte	0
 1538 0a0b 04       		.uleb128 0x4
ARM GAS  /tmp/ccCJHwVb.s 			page 28


 1539 0a0c 81010000 		.4byte	.LASF138
 1540 0a10 0B       		.byte	0xb
 1541 0a11 AA       		.byte	0xaa
 1542 0a12 BF090000 		.4byte	0x9bf
 1543 0a16 1D       		.uleb128 0x1d
 1544 0a17 0808     		.2byte	0x808
 1545 0a19 0B       		.byte	0xb
 1546 0a1a B0       		.byte	0xb0
 1547 0a1b 500A0000 		.4byte	0xa50
 1548 0a1f 06       		.uleb128 0x6
 1549 0a20 15040000 		.4byte	.LASF139
 1550 0a24 0B       		.byte	0xb
 1551 0a25 B4       		.byte	0xb4
 1552 0a26 AD000000 		.4byte	0xad
 1553 0a2a 00       		.byte	0
 1554 0a2b 06       		.uleb128 0x6
 1555 0a2c 40010000 		.4byte	.LASF140
 1556 0a30 0B       		.byte	0xb
 1557 0a31 B8       		.byte	0xb8
 1558 0a32 AD000000 		.4byte	0xad
 1559 0a36 02       		.byte	0x2
 1560 0a37 07       		.uleb128 0x7
 1561 0a38 70747200 		.ascii	"ptr\000"
 1562 0a3c 0B       		.byte	0xb
 1563 0a3d BC       		.byte	0xbc
 1564 0a3e 500A0000 		.4byte	0xa50
 1565 0a42 04       		.byte	0x4
 1566 0a43 06       		.uleb128 0x6
 1567 0a44 A8010000 		.4byte	.LASF141
 1568 0a48 0B       		.byte	0xb
 1569 0a49 C0       		.byte	0xc0
 1570 0a4a 560A0000 		.4byte	0xa56
 1571 0a4e 08       		.byte	0x8
 1572 0a4f 00       		.byte	0
 1573 0a50 0A       		.uleb128 0xa
 1574 0a51 04       		.byte	0x4
 1575 0a52 0B0A0000 		.4byte	0xa0b
 1576 0a56 15       		.uleb128 0x15
 1577 0a57 0B0A0000 		.4byte	0xa0b
 1578 0a5b 660A0000 		.4byte	0xa66
 1579 0a5f 16       		.uleb128 0x16
 1580 0a60 46040000 		.4byte	0x446
 1581 0a64 7F       		.byte	0x7f
 1582 0a65 00       		.byte	0
 1583 0a66 04       		.uleb128 0x4
 1584 0a67 94000000 		.4byte	.LASF142
 1585 0a6b 0B       		.byte	0xb
 1586 0a6c C1       		.byte	0xc1
 1587 0a6d 160A0000 		.4byte	0xa16
 1588 0a71 18       		.uleb128 0x18
 1589 0a72 04       		.byte	0x4
 1590 0a73 0C       		.byte	0xc
 1591 0a74 38       		.byte	0x38
 1592 0a75 860A0000 		.4byte	0xa86
 1593 0a79 06       		.uleb128 0x6
 1594 0a7a 12060000 		.4byte	.LASF143
 1595 0a7e 0C       		.byte	0xc
ARM GAS  /tmp/ccCJHwVb.s 			page 29


 1596 0a7f 3C       		.byte	0x3c
 1597 0a80 D9000000 		.4byte	0xd9
 1598 0a84 00       		.byte	0
 1599 0a85 00       		.byte	0
 1600 0a86 04       		.uleb128 0x4
 1601 0a87 4C040000 		.4byte	.LASF144
 1602 0a8b 0C       		.byte	0xc
 1603 0a8c 3D       		.byte	0x3d
 1604 0a8d 710A0000 		.4byte	0xa71
 1605 0a91 19       		.uleb128 0x19
 1606 0a92 04       		.byte	0x4
 1607 0a93 06       		.byte	0x6
 1608 0a94 D2       		.byte	0xd2
 1609 0a95 F40A0000 		.4byte	0xaf4
 1610 0a99 1B       		.uleb128 0x1b
 1611 0a9a 31000000 		.4byte	.LASF145
 1612 0a9e 06       		.byte	0x6
 1613 0a9f D9       		.byte	0xd9
 1614 0aa0 10010000 		.4byte	0x110
 1615 0aa4 1B       		.uleb128 0x1b
 1616 0aa5 AD000000 		.4byte	.LASF146
 1617 0aa9 06       		.byte	0x6
 1618 0aaa E0       		.byte	0xe0
 1619 0aab 10010000 		.4byte	0x110
 1620 0aaf 1B       		.uleb128 0x1b
 1621 0ab0 37070000 		.4byte	.LASF130
 1622 0ab4 06       		.byte	0x6
 1623 0ab5 E7       		.byte	0xe7
 1624 0ab6 0D030000 		.4byte	0x30d
 1625 0aba 1B       		.uleb128 0x1b
 1626 0abb 25000000 		.4byte	.LASF147
 1627 0abf 06       		.byte	0x6
 1628 0ac0 EE       		.byte	0xee
 1629 0ac1 F40A0000 		.4byte	0xaf4
 1630 0ac5 1B       		.uleb128 0x1b
 1631 0ac6 C1000000 		.4byte	.LASF148
 1632 0aca 06       		.byte	0x6
 1633 0acb F3       		.byte	0xf3
 1634 0acc 10010000 		.4byte	0x110
 1635 0ad0 1B       		.uleb128 0x1b
 1636 0ad1 F2020000 		.4byte	.LASF149
 1637 0ad5 06       		.byte	0x6
 1638 0ad6 FC       		.byte	0xfc
 1639 0ad7 1F0B0000 		.4byte	0xb1f
 1640 0adb 1E       		.uleb128 0x1e
 1641 0adc 92050000 		.4byte	.LASF150
 1642 0ae0 06       		.byte	0x6
 1643 0ae1 0501     		.2byte	0x105
 1644 0ae3 560B0000 		.4byte	0xb56
 1645 0ae7 1E       		.uleb128 0x1e
 1646 0ae8 3C050000 		.4byte	.LASF151
 1647 0aec 06       		.byte	0x6
 1648 0aed 0D01     		.2byte	0x10d
 1649 0aef 1B010000 		.4byte	0x11b
 1650 0af3 00       		.byte	0
 1651 0af4 0A       		.uleb128 0xa
 1652 0af5 04       		.byte	0x4
ARM GAS  /tmp/ccCJHwVb.s 			page 30


 1653 0af6 25020000 		.4byte	0x225
 1654 0afa 05       		.uleb128 0x5
 1655 0afb 63050000 		.4byte	.LASF152
 1656 0aff 0C       		.byte	0xc
 1657 0b00 0D       		.byte	0xd
 1658 0b01 34       		.byte	0x34
 1659 0b02 1F0B0000 		.4byte	0xb1f
 1660 0b06 06       		.uleb128 0x6
 1661 0b07 0A040000 		.4byte	.LASF29
 1662 0b0b 0D       		.byte	0xd
 1663 0b0c 35       		.byte	0x35
 1664 0b0d 5A020000 		.4byte	0x25a
 1665 0b11 00       		.byte	0
 1666 0b12 07       		.uleb128 0x7
 1667 0b13 636E7400 		.ascii	"cnt\000"
 1668 0b17 0D       		.byte	0xd
 1669 0b18 37       		.byte	0x37
 1670 0b19 26010000 		.4byte	0x126
 1671 0b1d 08       		.byte	0x8
 1672 0b1e 00       		.byte	0
 1673 0b1f 0A       		.uleb128 0xa
 1674 0b20 04       		.byte	0x4
 1675 0b21 FA0A0000 		.4byte	0xafa
 1676 0b25 05       		.uleb128 0x5
 1677 0b26 10070000 		.4byte	.LASF153
 1678 0b2a 10       		.byte	0x10
 1679 0b2b 0E       		.byte	0xe
 1680 0b2c 39       		.byte	0x39
 1681 0b2d 560B0000 		.4byte	0xb56
 1682 0b31 06       		.uleb128 0x6
 1683 0b32 0A040000 		.4byte	.LASF29
 1684 0b36 0E       		.byte	0xe
 1685 0b37 3A       		.byte	0x3a
 1686 0b38 5A020000 		.4byte	0x25a
 1687 0b3c 00       		.byte	0
 1688 0b3d 06       		.uleb128 0x6
 1689 0b3e AE050000 		.4byte	.LASF154
 1690 0b42 0E       		.byte	0xe
 1691 0b43 3C       		.byte	0x3c
 1692 0b44 30020000 		.4byte	0x230
 1693 0b48 08       		.byte	0x8
 1694 0b49 06       		.uleb128 0x6
 1695 0b4a E5000000 		.4byte	.LASF48
 1696 0b4e 0E       		.byte	0xe
 1697 0b4f 3E       		.byte	0x3e
 1698 0b50 780B0000 		.4byte	0xb78
 1699 0b54 0C       		.byte	0xc
 1700 0b55 00       		.byte	0
 1701 0b56 0A       		.uleb128 0xa
 1702 0b57 04       		.byte	0x4
 1703 0b58 250B0000 		.4byte	0xb25
 1704 0b5c 0A       		.uleb128 0xa
 1705 0b5d 04       		.byte	0x4
 1706 0b5e 68080000 		.4byte	0x868
 1707 0b62 0A       		.uleb128 0xa
 1708 0b63 04       		.byte	0x4
 1709 0b64 0F030000 		.4byte	0x30f
ARM GAS  /tmp/ccCJHwVb.s 			page 31


 1710 0b68 12       		.uleb128 0x12
 1711 0b69 43090000 		.4byte	0x943
 1712 0b6d 04       		.uleb128 0x4
 1713 0b6e 33020000 		.4byte	.LASF155
 1714 0b72 0E       		.byte	0xe
 1715 0b73 34       		.byte	0x34
 1716 0b74 250B0000 		.4byte	0xb25
 1717 0b78 0A       		.uleb128 0xa
 1718 0b79 04       		.byte	0x4
 1719 0b7a 6D0B0000 		.4byte	0xb6d
 1720 0b7e 03       		.uleb128 0x3
 1721 0b7f 01       		.byte	0x1
 1722 0b80 02       		.byte	0x2
 1723 0b81 EB040000 		.4byte	.LASF156
 1724 0b85 1F       		.uleb128 0x1f
 1725 0b86 27040000 		.4byte	.LASF162
 1726 0b8a 01       		.byte	0x1
 1727 0b8b 36       		.byte	0x36
 1728 0b8c 01       		.byte	0x1
 1729 0b8d 20       		.uleb128 0x20
 1730 0b8e 48060000 		.4byte	.LASF163
 1731 0b92 01       		.byte	0x1
 1732 0b93 72       		.byte	0x72
 1733 0b94 00000000 		.4byte	.LFB271
 1734 0b98 88000000 		.4byte	.LFE271-.LFB271
 1735 0b9c 01       		.uleb128 0x1
 1736 0b9d 9C       		.byte	0x9c
 1737 0b9e BB0B0000 		.4byte	0xbbb
 1738 0ba2 21       		.uleb128 0x21
 1739 0ba3 850B0000 		.4byte	0xb85
 1740 0ba7 2C000000 		.4byte	.LBB4
 1741 0bab 00000000 		.4byte	.Ldebug_ranges0+0
 1742 0baf 01       		.byte	0x1
 1743 0bb0 7F       		.byte	0x7f
 1744 0bb1 22       		.uleb128 0x22
 1745 0bb2 88000000 		.4byte	.LVL0
 1746 0bb6 F90B0000 		.4byte	0xbf9
 1747 0bba 00       		.byte	0
 1748 0bbb 23       		.uleb128 0x23
 1749 0bbc 22020000 		.4byte	.LASF164
 1750 0bc0 01       		.byte	0x1
 1751 0bc1 92       		.byte	0x92
 1752 0bc2 00000000 		.4byte	.LFB272
 1753 0bc6 30010000 		.4byte	.LFE272-.LFB272
 1754 0bca 01       		.uleb128 0x1
 1755 0bcb 9C       		.byte	0x9c
 1756 0bcc 24       		.uleb128 0x24
 1757 0bcd 0D050000 		.4byte	.LASF157
 1758 0bd1 07       		.byte	0x7
 1759 0bd2 4407     		.2byte	0x744
 1760 0bd4 D80B0000 		.4byte	0xbd8
 1761 0bd8 12       		.uleb128 0x12
 1762 0bd9 B8000000 		.4byte	0xb8
 1763 0bdd 25       		.uleb128 0x25
 1764 0bde 64020000 		.4byte	.LASF158
 1765 0be2 01       		.byte	0x1
 1766 0be3 27       		.byte	0x27
ARM GAS  /tmp/ccCJHwVb.s 			page 32


 1767 0be4 C3000000 		.4byte	0xc3
 1768 0be8 05       		.uleb128 0x5
 1769 0be9 03       		.byte	0x3
 1770 0bea 00000000 		.4byte	SystemCoreClock
 1771 0bee 26       		.uleb128 0x26
 1772 0bef 636800   		.ascii	"ch\000"
 1773 0bf2 06       		.byte	0x6
 1774 0bf3 D201     		.2byte	0x1d2
 1775 0bf5 EA030000 		.4byte	0x3ea
 1776 0bf9 27       		.uleb128 0x27
 1777 0bfa B4050000 		.4byte	.LASF165
 1778 0bfe 0F       		.byte	0xf
 1779 0bff 9802     		.2byte	0x298
 1780 0c01 00       		.byte	0
 1781              		.section	.debug_abbrev,"",%progbits
 1782              	.Ldebug_abbrev0:
 1783 0000 01       		.uleb128 0x1
 1784 0001 11       		.uleb128 0x11
 1785 0002 01       		.byte	0x1
 1786 0003 25       		.uleb128 0x25
 1787 0004 0E       		.uleb128 0xe
 1788 0005 13       		.uleb128 0x13
 1789 0006 0B       		.uleb128 0xb
 1790 0007 03       		.uleb128 0x3
 1791 0008 0E       		.uleb128 0xe
 1792 0009 1B       		.uleb128 0x1b
 1793 000a 0E       		.uleb128 0xe
 1794 000b 55       		.uleb128 0x55
 1795 000c 17       		.uleb128 0x17
 1796 000d 11       		.uleb128 0x11
 1797 000e 01       		.uleb128 0x1
 1798 000f 10       		.uleb128 0x10
 1799 0010 17       		.uleb128 0x17
 1800 0011 00       		.byte	0
 1801 0012 00       		.byte	0
 1802 0013 02       		.uleb128 0x2
 1803 0014 24       		.uleb128 0x24
 1804 0015 00       		.byte	0
 1805 0016 0B       		.uleb128 0xb
 1806 0017 0B       		.uleb128 0xb
 1807 0018 3E       		.uleb128 0x3e
 1808 0019 0B       		.uleb128 0xb
 1809 001a 03       		.uleb128 0x3
 1810 001b 08       		.uleb128 0x8
 1811 001c 00       		.byte	0
 1812 001d 00       		.byte	0
 1813 001e 03       		.uleb128 0x3
 1814 001f 24       		.uleb128 0x24
 1815 0020 00       		.byte	0
 1816 0021 0B       		.uleb128 0xb
 1817 0022 0B       		.uleb128 0xb
 1818 0023 3E       		.uleb128 0x3e
 1819 0024 0B       		.uleb128 0xb
 1820 0025 03       		.uleb128 0x3
 1821 0026 0E       		.uleb128 0xe
 1822 0027 00       		.byte	0
 1823 0028 00       		.byte	0
ARM GAS  /tmp/ccCJHwVb.s 			page 33


 1824 0029 04       		.uleb128 0x4
 1825 002a 16       		.uleb128 0x16
 1826 002b 00       		.byte	0
 1827 002c 03       		.uleb128 0x3
 1828 002d 0E       		.uleb128 0xe
 1829 002e 3A       		.uleb128 0x3a
 1830 002f 0B       		.uleb128 0xb
 1831 0030 3B       		.uleb128 0x3b
 1832 0031 0B       		.uleb128 0xb
 1833 0032 49       		.uleb128 0x49
 1834 0033 13       		.uleb128 0x13
 1835 0034 00       		.byte	0
 1836 0035 00       		.byte	0
 1837 0036 05       		.uleb128 0x5
 1838 0037 13       		.uleb128 0x13
 1839 0038 01       		.byte	0x1
 1840 0039 03       		.uleb128 0x3
 1841 003a 0E       		.uleb128 0xe
 1842 003b 0B       		.uleb128 0xb
 1843 003c 0B       		.uleb128 0xb
 1844 003d 3A       		.uleb128 0x3a
 1845 003e 0B       		.uleb128 0xb
 1846 003f 3B       		.uleb128 0x3b
 1847 0040 0B       		.uleb128 0xb
 1848 0041 01       		.uleb128 0x1
 1849 0042 13       		.uleb128 0x13
 1850 0043 00       		.byte	0
 1851 0044 00       		.byte	0
 1852 0045 06       		.uleb128 0x6
 1853 0046 0D       		.uleb128 0xd
 1854 0047 00       		.byte	0
 1855 0048 03       		.uleb128 0x3
 1856 0049 0E       		.uleb128 0xe
 1857 004a 3A       		.uleb128 0x3a
 1858 004b 0B       		.uleb128 0xb
 1859 004c 3B       		.uleb128 0x3b
 1860 004d 0B       		.uleb128 0xb
 1861 004e 49       		.uleb128 0x49
 1862 004f 13       		.uleb128 0x13
 1863 0050 38       		.uleb128 0x38
 1864 0051 0B       		.uleb128 0xb
 1865 0052 00       		.byte	0
 1866 0053 00       		.byte	0
 1867 0054 07       		.uleb128 0x7
 1868 0055 0D       		.uleb128 0xd
 1869 0056 00       		.byte	0
 1870 0057 03       		.uleb128 0x3
 1871 0058 08       		.uleb128 0x8
 1872 0059 3A       		.uleb128 0x3a
 1873 005a 0B       		.uleb128 0xb
 1874 005b 3B       		.uleb128 0x3b
 1875 005c 0B       		.uleb128 0xb
 1876 005d 49       		.uleb128 0x49
 1877 005e 13       		.uleb128 0x13
 1878 005f 38       		.uleb128 0x38
 1879 0060 0B       		.uleb128 0xb
 1880 0061 00       		.byte	0
ARM GAS  /tmp/ccCJHwVb.s 			page 34


 1881 0062 00       		.byte	0
 1882 0063 08       		.uleb128 0x8
 1883 0064 0D       		.uleb128 0xd
 1884 0065 00       		.byte	0
 1885 0066 03       		.uleb128 0x3
 1886 0067 08       		.uleb128 0x8
 1887 0068 3A       		.uleb128 0x3a
 1888 0069 0B       		.uleb128 0xb
 1889 006a 3B       		.uleb128 0x3b
 1890 006b 05       		.uleb128 0x5
 1891 006c 49       		.uleb128 0x49
 1892 006d 13       		.uleb128 0x13
 1893 006e 38       		.uleb128 0x38
 1894 006f 0B       		.uleb128 0xb
 1895 0070 00       		.byte	0
 1896 0071 00       		.byte	0
 1897 0072 09       		.uleb128 0x9
 1898 0073 0D       		.uleb128 0xd
 1899 0074 00       		.byte	0
 1900 0075 03       		.uleb128 0x3
 1901 0076 0E       		.uleb128 0xe
 1902 0077 3A       		.uleb128 0x3a
 1903 0078 0B       		.uleb128 0xb
 1904 0079 3B       		.uleb128 0x3b
 1905 007a 05       		.uleb128 0x5
 1906 007b 49       		.uleb128 0x49
 1907 007c 13       		.uleb128 0x13
 1908 007d 38       		.uleb128 0x38
 1909 007e 0B       		.uleb128 0xb
 1910 007f 00       		.byte	0
 1911 0080 00       		.byte	0
 1912 0081 0A       		.uleb128 0xa
 1913 0082 0F       		.uleb128 0xf
 1914 0083 00       		.byte	0
 1915 0084 0B       		.uleb128 0xb
 1916 0085 0B       		.uleb128 0xb
 1917 0086 49       		.uleb128 0x49
 1918 0087 13       		.uleb128 0x13
 1919 0088 00       		.byte	0
 1920 0089 00       		.byte	0
 1921 008a 0B       		.uleb128 0xb
 1922 008b 13       		.uleb128 0x13
 1923 008c 01       		.byte	0x1
 1924 008d 03       		.uleb128 0x3
 1925 008e 0E       		.uleb128 0xe
 1926 008f 0B       		.uleb128 0xb
 1927 0090 0B       		.uleb128 0xb
 1928 0091 3A       		.uleb128 0x3a
 1929 0092 0B       		.uleb128 0xb
 1930 0093 3B       		.uleb128 0x3b
 1931 0094 05       		.uleb128 0x5
 1932 0095 01       		.uleb128 0x1
 1933 0096 13       		.uleb128 0x13
 1934 0097 00       		.byte	0
 1935 0098 00       		.byte	0
 1936 0099 0C       		.uleb128 0xc
 1937 009a 15       		.uleb128 0x15
ARM GAS  /tmp/ccCJHwVb.s 			page 35


 1938 009b 01       		.byte	0x1
 1939 009c 27       		.uleb128 0x27
 1940 009d 19       		.uleb128 0x19
 1941 009e 01       		.uleb128 0x1
 1942 009f 13       		.uleb128 0x13
 1943 00a0 00       		.byte	0
 1944 00a1 00       		.byte	0
 1945 00a2 0D       		.uleb128 0xd
 1946 00a3 05       		.uleb128 0x5
 1947 00a4 00       		.byte	0
 1948 00a5 49       		.uleb128 0x49
 1949 00a6 13       		.uleb128 0x13
 1950 00a7 00       		.byte	0
 1951 00a8 00       		.byte	0
 1952 00a9 0E       		.uleb128 0xe
 1953 00aa 0F       		.uleb128 0xf
 1954 00ab 00       		.byte	0
 1955 00ac 0B       		.uleb128 0xb
 1956 00ad 0B       		.uleb128 0xb
 1957 00ae 00       		.byte	0
 1958 00af 00       		.byte	0
 1959 00b0 0F       		.uleb128 0xf
 1960 00b1 13       		.uleb128 0x13
 1961 00b2 01       		.byte	0x1
 1962 00b3 03       		.uleb128 0x3
 1963 00b4 0E       		.uleb128 0xe
 1964 00b5 0B       		.uleb128 0xb
 1965 00b6 05       		.uleb128 0x5
 1966 00b7 3A       		.uleb128 0x3a
 1967 00b8 0B       		.uleb128 0xb
 1968 00b9 3B       		.uleb128 0x3b
 1969 00ba 05       		.uleb128 0x5
 1970 00bb 01       		.uleb128 0x1
 1971 00bc 13       		.uleb128 0x13
 1972 00bd 00       		.byte	0
 1973 00be 00       		.byte	0
 1974 00bf 10       		.uleb128 0x10
 1975 00c0 0D       		.uleb128 0xd
 1976 00c1 00       		.byte	0
 1977 00c2 03       		.uleb128 0x3
 1978 00c3 0E       		.uleb128 0xe
 1979 00c4 3A       		.uleb128 0x3a
 1980 00c5 0B       		.uleb128 0xb
 1981 00c6 3B       		.uleb128 0x3b
 1982 00c7 05       		.uleb128 0x5
 1983 00c8 49       		.uleb128 0x49
 1984 00c9 13       		.uleb128 0x13
 1985 00ca 38       		.uleb128 0x38
 1986 00cb 05       		.uleb128 0x5
 1987 00cc 00       		.byte	0
 1988 00cd 00       		.byte	0
 1989 00ce 11       		.uleb128 0x11
 1990 00cf 0D       		.uleb128 0xd
 1991 00d0 00       		.byte	0
 1992 00d1 03       		.uleb128 0x3
 1993 00d2 08       		.uleb128 0x8
 1994 00d3 3A       		.uleb128 0x3a
ARM GAS  /tmp/ccCJHwVb.s 			page 36


 1995 00d4 0B       		.uleb128 0xb
 1996 00d5 3B       		.uleb128 0x3b
 1997 00d6 05       		.uleb128 0x5
 1998 00d7 49       		.uleb128 0x49
 1999 00d8 13       		.uleb128 0x13
 2000 00d9 38       		.uleb128 0x38
 2001 00da 05       		.uleb128 0x5
 2002 00db 00       		.byte	0
 2003 00dc 00       		.byte	0
 2004 00dd 12       		.uleb128 0x12
 2005 00de 35       		.uleb128 0x35
 2006 00df 00       		.byte	0
 2007 00e0 49       		.uleb128 0x49
 2008 00e1 13       		.uleb128 0x13
 2009 00e2 00       		.byte	0
 2010 00e3 00       		.byte	0
 2011 00e4 13       		.uleb128 0x13
 2012 00e5 13       		.uleb128 0x13
 2013 00e6 01       		.byte	0x1
 2014 00e7 0B       		.uleb128 0xb
 2015 00e8 0B       		.uleb128 0xb
 2016 00e9 3A       		.uleb128 0x3a
 2017 00ea 0B       		.uleb128 0xb
 2018 00eb 3B       		.uleb128 0x3b
 2019 00ec 05       		.uleb128 0x5
 2020 00ed 01       		.uleb128 0x1
 2021 00ee 13       		.uleb128 0x13
 2022 00ef 00       		.byte	0
 2023 00f0 00       		.byte	0
 2024 00f1 14       		.uleb128 0x14
 2025 00f2 26       		.uleb128 0x26
 2026 00f3 00       		.byte	0
 2027 00f4 49       		.uleb128 0x49
 2028 00f5 13       		.uleb128 0x13
 2029 00f6 00       		.byte	0
 2030 00f7 00       		.byte	0
 2031 00f8 15       		.uleb128 0x15
 2032 00f9 01       		.uleb128 0x1
 2033 00fa 01       		.byte	0x1
 2034 00fb 49       		.uleb128 0x49
 2035 00fc 13       		.uleb128 0x13
 2036 00fd 01       		.uleb128 0x1
 2037 00fe 13       		.uleb128 0x13
 2038 00ff 00       		.byte	0
 2039 0100 00       		.byte	0
 2040 0101 16       		.uleb128 0x16
 2041 0102 21       		.uleb128 0x21
 2042 0103 00       		.byte	0
 2043 0104 49       		.uleb128 0x49
 2044 0105 13       		.uleb128 0x13
 2045 0106 2F       		.uleb128 0x2f
 2046 0107 0B       		.uleb128 0xb
 2047 0108 00       		.byte	0
 2048 0109 00       		.byte	0
 2049 010a 17       		.uleb128 0x17
 2050 010b 16       		.uleb128 0x16
 2051 010c 00       		.byte	0
ARM GAS  /tmp/ccCJHwVb.s 			page 37


 2052 010d 03       		.uleb128 0x3
 2053 010e 0E       		.uleb128 0xe
 2054 010f 3A       		.uleb128 0x3a
 2055 0110 0B       		.uleb128 0xb
 2056 0111 3B       		.uleb128 0x3b
 2057 0112 05       		.uleb128 0x5
 2058 0113 49       		.uleb128 0x49
 2059 0114 13       		.uleb128 0x13
 2060 0115 00       		.byte	0
 2061 0116 00       		.byte	0
 2062 0117 18       		.uleb128 0x18
 2063 0118 13       		.uleb128 0x13
 2064 0119 01       		.byte	0x1
 2065 011a 0B       		.uleb128 0xb
 2066 011b 0B       		.uleb128 0xb
 2067 011c 3A       		.uleb128 0x3a
 2068 011d 0B       		.uleb128 0xb
 2069 011e 3B       		.uleb128 0x3b
 2070 011f 0B       		.uleb128 0xb
 2071 0120 01       		.uleb128 0x1
 2072 0121 13       		.uleb128 0x13
 2073 0122 00       		.byte	0
 2074 0123 00       		.byte	0
 2075 0124 19       		.uleb128 0x19
 2076 0125 17       		.uleb128 0x17
 2077 0126 01       		.byte	0x1
 2078 0127 0B       		.uleb128 0xb
 2079 0128 0B       		.uleb128 0xb
 2080 0129 3A       		.uleb128 0x3a
 2081 012a 0B       		.uleb128 0xb
 2082 012b 3B       		.uleb128 0x3b
 2083 012c 0B       		.uleb128 0xb
 2084 012d 01       		.uleb128 0x1
 2085 012e 13       		.uleb128 0x13
 2086 012f 00       		.byte	0
 2087 0130 00       		.byte	0
 2088 0131 1A       		.uleb128 0x1a
 2089 0132 0D       		.uleb128 0xd
 2090 0133 00       		.byte	0
 2091 0134 03       		.uleb128 0x3
 2092 0135 08       		.uleb128 0x8
 2093 0136 3A       		.uleb128 0x3a
 2094 0137 0B       		.uleb128 0xb
 2095 0138 3B       		.uleb128 0x3b
 2096 0139 0B       		.uleb128 0xb
 2097 013a 49       		.uleb128 0x49
 2098 013b 13       		.uleb128 0x13
 2099 013c 00       		.byte	0
 2100 013d 00       		.byte	0
 2101 013e 1B       		.uleb128 0x1b
 2102 013f 0D       		.uleb128 0xd
 2103 0140 00       		.byte	0
 2104 0141 03       		.uleb128 0x3
 2105 0142 0E       		.uleb128 0xe
 2106 0143 3A       		.uleb128 0x3a
 2107 0144 0B       		.uleb128 0xb
 2108 0145 3B       		.uleb128 0x3b
ARM GAS  /tmp/ccCJHwVb.s 			page 38


 2109 0146 0B       		.uleb128 0xb
 2110 0147 49       		.uleb128 0x49
 2111 0148 13       		.uleb128 0x13
 2112 0149 00       		.byte	0
 2113 014a 00       		.byte	0
 2114 014b 1C       		.uleb128 0x1c
 2115 014c 0D       		.uleb128 0xd
 2116 014d 00       		.byte	0
 2117 014e 03       		.uleb128 0x3
 2118 014f 0E       		.uleb128 0xe
 2119 0150 3A       		.uleb128 0x3a
 2120 0151 0B       		.uleb128 0xb
 2121 0152 3B       		.uleb128 0x3b
 2122 0153 0B       		.uleb128 0xb
 2123 0154 49       		.uleb128 0x49
 2124 0155 13       		.uleb128 0x13
 2125 0156 0B       		.uleb128 0xb
 2126 0157 0B       		.uleb128 0xb
 2127 0158 0D       		.uleb128 0xd
 2128 0159 0B       		.uleb128 0xb
 2129 015a 0C       		.uleb128 0xc
 2130 015b 0B       		.uleb128 0xb
 2131 015c 38       		.uleb128 0x38
 2132 015d 0B       		.uleb128 0xb
 2133 015e 00       		.byte	0
 2134 015f 00       		.byte	0
 2135 0160 1D       		.uleb128 0x1d
 2136 0161 13       		.uleb128 0x13
 2137 0162 01       		.byte	0x1
 2138 0163 0B       		.uleb128 0xb
 2139 0164 05       		.uleb128 0x5
 2140 0165 3A       		.uleb128 0x3a
 2141 0166 0B       		.uleb128 0xb
 2142 0167 3B       		.uleb128 0x3b
 2143 0168 0B       		.uleb128 0xb
 2144 0169 01       		.uleb128 0x1
 2145 016a 13       		.uleb128 0x13
 2146 016b 00       		.byte	0
 2147 016c 00       		.byte	0
 2148 016d 1E       		.uleb128 0x1e
 2149 016e 0D       		.uleb128 0xd
 2150 016f 00       		.byte	0
 2151 0170 03       		.uleb128 0x3
 2152 0171 0E       		.uleb128 0xe
 2153 0172 3A       		.uleb128 0x3a
 2154 0173 0B       		.uleb128 0xb
 2155 0174 3B       		.uleb128 0x3b
 2156 0175 05       		.uleb128 0x5
 2157 0176 49       		.uleb128 0x49
 2158 0177 13       		.uleb128 0x13
 2159 0178 00       		.byte	0
 2160 0179 00       		.byte	0
 2161 017a 1F       		.uleb128 0x1f
 2162 017b 2E       		.uleb128 0x2e
 2163 017c 00       		.byte	0
 2164 017d 03       		.uleb128 0x3
 2165 017e 0E       		.uleb128 0xe
ARM GAS  /tmp/ccCJHwVb.s 			page 39


 2166 017f 3A       		.uleb128 0x3a
 2167 0180 0B       		.uleb128 0xb
 2168 0181 3B       		.uleb128 0x3b
 2169 0182 0B       		.uleb128 0xb
 2170 0183 27       		.uleb128 0x27
 2171 0184 19       		.uleb128 0x19
 2172 0185 20       		.uleb128 0x20
 2173 0186 0B       		.uleb128 0xb
 2174 0187 00       		.byte	0
 2175 0188 00       		.byte	0
 2176 0189 20       		.uleb128 0x20
 2177 018a 2E       		.uleb128 0x2e
 2178 018b 01       		.byte	0x1
 2179 018c 3F       		.uleb128 0x3f
 2180 018d 19       		.uleb128 0x19
 2181 018e 03       		.uleb128 0x3
 2182 018f 0E       		.uleb128 0xe
 2183 0190 3A       		.uleb128 0x3a
 2184 0191 0B       		.uleb128 0xb
 2185 0192 3B       		.uleb128 0x3b
 2186 0193 0B       		.uleb128 0xb
 2187 0194 27       		.uleb128 0x27
 2188 0195 19       		.uleb128 0x19
 2189 0196 11       		.uleb128 0x11
 2190 0197 01       		.uleb128 0x1
 2191 0198 12       		.uleb128 0x12
 2192 0199 06       		.uleb128 0x6
 2193 019a 40       		.uleb128 0x40
 2194 019b 18       		.uleb128 0x18
 2195 019c 9742     		.uleb128 0x2117
 2196 019e 19       		.uleb128 0x19
 2197 019f 01       		.uleb128 0x1
 2198 01a0 13       		.uleb128 0x13
 2199 01a1 00       		.byte	0
 2200 01a2 00       		.byte	0
 2201 01a3 21       		.uleb128 0x21
 2202 01a4 1D       		.uleb128 0x1d
 2203 01a5 00       		.byte	0
 2204 01a6 31       		.uleb128 0x31
 2205 01a7 13       		.uleb128 0x13
 2206 01a8 52       		.uleb128 0x52
 2207 01a9 01       		.uleb128 0x1
 2208 01aa 55       		.uleb128 0x55
 2209 01ab 17       		.uleb128 0x17
 2210 01ac 58       		.uleb128 0x58
 2211 01ad 0B       		.uleb128 0xb
 2212 01ae 59       		.uleb128 0x59
 2213 01af 0B       		.uleb128 0xb
 2214 01b0 00       		.byte	0
 2215 01b1 00       		.byte	0
 2216 01b2 22       		.uleb128 0x22
 2217 01b3 898201   		.uleb128 0x4109
 2218 01b6 00       		.byte	0
 2219 01b7 11       		.uleb128 0x11
 2220 01b8 01       		.uleb128 0x1
 2221 01b9 9542     		.uleb128 0x2115
 2222 01bb 19       		.uleb128 0x19
ARM GAS  /tmp/ccCJHwVb.s 			page 40


 2223 01bc 31       		.uleb128 0x31
 2224 01bd 13       		.uleb128 0x13
 2225 01be 00       		.byte	0
 2226 01bf 00       		.byte	0
 2227 01c0 23       		.uleb128 0x23
 2228 01c1 2E       		.uleb128 0x2e
 2229 01c2 00       		.byte	0
 2230 01c3 3F       		.uleb128 0x3f
 2231 01c4 19       		.uleb128 0x19
 2232 01c5 03       		.uleb128 0x3
 2233 01c6 0E       		.uleb128 0xe
 2234 01c7 3A       		.uleb128 0x3a
 2235 01c8 0B       		.uleb128 0xb
 2236 01c9 3B       		.uleb128 0x3b
 2237 01ca 0B       		.uleb128 0xb
 2238 01cb 27       		.uleb128 0x27
 2239 01cc 19       		.uleb128 0x19
 2240 01cd 11       		.uleb128 0x11
 2241 01ce 01       		.uleb128 0x1
 2242 01cf 12       		.uleb128 0x12
 2243 01d0 06       		.uleb128 0x6
 2244 01d1 40       		.uleb128 0x40
 2245 01d2 18       		.uleb128 0x18
 2246 01d3 9742     		.uleb128 0x2117
 2247 01d5 19       		.uleb128 0x19
 2248 01d6 00       		.byte	0
 2249 01d7 00       		.byte	0
 2250 01d8 24       		.uleb128 0x24
 2251 01d9 34       		.uleb128 0x34
 2252 01da 00       		.byte	0
 2253 01db 03       		.uleb128 0x3
 2254 01dc 0E       		.uleb128 0xe
 2255 01dd 3A       		.uleb128 0x3a
 2256 01de 0B       		.uleb128 0xb
 2257 01df 3B       		.uleb128 0x3b
 2258 01e0 05       		.uleb128 0x5
 2259 01e1 49       		.uleb128 0x49
 2260 01e2 13       		.uleb128 0x13
 2261 01e3 3F       		.uleb128 0x3f
 2262 01e4 19       		.uleb128 0x19
 2263 01e5 3C       		.uleb128 0x3c
 2264 01e6 19       		.uleb128 0x19
 2265 01e7 00       		.byte	0
 2266 01e8 00       		.byte	0
 2267 01e9 25       		.uleb128 0x25
 2268 01ea 34       		.uleb128 0x34
 2269 01eb 00       		.byte	0
 2270 01ec 03       		.uleb128 0x3
 2271 01ed 0E       		.uleb128 0xe
 2272 01ee 3A       		.uleb128 0x3a
 2273 01ef 0B       		.uleb128 0xb
 2274 01f0 3B       		.uleb128 0x3b
 2275 01f1 0B       		.uleb128 0xb
 2276 01f2 49       		.uleb128 0x49
 2277 01f3 13       		.uleb128 0x13
 2278 01f4 3F       		.uleb128 0x3f
 2279 01f5 19       		.uleb128 0x19
ARM GAS  /tmp/ccCJHwVb.s 			page 41


 2280 01f6 02       		.uleb128 0x2
 2281 01f7 18       		.uleb128 0x18
 2282 01f8 00       		.byte	0
 2283 01f9 00       		.byte	0
 2284 01fa 26       		.uleb128 0x26
 2285 01fb 34       		.uleb128 0x34
 2286 01fc 00       		.byte	0
 2287 01fd 03       		.uleb128 0x3
 2288 01fe 08       		.uleb128 0x8
 2289 01ff 3A       		.uleb128 0x3a
 2290 0200 0B       		.uleb128 0xb
 2291 0201 3B       		.uleb128 0x3b
 2292 0202 05       		.uleb128 0x5
 2293 0203 49       		.uleb128 0x49
 2294 0204 13       		.uleb128 0x13
 2295 0205 3F       		.uleb128 0x3f
 2296 0206 19       		.uleb128 0x19
 2297 0207 3C       		.uleb128 0x3c
 2298 0208 19       		.uleb128 0x19
 2299 0209 00       		.byte	0
 2300 020a 00       		.byte	0
 2301 020b 27       		.uleb128 0x27
 2302 020c 2E       		.uleb128 0x2e
 2303 020d 00       		.byte	0
 2304 020e 3F       		.uleb128 0x3f
 2305 020f 19       		.uleb128 0x19
 2306 0210 03       		.uleb128 0x3
 2307 0211 0E       		.uleb128 0xe
 2308 0212 3A       		.uleb128 0x3a
 2309 0213 0B       		.uleb128 0xb
 2310 0214 3B       		.uleb128 0x3b
 2311 0215 05       		.uleb128 0x5
 2312 0216 27       		.uleb128 0x27
 2313 0217 19       		.uleb128 0x19
 2314 0218 3C       		.uleb128 0x3c
 2315 0219 19       		.uleb128 0x19
 2316 021a 00       		.byte	0
 2317 021b 00       		.byte	0
 2318 021c 00       		.byte	0
 2319              		.section	.debug_aranges,"",%progbits
 2320 0000 24000000 		.4byte	0x24
 2321 0004 0200     		.2byte	0x2
 2322 0006 00000000 		.4byte	.Ldebug_info0
 2323 000a 04       		.byte	0x4
 2324 000b 00       		.byte	0
 2325 000c 0000     		.2byte	0
 2326 000e 0000     		.2byte	0
 2327 0010 00000000 		.4byte	.LFB271
 2328 0014 88000000 		.4byte	.LFE271-.LFB271
 2329 0018 00000000 		.4byte	.LFB272
 2330 001c 30010000 		.4byte	.LFE272-.LFB272
 2331 0020 00000000 		.4byte	0
 2332 0024 00000000 		.4byte	0
 2333              		.section	.debug_ranges,"",%progbits
 2334              	.Ldebug_ranges0:
 2335 0000 2C000000 		.4byte	.LBB4
 2336 0004 34000000 		.4byte	.LBE4
ARM GAS  /tmp/ccCJHwVb.s 			page 42


 2337 0008 3A000000 		.4byte	.LBB7
 2338 000c 84000000 		.4byte	.LBE7
 2339 0010 00000000 		.4byte	0
 2340 0014 00000000 		.4byte	0
 2341 0018 00000000 		.4byte	.LFB271
 2342 001c 88000000 		.4byte	.LFE271
 2343 0020 00000000 		.4byte	.LFB272
 2344 0024 30010000 		.4byte	.LFE272
 2345 0028 00000000 		.4byte	0
 2346 002c 00000000 		.4byte	0
 2347              		.section	.debug_line,"",%progbits
 2348              	.Ldebug_line0:
 2349 0000 1C030000 		.section	.debug_str,"MS",%progbits,1
 2349      02008702 
 2349      00000201 
 2349      FB0E0D00 
 2349      01010101 
 2350              	.LASF45:
 2351 0000 74687265 		.ascii	"threads_list_t\000"
 2351      6164735F 
 2351      6C697374 
 2351      5F7400
 2352              	.LASF103:
 2353 000f 41484233 		.ascii	"AHB3RSTR\000"
 2353      52535452 
 2353      00
 2354              	.LASF52:
 2355 0018 72656164 		.ascii	"ready_list_t\000"
 2355      795F6C69 
 2355      73745F74 
 2355      00
 2356              	.LASF147:
 2357 0025 77747472 		.ascii	"wttrp\000"
 2357      7000
 2358              	.LASF58:
 2359 002b 64656C74 		.ascii	"delta\000"
 2359      6100
 2360              	.LASF145:
 2361 0031 7264796D 		.ascii	"rdymsg\000"
 2361      736700
 2362              	.LASF18:
 2363 0038 75696E74 		.ascii	"uint64_t\000"
 2363      36345F74 
 2363      00
 2364              	.LASF4:
 2365 0041 5F5F7569 		.ascii	"__uint8_t\000"
 2365      6E74385F 
 2365      7400
 2366              	.LASF51:
 2367 004b 70726576 		.ascii	"prev\000"
 2367      00
 2368              	.LASF129:
 2369 0050 706F7274 		.ascii	"port_intctx\000"
 2369      5F696E74 
 2369      63747800 
 2370              	.LASF63:
 2371 005c 73797374 		.ascii	"system_debug_t\000"
ARM GAS  /tmp/ccCJHwVb.s 			page 43


 2371      656D5F64 
 2371      65627567 
 2371      5F7400
 2372              	.LASF135:
 2373 006b 74797065 		.ascii	"type\000"
 2373      00
 2374              	.LASF95:
 2375 0070 4F505443 		.ascii	"OPTCR\000"
 2375      5200
 2376              	.LASF96:
 2377 0076 4F505443 		.ascii	"OPTCR1\000"
 2377      523100
 2378              	.LASF13:
 2379 007d 6C6F6E67 		.ascii	"long long unsigned int\000"
 2379      206C6F6E 
 2379      6720756E 
 2379      7369676E 
 2379      65642069 
 2380              	.LASF142:
 2381 0094 63685F74 		.ascii	"ch_trace_buffer_t\000"
 2381      72616365 
 2381      5F627566 
 2381      6665725F 
 2381      7400
 2382              	.LASF89:
 2383 00a6 4944434F 		.ascii	"IDCODE\000"
 2383      444500
 2384              	.LASF146:
 2385 00ad 65786974 		.ascii	"exitcode\000"
 2385      636F6465 
 2385      00
 2386              	.LASF71:
 2387 00b6 6D61696E 		.ascii	"mainthread\000"
 2387      74687265 
 2387      616400
 2388              	.LASF148:
 2389 00c1 73656E74 		.ascii	"sentmsg\000"
 2389      6D736700 
 2390              	.LASF60:
 2391 00c9 76697274 		.ascii	"virtual_timers_list_t\000"
 2391      75616C5F 
 2391      74696D65 
 2391      72735F6C 
 2391      6973745F 
 2392              	.LASF73:
 2393 00df 43505549 		.ascii	"CPUID\000"
 2393      4400
 2394              	.LASF48:
 2395 00e5 6E657874 		.ascii	"next\000"
 2395      00
 2396              	.LASF50:
 2397 00ea 63685F74 		.ascii	"ch_threads_queue\000"
 2397      68726561 
 2397      64735F71 
 2397      75657565 
 2397      00
 2398              	.LASF114:
ARM GAS  /tmp/ccCJHwVb.s 			page 44


 2399 00fb 41484231 		.ascii	"AHB1LPENR\000"
 2399      4C50454E 
 2399      5200
 2400              	.LASF37:
 2401 0105 72656673 		.ascii	"refs\000"
 2401      00
 2402              	.LASF85:
 2403 010a 49534152 		.ascii	"ISAR\000"
 2403      00
 2404              	.LASF11:
 2405 010f 6C6F6E67 		.ascii	"long long int\000"
 2405      206C6F6E 
 2405      6720696E 
 2405      7400
 2406              	.LASF1:
 2407 011d 7369676E 		.ascii	"signed char\000"
 2407      65642063 
 2407      68617200 
 2408              	.LASF101:
 2409 0129 41484231 		.ascii	"AHB1RSTR\000"
 2409      52535452 
 2409      00
 2410              	.LASF97:
 2411 0132 464C4153 		.ascii	"FLASH_TypeDef\000"
 2411      485F5479 
 2411      70654465 
 2411      6600
 2412              	.LASF140:
 2413 0140 73697A65 		.ascii	"size\000"
 2413      00
 2414              	.LASF70:
 2415 0145 76746C69 		.ascii	"vtlist\000"
 2415      737400
 2416              	.LASF35:
 2417 014c 73746174 		.ascii	"state\000"
 2417      6500
 2418              	.LASF68:
 2419 0152 63685F73 		.ascii	"ch_system\000"
 2419      79737465 
 2419      6D00
 2420              	.LASF8:
 2421 015c 6C6F6E67 		.ascii	"long int\000"
 2421      20696E74 
 2421      00
 2422              	.LASF105:
 2423 0165 41504232 		.ascii	"APB2RSTR\000"
 2423      52535452 
 2423      00
 2424              	.LASF118:
 2425 016e 41504231 		.ascii	"APB1LPENR\000"
 2425      4C50454E 
 2425      5200
 2426              	.LASF21:
 2427 0178 74737461 		.ascii	"tstate_t\000"
 2427      74655F74 
 2427      00
 2428              	.LASF138:
ARM GAS  /tmp/ccCJHwVb.s 			page 45


 2429 0181 63685F74 		.ascii	"ch_trace_event_t\000"
 2429      72616365 
 2429      5F657665 
 2429      6E745F74 
 2429      00
 2430              	.LASF59:
 2431 0192 66756E63 		.ascii	"func\000"
 2431      00
 2432              	.LASF94:
 2433 0197 4F50544B 		.ascii	"OPTKEYR\000"
 2433      45595200 
 2434              	.LASF15:
 2435 019f 75696E74 		.ascii	"uint16_t\000"
 2435      31365F74 
 2435      00
 2436              	.LASF141:
 2437 01a8 62756666 		.ascii	"buffer\000"
 2437      657200
 2438              	.LASF99:
 2439 01af 504C4C43 		.ascii	"PLLCFGR\000"
 2439      46475200 
 2440              	.LASF160:
 2441 01b7 2E2E2F2E 		.ascii	"../../../../../ChibiOS-RT/os/hal/ports/STM32/STM32F"
 2441      2E2F2E2E 
 2441      2F2E2E2F 
 2441      2E2E2F43 
 2441      68696269 
 2442 01ea 3478782F 		.ascii	"4xx/hal_lld.c\000"
 2442      68616C5F 
 2442      6C6C642E 
 2442      6300
 2443              	.LASF9:
 2444 01f8 5F5F7569 		.ascii	"__uint32_t\000"
 2444      6E743332 
 2444      5F7400
 2445              	.LASF126:
 2446 0203 72656761 		.ascii	"regarm_t\000"
 2446      726D5F74 
 2446      00
 2447              	.LASF88:
 2448 020c 5343425F 		.ascii	"SCB_Type\000"
 2448      54797065 
 2448      00
 2449              	.LASF93:
 2450 0215 4B455952 		.ascii	"KEYR\000"
 2450      00
 2451              	.LASF38:
 2452 021a 77616974 		.ascii	"waiting\000"
 2452      696E6700 
 2453              	.LASF164:
 2454 0222 73746D33 		.ascii	"stm32_clock_init\000"
 2454      325F636C 
 2454      6F636B5F 
 2454      696E6974 
 2454      00
 2455              	.LASF155:
 2456 0233 6D757465 		.ascii	"mutex_t\000"
ARM GAS  /tmp/ccCJHwVb.s 			page 46


 2456      785F7400 
 2457              	.LASF128:
 2458 023b 706F7274 		.ascii	"port_context\000"
 2458      5F636F6E 
 2458      74657874 
 2458      00
 2459              	.LASF26:
 2460 0248 636E745F 		.ascii	"cnt_t\000"
 2460      7400
 2461              	.LASF39:
 2462 024e 6D736771 		.ascii	"msgqueue\000"
 2462      75657565 
 2462      00
 2463              	.LASF0:
 2464 0257 756E7369 		.ascii	"unsigned int\000"
 2464      676E6564 
 2464      20696E74 
 2464      00
 2465              	.LASF158:
 2466 0264 53797374 		.ascii	"SystemCoreClock\000"
 2466      656D436F 
 2466      7265436C 
 2466      6F636B00 
 2467              	.LASF161:
 2468 0274 2F686F6D 		.ascii	"/home/johnnyco/Documentos/Embebidos/Chibios Johnny/"
 2468      652F6A6F 
 2468      686E6E79 
 2468      636F2F44 
 2468      6F63756D 
 2469 02a7 43686962 		.ascii	"ChibiOS-Contrib/testhal/STM32/STM32F4xx/1WIRE + RTC"
 2469      694F532D 
 2469      436F6E74 
 2469      7269622F 
 2469      74657374 
 2470 02da 202B2055 		.ascii	" + UART + PWM + ADC 1.0\000"
 2470      41525420 
 2470      2B205057 
 2470      4D202B20 
 2470      41444320 
 2471              	.LASF149:
 2472 02f2 77747365 		.ascii	"wtsemp\000"
 2472      6D7000
 2473              	.LASF10:
 2474 02f9 6C6F6E67 		.ascii	"long unsigned int\000"
 2474      20756E73 
 2474      69676E65 
 2474      6420696E 
 2474      7400
 2475              	.LASF125:
 2476 030b 5243435F 		.ascii	"RCC_TypeDef\000"
 2476      54797065 
 2476      44656600 
 2477              	.LASF33:
 2478 0317 6E616D65 		.ascii	"name\000"
 2478      00
 2479              	.LASF75:
 2480 031c 56544F52 		.ascii	"VTOR\000"
ARM GAS  /tmp/ccCJHwVb.s 			page 47


 2480      00
 2481              	.LASF81:
 2482 0321 4D4D4641 		.ascii	"MMFAR\000"
 2482      5200
 2483              	.LASF43:
 2484 0327 6D706F6F 		.ascii	"mpool\000"
 2484      6C00
 2485              	.LASF46:
 2486 032d 63685F74 		.ascii	"ch_thread\000"
 2486      68726561 
 2486      6400
 2487              	.LASF124:
 2488 0337 504C4C49 		.ascii	"PLLI2SCFGR\000"
 2488      32534346 
 2488      475200
 2489              	.LASF74:
 2490 0342 49435352 		.ascii	"ICSR\000"
 2490      00
 2491              	.LASF24:
 2492 0347 6D73675F 		.ascii	"msg_t\000"
 2492      7400
 2493              	.LASF76:
 2494 034d 41495243 		.ascii	"AIRCR\000"
 2494      5200
 2495              	.LASF40:
 2496 0353 6570656E 		.ascii	"epending\000"
 2496      64696E67 
 2496      00
 2497              	.LASF91:
 2498 035c 41504232 		.ascii	"APB2FZ\000"
 2498      465A00
 2499              	.LASF67:
 2500 0363 63685F73 		.ascii	"ch_system_t\000"
 2500      79737465 
 2500      6D5F7400 
 2501              	.LASF20:
 2502 036f 746D6F64 		.ascii	"tmode_t\000"
 2502      655F7400 
 2503              	.LASF119:
 2504 0377 41504232 		.ascii	"APB2LPENR\000"
 2504      4C50454E 
 2504      5200
 2505              	.LASF53:
 2506 0381 63685F72 		.ascii	"ch_ready_list\000"
 2506      65616479 
 2506      5F6C6973 
 2506      7400
 2507              	.LASF25:
 2508 038f 6576656E 		.ascii	"eventmask_t\000"
 2508      746D6173 
 2508      6B5F7400 
 2509              	.LASF7:
 2510 039b 5F5F696E 		.ascii	"__int32_t\000"
 2510      7433325F 
 2510      7400
 2511              	.LASF127:
 2512 03a5 73746B61 		.ascii	"stkalign_t\000"
ARM GAS  /tmp/ccCJHwVb.s 			page 48


 2512      6C69676E 
 2512      5F7400
 2513              	.LASF31:
 2514 03b0 6E657765 		.ascii	"newer\000"
 2514      7200
 2515              	.LASF136:
 2516 03b6 72747374 		.ascii	"rtstamp\000"
 2516      616D7000 
 2517              	.LASF56:
 2518 03be 76697274 		.ascii	"virtual_timer_t\000"
 2518      75616C5F 
 2518      74696D65 
 2518      725F7400 
 2519              	.LASF42:
 2520 03ce 7265616C 		.ascii	"realprio\000"
 2520      7072696F 
 2520      00
 2521              	.LASF72:
 2522 03d7 73697A65 		.ascii	"sizetype\000"
 2522      74797065 
 2522      00
 2523              	.LASF44:
 2524 03e0 74687265 		.ascii	"thread_reference_t\000"
 2524      61645F72 
 2524      65666572 
 2524      656E6365 
 2524      5F7400
 2525              	.LASF61:
 2526 03f3 63685F76 		.ascii	"ch_virtual_timers_list\000"
 2526      69727475 
 2526      616C5F74 
 2526      696D6572 
 2526      735F6C69 
 2527              	.LASF29:
 2528 040a 71756575 		.ascii	"queue\000"
 2528      6500
 2529              	.LASF78:
 2530 0410 43465352 		.ascii	"CFSR\000"
 2530      00
 2531              	.LASF139:
 2532 0415 73757370 		.ascii	"suspended\000"
 2532      656E6465 
 2532      6400
 2533              	.LASF109:
 2534 041f 41484233 		.ascii	"AHB3ENR\000"
 2534      454E5200 
 2535              	.LASF162:
 2536 0427 68616C5F 		.ascii	"hal_lld_backup_domain_init\000"
 2536      6C6C645F 
 2536      6261636B 
 2536      75705F64 
 2536      6F6D6169 
 2537              	.LASF115:
 2538 0442 41484232 		.ascii	"AHB2LPENR\000"
 2538      4C50454E 
 2538      5200
 2539              	.LASF144:
ARM GAS  /tmp/ccCJHwVb.s 			page 49


 2540 044c 746D5F63 		.ascii	"tm_calibration_t\000"
 2540      616C6962 
 2540      72617469 
 2540      6F6E5F74 
 2540      00
 2541              	.LASF137:
 2542 045d 74696D65 		.ascii	"time\000"
 2542      00
 2543              	.LASF30:
 2544 0462 7072696F 		.ascii	"prio\000"
 2544      00
 2545              	.LASF104:
 2546 0467 41504231 		.ascii	"APB1RSTR\000"
 2546      52535452 
 2546      00
 2547              	.LASF54:
 2548 0470 63757272 		.ascii	"current\000"
 2548      656E7400 
 2549              	.LASF12:
 2550 0478 5F5F7569 		.ascii	"__uint64_t\000"
 2550      6E743634 
 2550      5F7400
 2551              	.LASF90:
 2552 0483 41504231 		.ascii	"APB1FZ\000"
 2552      465A00
 2553              	.LASF22:
 2554 048a 74726566 		.ascii	"trefs_t\000"
 2554      735F7400 
 2555              	.LASF86:
 2556 0492 52455345 		.ascii	"RESERVED0\000"
 2556      52564544 
 2556      3000
 2557              	.LASF106:
 2558 049c 52455345 		.ascii	"RESERVED1\000"
 2558      52564544 
 2558      3100
 2559              	.LASF110:
 2560 04a6 52455345 		.ascii	"RESERVED2\000"
 2560      52564544 
 2560      3200
 2561              	.LASF113:
 2562 04b0 52455345 		.ascii	"RESERVED3\000"
 2562      52564544 
 2562      3300
 2563              	.LASF117:
 2564 04ba 52455345 		.ascii	"RESERVED4\000"
 2564      52564544 
 2564      3400
 2565              	.LASF120:
 2566 04c4 52455345 		.ascii	"RESERVED5\000"
 2566      52564544 
 2566      3500
 2567              	.LASF134:
 2568 04ce 75736572 		.ascii	"user\000"
 2568      00
 2569              	.LASF23:
 2570 04d3 74707269 		.ascii	"tprio_t\000"
ARM GAS  /tmp/ccCJHwVb.s 			page 50


 2570      6F5F7400 
 2571              	.LASF64:
 2572 04db 63685F73 		.ascii	"ch_system_debug\000"
 2572      79737465 
 2572      6D5F6465 
 2572      62756700 
 2573              	.LASF156:
 2574 04eb 5F426F6F 		.ascii	"_Bool\000"
 2574      6C00
 2575              	.LASF16:
 2576 04f1 696E7433 		.ascii	"int32_t\000"
 2576      325F7400 
 2577              	.LASF2:
 2578 04f9 756E7369 		.ascii	"unsigned char\000"
 2578      676E6564 
 2578      20636861 
 2578      7200
 2579              	.LASF77:
 2580 0507 53484353 		.ascii	"SHCSR\000"
 2580      5200
 2581              	.LASF157:
 2582 050d 49544D5F 		.ascii	"ITM_RxBuffer\000"
 2582      52784275 
 2582      66666572 
 2582      00
 2583              	.LASF3:
 2584 051a 73686F72 		.ascii	"short int\000"
 2584      7420696E 
 2584      7400
 2585              	.LASF62:
 2586 0524 6C617374 		.ascii	"lasttime\000"
 2586      74696D65 
 2586      00
 2587              	.LASF133:
 2588 052d 68616C74 		.ascii	"halt\000"
 2588      00
 2589              	.LASF116:
 2590 0532 41484233 		.ascii	"AHB3LPENR\000"
 2590      4C50454E 
 2590      5200
 2591              	.LASF151:
 2592 053c 65776D61 		.ascii	"ewmask\000"
 2592      736B00
 2593              	.LASF112:
 2594 0543 41504232 		.ascii	"APB2ENR\000"
 2594      454E5200 
 2595              	.LASF132:
 2596 054b 72656173 		.ascii	"reason\000"
 2596      6F6E00
 2597              	.LASF57:
 2598 0552 63685F76 		.ascii	"ch_virtual_timer\000"
 2598      69727475 
 2598      616C5F74 
 2598      696D6572 
 2598      00
 2599              	.LASF152:
 2600 0563 63685F73 		.ascii	"ch_semaphore\000"
ARM GAS  /tmp/ccCJHwVb.s 			page 51


 2600      656D6170 
 2600      686F7265 
 2600      00
 2601              	.LASF92:
 2602 0570 4442474D 		.ascii	"DBGMCU_TypeDef\000"
 2602      43555F54 
 2602      79706544 
 2602      656600
 2603              	.LASF122:
 2604 057f 52455345 		.ascii	"RESERVED6\000"
 2604      52564544 
 2604      3600
 2605              	.LASF17:
 2606 0589 75696E74 		.ascii	"uint32_t\000"
 2606      33325F74 
 2606      00
 2607              	.LASF150:
 2608 0592 77746D74 		.ascii	"wtmtxp\000"
 2608      787000
 2609              	.LASF83:
 2610 0599 41465352 		.ascii	"AFSR\000"
 2610      00
 2611              	.LASF47:
 2612 059e 63685F74 		.ascii	"ch_threads_list\000"
 2612      68726561 
 2612      64735F6C 
 2612      69737400 
 2613              	.LASF154:
 2614 05ae 6F776E65 		.ascii	"owner\000"
 2614      7200
 2615              	.LASF165:
 2616 05b4 646D6149 		.ascii	"dmaInit\000"
 2616      6E697400 
 2617              	.LASF34:
 2618 05bc 77616261 		.ascii	"wabase\000"
 2618      736500
 2619              	.LASF131:
 2620 05c3 63686172 		.ascii	"char\000"
 2620      00
 2621              	.LASF32:
 2622 05c8 6F6C6465 		.ascii	"older\000"
 2622      7200
 2623              	.LASF5:
 2624 05ce 5F5F7569 		.ascii	"__uint16_t\000"
 2624      6E743136 
 2624      5F7400
 2625              	.LASF82:
 2626 05d9 42464152 		.ascii	"BFAR\000"
 2626      00
 2627              	.LASF102:
 2628 05de 41484232 		.ascii	"AHB2RSTR\000"
 2628      52535452 
 2628      00
 2629              	.LASF28:
 2630 05e7 74687265 		.ascii	"thread_t\000"
 2630      61645F74 
 2630      00
ARM GAS  /tmp/ccCJHwVb.s 			page 52


 2631              	.LASF27:
 2632 05f0 73797374 		.ascii	"systime_t\000"
 2632      696D655F 
 2632      7400
 2633              	.LASF55:
 2634 05fa 76746675 		.ascii	"vtfunc_t\000"
 2634      6E635F74 
 2634      00
 2635              	.LASF65:
 2636 0603 70616E69 		.ascii	"panic_msg\000"
 2636      635F6D73 
 2636      6700
 2637              	.LASF80:
 2638 060d 44465352 		.ascii	"DFSR\000"
 2638      00
 2639              	.LASF143:
 2640 0612 6F666673 		.ascii	"offset\000"
 2640      657400
 2641              	.LASF111:
 2642 0619 41504231 		.ascii	"APB1ENR\000"
 2642      454E5200 
 2643              	.LASF98:
 2644 0621 5057525F 		.ascii	"PWR_TypeDef\000"
 2644      54797065 
 2644      44656600 
 2645              	.LASF108:
 2646 062d 41484232 		.ascii	"AHB2ENR\000"
 2646      454E5200 
 2647              	.LASF6:
 2648 0635 73686F72 		.ascii	"short unsigned int\000"
 2648      7420756E 
 2648      7369676E 
 2648      65642069 
 2648      6E7400
 2649              	.LASF163:
 2650 0648 68616C5F 		.ascii	"hal_lld_init\000"
 2650      6C6C645F 
 2650      696E6974 
 2650      00
 2651              	.LASF19:
 2652 0655 7274636E 		.ascii	"rtcnt_t\000"
 2652      745F7400 
 2653              	.LASF159:
 2654 065d 474E5520 		.ascii	"GNU C 4.8.2 -mcpu=cortex-m4 -mno-thumb-interwork -m"
 2654      4320342E 
 2654      382E3220 
 2654      2D6D6370 
 2654      753D636F 
 2655 0690 7468756D 		.ascii	"thumb -ggdb -O2 -fomit-frame-pointer -falign-functi"
 2655      62202D67 
 2655      67646220 
 2655      2D4F3220 
 2655      2D666F6D 
 2656 06c3 6F6E733D 		.ascii	"ons=16 -ffunction-sections -fdata-sections -fno-com"
 2656      3136202D 
 2656      6666756E 
 2656      6374696F 
ARM GAS  /tmp/ccCJHwVb.s 			page 53


 2656      6E2D7365 
 2657 06f6 6D6F6E00 		.ascii	"mon\000"
 2658              	.LASF123:
 2659 06fa 53534347 		.ascii	"SSCGR\000"
 2659      5200
 2660              	.LASF49:
 2661 0700 74687265 		.ascii	"threads_queue_t\000"
 2661      6164735F 
 2661      71756575 
 2661      655F7400 
 2662              	.LASF153:
 2663 0710 63685F6D 		.ascii	"ch_mutex\000"
 2663      75746578 
 2663      00
 2664              	.LASF121:
 2665 0719 42444352 		.ascii	"BDCR\000"
 2665      00
 2666              	.LASF84:
 2667 071e 4D4D4652 		.ascii	"MMFR\000"
 2667      00
 2668              	.LASF69:
 2669 0723 726C6973 		.ascii	"rlist\000"
 2669      7400
 2670              	.LASF14:
 2671 0729 75696E74 		.ascii	"uint8_t\000"
 2671      385F7400 
 2672              	.LASF36:
 2673 0731 666C6167 		.ascii	"flags\000"
 2673      7300
 2674              	.LASF130:
 2675 0737 77746F62 		.ascii	"wtobjp\000"
 2675      6A7000
 2676              	.LASF107:
 2677 073e 41484231 		.ascii	"AHB1ENR\000"
 2677      454E5200 
 2678              	.LASF100:
 2679 0746 43464752 		.ascii	"CFGR\000"
 2679      00
 2680              	.LASF66:
 2681 074b 74726163 		.ascii	"trace_buffer\000"
 2681      655F6275 
 2681      66666572 
 2681      00
 2682              	.LASF87:
 2683 0758 43504143 		.ascii	"CPACR\000"
 2683      5200
 2684              	.LASF79:
 2685 075e 48465352 		.ascii	"HFSR\000"
 2685      00
 2686              	.LASF41:
 2687 0763 6D74786C 		.ascii	"mtxlist\000"
 2687      69737400 
 2688              		.ident	"GCC: (4.8.2-14ubuntu1+6) 4.8.2"
ARM GAS  /tmp/ccCJHwVb.s 			page 54


DEFINED SYMBOLS
                            *ABS*:0000000000000000 hal_lld.c
     /tmp/ccCJHwVb.s:19     .text.hal_lld_init:0000000000000000 $t
     /tmp/ccCJHwVb.s:25     .text.hal_lld_init:0000000000000000 hal_lld_init
     /tmp/ccCJHwVb.s:112    .text.stm32_clock_init:0000000000000000 $t
     /tmp/ccCJHwVb.s:118    .text.stm32_clock_init:0000000000000000 stm32_clock_init
     /tmp/ccCJHwVb.s:284    .data.SystemCoreClock:0000000000000000 SystemCoreClock
     /tmp/ccCJHwVb.s:281    .data.SystemCoreClock:0000000000000000 $d
                     .debug_frame:0000000000000010 $d

UNDEFINED SYMBOLS
dmaInit
