ARM GAS  /tmp/ccZi7sy1.s 			page 1


   1              		.syntax unified
   2              		.cpu cortex-m4
   3              		.fpu softvfp
   4              		.eabi_attribute 20, 1
   5              		.eabi_attribute 21, 1
   6              		.eabi_attribute 23, 3
   7              		.eabi_attribute 24, 1
   8              		.eabi_attribute 25, 1
   9              		.eabi_attribute 26, 1
  10              		.eabi_attribute 30, 2
  11              		.eabi_attribute 34, 1
  12              		.eabi_attribute 18, 4
  13              		.thumb
  14              		.file	"hal_pwm_lld.c"
  15              		.text
  16              	.Ltext0:
  17              		.cfi_sections	.debug_frame
  18              		.section	.text.pwm_lld_init,"ax",%progbits
  19              		.align	2
  20              		.p2align 4,,15
  21              		.global	pwm_lld_init
  22              		.thumb
  23              		.thumb_func
  24              		.type	pwm_lld_init, %function
  25              	pwm_lld_init:
  26              	.LFB273:
  27              		.file 1 "../../../../../ChibiOS-RT/os/hal/ports/STM32/LLD/TIMv1/hal_pwm_lld.c"
  28              		.loc 1 307 0
  29              		.cfi_startproc
  30              		@ args = 0, pretend = 0, frame = 0
  31              		@ frame_needed = 0, uses_anonymous_args = 0
  32 0000 70B5     		push	{r4, r5, r6, lr}
  33              		.cfi_def_cfa_offset 16
  34              		.cfi_offset 4, -16
  35              		.cfi_offset 5, -12
  36              		.cfi_offset 6, -8
  37              		.cfi_offset 14, -4
  38              		.loc 1 311 0
  39 0002 40F20005 		movw	r5, #:lower16:.LANCHOR0
  40 0006 C0F20005 		movt	r5, #:upper16:.LANCHOR0
  41 000a 2846     		mov	r0, r5
  42              		.loc 1 325 0
  43 000c 40F20004 		movw	r4, #:lower16:.LANCHOR1
  44              		.loc 1 311 0
  45 0010 FFF7FEFF 		bl	pwmObjectInit
  46              	.LVL0:
  47              		.loc 1 325 0
  48 0014 C0F20004 		movt	r4, #:upper16:.LANCHOR1
  49              		.loc 1 313 0
  50 0018 0023     		movs	r3, #0
  51 001a C4F20103 		movt	r3, 16385
  52              		.loc 1 312 0
  53 001e 0426     		movs	r6, #4
  54              		.loc 1 325 0
  55 0020 2046     		mov	r0, r4
  56              		.loc 1 313 0
  57 0022 AB61     		str	r3, [r5, #24]
ARM GAS  /tmp/ccZi7sy1.s 			page 2


  58              		.loc 1 312 0
  59 0024 2E74     		strb	r6, [r5, #16]
  60              		.loc 1 325 0
  61 0026 FFF7FEFF 		bl	pwmObjectInit
  62              	.LVL1:
  63              		.loc 1 327 0
  64 002a 4FF48063 		mov	r3, #1024
  65 002e C4F20003 		movt	r3, 16384
  66              		.loc 1 326 0
  67 0032 2674     		strb	r6, [r4, #16]
  68              		.loc 1 327 0
  69 0034 A361     		str	r3, [r4, #24]
  70 0036 70BD     		pop	{r4, r5, r6, pc}
  71              		.cfi_endproc
  72              	.LFE273:
  73              		.size	pwm_lld_init, .-pwm_lld_init
  74 0038 AFF30080 		.section	.text.pwm_lld_start,"ax",%progbits
  74      AFF30080 
  75              		.align	2
  76              		.p2align 4,,15
  77              		.global	pwm_lld_start
  78              		.thumb
  79              		.thumb_func
  80              		.type	pwm_lld_start, %function
  81              	pwm_lld_start:
  82              	.LFB274:
  83              		.loc 1 368 0
  84              		.cfi_startproc
  85              		@ args = 0, pretend = 0, frame = 0
  86              		@ frame_needed = 0, uses_anonymous_args = 0
  87              	.LVL2:
  88              		.loc 1 372 0
  89 0000 0378     		ldrb	r3, [r0]	@ zero_extendqisi2
  90 0002 012B     		cmp	r3, #1
  91              		.loc 1 368 0
  92 0004 70B5     		push	{r4, r5, r6, lr}
  93              		.cfi_def_cfa_offset 16
  94              		.cfi_offset 4, -16
  95              		.cfi_offset 5, -12
  96              		.cfi_offset 6, -8
  97              		.cfi_offset 14, -4
  98              		.loc 1 368 0
  99 0006 0446     		mov	r4, r0
 100              		.loc 1 372 0
 101 0008 4ED0     		beq	.L32
 102              		.loc 1 494 0
 103 000a 8369     		ldr	r3, [r0, #24]
 104 000c 0022     		movs	r2, #0
 105 000e 1A60     		str	r2, [r3]
 106              		.loc 1 495 0
 107 0010 5A63     		str	r2, [r3, #52]
 108              		.loc 1 496 0
 109 0012 9A63     		str	r2, [r3, #56]
 110              		.loc 1 497 0
 111 0014 DA63     		str	r2, [r3, #60]
 112              		.loc 1 498 0
 113 0016 1A64     		str	r2, [r3, #64]
ARM GAS  /tmp/ccZi7sy1.s 			page 3


 114              		.loc 1 505 0
 115 0018 5A62     		str	r2, [r3, #36]
 116              	.LVL3:
 117              	.L6:
 118              		.loc 1 509 0
 119 001a 6268     		ldr	r2, [r4, #4]
 120 001c 6669     		ldr	r6, [r4, #20]
 121 001e 1068     		ldr	r0, [r2]
 122              		.loc 1 519 0
 123 0020 D168     		ldr	r1, [r2, #12]
 124              		.loc 1 514 0
 125 0022 A568     		ldr	r5, [r4, #8]
 126              		.loc 1 515 0
 127 0024 D46A     		ldr	r4, [r2, #44]
 128              	.LVL4:
 129              		.loc 1 509 0
 130 0026 B6FBF0F0 		udiv	r0, r6, r0
 131              		.loc 1 519 0
 132 002a 01F00F01 		and	r1, r1, #15
 133              		.loc 1 509 0
 134 002e 0138     		subs	r0, r0, #1
 135              	.LVL5:
 136              		.loc 1 514 0
 137 0030 013D     		subs	r5, r5, #1
 138              		.loc 1 519 0
 139 0032 0129     		cmp	r1, #1
 140              		.loc 1 513 0
 141 0034 9862     		str	r0, [r3, #40]
 142              		.loc 1 514 0
 143 0036 DD62     		str	r5, [r3, #44]
 144              		.loc 1 515 0
 145 0038 5C60     		str	r4, [r3, #4]
 146              	.LVL6:
 147              		.loc 1 519 0
 148 003a 03D0     		beq	.L7
 149              		.loc 1 518 0
 150 003c 0229     		cmp	r1, #2
 151 003e 0CBF     		ite	eq
 152 0040 0321     		moveq	r1, #3
 153 0042 0021     		movne	r1, #0
 154              	.L7:
 155              	.LVL7:
 156              		.loc 1 527 0
 157 0044 5069     		ldr	r0, [r2, #20]
 158              	.LVL8:
 159 0046 00F00F00 		and	r0, r0, #15
 160 004a 0128     		cmp	r0, #1
 161 004c 29D0     		beq	.L11
 162 004e 0228     		cmp	r0, #2
 163 0050 25D0     		beq	.L33
 164              	.L10:
 165              		.loc 1 535 0
 166 0052 D069     		ldr	r0, [r2, #28]
 167 0054 00F00F00 		and	r0, r0, #15
 168 0058 0128     		cmp	r0, #1
 169 005a 1DD0     		beq	.L14
 170 005c 0228     		cmp	r0, #2
ARM GAS  /tmp/ccZi7sy1.s 			page 4


 171 005e 19D0     		beq	.L34
 172              	.L13:
 173              		.loc 1 543 0
 174 0060 506A     		ldr	r0, [r2, #36]
 175 0062 00F00F00 		and	r0, r0, #15
 176 0066 0128     		cmp	r0, #1
 177 0068 03D0     		beq	.L17
 178 006a 0228     		cmp	r0, #2
 179 006c 03D1     		bne	.L16
 180              		.loc 1 545 0
 181 006e 41F40051 		orr	r1, r1, #8192
 182              	.LVL9:
 183              	.L17:
 184              		.loc 1 547 0
 185 0072 41F48051 		orr	r1, r1, #4096
 186              	.LVL10:
 187              	.L16:
 188              		.loc 1 591 0
 189 0076 106B     		ldr	r0, [r2, #48]
 190              		.loc 1 588 0
 191 0078 1962     		str	r1, [r3, #32]
 192              		.loc 1 591 0
 193 007a 20F0FF00 		bic	r0, r0, #255
 194              		.loc 1 589 0
 195 007e 0125     		movs	r5, #1
 196              		.loc 1 590 0
 197 0080 0024     		movs	r4, #0
 198              		.loc 1 597 0
 199 0082 4FF40041 		mov	r1, #32768
 200              	.LVL11:
 201              		.loc 1 601 0
 202 0086 8522     		movs	r2, #133
 203              	.LVL12:
 204              		.loc 1 589 0
 205 0088 5D61     		str	r5, [r3, #20]
 206              	.LVL13:
 207              		.loc 1 590 0
 208 008a 1C61     		str	r4, [r3, #16]
 209              		.loc 1 591 0
 210 008c D860     		str	r0, [r3, #12]
 211              		.loc 1 597 0
 212 008e 5964     		str	r1, [r3, #68]
 213              		.loc 1 601 0
 214 0090 1A60     		str	r2, [r3]
 215 0092 70BD     		pop	{r4, r5, r6, pc}
 216              	.LVL14:
 217              	.L34:
 218              		.loc 1 537 0
 219 0094 41F40071 		orr	r1, r1, #512
 220              	.LVL15:
 221              	.L14:
 222              		.loc 1 539 0
 223 0098 41F48071 		orr	r1, r1, #256
 224              	.LVL16:
 225 009c E0E7     		b	.L13
 226              	.L33:
 227              		.loc 1 529 0
ARM GAS  /tmp/ccZi7sy1.s 			page 5


 228 009e 41F02001 		orr	r1, r1, #32
 229              	.LVL17:
 230              	.L11:
 231              		.loc 1 531 0
 232 00a2 41F01001 		orr	r1, r1, #16
 233              	.LVL18:
 234 00a6 D4E7     		b	.L10
 235              	.LVL19:
 236              	.L32:
 237              		.loc 1 375 0
 238 00a8 40F20003 		movw	r3, #:lower16:.LANCHOR0
 239 00ac C0F20003 		movt	r3, #:upper16:.LANCHOR0
 240 00b0 9842     		cmp	r0, r3
 241 00b2 0BD0     		beq	.L35
 242              		.loc 1 406 0
 243 00b4 40F20003 		movw	r3, #:lower16:.LANCHOR1
 244 00b8 C0F20003 		movt	r3, #:upper16:.LANCHOR1
 245 00bc 9842     		cmp	r0, r3
 246 00be 21D0     		beq	.L36
 247              	.LVL20:
 248              	.L5:
 249              		.loc 1 483 0
 250 00c0 A369     		ldr	r3, [r4, #24]
 251 00c2 46F66802 		movw	r2, #26728
 252 00c6 9A61     		str	r2, [r3, #24]
 253              		.loc 1 485 0
 254 00c8 DA61     		str	r2, [r3, #28]
 255 00ca A6E7     		b	.L6
 256              	.LVL21:
 257              	.L35:
 258              		.loc 1 376 0
 259 00cc 4FF46053 		mov	r3, #14336
 260 00d0 C4F20203 		movt	r3, 16386
 261              		.loc 1 377 0
 262 00d4 0022     		movs	r2, #0
 263              		.loc 1 376 0
 264 00d6 596C     		ldr	r1, [r3, #68]
 265 00d8 41F00101 		orr	r1, r1, #1
 266 00dc 5964     		str	r1, [r3, #68]
 267              		.loc 1 377 0
 268 00de 596A     		ldr	r1, [r3, #36]
 269 00e0 41F00101 		orr	r1, r1, #1
 270 00e4 5962     		str	r1, [r3, #36]
 271              		.loc 1 379 0
 272 00e6 1920     		movs	r0, #25
 273              	.LVL22:
 274              		.loc 1 377 0
 275 00e8 5A62     		str	r2, [r3, #36]
 276              		.loc 1 379 0
 277 00ea 0721     		movs	r1, #7
 278 00ec FFF7FEFF 		bl	nvicEnableVector
 279              	.LVL23:
 280              		.loc 1 380 0
 281 00f0 1B20     		movs	r0, #27
 282              	.L30:
 283              		.loc 1 410 0
 284 00f2 0721     		movs	r1, #7
ARM GAS  /tmp/ccZi7sy1.s 			page 6


 285 00f4 FFF7FEFF 		bl	nvicEnableVector
 286              	.LVL24:
 287              		.loc 1 415 0
 288 00f8 4FF43D43 		mov	r3, #48384
 289 00fc C0F20153 		movt	r3, 1281
 290 0100 6361     		str	r3, [r4, #20]
 291 0102 DDE7     		b	.L5
 292              	.LVL25:
 293              	.L36:
 294              		.loc 1 407 0
 295 0104 4FF46053 		mov	r3, #14336
 296 0108 C4F20203 		movt	r3, 16386
 297              		.loc 1 408 0
 298 010c 0022     		movs	r2, #0
 299              		.loc 1 407 0
 300 010e 196C     		ldr	r1, [r3, #64]
 301 0110 41F00201 		orr	r1, r1, #2
 302 0114 1964     		str	r1, [r3, #64]
 303              		.loc 1 408 0
 304 0116 196A     		ldr	r1, [r3, #32]
 305 0118 41F00201 		orr	r1, r1, #2
 306 011c 1962     		str	r1, [r3, #32]
 307              		.loc 1 410 0
 308 011e 1D20     		movs	r0, #29
 309              	.LVL26:
 310              		.loc 1 408 0
 311 0120 1A62     		str	r2, [r3, #32]
 312 0122 E6E7     		b	.L30
 313              		.cfi_endproc
 314              	.LFE274:
 315              		.size	pwm_lld_start, .-pwm_lld_start
 316 0124 AFF30080 		.section	.text.pwm_lld_stop,"ax",%progbits
 316      AFF30080 
 316      AFF30080 
 317              		.align	2
 318              		.p2align 4,,15
 319              		.global	pwm_lld_stop
 320              		.thumb
 321              		.thumb_func
 322              		.type	pwm_lld_stop, %function
 323              	pwm_lld_stop:
 324              	.LFB275:
 325              		.loc 1 612 0
 326              		.cfi_startproc
 327              		@ args = 0, pretend = 0, frame = 0
 328              		@ frame_needed = 0, uses_anonymous_args = 0
 329              	.LVL27:
 330 0000 08B5     		push	{r3, lr}
 331              		.cfi_def_cfa_offset 8
 332              		.cfi_offset 3, -8
 333              		.cfi_offset 14, -4
 334              		.loc 1 615 0
 335 0002 0378     		ldrb	r3, [r0]	@ zero_extendqisi2
 336 0004 022B     		cmp	r3, #2
 337 0006 00D0     		beq	.L42
 338              	.LVL28:
 339              	.L37:
ARM GAS  /tmp/ccZi7sy1.s 			page 7


 340 0008 08BD     		pop	{r3, pc}
 341              	.LVL29:
 342              	.L42:
 343              		.loc 1 624 0
 344 000a 40F20001 		movw	r1, #:lower16:.LANCHOR0
 345              		.loc 1 616 0
 346 000e 8369     		ldr	r3, [r0, #24]
 347              		.loc 1 624 0
 348 0010 C0F20001 		movt	r1, #:upper16:.LANCHOR0
 349              		.loc 1 616 0
 350 0014 0022     		movs	r2, #0
 351              		.loc 1 624 0
 352 0016 8842     		cmp	r0, r1
 353              		.loc 1 616 0
 354 0018 1A60     		str	r2, [r3]
 355              		.loc 1 617 0
 356 001a DA60     		str	r2, [r3, #12]
 357              		.loc 1 618 0
 358 001c 1A61     		str	r2, [r3, #16]
 359              		.loc 1 620 0
 360 001e 5A64     		str	r2, [r3, #68]
 361              		.loc 1 624 0
 362 0020 11D0     		beq	.L43
 363              		.loc 1 643 0
 364 0022 40F20003 		movw	r3, #:lower16:.LANCHOR1
 365 0026 C0F20003 		movt	r3, #:upper16:.LANCHOR1
 366 002a 9842     		cmp	r0, r3
 367 002c ECD1     		bne	.L37
 368              		.loc 1 645 0
 369 002e 1D20     		movs	r0, #29
 370              	.LVL30:
 371 0030 FFF7FEFF 		bl	nvicDisableVector
 372              	.LVL31:
 373              		.loc 1 647 0
 374 0034 4FF46053 		mov	r3, #14336
 375 0038 C4F20203 		movt	r3, 16386
 376 003c 1A6C     		ldr	r2, [r3, #64]
 377 003e 22F00202 		bic	r2, r2, #2
 378 0042 1A64     		str	r2, [r3, #64]
 379 0044 E0E7     		b	.L37
 380              	.LVL32:
 381              	.L43:
 382              		.loc 1 626 0
 383 0046 1920     		movs	r0, #25
 384              	.LVL33:
 385 0048 FFF7FEFF 		bl	nvicDisableVector
 386              	.LVL34:
 387              		.loc 1 627 0
 388 004c 1B20     		movs	r0, #27
 389 004e FFF7FEFF 		bl	nvicDisableVector
 390              	.LVL35:
 391              		.loc 1 629 0
 392 0052 4FF46053 		mov	r3, #14336
 393 0056 C4F20203 		movt	r3, 16386
 394 005a 5A6C     		ldr	r2, [r3, #68]
 395 005c 22F00102 		bic	r2, r2, #1
 396 0060 5A64     		str	r2, [r3, #68]
ARM GAS  /tmp/ccZi7sy1.s 			page 8


 397 0062 08BD     		pop	{r3, pc}
 398              		.cfi_endproc
 399              	.LFE275:
 400              		.size	pwm_lld_stop, .-pwm_lld_stop
 401 0064 AFF30080 		.section	.text.pwm_lld_enable_channel,"ax",%progbits
 401      AFF30080 
 401      AFF30080 
 402              		.align	2
 403              		.p2align 4,,15
 404              		.global	pwm_lld_enable_channel
 405              		.thumb
 406              		.thumb_func
 407              		.type	pwm_lld_enable_channel, %function
 408              	pwm_lld_enable_channel:
 409              	.LFB276:
 410              		.loc 1 705 0
 411              		.cfi_startproc
 412              		@ args = 0, pretend = 0, frame = 0
 413              		@ frame_needed = 0, uses_anonymous_args = 0
 414              		@ link register save eliminated.
 415              	.LVL36:
 416              		.loc 1 709 0
 417 0000 8369     		ldr	r3, [r0, #24]
 418 0002 0C31     		adds	r1, r1, #12
 419              	.LVL37:
 420 0004 03EB8103 		add	r3, r3, r1, lsl #2
 421 0008 5A60     		str	r2, [r3, #4]
 422 000a 7047     		bx	lr
 423              		.cfi_endproc
 424              	.LFE276:
 425              		.size	pwm_lld_enable_channel, .-pwm_lld_enable_channel
 426 000c AFF30080 		.section	.text.pwm_lld_disable_channel,"ax",%progbits
 427              		.align	2
 428              		.p2align 4,,15
 429              		.global	pwm_lld_disable_channel
 430              		.thumb
 431              		.thumb_func
 432              		.type	pwm_lld_disable_channel, %function
 433              	pwm_lld_disable_channel:
 434              	.LFB277:
 435              		.loc 1 730 0
 436              		.cfi_startproc
 437              		@ args = 0, pretend = 0, frame = 0
 438              		@ frame_needed = 0, uses_anonymous_args = 0
 439              		@ link register save eliminated.
 440              	.LVL38:
 441              		.loc 1 733 0
 442 0000 8369     		ldr	r3, [r0, #24]
 443 0002 01F10C02 		add	r2, r1, #12
 444 0006 03EB8202 		add	r2, r3, r2, lsl #2
 445 000a 0020     		movs	r0, #0
 446              	.LVL39:
 447 000c 5060     		str	r0, [r2, #4]
 448              		.loc 1 734 0
 449 000e DA68     		ldr	r2, [r3, #12]
 450 0010 0220     		movs	r0, #2
 451 0012 00FA01F1 		lsl	r1, r0, r1
ARM GAS  /tmp/ccZi7sy1.s 			page 9


 452              	.LVL40:
 453 0016 22EA0101 		bic	r1, r2, r1
 454 001a D960     		str	r1, [r3, #12]
 455 001c 7047     		bx	lr
 456              		.cfi_endproc
 457              	.LFE277:
 458              		.size	pwm_lld_disable_channel, .-pwm_lld_disable_channel
 459 001e 00BF     		.section	.text.pwm_lld_enable_periodic_notification,"ax",%progbits
 460              		.align	2
 461              		.p2align 4,,15
 462              		.global	pwm_lld_enable_periodic_notification
 463              		.thumb
 464              		.thumb_func
 465              		.type	pwm_lld_enable_periodic_notification, %function
 466              	pwm_lld_enable_periodic_notification:
 467              	.LFB278:
 468              		.loc 1 754 0
 469              		.cfi_startproc
 470              		@ args = 0, pretend = 0, frame = 0
 471              		@ frame_needed = 0, uses_anonymous_args = 0
 472              		@ link register save eliminated.
 473              	.LVL41:
 474              		.loc 1 755 0
 475 0000 8369     		ldr	r3, [r0, #24]
 476 0002 DA68     		ldr	r2, [r3, #12]
 477              	.LVL42:
 478              		.loc 1 759 0
 479 0004 D107     		lsls	r1, r2, #31
 480              		.loc 1 760 0
 481 0006 5FBF     		itttt	pl
 482 0008 42F00102 		orrpl	r2, r2, #1
 483              	.LVL43:
 484 000c DA60     		strpl	r2, [r3, #12]
 485              		.loc 1 761 0
 486 000e 1A69     		ldrpl	r2, [r3, #16]
 487 0010 02F00102 		andpl	r2, r2, #1
 488 0014 58BF     		it	pl
 489 0016 1A61     		strpl	r2, [r3, #16]
 490 0018 7047     		bx	lr
 491              		.cfi_endproc
 492              	.LFE278:
 493              		.size	pwm_lld_enable_periodic_notification, .-pwm_lld_enable_periodic_notification
 494 001a 00BFAFF3 		.section	.text.pwm_lld_disable_periodic_notification,"ax",%progbits
 494      0080
 495              		.align	2
 496              		.p2align 4,,15
 497              		.global	pwm_lld_disable_periodic_notification
 498              		.thumb
 499              		.thumb_func
 500              		.type	pwm_lld_disable_periodic_notification, %function
 501              	pwm_lld_disable_periodic_notification:
 502              	.LFB279:
 503              		.loc 1 774 0
 504              		.cfi_startproc
 505              		@ args = 0, pretend = 0, frame = 0
 506              		@ frame_needed = 0, uses_anonymous_args = 0
 507              		@ link register save eliminated.
ARM GAS  /tmp/ccZi7sy1.s 			page 10


 508              	.LVL44:
 509              		.loc 1 776 0
 510 0000 8369     		ldr	r3, [r0, #24]
 511 0002 DA68     		ldr	r2, [r3, #12]
 512 0004 22F00102 		bic	r2, r2, #1
 513 0008 DA60     		str	r2, [r3, #12]
 514 000a 7047     		bx	lr
 515              		.cfi_endproc
 516              	.LFE279:
 517              		.size	pwm_lld_disable_periodic_notification, .-pwm_lld_disable_periodic_notification
 518 000c AFF30080 		.section	.text.pwm_lld_enable_channel_notification,"ax",%progbits
 519              		.align	2
 520              		.p2align 4,,15
 521              		.global	pwm_lld_enable_channel_notification
 522              		.thumb
 523              		.thumb_func
 524              		.type	pwm_lld_enable_channel_notification, %function
 525              	pwm_lld_enable_channel_notification:
 526              	.LFB280:
 527              		.loc 1 791 0
 528              		.cfi_startproc
 529              		@ args = 0, pretend = 0, frame = 0
 530              		@ frame_needed = 0, uses_anonymous_args = 0
 531              		@ link register save eliminated.
 532              	.LVL45:
 533              		.loc 1 792 0
 534 0000 8369     		ldr	r3, [r0, #24]
 535              		.loc 1 801 0
 536 0002 0220     		movs	r0, #2
 537              	.LVL46:
 538              		.loc 1 792 0
 539 0004 DA68     		ldr	r2, [r3, #12]
 540              	.LVL47:
 541              		.loc 1 801 0
 542 0006 00FA01F1 		lsl	r1, r0, r1
 543              	.LVL48:
 544 000a 1142     		tst	r1, r2
 545              		.loc 1 802 0
 546 000c 01BF     		itttt	eq
 547 000e 0A43     		orreq	r2, r1, r2
 548              	.LVL49:
 549              		.loc 1 803 0
 550 0010 C943     		mvneq	r1, r1
 551              		.loc 1 802 0
 552 0012 DA60     		streq	r2, [r3, #12]
 553              		.loc 1 803 0
 554 0014 1961     		streq	r1, [r3, #16]
 555 0016 7047     		bx	lr
 556              		.cfi_endproc
 557              	.LFE280:
 558              		.size	pwm_lld_enable_channel_notification, .-pwm_lld_enable_channel_notification
 559 0018 AFF30080 		.section	.text.pwm_lld_disable_channel_notification,"ax",%progbits
 559      AFF30080 
 560              		.align	2
 561              		.p2align 4,,15
 562              		.global	pwm_lld_disable_channel_notification
 563              		.thumb
ARM GAS  /tmp/ccZi7sy1.s 			page 11


 564              		.thumb_func
 565              		.type	pwm_lld_disable_channel_notification, %function
 566              	pwm_lld_disable_channel_notification:
 567              	.LFB281:
 568              		.loc 1 819 0
 569              		.cfi_startproc
 570              		@ args = 0, pretend = 0, frame = 0
 571              		@ frame_needed = 0, uses_anonymous_args = 0
 572              		@ link register save eliminated.
 573              	.LVL50:
 574              		.loc 1 821 0
 575 0000 8369     		ldr	r3, [r0, #24]
 576 0002 0220     		movs	r0, #2
 577              	.LVL51:
 578 0004 DA68     		ldr	r2, [r3, #12]
 579 0006 00FA01F1 		lsl	r1, r0, r1
 580              	.LVL52:
 581 000a 22EA0102 		bic	r2, r2, r1
 582 000e DA60     		str	r2, [r3, #12]
 583 0010 7047     		bx	lr
 584              		.cfi_endproc
 585              	.LFE281:
 586              		.size	pwm_lld_disable_channel_notification, .-pwm_lld_disable_channel_notification
 587 0012 00BFAFF3 		.section	.text.pwm_lld_serve_interrupt,"ax",%progbits
 587      0080AFF3 
 587      0080AFF3 
 587      0080
 588              		.align	2
 589              		.p2align 4,,15
 590              		.global	pwm_lld_serve_interrupt
 591              		.thumb
 592              		.thumb_func
 593              		.type	pwm_lld_serve_interrupt, %function
 594              	pwm_lld_serve_interrupt:
 595              	.LFB282:
 596              		.loc 1 834 0
 597              		.cfi_startproc
 598              		@ args = 0, pretend = 0, frame = 0
 599              		@ frame_needed = 0, uses_anonymous_args = 0
 600              	.LVL53:
 601 0000 38B5     		push	{r3, r4, r5, lr}
 602              		.cfi_def_cfa_offset 16
 603              		.cfi_offset 3, -16
 604              		.cfi_offset 4, -12
 605              		.cfi_offset 5, -8
 606              		.cfi_offset 14, -4
 607              		.loc 1 837 0
 608 0002 8369     		ldr	r3, [r0, #24]
 609 0004 1A69     		ldr	r2, [r3, #16]
 610              	.LVL54:
 611              		.loc 1 838 0
 612 0006 DC68     		ldr	r4, [r3, #12]
 613 0008 1440     		ands	r4, r4, r2
 614              	.LVL55:
 615 000a E2B2     		uxtb	r2, r4
 616              		.loc 1 839 0
 617 000c D243     		mvns	r2, r2
ARM GAS  /tmp/ccZi7sy1.s 			page 12


 618 000e 1A61     		str	r2, [r3, #16]
 619              		.loc 1 840 0
 620 0010 A307     		lsls	r3, r4, #30
 621              		.loc 1 834 0
 622 0012 0546     		mov	r5, r0
 623              		.loc 1 840 0
 624 0014 03D5     		bpl	.L53
 625              		.loc 1 841 0 discriminator 1
 626 0016 4368     		ldr	r3, [r0, #4]
 627 0018 1B69     		ldr	r3, [r3, #16]
 628              		.loc 1 840 0 discriminator 1
 629 001a 03B1     		cbz	r3, .L53
 630              		.loc 1 842 0
 631 001c 9847     		blx	r3
 632              	.LVL56:
 633              	.L53:
 634              		.loc 1 843 0
 635 001e 6107     		lsls	r1, r4, #29
 636 0020 04D5     		bpl	.L54
 637              		.loc 1 844 0 discriminator 1
 638 0022 6B68     		ldr	r3, [r5, #4]
 639 0024 9B69     		ldr	r3, [r3, #24]
 640              		.loc 1 843 0 discriminator 1
 641 0026 0BB1     		cbz	r3, .L54
 642              		.loc 1 845 0
 643 0028 2846     		mov	r0, r5
 644 002a 9847     		blx	r3
 645              	.LVL57:
 646              	.L54:
 647              		.loc 1 846 0
 648 002c 2207     		lsls	r2, r4, #28
 649 002e 04D5     		bpl	.L55
 650              		.loc 1 847 0 discriminator 1
 651 0030 6B68     		ldr	r3, [r5, #4]
 652 0032 1B6A     		ldr	r3, [r3, #32]
 653              		.loc 1 846 0 discriminator 1
 654 0034 0BB1     		cbz	r3, .L55
 655              		.loc 1 848 0
 656 0036 2846     		mov	r0, r5
 657 0038 9847     		blx	r3
 658              	.LVL58:
 659              	.L55:
 660              		.loc 1 849 0
 661 003a E306     		lsls	r3, r4, #27
 662 003c 04D5     		bpl	.L56
 663              		.loc 1 850 0 discriminator 1
 664 003e 6B68     		ldr	r3, [r5, #4]
 665 0040 9B6A     		ldr	r3, [r3, #40]
 666              		.loc 1 849 0 discriminator 1
 667 0042 0BB1     		cbz	r3, .L56
 668              		.loc 1 851 0
 669 0044 2846     		mov	r0, r5
 670 0046 9847     		blx	r3
 671              	.LVL59:
 672              	.L56:
 673              		.loc 1 852 0
 674 0048 E007     		lsls	r0, r4, #31
ARM GAS  /tmp/ccZi7sy1.s 			page 13


 675 004a 04D5     		bpl	.L52
 676              		.loc 1 852 0 is_stmt 0 discriminator 1
 677 004c 6B68     		ldr	r3, [r5, #4]
 678 004e 9B68     		ldr	r3, [r3, #8]
 679 0050 0BB1     		cbz	r3, .L52
 680              		.loc 1 853 0 is_stmt 1
 681 0052 2846     		mov	r0, r5
 682 0054 9847     		blx	r3
 683              	.LVL60:
 684              	.L52:
 685 0056 38BD     		pop	{r3, r4, r5, pc}
 686              		.cfi_endproc
 687              	.LFE282:
 688              		.size	pwm_lld_serve_interrupt, .-pwm_lld_serve_interrupt
 689 0058 AFF30080 		.section	.text.VectorA4,"ax",%progbits
 689      AFF30080 
 690              		.align	2
 691              		.p2align 4,,15
 692              		.global	VectorA4
 693              		.thumb
 694              		.thumb_func
 695              		.type	VectorA4, %function
 696              	VectorA4:
 697              	.LFB270:
 698              		.loc 1 118 0
 699              		.cfi_startproc
 700              		@ args = 0, pretend = 0, frame = 0
 701              		@ frame_needed = 0, uses_anonymous_args = 0
 702 0000 10B5     		push	{r4, lr}
 703              		.cfi_def_cfa_offset 8
 704              		.cfi_offset 4, -8
 705              		.cfi_offset 14, -4
 706              		.loc 1 120 0
 707 0002 40F20004 		movw	r4, #:lower16:.LANCHOR2
 708 0006 C0F20004 		movt	r4, #:upper16:.LANCHOR2
 709 000a 2046     		mov	r0, r4
 710 000c FFF7FEFF 		bl	_trace_isr_enter
 711              	.LVL61:
 712              		.loc 1 122 0
 713 0010 40F20000 		movw	r0, #:lower16:.LANCHOR0
 714 0014 C0F20000 		movt	r0, #:upper16:.LANCHOR0
 715 0018 FFF7FEFF 		bl	pwm_lld_serve_interrupt
 716              	.LVL62:
 717              		.loc 1 124 0
 718 001c 2046     		mov	r0, r4
 719 001e FFF7FEFF 		bl	_trace_isr_leave
 720              	.LVL63:
 721              		.loc 1 125 0
 722 0022 BDE81040 		pop	{r4, lr}
 723              		.loc 1 124 0
 724 0026 FFF7FEBF 		b	_port_irq_epilogue
 725              	.LVL64:
 726              		.cfi_endproc
 727              	.LFE270:
 728              		.size	VectorA4, .-VectorA4
 729 002a 00BFAFF3 		.section	.text.VectorAC,"ax",%progbits
 729      0080
ARM GAS  /tmp/ccZi7sy1.s 			page 14


 730              		.align	2
 731              		.p2align 4,,15
 732              		.global	VectorAC
 733              		.thumb
 734              		.thumb_func
 735              		.type	VectorAC, %function
 736              	VectorAC:
 737              	.LFB271:
 738              		.loc 1 138 0
 739              		.cfi_startproc
 740              		@ args = 0, pretend = 0, frame = 0
 741              		@ frame_needed = 0, uses_anonymous_args = 0
 742 0000 10B5     		push	{r4, lr}
 743              		.cfi_def_cfa_offset 8
 744              		.cfi_offset 4, -8
 745              		.cfi_offset 14, -4
 746              		.loc 1 140 0
 747 0002 40F20004 		movw	r4, #:lower16:.LANCHOR3
 748 0006 C0F20004 		movt	r4, #:upper16:.LANCHOR3
 749 000a 2046     		mov	r0, r4
 750 000c FFF7FEFF 		bl	_trace_isr_enter
 751              	.LVL65:
 752              		.loc 1 142 0
 753 0010 40F20000 		movw	r0, #:lower16:.LANCHOR0
 754 0014 C0F20000 		movt	r0, #:upper16:.LANCHOR0
 755 0018 FFF7FEFF 		bl	pwm_lld_serve_interrupt
 756              	.LVL66:
 757              		.loc 1 144 0
 758 001c 2046     		mov	r0, r4
 759 001e FFF7FEFF 		bl	_trace_isr_leave
 760              	.LVL67:
 761              		.loc 1 145 0
 762 0022 BDE81040 		pop	{r4, lr}
 763              		.loc 1 144 0
 764 0026 FFF7FEBF 		b	_port_irq_epilogue
 765              	.LVL68:
 766              		.cfi_endproc
 767              	.LFE271:
 768              		.size	VectorAC, .-VectorAC
 769 002a 00BFAFF3 		.section	.text.VectorB4,"ax",%progbits
 769      0080
 770              		.align	2
 771              		.p2align 4,,15
 772              		.global	VectorB4
 773              		.thumb
 774              		.thumb_func
 775              		.type	VectorB4, %function
 776              	VectorB4:
 777              	.LFB272:
 778              		.loc 1 180 0
 779              		.cfi_startproc
 780              		@ args = 0, pretend = 0, frame = 0
 781              		@ frame_needed = 0, uses_anonymous_args = 0
 782 0000 10B5     		push	{r4, lr}
 783              		.cfi_def_cfa_offset 8
 784              		.cfi_offset 4, -8
 785              		.cfi_offset 14, -4
ARM GAS  /tmp/ccZi7sy1.s 			page 15


 786              		.loc 1 182 0
 787 0002 40F20004 		movw	r4, #:lower16:.LANCHOR4
 788 0006 C0F20004 		movt	r4, #:upper16:.LANCHOR4
 789 000a 2046     		mov	r0, r4
 790 000c FFF7FEFF 		bl	_trace_isr_enter
 791              	.LVL69:
 792              		.loc 1 184 0
 793 0010 40F20000 		movw	r0, #:lower16:.LANCHOR1
 794 0014 C0F20000 		movt	r0, #:upper16:.LANCHOR1
 795 0018 FFF7FEFF 		bl	pwm_lld_serve_interrupt
 796              	.LVL70:
 797              		.loc 1 186 0
 798 001c 2046     		mov	r0, r4
 799 001e FFF7FEFF 		bl	_trace_isr_leave
 800              	.LVL71:
 801              		.loc 1 187 0
 802 0022 BDE81040 		pop	{r4, lr}
 803              		.loc 1 186 0
 804 0026 FFF7FEBF 		b	_port_irq_epilogue
 805              	.LVL72:
 806              		.cfi_endproc
 807              	.LFE272:
 808              		.size	VectorB4, .-VectorB4
 809              		.global	PWMD3
 810              		.global	PWMD1
 811 002a 00BFAFF3 		.section	.rodata.__func__.7600,"a",%progbits
 811      0080
 812              		.align	2
 813              		.set	.LANCHOR4,. + 0
 814              		.type	__func__.7600, %object
 815              		.size	__func__.7600, 9
 816              	__func__.7600:
 817 0000 56656374 		.ascii	"VectorB4\000"
 817      6F724234 
 817      00
 818 0009 000000   		.section	.bss.PWMD1,"aw",%nobits
 819              		.align	2
 820              		.set	.LANCHOR0,. + 0
 821              		.type	PWMD1, %object
 822              		.size	PWMD1, 28
 823              	PWMD1:
 824 0000 00000000 		.space	28
 824      00000000 
 824      00000000 
 824      00000000 
 824      00000000 
 825              		.section	.bss.PWMD3,"aw",%nobits
 826              		.align	2
 827              		.set	.LANCHOR1,. + 0
 828              		.type	PWMD3, %object
 829              		.size	PWMD3, 28
 830              	PWMD3:
 831 0000 00000000 		.space	28
 831      00000000 
 831      00000000 
 831      00000000 
 831      00000000 
ARM GAS  /tmp/ccZi7sy1.s 			page 16


 832              		.section	.rodata.__func__.7592,"a",%progbits
 833              		.align	2
 834              		.set	.LANCHOR2,. + 0
 835              		.type	__func__.7592, %object
 836              		.size	__func__.7592, 9
 837              	__func__.7592:
 838 0000 56656374 		.ascii	"VectorA4\000"
 838      6F724134 
 838      00
 839 0009 000000   		.section	.rodata.__func__.7596,"a",%progbits
 840              		.align	2
 841              		.set	.LANCHOR3,. + 0
 842              		.type	__func__.7596, %object
 843              		.size	__func__.7596, 9
 844              	__func__.7596:
 845 0000 56656374 		.ascii	"VectorAC\000"
 845      6F724143 
 845      00
 846 0009 000000   		.text
 847              	.Letext0:
 848              		.file 2 "/usr/include/newlib/machine/_default_types.h"
 849              		.file 3 "/usr/include/newlib/stdint.h"
 850              		.file 4 "../../../../../ChibiOS-RT/os/common/ports/ARMCMx/compilers/GCC/chtypes.h"
 851              		.file 5 "../../../../../ChibiOS-RT/os/rt/include/chsystypes.h"
 852              		.file 6 "../../../../../ChibiOS-RT/os/rt/include/chschd.h"
 853              		.file 7 "../../../../../ChibiOS-RT/os/common/ext/CMSIS/ST/STM32F4xx/stm32f401xe.h"
 854              		.file 8 "../../../../../ChibiOS-RT/os/common/ports/ARMCMx/chcore.h"
 855              		.file 9 "../../../../../ChibiOS-RT/os/common/ports/ARMCMx/chcore_v7m.h"
 856              		.file 10 "../../../../../ChibiOS-RT/os/hal/ports/STM32/LLD/TIMv1/stm32_tim.h"
 857              		.file 11 "../../../../../ChibiOS-RT/os/rt/include/chtrace.h"
 858              		.file 12 "../../../../../ChibiOS-RT/os/rt/include/chtm.h"
 859              		.file 13 "../../../../../ChibiOS-RT/os/rt/include/chsem.h"
 860              		.file 14 "../../../../../ChibiOS-RT/os/rt/include/chmtx.h"
 861              		.file 15 "../../../../../ChibiOS-RT/os/hal/include/hal_pwm.h"
 862              		.file 16 "../../../../../ChibiOS-RT/os/hal/ports/STM32/LLD/TIMv1/hal_pwm_lld.h"
 863              		.file 17 "../../../../../ChibiOS-RT/os/common/ext/CMSIS/include/core_cm4.h"
 864              		.file 18 "../../../../../ChibiOS-RT/os/hal/ports/common/ARMCMx/nvic.h"
 865              		.section	.debug_info,"",%progbits
 866              	.Ldebug_info0:
 867 0000 F3100000 		.4byte	0x10f3
 868 0004 0400     		.2byte	0x4
 869 0006 00000000 		.4byte	.Ldebug_abbrev0
 870 000a 04       		.byte	0x4
 871 000b 01       		.uleb128 0x1
 872 000c CC000000 		.4byte	.LASF189
 873 0010 01       		.byte	0x1
 874 0011 B8080000 		.4byte	.LASF190
 875 0015 A1030000 		.4byte	.LASF191
 876 0019 00000000 		.4byte	.Ldebug_ranges0+0
 877 001d 00000000 		.4byte	0
 878 0021 00000000 		.4byte	.Ldebug_line0
 879 0025 02       		.uleb128 0x2
 880 0026 04       		.byte	0x4
 881 0027 07       		.byte	0x7
 882 0028 82030000 		.4byte	.LASF0
 883 002c 03       		.uleb128 0x3
 884 002d 04       		.byte	0x4
ARM GAS  /tmp/ccZi7sy1.s 			page 17


 885 002e 05       		.byte	0x5
 886 002f 696E7400 		.ascii	"int\000"
 887 0033 02       		.uleb128 0x2
 888 0034 01       		.byte	0x1
 889 0035 06       		.byte	0x6
 890 0036 34020000 		.4byte	.LASF1
 891 003a 04       		.uleb128 0x4
 892 003b 6B000000 		.4byte	.LASF4
 893 003f 02       		.byte	0x2
 894 0040 1C       		.byte	0x1c
 895 0041 45000000 		.4byte	0x45
 896 0045 02       		.uleb128 0x2
 897 0046 01       		.byte	0x1
 898 0047 08       		.byte	0x8
 899 0048 97060000 		.4byte	.LASF2
 900 004c 02       		.uleb128 0x2
 901 004d 02       		.byte	0x2
 902 004e 05       		.byte	0x5
 903 004f B2060000 		.4byte	.LASF3
 904 0053 04       		.uleb128 0x4
 905 0054 7E070000 		.4byte	.LASF5
 906 0058 02       		.byte	0x2
 907 0059 26       		.byte	0x26
 908 005a 5E000000 		.4byte	0x5e
 909 005e 02       		.uleb128 0x2
 910 005f 02       		.byte	0x2
 911 0060 07       		.byte	0x7
 912 0061 E0070000 		.4byte	.LASF6
 913 0065 04       		.uleb128 0x4
 914 0066 13050000 		.4byte	.LASF7
 915 006a 02       		.byte	0x2
 916 006b 37       		.byte	0x37
 917 006c 70000000 		.4byte	0x70
 918 0070 02       		.uleb128 0x2
 919 0071 04       		.byte	0x4
 920 0072 05       		.byte	0x5
 921 0073 6F020000 		.4byte	.LASF8
 922 0077 04       		.uleb128 0x4
 923 0078 21030000 		.4byte	.LASF9
 924 007c 02       		.byte	0x2
 925 007d 38       		.byte	0x38
 926 007e 82000000 		.4byte	0x82
 927 0082 02       		.uleb128 0x2
 928 0083 04       		.byte	0x4
 929 0084 07       		.byte	0x7
 930 0085 26040000 		.4byte	.LASF10
 931 0089 02       		.uleb128 0x2
 932 008a 08       		.byte	0x8
 933 008b 05       		.byte	0x5
 934 008c E1020000 		.4byte	.LASF11
 935 0090 04       		.uleb128 0x4
 936 0091 ED050000 		.4byte	.LASF12
 937 0095 02       		.byte	0x2
 938 0096 4E       		.byte	0x4e
 939 0097 9B000000 		.4byte	0x9b
 940 009b 02       		.uleb128 0x2
 941 009c 08       		.byte	0x8
ARM GAS  /tmp/ccZi7sy1.s 			page 18


 942 009d 07       		.byte	0x7
 943 009e 69010000 		.4byte	.LASF13
 944 00a2 04       		.uleb128 0x4
 945 00a3 59080000 		.4byte	.LASF14
 946 00a7 03       		.byte	0x3
 947 00a8 2A       		.byte	0x2a
 948 00a9 3A000000 		.4byte	0x3a
 949 00ad 04       		.uleb128 0x4
 950 00ae EF020000 		.4byte	.LASF15
 951 00b2 03       		.byte	0x3
 952 00b3 36       		.byte	0x36
 953 00b4 53000000 		.4byte	0x53
 954 00b8 04       		.uleb128 0x4
 955 00b9 8F060000 		.4byte	.LASF16
 956 00bd 03       		.byte	0x3
 957 00be 41       		.byte	0x41
 958 00bf 65000000 		.4byte	0x65
 959 00c3 04       		.uleb128 0x4
 960 00c4 4B070000 		.4byte	.LASF17
 961 00c8 03       		.byte	0x3
 962 00c9 42       		.byte	0x42
 963 00ca 77000000 		.4byte	0x77
 964 00ce 04       		.uleb128 0x4
 965 00cf 59000000 		.4byte	.LASF18
 966 00d3 03       		.byte	0x3
 967 00d4 4E       		.byte	0x4e
 968 00d5 90000000 		.4byte	0x90
 969 00d9 04       		.uleb128 0x4
 970 00da 10080000 		.4byte	.LASF19
 971 00de 04       		.byte	0x4
 972 00df 39       		.byte	0x39
 973 00e0 C3000000 		.4byte	0xc3
 974 00e4 04       		.uleb128 0x4
 975 00e5 A3080000 		.4byte	.LASF20
 976 00e9 04       		.byte	0x4
 977 00ea 3C       		.byte	0x3c
 978 00eb A2000000 		.4byte	0xa2
 979 00ef 04       		.uleb128 0x4
 980 00f0 BD020000 		.4byte	.LASF21
 981 00f4 04       		.byte	0x4
 982 00f5 3D       		.byte	0x3d
 983 00f6 A2000000 		.4byte	0xa2
 984 00fa 04       		.uleb128 0x4
 985 00fb 1E060000 		.4byte	.LASF22
 986 00ff 04       		.byte	0x4
 987 0100 3E       		.byte	0x3e
 988 0101 A2000000 		.4byte	0xa2
 989 0105 04       		.uleb128 0x4
 990 0106 71060000 		.4byte	.LASF23
 991 010a 04       		.byte	0x4
 992 010b 40       		.byte	0x40
 993 010c C3000000 		.4byte	0xc3
 994 0110 04       		.uleb128 0x4
 995 0111 75040000 		.4byte	.LASF24
 996 0115 04       		.byte	0x4
 997 0116 41       		.byte	0x41
 998 0117 B8000000 		.4byte	0xb8
ARM GAS  /tmp/ccZi7sy1.s 			page 19


 999 011b 04       		.uleb128 0x4
 1000 011c DD040000 		.4byte	.LASF25
 1001 0120 04       		.byte	0x4
 1002 0121 43       		.byte	0x43
 1003 0122 C3000000 		.4byte	0xc3
 1004 0126 04       		.uleb128 0x4
 1005 0127 73030000 		.4byte	.LASF26
 1006 012b 04       		.byte	0x4
 1007 012c 45       		.byte	0x45
 1008 012d B8000000 		.4byte	0xb8
 1009 0131 04       		.uleb128 0x4
 1010 0132 AC070000 		.4byte	.LASF27
 1011 0136 05       		.byte	0x5
 1012 0137 33       		.byte	0x33
 1013 0138 C3000000 		.4byte	0xc3
 1014 013c 04       		.uleb128 0x4
 1015 013d A3070000 		.4byte	.LASF28
 1016 0141 05       		.byte	0x5
 1017 0142 3F       		.byte	0x3f
 1018 0143 47010000 		.4byte	0x147
 1019 0147 05       		.uleb128 0x5
 1020 0148 44040000 		.4byte	.LASF46
 1021 014c 44       		.byte	0x44
 1022 014d 06       		.byte	0x6
 1023 014e 9A       		.byte	0x9a
 1024 014f 25020000 		.4byte	0x225
 1025 0153 06       		.uleb128 0x6
 1026 0154 53040000 		.4byte	.LASF29
 1027 0158 06       		.byte	0x6
 1028 0159 9B       		.byte	0x9b
 1029 015a 5A020000 		.4byte	0x25a
 1030 015e 00       		.byte	0
 1031 015f 06       		.uleb128 0x6
 1032 0160 D7050000 		.4byte	.LASF30
 1033 0164 06       		.byte	0x6
 1034 0165 9C       		.byte	0x9c
 1035 0166 05010000 		.4byte	0x105
 1036 016a 08       		.byte	0x8
 1037 016b 07       		.uleb128 0x7
 1038 016c 63747800 		.ascii	"ctx\000"
 1039 0170 06       		.byte	0x6
 1040 0171 9D       		.byte	0x9d
 1041 0172 23060000 		.4byte	0x623
 1042 0176 0C       		.byte	0xc
 1043 0177 06       		.uleb128 0x6
 1044 0178 2D050000 		.4byte	.LASF31
 1045 017c 06       		.byte	0x6
 1046 017d 9F       		.byte	0x9f
 1047 017e 30020000 		.4byte	0x230
 1048 0182 10       		.byte	0x10
 1049 0183 06       		.uleb128 0x6
 1050 0184 15030000 		.4byte	.LASF32
 1051 0188 06       		.byte	0x6
 1052 0189 A0       		.byte	0xa0
 1053 018a 30020000 		.4byte	0x230
 1054 018e 14       		.byte	0x14
 1055 018f 06       		.uleb128 0x6
ARM GAS  /tmp/ccZi7sy1.s 			page 20


 1056 0190 4E040000 		.4byte	.LASF33
 1057 0194 06       		.byte	0x6
 1058 0195 A7       		.byte	0xa7
 1059 0196 15080000 		.4byte	0x815
 1060 019a 18       		.byte	0x18
 1061 019b 06       		.uleb128 0x6
 1062 019c 69070000 		.4byte	.LASF34
 1063 01a0 06       		.byte	0x6
 1064 01a1 B0       		.byte	0xb0
 1065 01a2 2E0A0000 		.4byte	0xa2e
 1066 01a6 1C       		.byte	0x1c
 1067 01a7 06       		.uleb128 0x6
 1068 01a8 60020000 		.4byte	.LASF35
 1069 01ac 06       		.byte	0x6
 1070 01ad B5       		.byte	0xb5
 1071 01ae EF000000 		.4byte	0xef
 1072 01b2 20       		.byte	0x20
 1073 01b3 06       		.uleb128 0x6
 1074 01b4 6B080000 		.4byte	.LASF36
 1075 01b8 06       		.byte	0x6
 1076 01b9 B9       		.byte	0xb9
 1077 01ba E4000000 		.4byte	0xe4
 1078 01be 21       		.byte	0x21
 1079 01bf 06       		.uleb128 0x6
 1080 01c0 1D020000 		.4byte	.LASF37
 1081 01c4 06       		.byte	0x6
 1082 01c5 BE       		.byte	0xbe
 1083 01c6 FA000000 		.4byte	0xfa
 1084 01ca 22       		.byte	0x22
 1085 01cb 08       		.uleb128 0x8
 1086 01cc 7500     		.ascii	"u\000"
 1087 01ce 06       		.byte	0x6
 1088 01cf 0F01     		.2byte	0x10f
 1089 01d1 63090000 		.4byte	0x963
 1090 01d5 24       		.byte	0x24
 1091 01d6 09       		.uleb128 0x9
 1092 01d7 35030000 		.4byte	.LASF38
 1093 01db 06       		.byte	0x6
 1094 01dc 1401     		.2byte	0x114
 1095 01de 36020000 		.4byte	0x236
 1096 01e2 28       		.byte	0x28
 1097 01e3 09       		.uleb128 0x9
 1098 01e4 79030000 		.4byte	.LASF39
 1099 01e8 06       		.byte	0x6
 1100 01e9 1A01     		.2byte	0x11a
 1101 01eb 5A020000 		.4byte	0x25a
 1102 01ef 2C       		.byte	0x2c
 1103 01f0 09       		.uleb128 0x9
 1104 01f1 8B040000 		.4byte	.LASF40
 1105 01f5 06       		.byte	0x6
 1106 01f6 2001     		.2byte	0x120
 1107 01f8 1B010000 		.4byte	0x11b
 1108 01fc 34       		.byte	0x34
 1109 01fd 09       		.uleb128 0x9
 1110 01fe 03090000 		.4byte	.LASF41
 1111 0202 06       		.byte	0x6
 1112 0203 2701     		.2byte	0x127
ARM GAS  /tmp/ccZi7sy1.s 			page 21


 1113 0205 280A0000 		.4byte	0xa28
 1114 0209 38       		.byte	0x38
 1115 020a 09       		.uleb128 0x9
 1116 020b 4B050000 		.4byte	.LASF42
 1117 020f 06       		.byte	0x6
 1118 0210 2B01     		.2byte	0x12b
 1119 0212 05010000 		.4byte	0x105
 1120 0216 3C       		.byte	0x3c
 1121 0217 09       		.uleb128 0x9
 1122 0218 5F040000 		.4byte	.LASF43
 1123 021c 06       		.byte	0x6
 1124 021d 3201     		.2byte	0x132
 1125 021f 0D030000 		.4byte	0x30d
 1126 0223 40       		.byte	0x40
 1127 0224 00       		.byte	0
 1128 0225 04       		.uleb128 0x4
 1129 0226 5D050000 		.4byte	.LASF44
 1130 022a 05       		.byte	0x5
 1131 022b 44       		.byte	0x44
 1132 022c 30020000 		.4byte	0x230
 1133 0230 0A       		.uleb128 0xa
 1134 0231 04       		.byte	0x4
 1135 0232 3C010000 		.4byte	0x13c
 1136 0236 04       		.uleb128 0x4
 1137 0237 00000000 		.4byte	.LASF45
 1138 023b 05       		.byte	0x5
 1139 023c 49       		.byte	0x49
 1140 023d 41020000 		.4byte	0x241
 1141 0241 05       		.uleb128 0x5
 1142 0242 7B040000 		.4byte	.LASF47
 1143 0246 04       		.byte	0x4
 1144 0247 06       		.byte	0x6
 1145 0248 88       		.byte	0x88
 1146 0249 5A020000 		.4byte	0x25a
 1147 024d 06       		.uleb128 0x6
 1148 024e 99080000 		.4byte	.LASF48
 1149 0252 06       		.byte	0x6
 1150 0253 89       		.byte	0x89
 1151 0254 30020000 		.4byte	0x230
 1152 0258 00       		.byte	0
 1153 0259 00       		.byte	0
 1154 025a 04       		.uleb128 0x4
 1155 025b 35080000 		.4byte	.LASF49
 1156 025f 05       		.byte	0x5
 1157 0260 50       		.byte	0x50
 1158 0261 65020000 		.4byte	0x265
 1159 0265 05       		.uleb128 0x5
 1160 0266 86000000 		.4byte	.LASF50
 1161 026a 08       		.byte	0x8
 1162 026b 06       		.byte	0x6
 1163 026c 8F       		.byte	0x8f
 1164 026d 8A020000 		.4byte	0x28a
 1165 0271 06       		.uleb128 0x6
 1166 0272 99080000 		.4byte	.LASF48
 1167 0276 06       		.byte	0x6
 1168 0277 90       		.byte	0x90
 1169 0278 30020000 		.4byte	0x230
ARM GAS  /tmp/ccZi7sy1.s 			page 22


 1170 027c 00       		.byte	0
 1171 027d 06       		.uleb128 0x6
 1172 027e 75000000 		.4byte	.LASF51
 1173 0282 06       		.byte	0x6
 1174 0283 91       		.byte	0x91
 1175 0284 30020000 		.4byte	0x230
 1176 0288 04       		.byte	0x4
 1177 0289 00       		.byte	0
 1178 028a 04       		.uleb128 0x4
 1179 028b 1C000000 		.4byte	.LASF52
 1180 028f 05       		.byte	0x5
 1181 0290 57       		.byte	0x57
 1182 0291 95020000 		.4byte	0x295
 1183 0295 0B       		.uleb128 0xb
 1184 0296 CF040000 		.4byte	.LASF53
 1185 029a 1C       		.byte	0x1c
 1186 029b 06       		.byte	0x6
 1187 029c 6A01     		.2byte	0x16a
 1188 029e F1020000 		.4byte	0x2f1
 1189 02a2 09       		.uleb128 0x9
 1190 02a3 53040000 		.4byte	.LASF29
 1191 02a7 06       		.byte	0x6
 1192 02a8 6B01     		.2byte	0x16b
 1193 02aa 5A020000 		.4byte	0x25a
 1194 02ae 00       		.byte	0
 1195 02af 09       		.uleb128 0x9
 1196 02b0 D7050000 		.4byte	.LASF30
 1197 02b4 06       		.byte	0x6
 1198 02b5 6C01     		.2byte	0x16c
 1199 02b7 05010000 		.4byte	0x105
 1200 02bb 08       		.byte	0x8
 1201 02bc 08       		.uleb128 0x8
 1202 02bd 63747800 		.ascii	"ctx\000"
 1203 02c1 06       		.byte	0x6
 1204 02c2 6E01     		.2byte	0x16e
 1205 02c4 23060000 		.4byte	0x623
 1206 02c8 0C       		.byte	0xc
 1207 02c9 09       		.uleb128 0x9
 1208 02ca 2D050000 		.4byte	.LASF31
 1209 02ce 06       		.byte	0x6
 1210 02cf 7101     		.2byte	0x171
 1211 02d1 30020000 		.4byte	0x230
 1212 02d5 10       		.byte	0x10
 1213 02d6 09       		.uleb128 0x9
 1214 02d7 15030000 		.4byte	.LASF32
 1215 02db 06       		.byte	0x6
 1216 02dc 7201     		.2byte	0x172
 1217 02de 30020000 		.4byte	0x230
 1218 02e2 14       		.byte	0x14
 1219 02e3 09       		.uleb128 0x9
 1220 02e4 E5050000 		.4byte	.LASF54
 1221 02e8 06       		.byte	0x6
 1222 02e9 7501     		.2byte	0x175
 1223 02eb 30020000 		.4byte	0x230
 1224 02ef 18       		.byte	0x18
 1225 02f0 00       		.byte	0
 1226 02f1 04       		.uleb128 0x4
ARM GAS  /tmp/ccZi7sy1.s 			page 23


 1227 02f2 B6070000 		.4byte	.LASF55
 1228 02f6 05       		.byte	0x5
 1229 02f7 5C       		.byte	0x5c
 1230 02f8 FC020000 		.4byte	0x2fc
 1231 02fc 0A       		.uleb128 0xa
 1232 02fd 04       		.byte	0x4
 1233 02fe 02030000 		.4byte	0x302
 1234 0302 0C       		.uleb128 0xc
 1235 0303 0D030000 		.4byte	0x30d
 1236 0307 0D       		.uleb128 0xd
 1237 0308 0D030000 		.4byte	0x30d
 1238 030c 00       		.byte	0
 1239 030d 0E       		.uleb128 0xe
 1240 030e 04       		.byte	0x4
 1241 030f 04       		.uleb128 0x4
 1242 0310 3B050000 		.4byte	.LASF56
 1243 0314 05       		.byte	0x5
 1244 0315 61       		.byte	0x61
 1245 0316 1A030000 		.4byte	0x31a
 1246 031a 0B       		.uleb128 0xb
 1247 031b 11070000 		.4byte	.LASF57
 1248 031f 14       		.byte	0x14
 1249 0320 06       		.byte	0x6
 1250 0321 4501     		.2byte	0x145
 1251 0323 69030000 		.4byte	0x369
 1252 0327 09       		.uleb128 0x9
 1253 0328 99080000 		.4byte	.LASF48
 1254 032c 06       		.byte	0x6
 1255 032d 4601     		.2byte	0x146
 1256 032f 340A0000 		.4byte	0xa34
 1257 0333 00       		.byte	0
 1258 0334 09       		.uleb128 0x9
 1259 0335 75000000 		.4byte	.LASF51
 1260 0339 06       		.byte	0x6
 1261 033a 4701     		.2byte	0x147
 1262 033c 340A0000 		.4byte	0xa34
 1263 0340 04       		.byte	0x4
 1264 0341 09       		.uleb128 0x9
 1265 0342 4C000000 		.4byte	.LASF58
 1266 0346 06       		.byte	0x6
 1267 0347 4801     		.2byte	0x148
 1268 0349 31010000 		.4byte	0x131
 1269 034d 08       		.byte	0x8
 1270 034e 09       		.uleb128 0x9
 1271 034f D7020000 		.4byte	.LASF59
 1272 0353 06       		.byte	0x6
 1273 0354 4901     		.2byte	0x149
 1274 0356 F1020000 		.4byte	0x2f1
 1275 035a 0C       		.byte	0xc
 1276 035b 08       		.uleb128 0x8
 1277 035c 70617200 		.ascii	"par\000"
 1278 0360 06       		.byte	0x6
 1279 0361 4B01     		.2byte	0x14b
 1280 0363 0D030000 		.4byte	0x30d
 1281 0367 10       		.byte	0x10
 1282 0368 00       		.byte	0
 1283 0369 04       		.uleb128 0x4
ARM GAS  /tmp/ccZi7sy1.s 			page 24


 1284 036a AE010000 		.4byte	.LASF60
 1285 036e 05       		.byte	0x5
 1286 036f 66       		.byte	0x66
 1287 0370 74030000 		.4byte	0x374
 1288 0374 0B       		.uleb128 0xb
 1289 0375 70050000 		.4byte	.LASF61
 1290 0379 10       		.byte	0x10
 1291 037a 06       		.byte	0x6
 1292 037b 5501     		.2byte	0x155
 1293 037d B6030000 		.4byte	0x3b6
 1294 0381 09       		.uleb128 0x9
 1295 0382 99080000 		.4byte	.LASF48
 1296 0386 06       		.byte	0x6
 1297 0387 5601     		.2byte	0x156
 1298 0389 340A0000 		.4byte	0xa34
 1299 038d 00       		.byte	0
 1300 038e 09       		.uleb128 0x9
 1301 038f 75000000 		.4byte	.LASF51
 1302 0393 06       		.byte	0x6
 1303 0394 5801     		.2byte	0x158
 1304 0396 340A0000 		.4byte	0xa34
 1305 039a 04       		.byte	0x4
 1306 039b 09       		.uleb128 0x9
 1307 039c 4C000000 		.4byte	.LASF58
 1308 03a0 06       		.byte	0x6
 1309 03a1 5A01     		.2byte	0x15a
 1310 03a3 31010000 		.4byte	0x131
 1311 03a7 08       		.byte	0x8
 1312 03a8 09       		.uleb128 0x9
 1313 03a9 BC060000 		.4byte	.LASF62
 1314 03ad 06       		.byte	0x6
 1315 03ae 6201     		.2byte	0x162
 1316 03b0 31010000 		.4byte	0x131
 1317 03b4 0C       		.byte	0xc
 1318 03b5 00       		.byte	0
 1319 03b6 04       		.uleb128 0x4
 1320 03b7 97000000 		.4byte	.LASF63
 1321 03bb 05       		.byte	0x5
 1322 03bc 6B       		.byte	0x6b
 1323 03bd C1030000 		.4byte	0x3c1
 1324 03c1 0F       		.uleb128 0xf
 1325 03c2 79060000 		.4byte	.LASF64
 1326 03c6 0C08     		.2byte	0x80c
 1327 03c8 06       		.byte	0x6
 1328 03c9 7C01     		.2byte	0x17c
 1329 03cb EA030000 		.4byte	0x3ea
 1330 03cf 09       		.uleb128 0x9
 1331 03d0 BF070000 		.4byte	.LASF65
 1332 03d4 06       		.byte	0x6
 1333 03d5 8401     		.2byte	0x184
 1334 03d7 3A0A0000 		.4byte	0xa3a
 1335 03db 00       		.byte	0
 1336 03dc 09       		.uleb128 0x9
 1337 03dd AB080000 		.4byte	.LASF66
 1338 03e1 06       		.byte	0x6
 1339 03e2 9301     		.2byte	0x193
 1340 03e4 38090000 		.4byte	0x938
ARM GAS  /tmp/ccZi7sy1.s 			page 25


 1341 03e8 04       		.byte	0x4
 1342 03e9 00       		.byte	0
 1343 03ea 04       		.uleb128 0x4
 1344 03eb F3070000 		.4byte	.LASF67
 1345 03ef 05       		.byte	0x5
 1346 03f0 70       		.byte	0x70
 1347 03f1 F5030000 		.4byte	0x3f5
 1348 03f5 0F       		.uleb128 0xf
 1349 03f6 F0060000 		.4byte	.LASF68
 1350 03fa 8008     		.2byte	0x880
 1351 03fc 06       		.byte	0x6
 1352 03fd 9C01     		.2byte	0x19c
 1353 03ff 46040000 		.4byte	0x446
 1354 0403 09       		.uleb128 0x9
 1355 0404 53080000 		.4byte	.LASF69
 1356 0408 06       		.byte	0x6
 1357 0409 A001     		.2byte	0x1a0
 1358 040b 8A020000 		.4byte	0x28a
 1359 040f 00       		.byte	0
 1360 0410 09       		.uleb128 0x9
 1361 0411 59020000 		.4byte	.LASF70
 1362 0415 06       		.byte	0x6
 1363 0416 A401     		.2byte	0x1a4
 1364 0418 69030000 		.4byte	0x369
 1365 041c 1C       		.byte	0x1c
 1366 041d 08       		.uleb128 0x8
 1367 041e 64626700 		.ascii	"dbg\000"
 1368 0422 06       		.byte	0x6
 1369 0423 A801     		.2byte	0x1a8
 1370 0425 B6030000 		.4byte	0x3b6
 1371 0429 2C       		.byte	0x2c
 1372 042a 10       		.uleb128 0x10
 1373 042b 9B010000 		.4byte	.LASF71
 1374 042f 06       		.byte	0x6
 1375 0430 AC01     		.2byte	0x1ac
 1376 0432 3C010000 		.4byte	0x13c
 1377 0436 3808     		.2byte	0x838
 1378 0438 11       		.uleb128 0x11
 1379 0439 746D00   		.ascii	"tm\000"
 1380 043c 06       		.byte	0x6
 1381 043d B101     		.2byte	0x1b1
 1382 043f 58090000 		.4byte	0x958
 1383 0443 7C08     		.2byte	0x87c
 1384 0445 00       		.byte	0
 1385 0446 02       		.uleb128 0x2
 1386 0447 04       		.byte	0x4
 1387 0448 07       		.byte	0x7
 1388 0449 54050000 		.4byte	.LASF72
 1389 044d 12       		.uleb128 0x12
 1390 044e C3000000 		.4byte	0xc3
 1391 0452 13       		.uleb128 0x13
 1392 0453 C3000000 		.4byte	0xc3
 1393 0457 62040000 		.4byte	0x462
 1394 045b 14       		.uleb128 0x14
 1395 045c 46040000 		.4byte	0x446
 1396 0460 01       		.byte	0x1
 1397 0461 00       		.byte	0
ARM GAS  /tmp/ccZi7sy1.s 			page 26


 1398 0462 13       		.uleb128 0x13
 1399 0463 C3000000 		.4byte	0xc3
 1400 0467 72040000 		.4byte	0x472
 1401 046b 14       		.uleb128 0x14
 1402 046c 46040000 		.4byte	0x446
 1403 0470 03       		.byte	0x3
 1404 0471 00       		.byte	0
 1405 0472 15       		.uleb128 0x15
 1406 0473 88       		.byte	0x88
 1407 0474 07       		.byte	0x7
 1408 0475 6301     		.2byte	0x163
 1409 0477 01060000 		.4byte	0x601
 1410 047b 08       		.uleb128 0x8
 1411 047c 435200   		.ascii	"CR\000"
 1412 047f 07       		.byte	0x7
 1413 0480 6501     		.2byte	0x165
 1414 0482 4D040000 		.4byte	0x44d
 1415 0486 00       		.byte	0
 1416 0487 09       		.uleb128 0x9
 1417 0488 0D030000 		.4byte	.LASF73
 1418 048c 07       		.byte	0x7
 1419 048d 6601     		.2byte	0x166
 1420 048f 4D040000 		.4byte	0x44d
 1421 0493 04       		.byte	0x4
 1422 0494 09       		.uleb128 0x9
 1423 0495 9E080000 		.4byte	.LASF74
 1424 0499 07       		.byte	0x7
 1425 049a 6701     		.2byte	0x167
 1426 049c 4D040000 		.4byte	0x44d
 1427 04a0 08       		.byte	0x8
 1428 04a1 08       		.uleb128 0x8
 1429 04a2 43495200 		.ascii	"CIR\000"
 1430 04a6 07       		.byte	0x7
 1431 04a7 6801     		.2byte	0x168
 1432 04a9 4D040000 		.4byte	0x44d
 1433 04ad 0C       		.byte	0xc
 1434 04ae 09       		.uleb128 0x9
 1435 04af 40020000 		.4byte	.LASF75
 1436 04b3 07       		.byte	0x7
 1437 04b4 6901     		.2byte	0x169
 1438 04b6 4D040000 		.4byte	0x44d
 1439 04ba 10       		.byte	0x10
 1440 04bb 09       		.uleb128 0x9
 1441 04bc 9A070000 		.4byte	.LASF76
 1442 04c0 07       		.byte	0x7
 1443 04c1 6A01     		.2byte	0x16a
 1444 04c3 4D040000 		.4byte	0x44d
 1445 04c7 14       		.byte	0x14
 1446 04c8 09       		.uleb128 0x9
 1447 04c9 45030000 		.4byte	.LASF77
 1448 04cd 07       		.byte	0x7
 1449 04ce 6B01     		.2byte	0x16b
 1450 04d0 4D040000 		.4byte	0x44d
 1451 04d4 18       		.byte	0x18
 1452 04d5 09       		.uleb128 0x9
 1453 04d6 26060000 		.4byte	.LASF78
 1454 04da 07       		.byte	0x7
ARM GAS  /tmp/ccZi7sy1.s 			page 27


 1455 04db 6C01     		.2byte	0x16c
 1456 04dd C3000000 		.4byte	0xc3
 1457 04e1 1C       		.byte	0x1c
 1458 04e2 09       		.uleb128 0x9
 1459 04e3 DC050000 		.4byte	.LASF79
 1460 04e7 07       		.byte	0x7
 1461 04e8 6D01     		.2byte	0x16d
 1462 04ea 4D040000 		.4byte	0x44d
 1463 04ee 20       		.byte	0x20
 1464 04ef 09       		.uleb128 0x9
 1465 04f0 86020000 		.4byte	.LASF80
 1466 04f4 07       		.byte	0x7
 1467 04f5 6E01     		.2byte	0x16e
 1468 04f7 4D040000 		.4byte	0x44d
 1469 04fb 24       		.byte	0x24
 1470 04fc 09       		.uleb128 0x9
 1471 04fd 30060000 		.4byte	.LASF81
 1472 0501 07       		.byte	0x7
 1473 0502 6F01     		.2byte	0x16f
 1474 0504 52040000 		.4byte	0x452
 1475 0508 28       		.byte	0x28
 1476 0509 09       		.uleb128 0x9
 1477 050a 8C080000 		.4byte	.LASF82
 1478 050e 07       		.byte	0x7
 1479 050f 7001     		.2byte	0x170
 1480 0511 4D040000 		.4byte	0x44d
 1481 0515 30       		.byte	0x30
 1482 0516 09       		.uleb128 0x9
 1483 0517 D8070000 		.4byte	.LASF83
 1484 051b 07       		.byte	0x7
 1485 051c 7101     		.2byte	0x171
 1486 051e 4D040000 		.4byte	0x44d
 1487 0522 34       		.byte	0x34
 1488 0523 09       		.uleb128 0x9
 1489 0524 91050000 		.4byte	.LASF84
 1490 0528 07       		.byte	0x7
 1491 0529 7201     		.2byte	0x172
 1492 052b 4D040000 		.4byte	0x44d
 1493 052f 38       		.byte	0x38
 1494 0530 09       		.uleb128 0x9
 1495 0531 3A060000 		.4byte	.LASF85
 1496 0535 07       		.byte	0x7
 1497 0536 7301     		.2byte	0x173
 1498 0538 C3000000 		.4byte	0xc3
 1499 053c 3C       		.byte	0x3c
 1500 053d 09       		.uleb128 0x9
 1501 053e D0070000 		.4byte	.LASF86
 1502 0542 07       		.byte	0x7
 1503 0543 7401     		.2byte	0x174
 1504 0545 4D040000 		.4byte	0x44d
 1505 0549 40       		.byte	0x40
 1506 054a 09       		.uleb128 0x9
 1507 054b FA060000 		.4byte	.LASF87
 1508 054f 07       		.byte	0x7
 1509 0550 7501     		.2byte	0x175
 1510 0552 4D040000 		.4byte	0x44d
 1511 0556 44       		.byte	0x44
ARM GAS  /tmp/ccZi7sy1.s 			page 28


 1512 0557 09       		.uleb128 0x9
 1513 0558 44060000 		.4byte	.LASF88
 1514 055c 07       		.byte	0x7
 1515 055d 7601     		.2byte	0x176
 1516 055f 52040000 		.4byte	0x452
 1517 0563 48       		.byte	0x48
 1518 0564 09       		.uleb128 0x9
 1519 0565 EB010000 		.4byte	.LASF89
 1520 0569 07       		.byte	0x7
 1521 056a 7701     		.2byte	0x177
 1522 056c 4D040000 		.4byte	0x44d
 1523 0570 50       		.byte	0x50
 1524 0571 09       		.uleb128 0x9
 1525 0572 A6050000 		.4byte	.LASF90
 1526 0576 07       		.byte	0x7
 1527 0577 7801     		.2byte	0x178
 1528 0579 4D040000 		.4byte	0x44d
 1529 057d 54       		.byte	0x54
 1530 057e 09       		.uleb128 0x9
 1531 057f CA060000 		.4byte	.LASF91
 1532 0583 07       		.byte	0x7
 1533 0584 7901     		.2byte	0x179
 1534 0586 4D040000 		.4byte	0x44d
 1535 058a 58       		.byte	0x58
 1536 058b 09       		.uleb128 0x9
 1537 058c 4E060000 		.4byte	.LASF92
 1538 0590 07       		.byte	0x7
 1539 0591 7A01     		.2byte	0x17a
 1540 0593 C3000000 		.4byte	0xc3
 1541 0597 5C       		.byte	0x5c
 1542 0598 09       		.uleb128 0x9
 1543 0599 B3020000 		.4byte	.LASF93
 1544 059d 07       		.byte	0x7
 1545 059e 7B01     		.2byte	0x17b
 1546 05a0 4D040000 		.4byte	0x44d
 1547 05a4 60       		.byte	0x60
 1548 05a5 09       		.uleb128 0x9
 1549 05a6 C5040000 		.4byte	.LASF94
 1550 05aa 07       		.byte	0x7
 1551 05ab 7C01     		.2byte	0x17c
 1552 05ad 4D040000 		.4byte	0x44d
 1553 05b1 64       		.byte	0x64
 1554 05b2 09       		.uleb128 0x9
 1555 05b3 58060000 		.4byte	.LASF95
 1556 05b7 07       		.byte	0x7
 1557 05b8 7D01     		.2byte	0x17d
 1558 05ba 52040000 		.4byte	0x452
 1559 05be 68       		.byte	0x68
 1560 05bf 09       		.uleb128 0x9
 1561 05c0 4E080000 		.4byte	.LASF96
 1562 05c4 07       		.byte	0x7
 1563 05c5 7E01     		.2byte	0x17e
 1564 05c7 4D040000 		.4byte	0x44d
 1565 05cb 70       		.byte	0x70
 1566 05cc 08       		.uleb128 0x8
 1567 05cd 43535200 		.ascii	"CSR\000"
 1568 05d1 07       		.byte	0x7
ARM GAS  /tmp/ccZi7sy1.s 			page 29


 1569 05d2 7F01     		.2byte	0x17f
 1570 05d4 4D040000 		.4byte	0x44d
 1571 05d8 74       		.byte	0x74
 1572 05d9 09       		.uleb128 0x9
 1573 05da 41070000 		.4byte	.LASF97
 1574 05de 07       		.byte	0x7
 1575 05df 8001     		.2byte	0x180
 1576 05e1 52040000 		.4byte	0x452
 1577 05e5 78       		.byte	0x78
 1578 05e6 09       		.uleb128 0x9
 1579 05e7 25080000 		.4byte	.LASF98
 1580 05eb 07       		.byte	0x7
 1581 05ec 8101     		.2byte	0x181
 1582 05ee 4D040000 		.4byte	0x44d
 1583 05f2 80       		.byte	0x80
 1584 05f3 09       		.uleb128 0x9
 1585 05f4 6A040000 		.4byte	.LASF99
 1586 05f8 07       		.byte	0x7
 1587 05f9 8201     		.2byte	0x182
 1588 05fb 4D040000 		.4byte	0x44d
 1589 05ff 84       		.byte	0x84
 1590 0600 00       		.byte	0
 1591 0601 16       		.uleb128 0x16
 1592 0602 38040000 		.4byte	.LASF100
 1593 0606 07       		.byte	0x7
 1594 0607 8401     		.2byte	0x184
 1595 0609 72040000 		.4byte	0x472
 1596 060d 04       		.uleb128 0x4
 1597 060e 2C030000 		.4byte	.LASF101
 1598 0612 08       		.byte	0x8
 1599 0613 65       		.byte	0x65
 1600 0614 0D030000 		.4byte	0x30d
 1601 0618 04       		.uleb128 0x4
 1602 0619 22050000 		.4byte	.LASF102
 1603 061d 08       		.byte	0x8
 1604 061e 6D       		.byte	0x6d
 1605 061f CE000000 		.4byte	0xce
 1606 0623 05       		.uleb128 0x5
 1607 0624 18080000 		.4byte	.LASF103
 1608 0628 04       		.byte	0x4
 1609 0629 08       		.byte	0x8
 1610 062a 89       		.byte	0x89
 1611 062b 3B060000 		.4byte	0x63b
 1612 062f 07       		.uleb128 0x7
 1613 0630 737000   		.ascii	"sp\000"
 1614 0633 08       		.byte	0x8
 1615 0634 8A       		.byte	0x8a
 1616 0635 B7060000 		.4byte	0x6b7
 1617 0639 00       		.byte	0
 1618 063a 00       		.byte	0
 1619 063b 0B       		.uleb128 0xb
 1620 063c 7A000000 		.4byte	.LASF104
 1621 0640 24       		.byte	0x24
 1622 0641 09       		.byte	0x9
 1623 0642 5901     		.2byte	0x159
 1624 0644 B7060000 		.4byte	0x6b7
 1625 0648 08       		.uleb128 0x8
ARM GAS  /tmp/ccZi7sy1.s 			page 30


 1626 0649 723400   		.ascii	"r4\000"
 1627 064c 09       		.byte	0x9
 1628 064d 6C01     		.2byte	0x16c
 1629 064f 0D060000 		.4byte	0x60d
 1630 0653 00       		.byte	0
 1631 0654 08       		.uleb128 0x8
 1632 0655 723500   		.ascii	"r5\000"
 1633 0658 09       		.byte	0x9
 1634 0659 6D01     		.2byte	0x16d
 1635 065b 0D060000 		.4byte	0x60d
 1636 065f 04       		.byte	0x4
 1637 0660 08       		.uleb128 0x8
 1638 0661 723600   		.ascii	"r6\000"
 1639 0664 09       		.byte	0x9
 1640 0665 6E01     		.2byte	0x16e
 1641 0667 0D060000 		.4byte	0x60d
 1642 066b 08       		.byte	0x8
 1643 066c 08       		.uleb128 0x8
 1644 066d 723700   		.ascii	"r7\000"
 1645 0670 09       		.byte	0x9
 1646 0671 6F01     		.2byte	0x16f
 1647 0673 0D060000 		.4byte	0x60d
 1648 0677 0C       		.byte	0xc
 1649 0678 08       		.uleb128 0x8
 1650 0679 723800   		.ascii	"r8\000"
 1651 067c 09       		.byte	0x9
 1652 067d 7001     		.2byte	0x170
 1653 067f 0D060000 		.4byte	0x60d
 1654 0683 10       		.byte	0x10
 1655 0684 08       		.uleb128 0x8
 1656 0685 723900   		.ascii	"r9\000"
 1657 0688 09       		.byte	0x9
 1658 0689 7101     		.2byte	0x171
 1659 068b 0D060000 		.4byte	0x60d
 1660 068f 14       		.byte	0x14
 1661 0690 08       		.uleb128 0x8
 1662 0691 72313000 		.ascii	"r10\000"
 1663 0695 09       		.byte	0x9
 1664 0696 7201     		.2byte	0x172
 1665 0698 0D060000 		.4byte	0x60d
 1666 069c 18       		.byte	0x18
 1667 069d 08       		.uleb128 0x8
 1668 069e 72313100 		.ascii	"r11\000"
 1669 06a2 09       		.byte	0x9
 1670 06a3 7301     		.2byte	0x173
 1671 06a5 0D060000 		.4byte	0x60d
 1672 06a9 1C       		.byte	0x1c
 1673 06aa 08       		.uleb128 0x8
 1674 06ab 6C7200   		.ascii	"lr\000"
 1675 06ae 09       		.byte	0x9
 1676 06af 7401     		.2byte	0x174
 1677 06b1 0D060000 		.4byte	0x60d
 1678 06b5 20       		.byte	0x20
 1679 06b6 00       		.byte	0
 1680 06b7 0A       		.uleb128 0xa
 1681 06b8 04       		.byte	0x4
 1682 06b9 3B060000 		.4byte	0x63b
ARM GAS  /tmp/ccZi7sy1.s 			page 31


 1683 06bd 15       		.uleb128 0x15
 1684 06be 60       		.byte	0x60
 1685 06bf 0A       		.byte	0xa
 1686 06c0 A101     		.2byte	0x1a1
 1687 06c2 C9070000 		.4byte	0x7c9
 1688 06c6 08       		.uleb128 0x8
 1689 06c7 43523100 		.ascii	"CR1\000"
 1690 06cb 0A       		.byte	0xa
 1691 06cc A201     		.2byte	0x1a2
 1692 06ce 4D040000 		.4byte	0x44d
 1693 06d2 00       		.byte	0
 1694 06d3 08       		.uleb128 0x8
 1695 06d4 43523200 		.ascii	"CR2\000"
 1696 06d8 0A       		.byte	0xa
 1697 06d9 A301     		.2byte	0x1a3
 1698 06db 4D040000 		.4byte	0x44d
 1699 06df 04       		.byte	0x4
 1700 06e0 09       		.uleb128 0x9
 1701 06e1 65040000 		.4byte	.LASF105
 1702 06e5 0A       		.byte	0xa
 1703 06e6 A401     		.2byte	0x1a4
 1704 06e8 4D040000 		.4byte	0x44d
 1705 06ec 08       		.byte	0x8
 1706 06ed 09       		.uleb128 0x9
 1707 06ee 29000000 		.4byte	.LASF106
 1708 06f2 0A       		.byte	0xa
 1709 06f3 A501     		.2byte	0x1a5
 1710 06f5 4D040000 		.4byte	0x44d
 1711 06f9 0C       		.byte	0xc
 1712 06fa 08       		.uleb128 0x8
 1713 06fb 535200   		.ascii	"SR\000"
 1714 06fe 0A       		.byte	0xa
 1715 06ff A601     		.2byte	0x1a6
 1716 0701 4D040000 		.4byte	0x44d
 1717 0705 10       		.byte	0x10
 1718 0706 08       		.uleb128 0x8
 1719 0707 45475200 		.ascii	"EGR\000"
 1720 070b 0A       		.byte	0xa
 1721 070c A701     		.2byte	0x1a7
 1722 070e 4D040000 		.4byte	0x44d
 1723 0712 14       		.byte	0x14
 1724 0713 09       		.uleb128 0x9
 1725 0714 22020000 		.4byte	.LASF107
 1726 0718 0A       		.byte	0xa
 1727 0719 A801     		.2byte	0x1a8
 1728 071b 4D040000 		.4byte	0x44d
 1729 071f 18       		.byte	0x18
 1730 0720 09       		.uleb128 0x9
 1731 0721 28020000 		.4byte	.LASF108
 1732 0725 0A       		.byte	0xa
 1733 0726 A901     		.2byte	0x1a9
 1734 0728 4D040000 		.4byte	0x44d
 1735 072c 1C       		.byte	0x1c
 1736 072d 09       		.uleb128 0x9
 1737 072e DC020000 		.4byte	.LASF109
 1738 0732 0A       		.byte	0xa
 1739 0733 AA01     		.2byte	0x1aa
ARM GAS  /tmp/ccZi7sy1.s 			page 32


 1740 0735 4D040000 		.4byte	0x44d
 1741 0739 20       		.byte	0x20
 1742 073a 08       		.uleb128 0x8
 1743 073b 434E5400 		.ascii	"CNT\000"
 1744 073f 0A       		.byte	0xa
 1745 0740 AB01     		.2byte	0x1ab
 1746 0742 4D040000 		.4byte	0x44d
 1747 0746 24       		.byte	0x24
 1748 0747 08       		.uleb128 0x8
 1749 0748 50534300 		.ascii	"PSC\000"
 1750 074c 0A       		.byte	0xa
 1751 074d AC01     		.2byte	0x1ac
 1752 074f 4D040000 		.4byte	0x44d
 1753 0753 28       		.byte	0x28
 1754 0754 08       		.uleb128 0x8
 1755 0755 41525200 		.ascii	"ARR\000"
 1756 0759 0A       		.byte	0xa
 1757 075a AD01     		.2byte	0x1ad
 1758 075c 4D040000 		.4byte	0x44d
 1759 0760 2C       		.byte	0x2c
 1760 0761 08       		.uleb128 0x8
 1761 0762 52435200 		.ascii	"RCR\000"
 1762 0766 0A       		.byte	0xa
 1763 0767 AE01     		.2byte	0x1ae
 1764 0769 4D040000 		.4byte	0x44d
 1765 076d 30       		.byte	0x30
 1766 076e 08       		.uleb128 0x8
 1767 076f 43435200 		.ascii	"CCR\000"
 1768 0773 0A       		.byte	0xa
 1769 0774 AF01     		.2byte	0x1af
 1770 0776 C9070000 		.4byte	0x7c9
 1771 077a 34       		.byte	0x34
 1772 077b 09       		.uleb128 0x9
 1773 077c DC010000 		.4byte	.LASF110
 1774 0780 0A       		.byte	0xa
 1775 0781 B001     		.2byte	0x1b0
 1776 0783 4D040000 		.4byte	0x44d
 1777 0787 44       		.byte	0x44
 1778 0788 08       		.uleb128 0x8
 1779 0789 44435200 		.ascii	"DCR\000"
 1780 078d 0A       		.byte	0xa
 1781 078e B101     		.2byte	0x1b1
 1782 0790 4D040000 		.4byte	0x44d
 1783 0794 48       		.byte	0x48
 1784 0795 09       		.uleb128 0x9
 1785 0796 95070000 		.4byte	.LASF111
 1786 079a 0A       		.byte	0xa
 1787 079b B201     		.2byte	0x1b2
 1788 079d 4D040000 		.4byte	0x44d
 1789 07a1 4C       		.byte	0x4c
 1790 07a2 08       		.uleb128 0x8
 1791 07a3 4F5200   		.ascii	"OR\000"
 1792 07a6 0A       		.byte	0xa
 1793 07a7 B301     		.2byte	0x1b3
 1794 07a9 4D040000 		.4byte	0x44d
 1795 07ad 50       		.byte	0x50
 1796 07ae 09       		.uleb128 0x9
ARM GAS  /tmp/ccZi7sy1.s 			page 33


 1797 07af 2E020000 		.4byte	.LASF112
 1798 07b3 0A       		.byte	0xa
 1799 07b4 B401     		.2byte	0x1b4
 1800 07b6 4D040000 		.4byte	0x44d
 1801 07ba 54       		.byte	0x54
 1802 07bb 09       		.uleb128 0x9
 1803 07bc 2F070000 		.4byte	.LASF113
 1804 07c0 0A       		.byte	0xa
 1805 07c1 B501     		.2byte	0x1b5
 1806 07c3 CE070000 		.4byte	0x7ce
 1807 07c7 58       		.byte	0x58
 1808 07c8 00       		.byte	0
 1809 07c9 12       		.uleb128 0x12
 1810 07ca 62040000 		.4byte	0x462
 1811 07ce 12       		.uleb128 0x12
 1812 07cf 52040000 		.4byte	0x452
 1813 07d3 16       		.uleb128 0x16
 1814 07d4 B9040000 		.4byte	.LASF114
 1815 07d8 0A       		.byte	0xa
 1816 07d9 B601     		.2byte	0x1b6
 1817 07db BD060000 		.4byte	0x6bd
 1818 07df 17       		.uleb128 0x17
 1819 07e0 08       		.byte	0x8
 1820 07e1 0B       		.byte	0xb
 1821 07e2 80       		.byte	0x80
 1822 07e3 00080000 		.4byte	0x800
 1823 07e7 07       		.uleb128 0x7
 1824 07e8 6E747000 		.ascii	"ntp\000"
 1825 07ec 0B       		.byte	0xb
 1826 07ed 84       		.byte	0x84
 1827 07ee 30020000 		.4byte	0x230
 1828 07f2 00       		.byte	0
 1829 07f3 06       		.uleb128 0x6
 1830 07f4 85080000 		.4byte	.LASF115
 1831 07f8 0B       		.byte	0xb
 1832 07f9 88       		.byte	0x88
 1833 07fa 0D030000 		.4byte	0x30d
 1834 07fe 04       		.byte	0x4
 1835 07ff 00       		.byte	0
 1836 0800 17       		.uleb128 0x17
 1837 0801 04       		.byte	0x4
 1838 0802 0B       		.byte	0xb
 1839 0803 8D       		.byte	0x8d
 1840 0804 15080000 		.4byte	0x815
 1841 0808 06       		.uleb128 0x6
 1842 0809 4E040000 		.4byte	.LASF33
 1843 080d 0B       		.byte	0xb
 1844 080e 91       		.byte	0x91
 1845 080f 15080000 		.4byte	0x815
 1846 0813 00       		.byte	0
 1847 0814 00       		.byte	0
 1848 0815 0A       		.uleb128 0xa
 1849 0816 04       		.byte	0x4
 1850 0817 1B080000 		.4byte	0x81b
 1851 081b 18       		.uleb128 0x18
 1852 081c 20080000 		.4byte	0x820
 1853 0820 02       		.uleb128 0x2
ARM GAS  /tmp/ccZi7sy1.s 			page 34


 1854 0821 01       		.byte	0x1
 1855 0822 08       		.byte	0x8
 1856 0823 79070000 		.4byte	.LASF116
 1857 0827 17       		.uleb128 0x17
 1858 0828 04       		.byte	0x4
 1859 0829 0B       		.byte	0xb
 1860 082a 96       		.byte	0x96
 1861 082b 3C080000 		.4byte	0x83c
 1862 082f 06       		.uleb128 0x6
 1863 0830 02070000 		.4byte	.LASF117
 1864 0834 0B       		.byte	0xb
 1865 0835 9A       		.byte	0x9a
 1866 0836 15080000 		.4byte	0x815
 1867 083a 00       		.byte	0
 1868 083b 00       		.byte	0
 1869 083c 17       		.uleb128 0x17
 1870 083d 08       		.byte	0x8
 1871 083e 0B       		.byte	0xb
 1872 083f 9F       		.byte	0x9f
 1873 0840 5D080000 		.4byte	0x85d
 1874 0844 07       		.uleb128 0x7
 1875 0845 75703100 		.ascii	"up1\000"
 1876 0849 0B       		.byte	0xb
 1877 084a A3       		.byte	0xa3
 1878 084b 0D030000 		.4byte	0x30d
 1879 084f 00       		.byte	0
 1880 0850 07       		.uleb128 0x7
 1881 0851 75703200 		.ascii	"up2\000"
 1882 0855 0B       		.byte	0xb
 1883 0856 A7       		.byte	0xa7
 1884 0857 0D030000 		.4byte	0x30d
 1885 085b 04       		.byte	0x4
 1886 085c 00       		.byte	0
 1887 085d 19       		.uleb128 0x19
 1888 085e 08       		.byte	0x8
 1889 085f 0B       		.byte	0xb
 1890 0860 7C       		.byte	0x7c
 1891 0861 91080000 		.4byte	0x891
 1892 0865 1A       		.uleb128 0x1a
 1893 0866 737700   		.ascii	"sw\000"
 1894 0869 0B       		.byte	0xb
 1895 086a 89       		.byte	0x89
 1896 086b DF070000 		.4byte	0x7df
 1897 086f 1A       		.uleb128 0x1a
 1898 0870 69737200 		.ascii	"isr\000"
 1899 0874 0B       		.byte	0xb
 1900 0875 92       		.byte	0x92
 1901 0876 00080000 		.4byte	0x800
 1902 087a 1B       		.uleb128 0x1b
 1903 087b C5060000 		.4byte	.LASF118
 1904 087f 0B       		.byte	0xb
 1905 0880 9B       		.byte	0x9b
 1906 0881 27080000 		.4byte	0x827
 1907 0885 1B       		.uleb128 0x1b
 1908 0886 62060000 		.4byte	.LASF119
 1909 088a 0B       		.byte	0xb
 1910 088b A8       		.byte	0xa8
ARM GAS  /tmp/ccZi7sy1.s 			page 35


 1911 088c 3C080000 		.4byte	0x83c
 1912 0890 00       		.byte	0
 1913 0891 17       		.uleb128 0x17
 1914 0892 10       		.byte	0x10
 1915 0893 0B       		.byte	0xb
 1916 0894 69       		.byte	0x69
 1917 0895 DD080000 		.4byte	0x8dd
 1918 0899 1C       		.uleb128 0x1c
 1919 089a A6000000 		.4byte	.LASF120
 1920 089e 0B       		.byte	0xb
 1921 089f 6D       		.byte	0x6d
 1922 08a0 C3000000 		.4byte	0xc3
 1923 08a4 04       		.byte	0x4
 1924 08a5 03       		.byte	0x3
 1925 08a6 1D       		.byte	0x1d
 1926 08a7 00       		.byte	0
 1927 08a8 1C       		.uleb128 0x1c
 1928 08a9 60020000 		.4byte	.LASF35
 1929 08ad 0B       		.byte	0xb
 1930 08ae 71       		.byte	0x71
 1931 08af C3000000 		.4byte	0xc3
 1932 08b3 04       		.byte	0x4
 1933 08b4 05       		.byte	0x5
 1934 08b5 18       		.byte	0x18
 1935 08b6 00       		.byte	0
 1936 08b7 1C       		.uleb128 0x1c
 1937 08b8 33050000 		.4byte	.LASF121
 1938 08bc 0B       		.byte	0xb
 1939 08bd 77       		.byte	0x77
 1940 08be C3000000 		.4byte	0xc3
 1941 08c2 04       		.byte	0x4
 1942 08c3 18       		.byte	0x18
 1943 08c4 00       		.byte	0
 1944 08c5 00       		.byte	0
 1945 08c6 06       		.uleb128 0x6
 1946 08c7 C1050000 		.4byte	.LASF122
 1947 08cb 0B       		.byte	0xb
 1948 08cc 7B       		.byte	0x7b
 1949 08cd 31010000 		.4byte	0x131
 1950 08d1 04       		.byte	0x4
 1951 08d2 07       		.uleb128 0x7
 1952 08d3 7500     		.ascii	"u\000"
 1953 08d5 0B       		.byte	0xb
 1954 08d6 A9       		.byte	0xa9
 1955 08d7 5D080000 		.4byte	0x85d
 1956 08db 08       		.byte	0x8
 1957 08dc 00       		.byte	0
 1958 08dd 04       		.uleb128 0x4
 1959 08de C6020000 		.4byte	.LASF123
 1960 08e2 0B       		.byte	0xb
 1961 08e3 AA       		.byte	0xaa
 1962 08e4 91080000 		.4byte	0x891
 1963 08e8 1D       		.uleb128 0x1d
 1964 08e9 0808     		.2byte	0x808
 1965 08eb 0B       		.byte	0xb
 1966 08ec B0       		.byte	0xb0
 1967 08ed 22090000 		.4byte	0x922
ARM GAS  /tmp/ccZi7sy1.s 			page 36


 1968 08f1 06       		.uleb128 0x6
 1969 08f2 87050000 		.4byte	.LASF124
 1970 08f6 0B       		.byte	0xb
 1971 08f7 B4       		.byte	0xb4
 1972 08f8 AD000000 		.4byte	0xad
 1973 08fc 00       		.byte	0
 1974 08fd 06       		.uleb128 0x6
 1975 08fe 94080000 		.4byte	.LASF125
 1976 0902 0B       		.byte	0xb
 1977 0903 B8       		.byte	0xb8
 1978 0904 AD000000 		.4byte	0xad
 1979 0908 02       		.byte	0x2
 1980 0909 07       		.uleb128 0x7
 1981 090a 70747200 		.ascii	"ptr\000"
 1982 090e 0B       		.byte	0xb
 1983 090f BC       		.byte	0xbc
 1984 0910 22090000 		.4byte	0x922
 1985 0914 04       		.byte	0x4
 1986 0915 06       		.uleb128 0x6
 1987 0916 06030000 		.4byte	.LASF126
 1988 091a 0B       		.byte	0xb
 1989 091b C0       		.byte	0xc0
 1990 091c 28090000 		.4byte	0x928
 1991 0920 08       		.byte	0x8
 1992 0921 00       		.byte	0
 1993 0922 0A       		.uleb128 0xa
 1994 0923 04       		.byte	0x4
 1995 0924 DD080000 		.4byte	0x8dd
 1996 0928 13       		.uleb128 0x13
 1997 0929 DD080000 		.4byte	0x8dd
 1998 092d 38090000 		.4byte	0x938
 1999 0931 14       		.uleb128 0x14
 2000 0932 46040000 		.4byte	0x446
 2001 0936 7F       		.byte	0x7f
 2002 0937 00       		.byte	0
 2003 0938 04       		.uleb128 0x4
 2004 0939 80010000 		.4byte	.LASF127
 2005 093d 0B       		.byte	0xb
 2006 093e C1       		.byte	0xc1
 2007 093f E8080000 		.4byte	0x8e8
 2008 0943 17       		.uleb128 0x17
 2009 0944 04       		.byte	0x4
 2010 0945 0C       		.byte	0xc
 2011 0946 38       		.byte	0x38
 2012 0947 58090000 		.4byte	0x958
 2013 094b 06       		.uleb128 0x6
 2014 094c C9070000 		.4byte	.LASF128
 2015 0950 0C       		.byte	0xc
 2016 0951 3C       		.byte	0x3c
 2017 0952 D9000000 		.4byte	0xd9
 2018 0956 00       		.byte	0
 2019 0957 00       		.byte	0
 2020 0958 04       		.uleb128 0x4
 2021 0959 B0050000 		.4byte	.LASF129
 2022 095d 0C       		.byte	0xc
 2023 095e 3D       		.byte	0x3d
 2024 095f 43090000 		.4byte	0x943
ARM GAS  /tmp/ccZi7sy1.s 			page 37


 2025 0963 19       		.uleb128 0x19
 2026 0964 04       		.byte	0x4
 2027 0965 06       		.byte	0x6
 2028 0966 D2       		.byte	0xd2
 2029 0967 C6090000 		.4byte	0x9c6
 2030 096b 1B       		.uleb128 0x1b
 2031 096c 52000000 		.4byte	.LASF130
 2032 0970 06       		.byte	0x6
 2033 0971 D9       		.byte	0xd9
 2034 0972 10010000 		.4byte	0x110
 2035 0976 1B       		.uleb128 0x1b
 2036 0977 92010000 		.4byte	.LASF131
 2037 097b 06       		.byte	0x6
 2038 097c E0       		.byte	0xe0
 2039 097d 10010000 		.4byte	0x110
 2040 0981 1B       		.uleb128 0x1b
 2041 0982 85080000 		.4byte	.LASF115
 2042 0986 06       		.byte	0x6
 2043 0987 E7       		.byte	0xe7
 2044 0988 0D030000 		.4byte	0x30d
 2045 098c 1B       		.uleb128 0x1b
 2046 098d 2E000000 		.4byte	.LASF132
 2047 0991 06       		.byte	0x6
 2048 0992 EE       		.byte	0xee
 2049 0993 C6090000 		.4byte	0x9c6
 2050 0997 1B       		.uleb128 0x1b
 2051 0998 A6010000 		.4byte	.LASF133
 2052 099c 06       		.byte	0x6
 2053 099d F3       		.byte	0xf3
 2054 099e 10010000 		.4byte	0x110
 2055 09a2 1B       		.uleb128 0x1b
 2056 09a3 1F040000 		.4byte	.LASF134
 2057 09a7 06       		.byte	0x6
 2058 09a8 FC       		.byte	0xfc
 2059 09a9 F1090000 		.4byte	0x9f1
 2060 09ad 1E       		.uleb128 0x1e
 2061 09ae 54070000 		.4byte	.LASF135
 2062 09b2 06       		.byte	0x6
 2063 09b3 0501     		.2byte	0x105
 2064 09b5 280A0000 		.4byte	0xa28
 2065 09b9 1E       		.uleb128 0x1e
 2066 09ba D4060000 		.4byte	.LASF136
 2067 09be 06       		.byte	0x6
 2068 09bf 0D01     		.2byte	0x10d
 2069 09c1 1B010000 		.4byte	0x11b
 2070 09c5 00       		.byte	0
 2071 09c6 0A       		.uleb128 0xa
 2072 09c7 04       		.byte	0x4
 2073 09c8 25020000 		.4byte	0x225
 2074 09cc 05       		.uleb128 0x5
 2075 09cd 22070000 		.4byte	.LASF137
 2076 09d1 0C       		.byte	0xc
 2077 09d2 0D       		.byte	0xd
 2078 09d3 34       		.byte	0x34
 2079 09d4 F1090000 		.4byte	0x9f1
 2080 09d8 06       		.uleb128 0x6
 2081 09d9 53040000 		.4byte	.LASF29
ARM GAS  /tmp/ccZi7sy1.s 			page 38


 2082 09dd 0D       		.byte	0xd
 2083 09de 35       		.byte	0x35
 2084 09df 5A020000 		.4byte	0x25a
 2085 09e3 00       		.byte	0
 2086 09e4 07       		.uleb128 0x7
 2087 09e5 636E7400 		.ascii	"cnt\000"
 2088 09e9 0D       		.byte	0xd
 2089 09ea 37       		.byte	0x37
 2090 09eb 26010000 		.4byte	0x126
 2091 09ef 08       		.byte	0x8
 2092 09f0 00       		.byte	0
 2093 09f1 0A       		.uleb128 0xa
 2094 09f2 04       		.byte	0x4
 2095 09f3 CC090000 		.4byte	0x9cc
 2096 09f7 05       		.uleb128 0x5
 2097 09f8 45080000 		.4byte	.LASF138
 2098 09fc 10       		.byte	0x10
 2099 09fd 0E       		.byte	0xe
 2100 09fe 39       		.byte	0x39
 2101 09ff 280A0000 		.4byte	0xa28
 2102 0a03 06       		.uleb128 0x6
 2103 0a04 53040000 		.4byte	.LASF29
 2104 0a08 0E       		.byte	0xe
 2105 0a09 3A       		.byte	0x3a
 2106 0a0a 5A020000 		.4byte	0x25a
 2107 0a0e 00       		.byte	0
 2108 0a0f 06       		.uleb128 0x6
 2109 0a10 63070000 		.4byte	.LASF139
 2110 0a14 0E       		.byte	0xe
 2111 0a15 3C       		.byte	0x3c
 2112 0a16 30020000 		.4byte	0x230
 2113 0a1a 08       		.byte	0x8
 2114 0a1b 06       		.uleb128 0x6
 2115 0a1c 99080000 		.4byte	.LASF48
 2116 0a20 0E       		.byte	0xe
 2117 0a21 3E       		.byte	0x3e
 2118 0a22 4A0A0000 		.4byte	0xa4a
 2119 0a26 0C       		.byte	0xc
 2120 0a27 00       		.byte	0
 2121 0a28 0A       		.uleb128 0xa
 2122 0a29 04       		.byte	0x4
 2123 0a2a F7090000 		.4byte	0x9f7
 2124 0a2e 0A       		.uleb128 0xa
 2125 0a2f 04       		.byte	0x4
 2126 0a30 18060000 		.4byte	0x618
 2127 0a34 0A       		.uleb128 0xa
 2128 0a35 04       		.byte	0x4
 2129 0a36 0F030000 		.4byte	0x30f
 2130 0a3a 12       		.uleb128 0x12
 2131 0a3b 15080000 		.4byte	0x815
 2132 0a3f 04       		.uleb128 0x4
 2133 0a40 3D030000 		.4byte	.LASF140
 2134 0a44 0E       		.byte	0xe
 2135 0a45 34       		.byte	0x34
 2136 0a46 F7090000 		.4byte	0x9f7
 2137 0a4a 0A       		.uleb128 0xa
 2138 0a4b 04       		.byte	0x4
ARM GAS  /tmp/ccZi7sy1.s 			page 39


 2139 0a4c 3F0A0000 		.4byte	0xa3f
 2140 0a50 02       		.uleb128 0x2
 2141 0a51 01       		.byte	0x1
 2142 0a52 02       		.byte	0x2
 2143 0a53 89060000 		.4byte	.LASF141
 2144 0a57 1F       		.uleb128 0x1f
 2145 0a58 01       		.byte	0x1
 2146 0a59 0F       		.byte	0xf
 2147 0a5a 4A       		.byte	0x4a
 2148 0a5b 720A0000 		.4byte	0xa72
 2149 0a5f 20       		.uleb128 0x20
 2150 0a60 0B090000 		.4byte	.LASF142
 2151 0a64 00       		.sleb128 0
 2152 0a65 20       		.uleb128 0x20
 2153 0a66 70070000 		.4byte	.LASF143
 2154 0a6a 01       		.sleb128 1
 2155 0a6b 20       		.uleb128 0x20
 2156 0a6c 67060000 		.4byte	.LASF144
 2157 0a70 02       		.sleb128 2
 2158 0a71 00       		.byte	0
 2159 0a72 04       		.uleb128 0x4
 2160 0a73 71080000 		.4byte	.LASF145
 2161 0a77 0F       		.byte	0xf
 2162 0a78 4E       		.byte	0x4e
 2163 0a79 570A0000 		.4byte	0xa57
 2164 0a7d 04       		.uleb128 0x4
 2165 0a7e 61080000 		.4byte	.LASF146
 2166 0a82 0F       		.byte	0xf
 2167 0a83 53       		.byte	0x53
 2168 0a84 880A0000 		.4byte	0xa88
 2169 0a88 0B       		.uleb128 0xb
 2170 0a89 61080000 		.4byte	.LASF146
 2171 0a8d 1C       		.byte	0x1c
 2172 0a8e 10       		.byte	0x10
 2173 0a8f B301     		.2byte	0x1b3
 2174 0a91 F10A0000 		.4byte	0xaf1
 2175 0a95 09       		.uleb128 0x9
 2176 0a96 60020000 		.4byte	.LASF35
 2177 0a9a 10       		.byte	0x10
 2178 0a9b B701     		.2byte	0x1b7
 2179 0a9d 720A0000 		.4byte	0xa72
 2180 0aa1 00       		.byte	0
 2181 0aa2 09       		.uleb128 0x9
 2182 0aa3 8E070000 		.4byte	.LASF147
 2183 0aa7 10       		.byte	0x10
 2184 0aa8 BB01     		.2byte	0x1bb
 2185 0aaa E70B0000 		.4byte	0xbe7
 2186 0aae 04       		.byte	0x4
 2187 0aaf 09       		.uleb128 0x9
 2188 0ab0 BC000000 		.4byte	.LASF148
 2189 0ab4 10       		.byte	0x10
 2190 0ab5 BF01     		.2byte	0x1bf
 2191 0ab7 370B0000 		.4byte	0xb37
 2192 0abb 08       		.byte	0x8
 2193 0abc 09       		.uleb128 0x9
 2194 0abd 5B070000 		.4byte	.LASF149
 2195 0ac1 10       		.byte	0x10
ARM GAS  /tmp/ccZi7sy1.s 			page 40


 2196 0ac2 C301     		.2byte	0x1c3
 2197 0ac4 2B0B0000 		.4byte	0xb2b
 2198 0ac8 0C       		.byte	0xc
 2199 0ac9 09       		.uleb128 0x9
 2200 0aca 66020000 		.4byte	.LASF150
 2201 0ace 10       		.byte	0x10
 2202 0acf C701     		.2byte	0x1c7
 2203 0ad1 1F0B0000 		.4byte	0xb1f
 2204 0ad5 10       		.byte	0x10
 2205 0ad6 09       		.uleb128 0x9
 2206 0ad7 FD080000 		.4byte	.LASF151
 2207 0adb 10       		.byte	0x10
 2208 0adc CF01     		.2byte	0x1cf
 2209 0ade C3000000 		.4byte	0xc3
 2210 0ae2 14       		.byte	0x14
 2211 0ae3 08       		.uleb128 0x8
 2212 0ae4 74696D00 		.ascii	"tim\000"
 2213 0ae8 10       		.byte	0x10
 2214 0ae9 D301     		.2byte	0x1d3
 2215 0aeb F20B0000 		.4byte	0xbf2
 2216 0aef 18       		.byte	0x18
 2217 0af0 00       		.byte	0
 2218 0af1 04       		.uleb128 0x4
 2219 0af2 F8020000 		.4byte	.LASF152
 2220 0af6 0F       		.byte	0xf
 2221 0af7 5A       		.byte	0x5a
 2222 0af8 FC0A0000 		.4byte	0xafc
 2223 0afc 0A       		.uleb128 0xa
 2224 0afd 04       		.byte	0x4
 2225 0afe 020B0000 		.4byte	0xb02
 2226 0b02 0C       		.uleb128 0xc
 2227 0b03 0D0B0000 		.4byte	0xb0d
 2228 0b07 0D       		.uleb128 0xd
 2229 0b08 0D0B0000 		.4byte	0xb0d
 2230 0b0c 00       		.byte	0
 2231 0b0d 0A       		.uleb128 0xa
 2232 0b0e 04       		.byte	0x4
 2233 0b0f 7D0A0000 		.4byte	0xa7d
 2234 0b13 16       		.uleb128 0x16
 2235 0b14 49020000 		.4byte	.LASF153
 2236 0b18 10       		.byte	0x10
 2237 0b19 5F01     		.2byte	0x15f
 2238 0b1b C3000000 		.4byte	0xc3
 2239 0b1f 16       		.uleb128 0x16
 2240 0b20 0F000000 		.4byte	.LASF154
 2241 0b24 10       		.byte	0x10
 2242 0b25 6401     		.2byte	0x164
 2243 0b27 A2000000 		.4byte	0xa2
 2244 0b2b 16       		.uleb128 0x16
 2245 0b2c DB060000 		.4byte	.LASF155
 2246 0b30 10       		.byte	0x10
 2247 0b31 6901     		.2byte	0x169
 2248 0b33 C3000000 		.4byte	0xc3
 2249 0b37 16       		.uleb128 0x16
 2250 0b38 7C080000 		.4byte	.LASF156
 2251 0b3c 10       		.byte	0x10
 2252 0b3d 6E01     		.2byte	0x16e
ARM GAS  /tmp/ccZi7sy1.s 			page 41


 2253 0b3f C3000000 		.4byte	0xc3
 2254 0b43 15       		.uleb128 0x15
 2255 0b44 08       		.byte	0x8
 2256 0b45 10       		.byte	0x10
 2257 0b46 7301     		.2byte	0x173
 2258 0b48 670B0000 		.4byte	0xb67
 2259 0b4c 09       		.uleb128 0x9
 2260 0b4d 89070000 		.4byte	.LASF157
 2261 0b51 10       		.byte	0x10
 2262 0b52 7701     		.2byte	0x177
 2263 0b54 130B0000 		.4byte	0xb13
 2264 0b58 00       		.byte	0
 2265 0b59 09       		.uleb128 0x9
 2266 0b5a B0040000 		.4byte	.LASF158
 2267 0b5e 10       		.byte	0x10
 2268 0b5f 7D01     		.2byte	0x17d
 2269 0b61 F10A0000 		.4byte	0xaf1
 2270 0b65 04       		.byte	0x4
 2271 0b66 00       		.byte	0
 2272 0b67 16       		.uleb128 0x16
 2273 0b68 FF070000 		.4byte	.LASF159
 2274 0b6c 10       		.byte	0x10
 2275 0b6d 7F01     		.2byte	0x17f
 2276 0b6f 430B0000 		.4byte	0xb43
 2277 0b73 15       		.uleb128 0x15
 2278 0b74 34       		.byte	0x34
 2279 0b75 10       		.byte	0x10
 2280 0b76 8401     		.2byte	0x184
 2281 0b78 CB0B0000 		.4byte	0xbcb
 2282 0b7c 09       		.uleb128 0x9
 2283 0b7d E1010000 		.4byte	.LASF160
 2284 0b81 10       		.byte	0x10
 2285 0b82 8A01     		.2byte	0x18a
 2286 0b84 C3000000 		.4byte	0xc3
 2287 0b88 00       		.byte	0
 2288 0b89 09       		.uleb128 0x9
 2289 0b8a BC000000 		.4byte	.LASF148
 2290 0b8e 10       		.byte	0x10
 2291 0b8f 9001     		.2byte	0x190
 2292 0b91 370B0000 		.4byte	0xb37
 2293 0b95 04       		.byte	0x4
 2294 0b96 09       		.uleb128 0x9
 2295 0b97 B0040000 		.4byte	.LASF158
 2296 0b9b 10       		.byte	0x10
 2297 0b9c 9601     		.2byte	0x196
 2298 0b9e F10A0000 		.4byte	0xaf1
 2299 0ba2 08       		.byte	0x8
 2300 0ba3 09       		.uleb128 0x9
 2301 0ba4 66020000 		.4byte	.LASF150
 2302 0ba8 10       		.byte	0x10
 2303 0ba9 9A01     		.2byte	0x19a
 2304 0bab CB0B0000 		.4byte	0xbcb
 2305 0baf 0C       		.byte	0xc
 2306 0bb0 08       		.uleb128 0x8
 2307 0bb1 63723200 		.ascii	"cr2\000"
 2308 0bb5 10       		.byte	0x10
 2309 0bb6 A001     		.2byte	0x1a0
ARM GAS  /tmp/ccZi7sy1.s 			page 42


 2310 0bb8 C3000000 		.4byte	0xc3
 2311 0bbc 2C       		.byte	0x2c
 2312 0bbd 09       		.uleb128 0x9
 2313 0bbe 24090000 		.4byte	.LASF161
 2314 0bc2 10       		.byte	0x10
 2315 0bc3 AD01     		.2byte	0x1ad
 2316 0bc5 C3000000 		.4byte	0xc3
 2317 0bc9 30       		.byte	0x30
 2318 0bca 00       		.byte	0
 2319 0bcb 13       		.uleb128 0x13
 2320 0bcc 670B0000 		.4byte	0xb67
 2321 0bd0 DB0B0000 		.4byte	0xbdb
 2322 0bd4 14       		.uleb128 0x14
 2323 0bd5 46040000 		.4byte	0x446
 2324 0bd9 03       		.byte	0x3
 2325 0bda 00       		.byte	0
 2326 0bdb 16       		.uleb128 0x16
 2327 0bdc 2B080000 		.4byte	.LASF162
 2328 0be0 10       		.byte	0x10
 2329 0be1 AE01     		.2byte	0x1ae
 2330 0be3 730B0000 		.4byte	0xb73
 2331 0be7 0A       		.uleb128 0xa
 2332 0be8 04       		.byte	0x4
 2333 0be9 ED0B0000 		.4byte	0xbed
 2334 0bed 18       		.uleb128 0x18
 2335 0bee DB0B0000 		.4byte	0xbdb
 2336 0bf2 0A       		.uleb128 0xa
 2337 0bf3 04       		.byte	0x4
 2338 0bf4 D3070000 		.4byte	0x7d3
 2339 0bf8 21       		.uleb128 0x21
 2340 0bf9 99050000 		.4byte	.LASF163
 2341 0bfd 01       		.byte	0x1
 2342 0bfe 3301     		.2byte	0x133
 2343 0c00 00000000 		.4byte	.LFB273
 2344 0c04 38000000 		.4byte	.LFE273-.LFB273
 2345 0c08 01       		.uleb128 0x1
 2346 0c09 9C       		.byte	0x9c
 2347 0c0a 330C0000 		.4byte	0xc33
 2348 0c0e 22       		.uleb128 0x22
 2349 0c0f 14000000 		.4byte	.LVL0
 2350 0c13 93100000 		.4byte	0x1093
 2351 0c17 220C0000 		.4byte	0xc22
 2352 0c1b 23       		.uleb128 0x23
 2353 0c1c 01       		.uleb128 0x1
 2354 0c1d 50       		.byte	0x50
 2355 0c1e 02       		.uleb128 0x2
 2356 0c1f 75       		.byte	0x75
 2357 0c20 00       		.sleb128 0
 2358 0c21 00       		.byte	0
 2359 0c22 24       		.uleb128 0x24
 2360 0c23 2A000000 		.4byte	.LVL1
 2361 0c27 93100000 		.4byte	0x1093
 2362 0c2b 23       		.uleb128 0x23
 2363 0c2c 01       		.uleb128 0x1
 2364 0c2d 50       		.byte	0x50
 2365 0c2e 02       		.uleb128 0x2
 2366 0c2f 74       		.byte	0x74
ARM GAS  /tmp/ccZi7sy1.s 			page 43


 2367 0c30 00       		.sleb128 0
 2368 0c31 00       		.byte	0
 2369 0c32 00       		.byte	0
 2370 0c33 21       		.uleb128 0x21
 2371 0c34 78020000 		.4byte	.LASF164
 2372 0c38 01       		.byte	0x1
 2373 0c39 7001     		.2byte	0x170
 2374 0c3b 00000000 		.4byte	.LFB274
 2375 0c3f 24010000 		.4byte	.LFE274-.LFB274
 2376 0c43 01       		.uleb128 0x1
 2377 0c44 9C       		.byte	0x9c
 2378 0c45 AA0C0000 		.4byte	0xcaa
 2379 0c49 25       		.uleb128 0x25
 2380 0c4a 1D050000 		.4byte	.LASF167
 2381 0c4e 01       		.byte	0x1
 2382 0c4f 7001     		.2byte	0x170
 2383 0c51 0D0B0000 		.4byte	0xb0d
 2384 0c55 00000000 		.4byte	.LLST0
 2385 0c59 26       		.uleb128 0x26
 2386 0c5a 70736300 		.ascii	"psc\000"
 2387 0c5e 01       		.byte	0x1
 2388 0c5f 7101     		.2byte	0x171
 2389 0c61 C3000000 		.4byte	0xc3
 2390 0c65 6E000000 		.4byte	.LLST1
 2391 0c69 27       		.uleb128 0x27
 2392 0c6a 0E050000 		.4byte	.LASF165
 2393 0c6e 01       		.byte	0x1
 2394 0c6f 7201     		.2byte	0x172
 2395 0c71 C3000000 		.4byte	0xc3
 2396 0c75 D0000000 		.4byte	.LLST2
 2397 0c79 28       		.uleb128 0x28
 2398 0c7a E7060000 		.4byte	.LASF179
 2399 0c7e BA0C0000 		.4byte	0xcba
 2400 0c82 22       		.uleb128 0x22
 2401 0c83 F0000000 		.4byte	.LVL23
 2402 0c87 A5100000 		.4byte	0x10a5
 2403 0c8b 9A0C0000 		.4byte	0xc9a
 2404 0c8f 23       		.uleb128 0x23
 2405 0c90 01       		.uleb128 0x1
 2406 0c91 51       		.byte	0x51
 2407 0c92 01       		.uleb128 0x1
 2408 0c93 37       		.byte	0x37
 2409 0c94 23       		.uleb128 0x23
 2410 0c95 01       		.uleb128 0x1
 2411 0c96 50       		.byte	0x50
 2412 0c97 01       		.uleb128 0x1
 2413 0c98 49       		.byte	0x49
 2414 0c99 00       		.byte	0
 2415 0c9a 24       		.uleb128 0x24
 2416 0c9b F8000000 		.4byte	.LVL24
 2417 0c9f A5100000 		.4byte	0x10a5
 2418 0ca3 23       		.uleb128 0x23
 2419 0ca4 01       		.uleb128 0x1
 2420 0ca5 51       		.byte	0x51
 2421 0ca6 01       		.uleb128 0x1
 2422 0ca7 37       		.byte	0x37
 2423 0ca8 00       		.byte	0
ARM GAS  /tmp/ccZi7sy1.s 			page 44


 2424 0ca9 00       		.byte	0
 2425 0caa 13       		.uleb128 0x13
 2426 0cab 20080000 		.4byte	0x820
 2427 0caf BA0C0000 		.4byte	0xcba
 2428 0cb3 14       		.uleb128 0x14
 2429 0cb4 46040000 		.4byte	0x446
 2430 0cb8 0D       		.byte	0xd
 2431 0cb9 00       		.byte	0
 2432 0cba 18       		.uleb128 0x18
 2433 0cbb AA0C0000 		.4byte	0xcaa
 2434 0cbf 21       		.uleb128 0x21
 2435 0cc0 34070000 		.4byte	.LASF166
 2436 0cc4 01       		.byte	0x1
 2437 0cc5 6402     		.2byte	0x264
 2438 0cc7 00000000 		.4byte	.LFB275
 2439 0ccb 64000000 		.4byte	.LFE275-.LFB275
 2440 0ccf 01       		.uleb128 0x1
 2441 0cd0 9C       		.byte	0x9c
 2442 0cd1 1B0D0000 		.4byte	0xd1b
 2443 0cd5 25       		.uleb128 0x25
 2444 0cd6 1D050000 		.4byte	.LASF167
 2445 0cda 01       		.byte	0x1
 2446 0cdb 6402     		.2byte	0x264
 2447 0cdd 0D0B0000 		.4byte	0xb0d
 2448 0ce1 06010000 		.4byte	.LLST3
 2449 0ce5 22       		.uleb128 0x22
 2450 0ce6 34000000 		.4byte	.LVL31
 2451 0cea BB100000 		.4byte	0x10bb
 2452 0cee F80C0000 		.4byte	0xcf8
 2453 0cf2 23       		.uleb128 0x23
 2454 0cf3 01       		.uleb128 0x1
 2455 0cf4 50       		.byte	0x50
 2456 0cf5 01       		.uleb128 0x1
 2457 0cf6 4D       		.byte	0x4d
 2458 0cf7 00       		.byte	0
 2459 0cf8 22       		.uleb128 0x22
 2460 0cf9 4C000000 		.4byte	.LVL34
 2461 0cfd BB100000 		.4byte	0x10bb
 2462 0d01 0B0D0000 		.4byte	0xd0b
 2463 0d05 23       		.uleb128 0x23
 2464 0d06 01       		.uleb128 0x1
 2465 0d07 50       		.byte	0x50
 2466 0d08 01       		.uleb128 0x1
 2467 0d09 49       		.byte	0x49
 2468 0d0a 00       		.byte	0
 2469 0d0b 24       		.uleb128 0x24
 2470 0d0c 52000000 		.4byte	.LVL35
 2471 0d10 BB100000 		.4byte	0x10bb
 2472 0d14 23       		.uleb128 0x23
 2473 0d15 01       		.uleb128 0x1
 2474 0d16 50       		.byte	0x50
 2475 0d17 01       		.uleb128 0x1
 2476 0d18 4B       		.byte	0x4b
 2477 0d19 00       		.byte	0
 2478 0d1a 00       		.byte	0
 2479 0d1b 21       		.uleb128 0x21
 2480 0d1c F5010000 		.4byte	.LASF168
ARM GAS  /tmp/ccZi7sy1.s 			page 45


 2481 0d20 01       		.byte	0x1
 2482 0d21 BF02     		.2byte	0x2bf
 2483 0d23 00000000 		.4byte	.LFB276
 2484 0d27 0C000000 		.4byte	.LFE276-.LFB276
 2485 0d2b 01       		.uleb128 0x1
 2486 0d2c 9C       		.byte	0x9c
 2487 0d2d 5E0D0000 		.4byte	0xd5e
 2488 0d31 29       		.uleb128 0x29
 2489 0d32 1D050000 		.4byte	.LASF167
 2490 0d36 01       		.byte	0x1
 2491 0d37 BF02     		.2byte	0x2bf
 2492 0d39 0D0B0000 		.4byte	0xb0d
 2493 0d3d 01       		.uleb128 0x1
 2494 0d3e 50       		.byte	0x50
 2495 0d3f 25       		.uleb128 0x25
 2496 0d40 09070000 		.4byte	.LASF169
 2497 0d44 01       		.byte	0x1
 2498 0d45 C002     		.2byte	0x2c0
 2499 0d47 1F0B0000 		.4byte	0xb1f
 2500 0d4b 59010000 		.4byte	.LLST4
 2501 0d4f 29       		.uleb128 0x29
 2502 0d50 59040000 		.4byte	.LASF170
 2503 0d54 01       		.byte	0x1
 2504 0d55 C102     		.2byte	0x2c1
 2505 0d57 370B0000 		.4byte	0xb37
 2506 0d5b 01       		.uleb128 0x1
 2507 0d5c 52       		.byte	0x52
 2508 0d5d 00       		.byte	0
 2509 0d5e 21       		.uleb128 0x21
 2510 0d5f C4010000 		.4byte	.LASF171
 2511 0d63 01       		.byte	0x1
 2512 0d64 DA02     		.2byte	0x2da
 2513 0d66 00000000 		.4byte	.LFB277
 2514 0d6a 1E000000 		.4byte	.LFE277-.LFB277
 2515 0d6e 01       		.uleb128 0x1
 2516 0d6f 9C       		.byte	0x9c
 2517 0d70 950D0000 		.4byte	0xd95
 2518 0d74 25       		.uleb128 0x25
 2519 0d75 1D050000 		.4byte	.LASF167
 2520 0d79 01       		.byte	0x1
 2521 0d7a DA02     		.2byte	0x2da
 2522 0d7c 0D0B0000 		.4byte	0xb0d
 2523 0d80 7A010000 		.4byte	.LLST5
 2524 0d84 25       		.uleb128 0x25
 2525 0d85 09070000 		.4byte	.LASF169
 2526 0d89 01       		.byte	0x1
 2527 0d8a DA02     		.2byte	0x2da
 2528 0d8c 1F0B0000 		.4byte	0xb1f
 2529 0d90 9B010000 		.4byte	.LLST6
 2530 0d94 00       		.byte	0
 2531 0d95 21       		.uleb128 0x21
 2532 0d96 4E030000 		.4byte	.LASF172
 2533 0d9a 01       		.byte	0x1
 2534 0d9b F202     		.2byte	0x2f2
 2535 0d9d 00000000 		.4byte	.LFB278
 2536 0da1 1A000000 		.4byte	.LFE278-.LFB278
 2537 0da5 01       		.uleb128 0x1
ARM GAS  /tmp/ccZi7sy1.s 			page 46


 2538 0da6 9C       		.byte	0x9c
 2539 0da7 CA0D0000 		.4byte	0xdca
 2540 0dab 29       		.uleb128 0x29
 2541 0dac 1D050000 		.4byte	.LASF167
 2542 0db0 01       		.byte	0x1
 2543 0db1 F202     		.2byte	0x2f2
 2544 0db3 0D0B0000 		.4byte	0xb0d
 2545 0db7 01       		.uleb128 0x1
 2546 0db8 50       		.byte	0x50
 2547 0db9 27       		.uleb128 0x27
 2548 0dba 24090000 		.4byte	.LASF161
 2549 0dbe 01       		.byte	0x1
 2550 0dbf F302     		.2byte	0x2f3
 2551 0dc1 C3000000 		.4byte	0xc3
 2552 0dc5 BC010000 		.4byte	.LLST7
 2553 0dc9 00       		.byte	0
 2554 0dca 21       		.uleb128 0x21
 2555 0dcb F8050000 		.4byte	.LASF173
 2556 0dcf 01       		.byte	0x1
 2557 0dd0 0603     		.2byte	0x306
 2558 0dd2 00000000 		.4byte	.LFB279
 2559 0dd6 0C000000 		.4byte	.LFE279-.LFB279
 2560 0dda 01       		.uleb128 0x1
 2561 0ddb 9C       		.byte	0x9c
 2562 0ddc EF0D0000 		.4byte	0xdef
 2563 0de0 29       		.uleb128 0x29
 2564 0de1 1D050000 		.4byte	.LASF167
 2565 0de5 01       		.byte	0x1
 2566 0de6 0603     		.2byte	0x306
 2567 0de8 0D0B0000 		.4byte	0xb0d
 2568 0dec 01       		.uleb128 0x1
 2569 0ded 50       		.byte	0x50
 2570 0dee 00       		.byte	0
 2571 0def 21       		.uleb128 0x21
 2572 0df0 8F020000 		.4byte	.LASF174
 2573 0df4 01       		.byte	0x1
 2574 0df5 1603     		.2byte	0x316
 2575 0df7 00000000 		.4byte	.LFB280
 2576 0dfb 18000000 		.4byte	.LFE280-.LFB280
 2577 0dff 01       		.uleb128 0x1
 2578 0e00 9C       		.byte	0x9c
 2579 0e01 360E0000 		.4byte	0xe36
 2580 0e05 25       		.uleb128 0x25
 2581 0e06 1D050000 		.4byte	.LASF167
 2582 0e0a 01       		.byte	0x1
 2583 0e0b 1603     		.2byte	0x316
 2584 0e0d 0D0B0000 		.4byte	0xb0d
 2585 0e11 CF010000 		.4byte	.LLST8
 2586 0e15 25       		.uleb128 0x25
 2587 0e16 09070000 		.4byte	.LASF169
 2588 0e1a 01       		.byte	0x1
 2589 0e1b 1703     		.2byte	0x317
 2590 0e1d 1F0B0000 		.4byte	0xb1f
 2591 0e21 F0010000 		.4byte	.LLST9
 2592 0e25 27       		.uleb128 0x27
 2593 0e26 24090000 		.4byte	.LASF161
 2594 0e2a 01       		.byte	0x1
ARM GAS  /tmp/ccZi7sy1.s 			page 47


 2595 0e2b 1803     		.2byte	0x318
 2596 0e2d C3000000 		.4byte	0xc3
 2597 0e31 11020000 		.4byte	.LLST10
 2598 0e35 00       		.byte	0
 2599 0e36 21       		.uleb128 0x21
 2600 0e37 E9040000 		.4byte	.LASF175
 2601 0e3b 01       		.byte	0x1
 2602 0e3c 3203     		.2byte	0x332
 2603 0e3e 00000000 		.4byte	.LFB281
 2604 0e42 12000000 		.4byte	.LFE281-.LFB281
 2605 0e46 01       		.uleb128 0x1
 2606 0e47 9C       		.byte	0x9c
 2607 0e48 6D0E0000 		.4byte	0xe6d
 2608 0e4c 25       		.uleb128 0x25
 2609 0e4d 1D050000 		.4byte	.LASF167
 2610 0e51 01       		.byte	0x1
 2611 0e52 3203     		.2byte	0x332
 2612 0e54 0D0B0000 		.4byte	0xb0d
 2613 0e58 24020000 		.4byte	.LLST11
 2614 0e5c 25       		.uleb128 0x25
 2615 0e5d 09070000 		.4byte	.LASF169
 2616 0e61 01       		.byte	0x1
 2617 0e62 3303     		.2byte	0x333
 2618 0e64 1F0B0000 		.4byte	0xb1f
 2619 0e68 45020000 		.4byte	.LLST12
 2620 0e6c 00       		.byte	0
 2621 0e6d 21       		.uleb128 0x21
 2622 0e6e 34000000 		.4byte	.LASF176
 2623 0e72 01       		.byte	0x1
 2624 0e73 4203     		.2byte	0x342
 2625 0e75 00000000 		.4byte	.LFB282
 2626 0e79 58000000 		.4byte	.LFE282-.LFB282
 2627 0e7d 01       		.uleb128 0x1
 2628 0e7e 9C       		.byte	0x9c
 2629 0e7f EF0E0000 		.4byte	0xeef
 2630 0e83 25       		.uleb128 0x25
 2631 0e84 1D050000 		.4byte	.LASF167
 2632 0e88 01       		.byte	0x1
 2633 0e89 4203     		.2byte	0x342
 2634 0e8b 0D0B0000 		.4byte	0xb0d
 2635 0e8f 66020000 		.4byte	.LLST13
 2636 0e93 26       		.uleb128 0x26
 2637 0e94 737200   		.ascii	"sr\000"
 2638 0e97 01       		.byte	0x1
 2639 0e98 4303     		.2byte	0x343
 2640 0e9a C3000000 		.4byte	0xc3
 2641 0e9e 84020000 		.4byte	.LLST14
 2642 0ea2 2A       		.uleb128 0x2a
 2643 0ea3 1E000000 		.4byte	.LVL56
 2644 0ea7 B20E0000 		.4byte	0xeb2
 2645 0eab 23       		.uleb128 0x23
 2646 0eac 01       		.uleb128 0x1
 2647 0ead 50       		.byte	0x50
 2648 0eae 02       		.uleb128 0x2
 2649 0eaf 75       		.byte	0x75
 2650 0eb0 00       		.sleb128 0
 2651 0eb1 00       		.byte	0
ARM GAS  /tmp/ccZi7sy1.s 			page 48


 2652 0eb2 2A       		.uleb128 0x2a
 2653 0eb3 2C000000 		.4byte	.LVL57
 2654 0eb7 C20E0000 		.4byte	0xec2
 2655 0ebb 23       		.uleb128 0x23
 2656 0ebc 01       		.uleb128 0x1
 2657 0ebd 50       		.byte	0x50
 2658 0ebe 02       		.uleb128 0x2
 2659 0ebf 75       		.byte	0x75
 2660 0ec0 00       		.sleb128 0
 2661 0ec1 00       		.byte	0
 2662 0ec2 2A       		.uleb128 0x2a
 2663 0ec3 3A000000 		.4byte	.LVL58
 2664 0ec7 D20E0000 		.4byte	0xed2
 2665 0ecb 23       		.uleb128 0x23
 2666 0ecc 01       		.uleb128 0x1
 2667 0ecd 50       		.byte	0x50
 2668 0ece 02       		.uleb128 0x2
 2669 0ecf 75       		.byte	0x75
 2670 0ed0 00       		.sleb128 0
 2671 0ed1 00       		.byte	0
 2672 0ed2 2A       		.uleb128 0x2a
 2673 0ed3 48000000 		.4byte	.LVL59
 2674 0ed7 E20E0000 		.4byte	0xee2
 2675 0edb 23       		.uleb128 0x23
 2676 0edc 01       		.uleb128 0x1
 2677 0edd 50       		.byte	0x50
 2678 0ede 02       		.uleb128 0x2
 2679 0edf 75       		.byte	0x75
 2680 0ee0 00       		.sleb128 0
 2681 0ee1 00       		.byte	0
 2682 0ee2 2B       		.uleb128 0x2b
 2683 0ee3 56000000 		.4byte	.LVL60
 2684 0ee7 23       		.uleb128 0x23
 2685 0ee8 01       		.uleb128 0x1
 2686 0ee9 50       		.byte	0x50
 2687 0eea 02       		.uleb128 0x2
 2688 0eeb 75       		.byte	0x75
 2689 0eec 00       		.sleb128 0
 2690 0eed 00       		.byte	0
 2691 0eee 00       		.byte	0
 2692 0eef 2C       		.uleb128 0x2c
 2693 0ef0 62000000 		.4byte	.LASF177
 2694 0ef4 01       		.byte	0x1
 2695 0ef5 76       		.byte	0x76
 2696 0ef6 00000000 		.4byte	.LFB270
 2697 0efa 2A000000 		.4byte	.LFE270-.LFB270
 2698 0efe 01       		.uleb128 0x1
 2699 0eff 9C       		.byte	0x9c
 2700 0f00 5C0F0000 		.4byte	0xf5c
 2701 0f04 2D       		.uleb128 0x2d
 2702 0f05 E7060000 		.4byte	.LASF179
 2703 0f09 6C0F0000 		.4byte	0xf6c
 2704 0f0d 05       		.uleb128 0x5
 2705 0f0e 03       		.byte	0x3
 2706 0f0f 00000000 		.4byte	__func__.7592
 2707 0f13 22       		.uleb128 0x22
 2708 0f14 10000000 		.4byte	.LVL61
ARM GAS  /tmp/ccZi7sy1.s 			page 49


 2709 0f18 CC100000 		.4byte	0x10cc
 2710 0f1c 270F0000 		.4byte	0xf27
 2711 0f20 23       		.uleb128 0x23
 2712 0f21 01       		.uleb128 0x1
 2713 0f22 50       		.byte	0x50
 2714 0f23 02       		.uleb128 0x2
 2715 0f24 74       		.byte	0x74
 2716 0f25 00       		.sleb128 0
 2717 0f26 00       		.byte	0
 2718 0f27 22       		.uleb128 0x22
 2719 0f28 1C000000 		.4byte	.LVL62
 2720 0f2c 6D0E0000 		.4byte	0xe6d
 2721 0f30 3E0F0000 		.4byte	0xf3e
 2722 0f34 23       		.uleb128 0x23
 2723 0f35 01       		.uleb128 0x1
 2724 0f36 50       		.byte	0x50
 2725 0f37 05       		.uleb128 0x5
 2726 0f38 03       		.byte	0x3
 2727 0f39 00000000 		.4byte	.LANCHOR0
 2728 0f3d 00       		.byte	0
 2729 0f3e 22       		.uleb128 0x22
 2730 0f3f 22000000 		.4byte	.LVL63
 2731 0f43 DD100000 		.4byte	0x10dd
 2732 0f47 520F0000 		.4byte	0xf52
 2733 0f4b 23       		.uleb128 0x23
 2734 0f4c 01       		.uleb128 0x1
 2735 0f4d 50       		.byte	0x50
 2736 0f4e 02       		.uleb128 0x2
 2737 0f4f 74       		.byte	0x74
 2738 0f50 00       		.sleb128 0
 2739 0f51 00       		.byte	0
 2740 0f52 2E       		.uleb128 0x2e
 2741 0f53 2A000000 		.4byte	.LVL64
 2742 0f57 EE100000 		.4byte	0x10ee
 2743 0f5b 00       		.byte	0
 2744 0f5c 13       		.uleb128 0x13
 2745 0f5d 20080000 		.4byte	0x820
 2746 0f61 6C0F0000 		.4byte	0xf6c
 2747 0f65 14       		.uleb128 0x14
 2748 0f66 46040000 		.4byte	0x446
 2749 0f6a 08       		.byte	0x8
 2750 0f6b 00       		.byte	0
 2751 0f6c 18       		.uleb128 0x18
 2752 0f6d 5C0F0000 		.4byte	0xf5c
 2753 0f71 2C       		.uleb128 0x2c
 2754 0f72 C3000000 		.4byte	.LASF178
 2755 0f76 01       		.byte	0x1
 2756 0f77 8A       		.byte	0x8a
 2757 0f78 00000000 		.4byte	.LFB271
 2758 0f7c 2A000000 		.4byte	.LFE271-.LFB271
 2759 0f80 01       		.uleb128 0x1
 2760 0f81 9C       		.byte	0x9c
 2761 0f82 DE0F0000 		.4byte	0xfde
 2762 0f86 2D       		.uleb128 0x2d
 2763 0f87 E7060000 		.4byte	.LASF179
 2764 0f8b DE0F0000 		.4byte	0xfde
 2765 0f8f 05       		.uleb128 0x5
ARM GAS  /tmp/ccZi7sy1.s 			page 50


 2766 0f90 03       		.byte	0x3
 2767 0f91 00000000 		.4byte	__func__.7596
 2768 0f95 22       		.uleb128 0x22
 2769 0f96 10000000 		.4byte	.LVL65
 2770 0f9a CC100000 		.4byte	0x10cc
 2771 0f9e A90F0000 		.4byte	0xfa9
 2772 0fa2 23       		.uleb128 0x23
 2773 0fa3 01       		.uleb128 0x1
 2774 0fa4 50       		.byte	0x50
 2775 0fa5 02       		.uleb128 0x2
 2776 0fa6 74       		.byte	0x74
 2777 0fa7 00       		.sleb128 0
 2778 0fa8 00       		.byte	0
 2779 0fa9 22       		.uleb128 0x22
 2780 0faa 1C000000 		.4byte	.LVL66
 2781 0fae 6D0E0000 		.4byte	0xe6d
 2782 0fb2 C00F0000 		.4byte	0xfc0
 2783 0fb6 23       		.uleb128 0x23
 2784 0fb7 01       		.uleb128 0x1
 2785 0fb8 50       		.byte	0x50
 2786 0fb9 05       		.uleb128 0x5
 2787 0fba 03       		.byte	0x3
 2788 0fbb 00000000 		.4byte	.LANCHOR0
 2789 0fbf 00       		.byte	0
 2790 0fc0 22       		.uleb128 0x22
 2791 0fc1 22000000 		.4byte	.LVL67
 2792 0fc5 DD100000 		.4byte	0x10dd
 2793 0fc9 D40F0000 		.4byte	0xfd4
 2794 0fcd 23       		.uleb128 0x23
 2795 0fce 01       		.uleb128 0x1
 2796 0fcf 50       		.byte	0x50
 2797 0fd0 02       		.uleb128 0x2
 2798 0fd1 74       		.byte	0x74
 2799 0fd2 00       		.sleb128 0
 2800 0fd3 00       		.byte	0
 2801 0fd4 2E       		.uleb128 0x2e
 2802 0fd5 2A000000 		.4byte	.LVL68
 2803 0fd9 EE100000 		.4byte	0x10ee
 2804 0fdd 00       		.byte	0
 2805 0fde 18       		.uleb128 0x18
 2806 0fdf 5C0F0000 		.4byte	0xf5c
 2807 0fe3 2C       		.uleb128 0x2c
 2808 0fe4 94040000 		.4byte	.LASF180
 2809 0fe8 01       		.byte	0x1
 2810 0fe9 B4       		.byte	0xb4
 2811 0fea 00000000 		.4byte	.LFB272
 2812 0fee 2A000000 		.4byte	.LFE272-.LFB272
 2813 0ff2 01       		.uleb128 0x1
 2814 0ff3 9C       		.byte	0x9c
 2815 0ff4 50100000 		.4byte	0x1050
 2816 0ff8 2D       		.uleb128 0x2d
 2817 0ff9 E7060000 		.4byte	.LASF179
 2818 0ffd 50100000 		.4byte	0x1050
 2819 1001 05       		.uleb128 0x5
 2820 1002 03       		.byte	0x3
 2821 1003 00000000 		.4byte	__func__.7600
 2822 1007 22       		.uleb128 0x22
ARM GAS  /tmp/ccZi7sy1.s 			page 51


 2823 1008 10000000 		.4byte	.LVL69
 2824 100c CC100000 		.4byte	0x10cc
 2825 1010 1B100000 		.4byte	0x101b
 2826 1014 23       		.uleb128 0x23
 2827 1015 01       		.uleb128 0x1
 2828 1016 50       		.byte	0x50
 2829 1017 02       		.uleb128 0x2
 2830 1018 74       		.byte	0x74
 2831 1019 00       		.sleb128 0
 2832 101a 00       		.byte	0
 2833 101b 22       		.uleb128 0x22
 2834 101c 1C000000 		.4byte	.LVL70
 2835 1020 6D0E0000 		.4byte	0xe6d
 2836 1024 32100000 		.4byte	0x1032
 2837 1028 23       		.uleb128 0x23
 2838 1029 01       		.uleb128 0x1
 2839 102a 50       		.byte	0x50
 2840 102b 05       		.uleb128 0x5
 2841 102c 03       		.byte	0x3
 2842 102d 00000000 		.4byte	.LANCHOR1
 2843 1031 00       		.byte	0
 2844 1032 22       		.uleb128 0x22
 2845 1033 22000000 		.4byte	.LVL71
 2846 1037 DD100000 		.4byte	0x10dd
 2847 103b 46100000 		.4byte	0x1046
 2848 103f 23       		.uleb128 0x23
 2849 1040 01       		.uleb128 0x1
 2850 1041 50       		.byte	0x50
 2851 1042 02       		.uleb128 0x2
 2852 1043 74       		.byte	0x74
 2853 1044 00       		.sleb128 0
 2854 1045 00       		.byte	0
 2855 1046 2E       		.uleb128 0x2e
 2856 1047 2A000000 		.4byte	.LVL72
 2857 104b EE100000 		.4byte	0x10ee
 2858 104f 00       		.byte	0
 2859 1050 18       		.uleb128 0x18
 2860 1051 5C0F0000 		.4byte	0xf5c
 2861 1055 2F       		.uleb128 0x2f
 2862 1056 A5060000 		.4byte	.LASF181
 2863 105a 11       		.byte	0x11
 2864 105b 4407     		.2byte	0x744
 2865 105d 61100000 		.4byte	0x1061
 2866 1061 12       		.uleb128 0x12
 2867 1062 B8000000 		.4byte	0xb8
 2868 1066 30       		.uleb128 0x30
 2869 1067 636800   		.ascii	"ch\000"
 2870 106a 06       		.byte	0x6
 2871 106b D201     		.2byte	0x1d2
 2872 106d EA030000 		.4byte	0x3ea
 2873 1071 31       		.uleb128 0x31
 2874 1072 53020000 		.4byte	.LASF182
 2875 1076 01       		.byte	0x1
 2876 1077 2A       		.byte	0x2a
 2877 1078 7D0A0000 		.4byte	0xa7d
 2878 107c 05       		.uleb128 0x5
 2879 107d 03       		.byte	0x3
ARM GAS  /tmp/ccZi7sy1.s 			page 52


 2880 107e 00000000 		.4byte	PWMD1
 2881 1082 31       		.uleb128 0x31
 2882 1083 1B030000 		.4byte	.LASF183
 2883 1087 01       		.byte	0x1
 2884 1088 3A       		.byte	0x3a
 2885 1089 7D0A0000 		.4byte	0xa7d
 2886 108d 05       		.uleb128 0x5
 2887 108e 03       		.byte	0x3
 2888 108f 00000000 		.4byte	PWMD3
 2889 1093 32       		.uleb128 0x32
 2890 1094 16090000 		.4byte	.LASF184
 2891 1098 0F       		.byte	0xf
 2892 1099 2001     		.2byte	0x120
 2893 109b A5100000 		.4byte	0x10a5
 2894 109f 0D       		.uleb128 0xd
 2895 10a0 0D0B0000 		.4byte	0xb0d
 2896 10a4 00       		.byte	0
 2897 10a5 33       		.uleb128 0x33
 2898 10a6 0C020000 		.4byte	.LASF185
 2899 10aa 12       		.byte	0x12
 2900 10ab 4E       		.byte	0x4e
 2901 10ac BB100000 		.4byte	0x10bb
 2902 10b0 0D       		.uleb128 0xd
 2903 10b1 C3000000 		.4byte	0xc3
 2904 10b5 0D       		.uleb128 0xd
 2905 10b6 C3000000 		.4byte	0xc3
 2906 10ba 00       		.byte	0
 2907 10bb 33       		.uleb128 0x33
 2908 10bc 8F030000 		.4byte	.LASF186
 2909 10c0 12       		.byte	0x12
 2910 10c1 4F       		.byte	0x4f
 2911 10c2 CC100000 		.4byte	0x10cc
 2912 10c6 0D       		.uleb128 0xd
 2913 10c7 C3000000 		.4byte	0xc3
 2914 10cb 00       		.byte	0
 2915 10cc 33       		.uleb128 0x33
 2916 10cd AB000000 		.4byte	.LASF187
 2917 10d1 0B       		.byte	0xb
 2918 10d2 ED       		.byte	0xed
 2919 10d3 DD100000 		.4byte	0x10dd
 2920 10d7 0D       		.uleb128 0xd
 2921 10d8 15080000 		.4byte	0x815
 2922 10dc 00       		.byte	0
 2923 10dd 33       		.uleb128 0x33
 2924 10de C6050000 		.4byte	.LASF188
 2925 10e2 0B       		.byte	0xb
 2926 10e3 EE       		.byte	0xee
 2927 10e4 EE100000 		.4byte	0x10ee
 2928 10e8 0D       		.uleb128 0xd
 2929 10e9 15080000 		.4byte	0x815
 2930 10ed 00       		.byte	0
 2931 10ee 34       		.uleb128 0x34
 2932 10ef 9D040000 		.4byte	.LASF192
 2933 10f3 09       		.byte	0x9
 2934 10f4 EA01     		.2byte	0x1ea
 2935 10f6 00       		.byte	0
 2936              		.section	.debug_abbrev,"",%progbits
ARM GAS  /tmp/ccZi7sy1.s 			page 53


 2937              	.Ldebug_abbrev0:
 2938 0000 01       		.uleb128 0x1
 2939 0001 11       		.uleb128 0x11
 2940 0002 01       		.byte	0x1
 2941 0003 25       		.uleb128 0x25
 2942 0004 0E       		.uleb128 0xe
 2943 0005 13       		.uleb128 0x13
 2944 0006 0B       		.uleb128 0xb
 2945 0007 03       		.uleb128 0x3
 2946 0008 0E       		.uleb128 0xe
 2947 0009 1B       		.uleb128 0x1b
 2948 000a 0E       		.uleb128 0xe
 2949 000b 55       		.uleb128 0x55
 2950 000c 17       		.uleb128 0x17
 2951 000d 11       		.uleb128 0x11
 2952 000e 01       		.uleb128 0x1
 2953 000f 10       		.uleb128 0x10
 2954 0010 17       		.uleb128 0x17
 2955 0011 00       		.byte	0
 2956 0012 00       		.byte	0
 2957 0013 02       		.uleb128 0x2
 2958 0014 24       		.uleb128 0x24
 2959 0015 00       		.byte	0
 2960 0016 0B       		.uleb128 0xb
 2961 0017 0B       		.uleb128 0xb
 2962 0018 3E       		.uleb128 0x3e
 2963 0019 0B       		.uleb128 0xb
 2964 001a 03       		.uleb128 0x3
 2965 001b 0E       		.uleb128 0xe
 2966 001c 00       		.byte	0
 2967 001d 00       		.byte	0
 2968 001e 03       		.uleb128 0x3
 2969 001f 24       		.uleb128 0x24
 2970 0020 00       		.byte	0
 2971 0021 0B       		.uleb128 0xb
 2972 0022 0B       		.uleb128 0xb
 2973 0023 3E       		.uleb128 0x3e
 2974 0024 0B       		.uleb128 0xb
 2975 0025 03       		.uleb128 0x3
 2976 0026 08       		.uleb128 0x8
 2977 0027 00       		.byte	0
 2978 0028 00       		.byte	0
 2979 0029 04       		.uleb128 0x4
 2980 002a 16       		.uleb128 0x16
 2981 002b 00       		.byte	0
 2982 002c 03       		.uleb128 0x3
 2983 002d 0E       		.uleb128 0xe
 2984 002e 3A       		.uleb128 0x3a
 2985 002f 0B       		.uleb128 0xb
 2986 0030 3B       		.uleb128 0x3b
 2987 0031 0B       		.uleb128 0xb
 2988 0032 49       		.uleb128 0x49
 2989 0033 13       		.uleb128 0x13
 2990 0034 00       		.byte	0
 2991 0035 00       		.byte	0
 2992 0036 05       		.uleb128 0x5
 2993 0037 13       		.uleb128 0x13
ARM GAS  /tmp/ccZi7sy1.s 			page 54


 2994 0038 01       		.byte	0x1
 2995 0039 03       		.uleb128 0x3
 2996 003a 0E       		.uleb128 0xe
 2997 003b 0B       		.uleb128 0xb
 2998 003c 0B       		.uleb128 0xb
 2999 003d 3A       		.uleb128 0x3a
 3000 003e 0B       		.uleb128 0xb
 3001 003f 3B       		.uleb128 0x3b
 3002 0040 0B       		.uleb128 0xb
 3003 0041 01       		.uleb128 0x1
 3004 0042 13       		.uleb128 0x13
 3005 0043 00       		.byte	0
 3006 0044 00       		.byte	0
 3007 0045 06       		.uleb128 0x6
 3008 0046 0D       		.uleb128 0xd
 3009 0047 00       		.byte	0
 3010 0048 03       		.uleb128 0x3
 3011 0049 0E       		.uleb128 0xe
 3012 004a 3A       		.uleb128 0x3a
 3013 004b 0B       		.uleb128 0xb
 3014 004c 3B       		.uleb128 0x3b
 3015 004d 0B       		.uleb128 0xb
 3016 004e 49       		.uleb128 0x49
 3017 004f 13       		.uleb128 0x13
 3018 0050 38       		.uleb128 0x38
 3019 0051 0B       		.uleb128 0xb
 3020 0052 00       		.byte	0
 3021 0053 00       		.byte	0
 3022 0054 07       		.uleb128 0x7
 3023 0055 0D       		.uleb128 0xd
 3024 0056 00       		.byte	0
 3025 0057 03       		.uleb128 0x3
 3026 0058 08       		.uleb128 0x8
 3027 0059 3A       		.uleb128 0x3a
 3028 005a 0B       		.uleb128 0xb
 3029 005b 3B       		.uleb128 0x3b
 3030 005c 0B       		.uleb128 0xb
 3031 005d 49       		.uleb128 0x49
 3032 005e 13       		.uleb128 0x13
 3033 005f 38       		.uleb128 0x38
 3034 0060 0B       		.uleb128 0xb
 3035 0061 00       		.byte	0
 3036 0062 00       		.byte	0
 3037 0063 08       		.uleb128 0x8
 3038 0064 0D       		.uleb128 0xd
 3039 0065 00       		.byte	0
 3040 0066 03       		.uleb128 0x3
 3041 0067 08       		.uleb128 0x8
 3042 0068 3A       		.uleb128 0x3a
 3043 0069 0B       		.uleb128 0xb
 3044 006a 3B       		.uleb128 0x3b
 3045 006b 05       		.uleb128 0x5
 3046 006c 49       		.uleb128 0x49
 3047 006d 13       		.uleb128 0x13
 3048 006e 38       		.uleb128 0x38
 3049 006f 0B       		.uleb128 0xb
 3050 0070 00       		.byte	0
ARM GAS  /tmp/ccZi7sy1.s 			page 55


 3051 0071 00       		.byte	0
 3052 0072 09       		.uleb128 0x9
 3053 0073 0D       		.uleb128 0xd
 3054 0074 00       		.byte	0
 3055 0075 03       		.uleb128 0x3
 3056 0076 0E       		.uleb128 0xe
 3057 0077 3A       		.uleb128 0x3a
 3058 0078 0B       		.uleb128 0xb
 3059 0079 3B       		.uleb128 0x3b
 3060 007a 05       		.uleb128 0x5
 3061 007b 49       		.uleb128 0x49
 3062 007c 13       		.uleb128 0x13
 3063 007d 38       		.uleb128 0x38
 3064 007e 0B       		.uleb128 0xb
 3065 007f 00       		.byte	0
 3066 0080 00       		.byte	0
 3067 0081 0A       		.uleb128 0xa
 3068 0082 0F       		.uleb128 0xf
 3069 0083 00       		.byte	0
 3070 0084 0B       		.uleb128 0xb
 3071 0085 0B       		.uleb128 0xb
 3072 0086 49       		.uleb128 0x49
 3073 0087 13       		.uleb128 0x13
 3074 0088 00       		.byte	0
 3075 0089 00       		.byte	0
 3076 008a 0B       		.uleb128 0xb
 3077 008b 13       		.uleb128 0x13
 3078 008c 01       		.byte	0x1
 3079 008d 03       		.uleb128 0x3
 3080 008e 0E       		.uleb128 0xe
 3081 008f 0B       		.uleb128 0xb
 3082 0090 0B       		.uleb128 0xb
 3083 0091 3A       		.uleb128 0x3a
 3084 0092 0B       		.uleb128 0xb
 3085 0093 3B       		.uleb128 0x3b
 3086 0094 05       		.uleb128 0x5
 3087 0095 01       		.uleb128 0x1
 3088 0096 13       		.uleb128 0x13
 3089 0097 00       		.byte	0
 3090 0098 00       		.byte	0
 3091 0099 0C       		.uleb128 0xc
 3092 009a 15       		.uleb128 0x15
 3093 009b 01       		.byte	0x1
 3094 009c 27       		.uleb128 0x27
 3095 009d 19       		.uleb128 0x19
 3096 009e 01       		.uleb128 0x1
 3097 009f 13       		.uleb128 0x13
 3098 00a0 00       		.byte	0
 3099 00a1 00       		.byte	0
 3100 00a2 0D       		.uleb128 0xd
 3101 00a3 05       		.uleb128 0x5
 3102 00a4 00       		.byte	0
 3103 00a5 49       		.uleb128 0x49
 3104 00a6 13       		.uleb128 0x13
 3105 00a7 00       		.byte	0
 3106 00a8 00       		.byte	0
 3107 00a9 0E       		.uleb128 0xe
ARM GAS  /tmp/ccZi7sy1.s 			page 56


 3108 00aa 0F       		.uleb128 0xf
 3109 00ab 00       		.byte	0
 3110 00ac 0B       		.uleb128 0xb
 3111 00ad 0B       		.uleb128 0xb
 3112 00ae 00       		.byte	0
 3113 00af 00       		.byte	0
 3114 00b0 0F       		.uleb128 0xf
 3115 00b1 13       		.uleb128 0x13
 3116 00b2 01       		.byte	0x1
 3117 00b3 03       		.uleb128 0x3
 3118 00b4 0E       		.uleb128 0xe
 3119 00b5 0B       		.uleb128 0xb
 3120 00b6 05       		.uleb128 0x5
 3121 00b7 3A       		.uleb128 0x3a
 3122 00b8 0B       		.uleb128 0xb
 3123 00b9 3B       		.uleb128 0x3b
 3124 00ba 05       		.uleb128 0x5
 3125 00bb 01       		.uleb128 0x1
 3126 00bc 13       		.uleb128 0x13
 3127 00bd 00       		.byte	0
 3128 00be 00       		.byte	0
 3129 00bf 10       		.uleb128 0x10
 3130 00c0 0D       		.uleb128 0xd
 3131 00c1 00       		.byte	0
 3132 00c2 03       		.uleb128 0x3
 3133 00c3 0E       		.uleb128 0xe
 3134 00c4 3A       		.uleb128 0x3a
 3135 00c5 0B       		.uleb128 0xb
 3136 00c6 3B       		.uleb128 0x3b
 3137 00c7 05       		.uleb128 0x5
 3138 00c8 49       		.uleb128 0x49
 3139 00c9 13       		.uleb128 0x13
 3140 00ca 38       		.uleb128 0x38
 3141 00cb 05       		.uleb128 0x5
 3142 00cc 00       		.byte	0
 3143 00cd 00       		.byte	0
 3144 00ce 11       		.uleb128 0x11
 3145 00cf 0D       		.uleb128 0xd
 3146 00d0 00       		.byte	0
 3147 00d1 03       		.uleb128 0x3
 3148 00d2 08       		.uleb128 0x8
 3149 00d3 3A       		.uleb128 0x3a
 3150 00d4 0B       		.uleb128 0xb
 3151 00d5 3B       		.uleb128 0x3b
 3152 00d6 05       		.uleb128 0x5
 3153 00d7 49       		.uleb128 0x49
 3154 00d8 13       		.uleb128 0x13
 3155 00d9 38       		.uleb128 0x38
 3156 00da 05       		.uleb128 0x5
 3157 00db 00       		.byte	0
 3158 00dc 00       		.byte	0
 3159 00dd 12       		.uleb128 0x12
 3160 00de 35       		.uleb128 0x35
 3161 00df 00       		.byte	0
 3162 00e0 49       		.uleb128 0x49
 3163 00e1 13       		.uleb128 0x13
 3164 00e2 00       		.byte	0
ARM GAS  /tmp/ccZi7sy1.s 			page 57


 3165 00e3 00       		.byte	0
 3166 00e4 13       		.uleb128 0x13
 3167 00e5 01       		.uleb128 0x1
 3168 00e6 01       		.byte	0x1
 3169 00e7 49       		.uleb128 0x49
 3170 00e8 13       		.uleb128 0x13
 3171 00e9 01       		.uleb128 0x1
 3172 00ea 13       		.uleb128 0x13
 3173 00eb 00       		.byte	0
 3174 00ec 00       		.byte	0
 3175 00ed 14       		.uleb128 0x14
 3176 00ee 21       		.uleb128 0x21
 3177 00ef 00       		.byte	0
 3178 00f0 49       		.uleb128 0x49
 3179 00f1 13       		.uleb128 0x13
 3180 00f2 2F       		.uleb128 0x2f
 3181 00f3 0B       		.uleb128 0xb
 3182 00f4 00       		.byte	0
 3183 00f5 00       		.byte	0
 3184 00f6 15       		.uleb128 0x15
 3185 00f7 13       		.uleb128 0x13
 3186 00f8 01       		.byte	0x1
 3187 00f9 0B       		.uleb128 0xb
 3188 00fa 0B       		.uleb128 0xb
 3189 00fb 3A       		.uleb128 0x3a
 3190 00fc 0B       		.uleb128 0xb
 3191 00fd 3B       		.uleb128 0x3b
 3192 00fe 05       		.uleb128 0x5
 3193 00ff 01       		.uleb128 0x1
 3194 0100 13       		.uleb128 0x13
 3195 0101 00       		.byte	0
 3196 0102 00       		.byte	0
 3197 0103 16       		.uleb128 0x16
 3198 0104 16       		.uleb128 0x16
 3199 0105 00       		.byte	0
 3200 0106 03       		.uleb128 0x3
 3201 0107 0E       		.uleb128 0xe
 3202 0108 3A       		.uleb128 0x3a
 3203 0109 0B       		.uleb128 0xb
 3204 010a 3B       		.uleb128 0x3b
 3205 010b 05       		.uleb128 0x5
 3206 010c 49       		.uleb128 0x49
 3207 010d 13       		.uleb128 0x13
 3208 010e 00       		.byte	0
 3209 010f 00       		.byte	0
 3210 0110 17       		.uleb128 0x17
 3211 0111 13       		.uleb128 0x13
 3212 0112 01       		.byte	0x1
 3213 0113 0B       		.uleb128 0xb
 3214 0114 0B       		.uleb128 0xb
 3215 0115 3A       		.uleb128 0x3a
 3216 0116 0B       		.uleb128 0xb
 3217 0117 3B       		.uleb128 0x3b
 3218 0118 0B       		.uleb128 0xb
 3219 0119 01       		.uleb128 0x1
 3220 011a 13       		.uleb128 0x13
 3221 011b 00       		.byte	0
ARM GAS  /tmp/ccZi7sy1.s 			page 58


 3222 011c 00       		.byte	0
 3223 011d 18       		.uleb128 0x18
 3224 011e 26       		.uleb128 0x26
 3225 011f 00       		.byte	0
 3226 0120 49       		.uleb128 0x49
 3227 0121 13       		.uleb128 0x13
 3228 0122 00       		.byte	0
 3229 0123 00       		.byte	0
 3230 0124 19       		.uleb128 0x19
 3231 0125 17       		.uleb128 0x17
 3232 0126 01       		.byte	0x1
 3233 0127 0B       		.uleb128 0xb
 3234 0128 0B       		.uleb128 0xb
 3235 0129 3A       		.uleb128 0x3a
 3236 012a 0B       		.uleb128 0xb
 3237 012b 3B       		.uleb128 0x3b
 3238 012c 0B       		.uleb128 0xb
 3239 012d 01       		.uleb128 0x1
 3240 012e 13       		.uleb128 0x13
 3241 012f 00       		.byte	0
 3242 0130 00       		.byte	0
 3243 0131 1A       		.uleb128 0x1a
 3244 0132 0D       		.uleb128 0xd
 3245 0133 00       		.byte	0
 3246 0134 03       		.uleb128 0x3
 3247 0135 08       		.uleb128 0x8
 3248 0136 3A       		.uleb128 0x3a
 3249 0137 0B       		.uleb128 0xb
 3250 0138 3B       		.uleb128 0x3b
 3251 0139 0B       		.uleb128 0xb
 3252 013a 49       		.uleb128 0x49
 3253 013b 13       		.uleb128 0x13
 3254 013c 00       		.byte	0
 3255 013d 00       		.byte	0
 3256 013e 1B       		.uleb128 0x1b
 3257 013f 0D       		.uleb128 0xd
 3258 0140 00       		.byte	0
 3259 0141 03       		.uleb128 0x3
 3260 0142 0E       		.uleb128 0xe
 3261 0143 3A       		.uleb128 0x3a
 3262 0144 0B       		.uleb128 0xb
 3263 0145 3B       		.uleb128 0x3b
 3264 0146 0B       		.uleb128 0xb
 3265 0147 49       		.uleb128 0x49
 3266 0148 13       		.uleb128 0x13
 3267 0149 00       		.byte	0
 3268 014a 00       		.byte	0
 3269 014b 1C       		.uleb128 0x1c
 3270 014c 0D       		.uleb128 0xd
 3271 014d 00       		.byte	0
 3272 014e 03       		.uleb128 0x3
 3273 014f 0E       		.uleb128 0xe
 3274 0150 3A       		.uleb128 0x3a
 3275 0151 0B       		.uleb128 0xb
 3276 0152 3B       		.uleb128 0x3b
 3277 0153 0B       		.uleb128 0xb
 3278 0154 49       		.uleb128 0x49
ARM GAS  /tmp/ccZi7sy1.s 			page 59


 3279 0155 13       		.uleb128 0x13
 3280 0156 0B       		.uleb128 0xb
 3281 0157 0B       		.uleb128 0xb
 3282 0158 0D       		.uleb128 0xd
 3283 0159 0B       		.uleb128 0xb
 3284 015a 0C       		.uleb128 0xc
 3285 015b 0B       		.uleb128 0xb
 3286 015c 38       		.uleb128 0x38
 3287 015d 0B       		.uleb128 0xb
 3288 015e 00       		.byte	0
 3289 015f 00       		.byte	0
 3290 0160 1D       		.uleb128 0x1d
 3291 0161 13       		.uleb128 0x13
 3292 0162 01       		.byte	0x1
 3293 0163 0B       		.uleb128 0xb
 3294 0164 05       		.uleb128 0x5
 3295 0165 3A       		.uleb128 0x3a
 3296 0166 0B       		.uleb128 0xb
 3297 0167 3B       		.uleb128 0x3b
 3298 0168 0B       		.uleb128 0xb
 3299 0169 01       		.uleb128 0x1
 3300 016a 13       		.uleb128 0x13
 3301 016b 00       		.byte	0
 3302 016c 00       		.byte	0
 3303 016d 1E       		.uleb128 0x1e
 3304 016e 0D       		.uleb128 0xd
 3305 016f 00       		.byte	0
 3306 0170 03       		.uleb128 0x3
 3307 0171 0E       		.uleb128 0xe
 3308 0172 3A       		.uleb128 0x3a
 3309 0173 0B       		.uleb128 0xb
 3310 0174 3B       		.uleb128 0x3b
 3311 0175 05       		.uleb128 0x5
 3312 0176 49       		.uleb128 0x49
 3313 0177 13       		.uleb128 0x13
 3314 0178 00       		.byte	0
 3315 0179 00       		.byte	0
 3316 017a 1F       		.uleb128 0x1f
 3317 017b 04       		.uleb128 0x4
 3318 017c 01       		.byte	0x1
 3319 017d 0B       		.uleb128 0xb
 3320 017e 0B       		.uleb128 0xb
 3321 017f 3A       		.uleb128 0x3a
 3322 0180 0B       		.uleb128 0xb
 3323 0181 3B       		.uleb128 0x3b
 3324 0182 0B       		.uleb128 0xb
 3325 0183 01       		.uleb128 0x1
 3326 0184 13       		.uleb128 0x13
 3327 0185 00       		.byte	0
 3328 0186 00       		.byte	0
 3329 0187 20       		.uleb128 0x20
 3330 0188 28       		.uleb128 0x28
 3331 0189 00       		.byte	0
 3332 018a 03       		.uleb128 0x3
 3333 018b 0E       		.uleb128 0xe
 3334 018c 1C       		.uleb128 0x1c
 3335 018d 0D       		.uleb128 0xd
ARM GAS  /tmp/ccZi7sy1.s 			page 60


 3336 018e 00       		.byte	0
 3337 018f 00       		.byte	0
 3338 0190 21       		.uleb128 0x21
 3339 0191 2E       		.uleb128 0x2e
 3340 0192 01       		.byte	0x1
 3341 0193 3F       		.uleb128 0x3f
 3342 0194 19       		.uleb128 0x19
 3343 0195 03       		.uleb128 0x3
 3344 0196 0E       		.uleb128 0xe
 3345 0197 3A       		.uleb128 0x3a
 3346 0198 0B       		.uleb128 0xb
 3347 0199 3B       		.uleb128 0x3b
 3348 019a 05       		.uleb128 0x5
 3349 019b 27       		.uleb128 0x27
 3350 019c 19       		.uleb128 0x19
 3351 019d 11       		.uleb128 0x11
 3352 019e 01       		.uleb128 0x1
 3353 019f 12       		.uleb128 0x12
 3354 01a0 06       		.uleb128 0x6
 3355 01a1 40       		.uleb128 0x40
 3356 01a2 18       		.uleb128 0x18
 3357 01a3 9742     		.uleb128 0x2117
 3358 01a5 19       		.uleb128 0x19
 3359 01a6 01       		.uleb128 0x1
 3360 01a7 13       		.uleb128 0x13
 3361 01a8 00       		.byte	0
 3362 01a9 00       		.byte	0
 3363 01aa 22       		.uleb128 0x22
 3364 01ab 898201   		.uleb128 0x4109
 3365 01ae 01       		.byte	0x1
 3366 01af 11       		.uleb128 0x11
 3367 01b0 01       		.uleb128 0x1
 3368 01b1 31       		.uleb128 0x31
 3369 01b2 13       		.uleb128 0x13
 3370 01b3 01       		.uleb128 0x1
 3371 01b4 13       		.uleb128 0x13
 3372 01b5 00       		.byte	0
 3373 01b6 00       		.byte	0
 3374 01b7 23       		.uleb128 0x23
 3375 01b8 8A8201   		.uleb128 0x410a
 3376 01bb 00       		.byte	0
 3377 01bc 02       		.uleb128 0x2
 3378 01bd 18       		.uleb128 0x18
 3379 01be 9142     		.uleb128 0x2111
 3380 01c0 18       		.uleb128 0x18
 3381 01c1 00       		.byte	0
 3382 01c2 00       		.byte	0
 3383 01c3 24       		.uleb128 0x24
 3384 01c4 898201   		.uleb128 0x4109
 3385 01c7 01       		.byte	0x1
 3386 01c8 11       		.uleb128 0x11
 3387 01c9 01       		.uleb128 0x1
 3388 01ca 31       		.uleb128 0x31
 3389 01cb 13       		.uleb128 0x13
 3390 01cc 00       		.byte	0
 3391 01cd 00       		.byte	0
 3392 01ce 25       		.uleb128 0x25
ARM GAS  /tmp/ccZi7sy1.s 			page 61


 3393 01cf 05       		.uleb128 0x5
 3394 01d0 00       		.byte	0
 3395 01d1 03       		.uleb128 0x3
 3396 01d2 0E       		.uleb128 0xe
 3397 01d3 3A       		.uleb128 0x3a
 3398 01d4 0B       		.uleb128 0xb
 3399 01d5 3B       		.uleb128 0x3b
 3400 01d6 05       		.uleb128 0x5
 3401 01d7 49       		.uleb128 0x49
 3402 01d8 13       		.uleb128 0x13
 3403 01d9 02       		.uleb128 0x2
 3404 01da 17       		.uleb128 0x17
 3405 01db 00       		.byte	0
 3406 01dc 00       		.byte	0
 3407 01dd 26       		.uleb128 0x26
 3408 01de 34       		.uleb128 0x34
 3409 01df 00       		.byte	0
 3410 01e0 03       		.uleb128 0x3
 3411 01e1 08       		.uleb128 0x8
 3412 01e2 3A       		.uleb128 0x3a
 3413 01e3 0B       		.uleb128 0xb
 3414 01e4 3B       		.uleb128 0x3b
 3415 01e5 05       		.uleb128 0x5
 3416 01e6 49       		.uleb128 0x49
 3417 01e7 13       		.uleb128 0x13
 3418 01e8 02       		.uleb128 0x2
 3419 01e9 17       		.uleb128 0x17
 3420 01ea 00       		.byte	0
 3421 01eb 00       		.byte	0
 3422 01ec 27       		.uleb128 0x27
 3423 01ed 34       		.uleb128 0x34
 3424 01ee 00       		.byte	0
 3425 01ef 03       		.uleb128 0x3
 3426 01f0 0E       		.uleb128 0xe
 3427 01f1 3A       		.uleb128 0x3a
 3428 01f2 0B       		.uleb128 0xb
 3429 01f3 3B       		.uleb128 0x3b
 3430 01f4 05       		.uleb128 0x5
 3431 01f5 49       		.uleb128 0x49
 3432 01f6 13       		.uleb128 0x13
 3433 01f7 02       		.uleb128 0x2
 3434 01f8 17       		.uleb128 0x17
 3435 01f9 00       		.byte	0
 3436 01fa 00       		.byte	0
 3437 01fb 28       		.uleb128 0x28
 3438 01fc 34       		.uleb128 0x34
 3439 01fd 00       		.byte	0
 3440 01fe 03       		.uleb128 0x3
 3441 01ff 0E       		.uleb128 0xe
 3442 0200 49       		.uleb128 0x49
 3443 0201 13       		.uleb128 0x13
 3444 0202 34       		.uleb128 0x34
 3445 0203 19       		.uleb128 0x19
 3446 0204 00       		.byte	0
 3447 0205 00       		.byte	0
 3448 0206 29       		.uleb128 0x29
 3449 0207 05       		.uleb128 0x5
ARM GAS  /tmp/ccZi7sy1.s 			page 62


 3450 0208 00       		.byte	0
 3451 0209 03       		.uleb128 0x3
 3452 020a 0E       		.uleb128 0xe
 3453 020b 3A       		.uleb128 0x3a
 3454 020c 0B       		.uleb128 0xb
 3455 020d 3B       		.uleb128 0x3b
 3456 020e 05       		.uleb128 0x5
 3457 020f 49       		.uleb128 0x49
 3458 0210 13       		.uleb128 0x13
 3459 0211 02       		.uleb128 0x2
 3460 0212 18       		.uleb128 0x18
 3461 0213 00       		.byte	0
 3462 0214 00       		.byte	0
 3463 0215 2A       		.uleb128 0x2a
 3464 0216 898201   		.uleb128 0x4109
 3465 0219 01       		.byte	0x1
 3466 021a 11       		.uleb128 0x11
 3467 021b 01       		.uleb128 0x1
 3468 021c 01       		.uleb128 0x1
 3469 021d 13       		.uleb128 0x13
 3470 021e 00       		.byte	0
 3471 021f 00       		.byte	0
 3472 0220 2B       		.uleb128 0x2b
 3473 0221 898201   		.uleb128 0x4109
 3474 0224 01       		.byte	0x1
 3475 0225 11       		.uleb128 0x11
 3476 0226 01       		.uleb128 0x1
 3477 0227 00       		.byte	0
 3478 0228 00       		.byte	0
 3479 0229 2C       		.uleb128 0x2c
 3480 022a 2E       		.uleb128 0x2e
 3481 022b 01       		.byte	0x1
 3482 022c 3F       		.uleb128 0x3f
 3483 022d 19       		.uleb128 0x19
 3484 022e 03       		.uleb128 0x3
 3485 022f 0E       		.uleb128 0xe
 3486 0230 3A       		.uleb128 0x3a
 3487 0231 0B       		.uleb128 0xb
 3488 0232 3B       		.uleb128 0x3b
 3489 0233 0B       		.uleb128 0xb
 3490 0234 27       		.uleb128 0x27
 3491 0235 19       		.uleb128 0x19
 3492 0236 11       		.uleb128 0x11
 3493 0237 01       		.uleb128 0x1
 3494 0238 12       		.uleb128 0x12
 3495 0239 06       		.uleb128 0x6
 3496 023a 40       		.uleb128 0x40
 3497 023b 18       		.uleb128 0x18
 3498 023c 9742     		.uleb128 0x2117
 3499 023e 19       		.uleb128 0x19
 3500 023f 01       		.uleb128 0x1
 3501 0240 13       		.uleb128 0x13
 3502 0241 00       		.byte	0
 3503 0242 00       		.byte	0
 3504 0243 2D       		.uleb128 0x2d
 3505 0244 34       		.uleb128 0x34
 3506 0245 00       		.byte	0
ARM GAS  /tmp/ccZi7sy1.s 			page 63


 3507 0246 03       		.uleb128 0x3
 3508 0247 0E       		.uleb128 0xe
 3509 0248 49       		.uleb128 0x49
 3510 0249 13       		.uleb128 0x13
 3511 024a 34       		.uleb128 0x34
 3512 024b 19       		.uleb128 0x19
 3513 024c 02       		.uleb128 0x2
 3514 024d 18       		.uleb128 0x18
 3515 024e 00       		.byte	0
 3516 024f 00       		.byte	0
 3517 0250 2E       		.uleb128 0x2e
 3518 0251 898201   		.uleb128 0x4109
 3519 0254 00       		.byte	0
 3520 0255 11       		.uleb128 0x11
 3521 0256 01       		.uleb128 0x1
 3522 0257 9542     		.uleb128 0x2115
 3523 0259 19       		.uleb128 0x19
 3524 025a 31       		.uleb128 0x31
 3525 025b 13       		.uleb128 0x13
 3526 025c 00       		.byte	0
 3527 025d 00       		.byte	0
 3528 025e 2F       		.uleb128 0x2f
 3529 025f 34       		.uleb128 0x34
 3530 0260 00       		.byte	0
 3531 0261 03       		.uleb128 0x3
 3532 0262 0E       		.uleb128 0xe
 3533 0263 3A       		.uleb128 0x3a
 3534 0264 0B       		.uleb128 0xb
 3535 0265 3B       		.uleb128 0x3b
 3536 0266 05       		.uleb128 0x5
 3537 0267 49       		.uleb128 0x49
 3538 0268 13       		.uleb128 0x13
 3539 0269 3F       		.uleb128 0x3f
 3540 026a 19       		.uleb128 0x19
 3541 026b 3C       		.uleb128 0x3c
 3542 026c 19       		.uleb128 0x19
 3543 026d 00       		.byte	0
 3544 026e 00       		.byte	0
 3545 026f 30       		.uleb128 0x30
 3546 0270 34       		.uleb128 0x34
 3547 0271 00       		.byte	0
 3548 0272 03       		.uleb128 0x3
 3549 0273 08       		.uleb128 0x8
 3550 0274 3A       		.uleb128 0x3a
 3551 0275 0B       		.uleb128 0xb
 3552 0276 3B       		.uleb128 0x3b
 3553 0277 05       		.uleb128 0x5
 3554 0278 49       		.uleb128 0x49
 3555 0279 13       		.uleb128 0x13
 3556 027a 3F       		.uleb128 0x3f
 3557 027b 19       		.uleb128 0x19
 3558 027c 3C       		.uleb128 0x3c
 3559 027d 19       		.uleb128 0x19
 3560 027e 00       		.byte	0
 3561 027f 00       		.byte	0
 3562 0280 31       		.uleb128 0x31
 3563 0281 34       		.uleb128 0x34
ARM GAS  /tmp/ccZi7sy1.s 			page 64


 3564 0282 00       		.byte	0
 3565 0283 03       		.uleb128 0x3
 3566 0284 0E       		.uleb128 0xe
 3567 0285 3A       		.uleb128 0x3a
 3568 0286 0B       		.uleb128 0xb
 3569 0287 3B       		.uleb128 0x3b
 3570 0288 0B       		.uleb128 0xb
 3571 0289 49       		.uleb128 0x49
 3572 028a 13       		.uleb128 0x13
 3573 028b 3F       		.uleb128 0x3f
 3574 028c 19       		.uleb128 0x19
 3575 028d 02       		.uleb128 0x2
 3576 028e 18       		.uleb128 0x18
 3577 028f 00       		.byte	0
 3578 0290 00       		.byte	0
 3579 0291 32       		.uleb128 0x32
 3580 0292 2E       		.uleb128 0x2e
 3581 0293 01       		.byte	0x1
 3582 0294 3F       		.uleb128 0x3f
 3583 0295 19       		.uleb128 0x19
 3584 0296 03       		.uleb128 0x3
 3585 0297 0E       		.uleb128 0xe
 3586 0298 3A       		.uleb128 0x3a
 3587 0299 0B       		.uleb128 0xb
 3588 029a 3B       		.uleb128 0x3b
 3589 029b 05       		.uleb128 0x5
 3590 029c 27       		.uleb128 0x27
 3591 029d 19       		.uleb128 0x19
 3592 029e 3C       		.uleb128 0x3c
 3593 029f 19       		.uleb128 0x19
 3594 02a0 01       		.uleb128 0x1
 3595 02a1 13       		.uleb128 0x13
 3596 02a2 00       		.byte	0
 3597 02a3 00       		.byte	0
 3598 02a4 33       		.uleb128 0x33
 3599 02a5 2E       		.uleb128 0x2e
 3600 02a6 01       		.byte	0x1
 3601 02a7 3F       		.uleb128 0x3f
 3602 02a8 19       		.uleb128 0x19
 3603 02a9 03       		.uleb128 0x3
 3604 02aa 0E       		.uleb128 0xe
 3605 02ab 3A       		.uleb128 0x3a
 3606 02ac 0B       		.uleb128 0xb
 3607 02ad 3B       		.uleb128 0x3b
 3608 02ae 0B       		.uleb128 0xb
 3609 02af 27       		.uleb128 0x27
 3610 02b0 19       		.uleb128 0x19
 3611 02b1 3C       		.uleb128 0x3c
 3612 02b2 19       		.uleb128 0x19
 3613 02b3 01       		.uleb128 0x1
 3614 02b4 13       		.uleb128 0x13
 3615 02b5 00       		.byte	0
 3616 02b6 00       		.byte	0
 3617 02b7 34       		.uleb128 0x34
 3618 02b8 2E       		.uleb128 0x2e
 3619 02b9 00       		.byte	0
 3620 02ba 3F       		.uleb128 0x3f
ARM GAS  /tmp/ccZi7sy1.s 			page 65


 3621 02bb 19       		.uleb128 0x19
 3622 02bc 03       		.uleb128 0x3
 3623 02bd 0E       		.uleb128 0xe
 3624 02be 3A       		.uleb128 0x3a
 3625 02bf 0B       		.uleb128 0xb
 3626 02c0 3B       		.uleb128 0x3b
 3627 02c1 05       		.uleb128 0x5
 3628 02c2 27       		.uleb128 0x27
 3629 02c3 19       		.uleb128 0x19
 3630 02c4 3C       		.uleb128 0x3c
 3631 02c5 19       		.uleb128 0x19
 3632 02c6 00       		.byte	0
 3633 02c7 00       		.byte	0
 3634 02c8 00       		.byte	0
 3635              		.section	.debug_loc,"",%progbits
 3636              	.Ldebug_loc0:
 3637              	.LLST0:
 3638 0000 00000000 		.4byte	.LVL2
 3639 0004 1A000000 		.4byte	.LVL3
 3640 0008 0100     		.2byte	0x1
 3641 000a 50       		.byte	0x50
 3642 000b 1A000000 		.4byte	.LVL3
 3643 000f 26000000 		.4byte	.LVL4
 3644 0013 0100     		.2byte	0x1
 3645 0015 54       		.byte	0x54
 3646 0016 26000000 		.4byte	.LVL4
 3647 001a A8000000 		.4byte	.LVL19
 3648 001e 0400     		.2byte	0x4
 3649 0020 F3       		.byte	0xf3
 3650 0021 01       		.uleb128 0x1
 3651 0022 50       		.byte	0x50
 3652 0023 9F       		.byte	0x9f
 3653 0024 A8000000 		.4byte	.LVL19
 3654 0028 C0000000 		.4byte	.LVL20
 3655 002c 0100     		.2byte	0x1
 3656 002e 50       		.byte	0x50
 3657 002f C0000000 		.4byte	.LVL20
 3658 0033 CC000000 		.4byte	.LVL21
 3659 0037 0100     		.2byte	0x1
 3660 0039 54       		.byte	0x54
 3661 003a CC000000 		.4byte	.LVL21
 3662 003e E8000000 		.4byte	.LVL22
 3663 0042 0100     		.2byte	0x1
 3664 0044 50       		.byte	0x50
 3665 0045 E8000000 		.4byte	.LVL22
 3666 0049 04010000 		.4byte	.LVL25
 3667 004d 0100     		.2byte	0x1
 3668 004f 54       		.byte	0x54
 3669 0050 04010000 		.4byte	.LVL25
 3670 0054 20010000 		.4byte	.LVL26
 3671 0058 0100     		.2byte	0x1
 3672 005a 50       		.byte	0x50
 3673 005b 20010000 		.4byte	.LVL26
 3674 005f 24010000 		.4byte	.LFE274
 3675 0063 0100     		.2byte	0x1
 3676 0065 54       		.byte	0x54
 3677 0066 00000000 		.4byte	0
ARM GAS  /tmp/ccZi7sy1.s 			page 66


 3678 006a 00000000 		.4byte	0
 3679              	.LLST1:
 3680 006e 30000000 		.4byte	.LVL5
 3681 0072 46000000 		.4byte	.LVL8
 3682 0076 0100     		.2byte	0x1
 3683 0078 50       		.byte	0x50
 3684 0079 46000000 		.4byte	.LVL8
 3685 007d 88000000 		.4byte	.LVL12
 3686 0081 0F00     		.2byte	0xf
 3687 0083 76       		.byte	0x76
 3688 0084 00       		.sleb128 0
 3689 0085 F7       		.byte	0xf7
 3690 0086 25       		.uleb128 0x25
 3691 0087 72       		.byte	0x72
 3692 0088 00       		.sleb128 0
 3693 0089 06       		.byte	0x6
 3694 008a F7       		.byte	0xf7
 3695 008b 25       		.uleb128 0x25
 3696 008c 1B       		.byte	0x1b
 3697 008d F7       		.byte	0xf7
 3698 008e 00       		.uleb128 0
 3699 008f 31       		.byte	0x31
 3700 0090 1C       		.byte	0x1c
 3701 0091 9F       		.byte	0x9f
 3702 0092 88000000 		.4byte	.LVL12
 3703 0096 94000000 		.4byte	.LVL14
 3704 009a 1300     		.2byte	0x13
 3705 009c 76       		.byte	0x76
 3706 009d 00       		.sleb128 0
 3707 009e F7       		.byte	0xf7
 3708 009f 25       		.uleb128 0x25
 3709 00a0 F3       		.byte	0xf3
 3710 00a1 01       		.uleb128 0x1
 3711 00a2 50       		.byte	0x50
 3712 00a3 23       		.byte	0x23
 3713 00a4 04       		.uleb128 0x4
 3714 00a5 06       		.byte	0x6
 3715 00a6 06       		.byte	0x6
 3716 00a7 F7       		.byte	0xf7
 3717 00a8 25       		.uleb128 0x25
 3718 00a9 1B       		.byte	0x1b
 3719 00aa F7       		.byte	0xf7
 3720 00ab 00       		.uleb128 0
 3721 00ac 31       		.byte	0x31
 3722 00ad 1C       		.byte	0x1c
 3723 00ae 9F       		.byte	0x9f
 3724 00af 94000000 		.4byte	.LVL14
 3725 00b3 A8000000 		.4byte	.LVL19
 3726 00b7 0F00     		.2byte	0xf
 3727 00b9 76       		.byte	0x76
 3728 00ba 00       		.sleb128 0
 3729 00bb F7       		.byte	0xf7
 3730 00bc 25       		.uleb128 0x25
 3731 00bd 72       		.byte	0x72
 3732 00be 00       		.sleb128 0
 3733 00bf 06       		.byte	0x6
 3734 00c0 F7       		.byte	0xf7
ARM GAS  /tmp/ccZi7sy1.s 			page 67


 3735 00c1 25       		.uleb128 0x25
 3736 00c2 1B       		.byte	0x1b
 3737 00c3 F7       		.byte	0xf7
 3738 00c4 00       		.uleb128 0
 3739 00c5 31       		.byte	0x31
 3740 00c6 1C       		.byte	0x1c
 3741 00c7 9F       		.byte	0x9f
 3742 00c8 00000000 		.4byte	0
 3743 00cc 00000000 		.4byte	0
 3744              	.LLST2:
 3745 00d0 3A000000 		.4byte	.LVL6
 3746 00d4 44000000 		.4byte	.LVL7
 3747 00d8 0200     		.2byte	0x2
 3748 00da 30       		.byte	0x30
 3749 00db 9F       		.byte	0x9f
 3750 00dc 44000000 		.4byte	.LVL7
 3751 00e0 86000000 		.4byte	.LVL11
 3752 00e4 0100     		.2byte	0x1
 3753 00e6 51       		.byte	0x51
 3754 00e7 86000000 		.4byte	.LVL11
 3755 00eb 8A000000 		.4byte	.LVL13
 3756 00ef 0200     		.2byte	0x2
 3757 00f1 73       		.byte	0x73
 3758 00f2 20       		.sleb128 32
 3759 00f3 94000000 		.4byte	.LVL14
 3760 00f7 A8000000 		.4byte	.LVL19
 3761 00fb 0100     		.2byte	0x1
 3762 00fd 51       		.byte	0x51
 3763 00fe 00000000 		.4byte	0
 3764 0102 00000000 		.4byte	0
 3765              	.LLST3:
 3766 0106 00000000 		.4byte	.LVL27
 3767 010a 08000000 		.4byte	.LVL28
 3768 010e 0100     		.2byte	0x1
 3769 0110 50       		.byte	0x50
 3770 0111 08000000 		.4byte	.LVL28
 3771 0115 0A000000 		.4byte	.LVL29
 3772 0119 0400     		.2byte	0x4
 3773 011b F3       		.byte	0xf3
 3774 011c 01       		.uleb128 0x1
 3775 011d 50       		.byte	0x50
 3776 011e 9F       		.byte	0x9f
 3777 011f 0A000000 		.4byte	.LVL29
 3778 0123 30000000 		.4byte	.LVL30
 3779 0127 0100     		.2byte	0x1
 3780 0129 50       		.byte	0x50
 3781 012a 30000000 		.4byte	.LVL30
 3782 012e 46000000 		.4byte	.LVL32
 3783 0132 0400     		.2byte	0x4
 3784 0134 F3       		.byte	0xf3
 3785 0135 01       		.uleb128 0x1
 3786 0136 50       		.byte	0x50
 3787 0137 9F       		.byte	0x9f
 3788 0138 46000000 		.4byte	.LVL32
 3789 013c 48000000 		.4byte	.LVL33
 3790 0140 0100     		.2byte	0x1
 3791 0142 50       		.byte	0x50
ARM GAS  /tmp/ccZi7sy1.s 			page 68


 3792 0143 48000000 		.4byte	.LVL33
 3793 0147 64000000 		.4byte	.LFE275
 3794 014b 0400     		.2byte	0x4
 3795 014d F3       		.byte	0xf3
 3796 014e 01       		.uleb128 0x1
 3797 014f 50       		.byte	0x50
 3798 0150 9F       		.byte	0x9f
 3799 0151 00000000 		.4byte	0
 3800 0155 00000000 		.4byte	0
 3801              	.LLST4:
 3802 0159 00000000 		.4byte	.LVL36
 3803 015d 04000000 		.4byte	.LVL37
 3804 0161 0100     		.2byte	0x1
 3805 0163 51       		.byte	0x51
 3806 0164 04000000 		.4byte	.LVL37
 3807 0168 0C000000 		.4byte	.LFE276
 3808 016c 0400     		.2byte	0x4
 3809 016e F3       		.byte	0xf3
 3810 016f 01       		.uleb128 0x1
 3811 0170 51       		.byte	0x51
 3812 0171 9F       		.byte	0x9f
 3813 0172 00000000 		.4byte	0
 3814 0176 00000000 		.4byte	0
 3815              	.LLST5:
 3816 017a 00000000 		.4byte	.LVL38
 3817 017e 0C000000 		.4byte	.LVL39
 3818 0182 0100     		.2byte	0x1
 3819 0184 50       		.byte	0x50
 3820 0185 0C000000 		.4byte	.LVL39
 3821 0189 1E000000 		.4byte	.LFE277
 3822 018d 0400     		.2byte	0x4
 3823 018f F3       		.byte	0xf3
 3824 0190 01       		.uleb128 0x1
 3825 0191 50       		.byte	0x50
 3826 0192 9F       		.byte	0x9f
 3827 0193 00000000 		.4byte	0
 3828 0197 00000000 		.4byte	0
 3829              	.LLST6:
 3830 019b 00000000 		.4byte	.LVL38
 3831 019f 16000000 		.4byte	.LVL40
 3832 01a3 0100     		.2byte	0x1
 3833 01a5 51       		.byte	0x51
 3834 01a6 16000000 		.4byte	.LVL40
 3835 01aa 1E000000 		.4byte	.LFE277
 3836 01ae 0400     		.2byte	0x4
 3837 01b0 F3       		.byte	0xf3
 3838 01b1 01       		.uleb128 0x1
 3839 01b2 51       		.byte	0x51
 3840 01b3 9F       		.byte	0x9f
 3841 01b4 00000000 		.4byte	0
 3842 01b8 00000000 		.4byte	0
 3843              	.LLST7:
 3844 01bc 04000000 		.4byte	.LVL42
 3845 01c0 0C000000 		.4byte	.LVL43
 3846 01c4 0100     		.2byte	0x1
 3847 01c6 52       		.byte	0x52
 3848 01c7 00000000 		.4byte	0
ARM GAS  /tmp/ccZi7sy1.s 			page 69


 3849 01cb 00000000 		.4byte	0
 3850              	.LLST8:
 3851 01cf 00000000 		.4byte	.LVL45
 3852 01d3 04000000 		.4byte	.LVL46
 3853 01d7 0100     		.2byte	0x1
 3854 01d9 50       		.byte	0x50
 3855 01da 04000000 		.4byte	.LVL46
 3856 01de 18000000 		.4byte	.LFE280
 3857 01e2 0400     		.2byte	0x4
 3858 01e4 F3       		.byte	0xf3
 3859 01e5 01       		.uleb128 0x1
 3860 01e6 50       		.byte	0x50
 3861 01e7 9F       		.byte	0x9f
 3862 01e8 00000000 		.4byte	0
 3863 01ec 00000000 		.4byte	0
 3864              	.LLST9:
 3865 01f0 00000000 		.4byte	.LVL45
 3866 01f4 0A000000 		.4byte	.LVL48
 3867 01f8 0100     		.2byte	0x1
 3868 01fa 51       		.byte	0x51
 3869 01fb 0A000000 		.4byte	.LVL48
 3870 01ff 18000000 		.4byte	.LFE280
 3871 0203 0400     		.2byte	0x4
 3872 0205 F3       		.byte	0xf3
 3873 0206 01       		.uleb128 0x1
 3874 0207 51       		.byte	0x51
 3875 0208 9F       		.byte	0x9f
 3876 0209 00000000 		.4byte	0
 3877 020d 00000000 		.4byte	0
 3878              	.LLST10:
 3879 0211 06000000 		.4byte	.LVL47
 3880 0215 10000000 		.4byte	.LVL49
 3881 0219 0100     		.2byte	0x1
 3882 021b 52       		.byte	0x52
 3883 021c 00000000 		.4byte	0
 3884 0220 00000000 		.4byte	0
 3885              	.LLST11:
 3886 0224 00000000 		.4byte	.LVL50
 3887 0228 04000000 		.4byte	.LVL51
 3888 022c 0100     		.2byte	0x1
 3889 022e 50       		.byte	0x50
 3890 022f 04000000 		.4byte	.LVL51
 3891 0233 12000000 		.4byte	.LFE281
 3892 0237 0400     		.2byte	0x4
 3893 0239 F3       		.byte	0xf3
 3894 023a 01       		.uleb128 0x1
 3895 023b 50       		.byte	0x50
 3896 023c 9F       		.byte	0x9f
 3897 023d 00000000 		.4byte	0
 3898 0241 00000000 		.4byte	0
 3899              	.LLST12:
 3900 0245 00000000 		.4byte	.LVL50
 3901 0249 0A000000 		.4byte	.LVL52
 3902 024d 0100     		.2byte	0x1
 3903 024f 51       		.byte	0x51
 3904 0250 0A000000 		.4byte	.LVL52
 3905 0254 12000000 		.4byte	.LFE281
ARM GAS  /tmp/ccZi7sy1.s 			page 70


 3906 0258 0400     		.2byte	0x4
 3907 025a F3       		.byte	0xf3
 3908 025b 01       		.uleb128 0x1
 3909 025c 51       		.byte	0x51
 3910 025d 9F       		.byte	0x9f
 3911 025e 00000000 		.4byte	0
 3912 0262 00000000 		.4byte	0
 3913              	.LLST13:
 3914 0266 00000000 		.4byte	.LVL53
 3915 026a 1D000000 		.4byte	.LVL56-1
 3916 026e 0100     		.2byte	0x1
 3917 0270 50       		.byte	0x50
 3918 0271 1D000000 		.4byte	.LVL56-1
 3919 0275 58000000 		.4byte	.LFE282
 3920 0279 0100     		.2byte	0x1
 3921 027b 55       		.byte	0x55
 3922 027c 00000000 		.4byte	0
 3923 0280 00000000 		.4byte	0
 3924              	.LLST14:
 3925 0284 06000000 		.4byte	.LVL54
 3926 0288 0A000000 		.4byte	.LVL55
 3927 028c 0100     		.2byte	0x1
 3928 028e 52       		.byte	0x52
 3929 028f 0A000000 		.4byte	.LVL55
 3930 0293 58000000 		.4byte	.LFE282
 3931 0297 0600     		.2byte	0x6
 3932 0299 74       		.byte	0x74
 3933 029a 00       		.sleb128 0
 3934 029b 08       		.byte	0x8
 3935 029c FF       		.byte	0xff
 3936 029d 1A       		.byte	0x1a
 3937 029e 9F       		.byte	0x9f
 3938 029f 00000000 		.4byte	0
 3939 02a3 00000000 		.4byte	0
 3940              		.section	.debug_aranges,"",%progbits
 3941 0000 7C000000 		.4byte	0x7c
 3942 0004 0200     		.2byte	0x2
 3943 0006 00000000 		.4byte	.Ldebug_info0
 3944 000a 04       		.byte	0x4
 3945 000b 00       		.byte	0
 3946 000c 0000     		.2byte	0
 3947 000e 0000     		.2byte	0
 3948 0010 00000000 		.4byte	.LFB273
 3949 0014 38000000 		.4byte	.LFE273-.LFB273
 3950 0018 00000000 		.4byte	.LFB274
 3951 001c 24010000 		.4byte	.LFE274-.LFB274
 3952 0020 00000000 		.4byte	.LFB275
 3953 0024 64000000 		.4byte	.LFE275-.LFB275
 3954 0028 00000000 		.4byte	.LFB276
 3955 002c 0C000000 		.4byte	.LFE276-.LFB276
 3956 0030 00000000 		.4byte	.LFB277
 3957 0034 1E000000 		.4byte	.LFE277-.LFB277
 3958 0038 00000000 		.4byte	.LFB278
 3959 003c 1A000000 		.4byte	.LFE278-.LFB278
 3960 0040 00000000 		.4byte	.LFB279
 3961 0044 0C000000 		.4byte	.LFE279-.LFB279
 3962 0048 00000000 		.4byte	.LFB280
ARM GAS  /tmp/ccZi7sy1.s 			page 71


 3963 004c 18000000 		.4byte	.LFE280-.LFB280
 3964 0050 00000000 		.4byte	.LFB281
 3965 0054 12000000 		.4byte	.LFE281-.LFB281
 3966 0058 00000000 		.4byte	.LFB282
 3967 005c 58000000 		.4byte	.LFE282-.LFB282
 3968 0060 00000000 		.4byte	.LFB270
 3969 0064 2A000000 		.4byte	.LFE270-.LFB270
 3970 0068 00000000 		.4byte	.LFB271
 3971 006c 2A000000 		.4byte	.LFE271-.LFB271
 3972 0070 00000000 		.4byte	.LFB272
 3973 0074 2A000000 		.4byte	.LFE272-.LFB272
 3974 0078 00000000 		.4byte	0
 3975 007c 00000000 		.4byte	0
 3976              		.section	.debug_ranges,"",%progbits
 3977              	.Ldebug_ranges0:
 3978 0000 00000000 		.4byte	.LFB273
 3979 0004 38000000 		.4byte	.LFE273
 3980 0008 00000000 		.4byte	.LFB274
 3981 000c 24010000 		.4byte	.LFE274
 3982 0010 00000000 		.4byte	.LFB275
 3983 0014 64000000 		.4byte	.LFE275
 3984 0018 00000000 		.4byte	.LFB276
 3985 001c 0C000000 		.4byte	.LFE276
 3986 0020 00000000 		.4byte	.LFB277
 3987 0024 1E000000 		.4byte	.LFE277
 3988 0028 00000000 		.4byte	.LFB278
 3989 002c 1A000000 		.4byte	.LFE278
 3990 0030 00000000 		.4byte	.LFB279
 3991 0034 0C000000 		.4byte	.LFE279
 3992 0038 00000000 		.4byte	.LFB280
 3993 003c 18000000 		.4byte	.LFE280
 3994 0040 00000000 		.4byte	.LFB281
 3995 0044 12000000 		.4byte	.LFE281
 3996 0048 00000000 		.4byte	.LFB282
 3997 004c 58000000 		.4byte	.LFE282
 3998 0050 00000000 		.4byte	.LFB270
 3999 0054 2A000000 		.4byte	.LFE270
 4000 0058 00000000 		.4byte	.LFB271
 4001 005c 2A000000 		.4byte	.LFE271
 4002 0060 00000000 		.4byte	.LFB272
 4003 0064 2A000000 		.4byte	.LFE272
 4004 0068 00000000 		.4byte	0
 4005 006c 00000000 		.4byte	0
 4006              		.section	.debug_line,"",%progbits
 4007              	.Ldebug_line0:
 4008 0000 B5040000 		.section	.debug_str,"MS",%progbits,1
 4008      0200DA02 
 4008      00000201 
 4008      FB0E0D00 
 4008      01010101 
 4009              	.LASF45:
 4010 0000 74687265 		.ascii	"threads_list_t\000"
 4010      6164735F 
 4010      6C697374 
 4010      5F7400
 4011              	.LASF154:
 4012 000f 70776D63 		.ascii	"pwmchannel_t\000"
ARM GAS  /tmp/ccZi7sy1.s 			page 72


 4012      68616E6E 
 4012      656C5F74 
 4012      00
 4013              	.LASF52:
 4014 001c 72656164 		.ascii	"ready_list_t\000"
 4014      795F6C69 
 4014      73745F74 
 4014      00
 4015              	.LASF106:
 4016 0029 44494552 		.ascii	"DIER\000"
 4016      00
 4017              	.LASF132:
 4018 002e 77747472 		.ascii	"wttrp\000"
 4018      7000
 4019              	.LASF176:
 4020 0034 70776D5F 		.ascii	"pwm_lld_serve_interrupt\000"
 4020      6C6C645F 
 4020      73657276 
 4020      655F696E 
 4020      74657272 
 4021              	.LASF58:
 4022 004c 64656C74 		.ascii	"delta\000"
 4022      6100
 4023              	.LASF130:
 4024 0052 7264796D 		.ascii	"rdymsg\000"
 4024      736700
 4025              	.LASF18:
 4026 0059 75696E74 		.ascii	"uint64_t\000"
 4026      36345F74 
 4026      00
 4027              	.LASF177:
 4028 0062 56656374 		.ascii	"VectorA4\000"
 4028      6F724134 
 4028      00
 4029              	.LASF4:
 4030 006b 5F5F7569 		.ascii	"__uint8_t\000"
 4030      6E74385F 
 4030      7400
 4031              	.LASF51:
 4032 0075 70726576 		.ascii	"prev\000"
 4032      00
 4033              	.LASF104:
 4034 007a 706F7274 		.ascii	"port_intctx\000"
 4034      5F696E74 
 4034      63747800 
 4035              	.LASF50:
 4036 0086 63685F74 		.ascii	"ch_threads_queue\000"
 4036      68726561 
 4036      64735F71 
 4036      75657565 
 4036      00
 4037              	.LASF63:
 4038 0097 73797374 		.ascii	"system_debug_t\000"
 4038      656D5F64 
 4038      65627567 
 4038      5F7400
 4039              	.LASF120:
ARM GAS  /tmp/ccZi7sy1.s 			page 73


 4040 00a6 74797065 		.ascii	"type\000"
 4040      00
 4041              	.LASF187:
 4042 00ab 5F747261 		.ascii	"_trace_isr_enter\000"
 4042      63655F69 
 4042      73725F65 
 4042      6E746572 
 4042      00
 4043              	.LASF148:
 4044 00bc 70657269 		.ascii	"period\000"
 4044      6F6400
 4045              	.LASF178:
 4046 00c3 56656374 		.ascii	"VectorAC\000"
 4046      6F724143 
 4046      00
 4047              	.LASF189:
 4048 00cc 474E5520 		.ascii	"GNU C 4.8.2 -mcpu=cortex-m4 -mno-thumb-interwork -m"
 4048      4320342E 
 4048      382E3220 
 4048      2D6D6370 
 4048      753D636F 
 4049 00ff 7468756D 		.ascii	"thumb -ggdb -O2 -fomit-frame-pointer -falign-functi"
 4049      62202D67 
 4049      67646220 
 4049      2D4F3220 
 4049      2D666F6D 
 4050 0132 6F6E733D 		.ascii	"ons=16 -ffunction-sections -fdata-sections -fno-com"
 4050      3136202D 
 4050      6666756E 
 4050      6374696F 
 4050      6E2D7365 
 4051 0165 6D6F6E00 		.ascii	"mon\000"
 4052              	.LASF13:
 4053 0169 6C6F6E67 		.ascii	"long long unsigned int\000"
 4053      206C6F6E 
 4053      6720756E 
 4053      7369676E 
 4053      65642069 
 4054              	.LASF127:
 4055 0180 63685F74 		.ascii	"ch_trace_buffer_t\000"
 4055      72616365 
 4055      5F627566 
 4055      6665725F 
 4055      7400
 4056              	.LASF131:
 4057 0192 65786974 		.ascii	"exitcode\000"
 4057      636F6465 
 4057      00
 4058              	.LASF71:
 4059 019b 6D61696E 		.ascii	"mainthread\000"
 4059      74687265 
 4059      616400
 4060              	.LASF133:
 4061 01a6 73656E74 		.ascii	"sentmsg\000"
 4061      6D736700 
 4062              	.LASF60:
 4063 01ae 76697274 		.ascii	"virtual_timers_list_t\000"
ARM GAS  /tmp/ccZi7sy1.s 			page 74


 4063      75616C5F 
 4063      74696D65 
 4063      72735F6C 
 4063      6973745F 
 4064              	.LASF171:
 4065 01c4 70776D5F 		.ascii	"pwm_lld_disable_channel\000"
 4065      6C6C645F 
 4065      64697361 
 4065      626C655F 
 4065      6368616E 
 4066              	.LASF110:
 4067 01dc 42445452 		.ascii	"BDTR\000"
 4067      00
 4068              	.LASF160:
 4069 01e1 66726571 		.ascii	"frequency\000"
 4069      75656E63 
 4069      7900
 4070              	.LASF89:
 4071 01eb 41484231 		.ascii	"AHB1LPENR\000"
 4071      4C50454E 
 4071      5200
 4072              	.LASF168:
 4073 01f5 70776D5F 		.ascii	"pwm_lld_enable_channel\000"
 4073      6C6C645F 
 4073      656E6162 
 4073      6C655F63 
 4073      68616E6E 
 4074              	.LASF185:
 4075 020c 6E766963 		.ascii	"nvicEnableVector\000"
 4075      456E6162 
 4075      6C655665 
 4075      63746F72 
 4075      00
 4076              	.LASF37:
 4077 021d 72656673 		.ascii	"refs\000"
 4077      00
 4078              	.LASF107:
 4079 0222 43434D52 		.ascii	"CCMR1\000"
 4079      3100
 4080              	.LASF108:
 4081 0228 43434D52 		.ascii	"CCMR2\000"
 4081      3200
 4082              	.LASF112:
 4083 022e 43434D52 		.ascii	"CCMR3\000"
 4083      3300
 4084              	.LASF1:
 4085 0234 7369676E 		.ascii	"signed char\000"
 4085      65642063 
 4085      68617200 
 4086              	.LASF75:
 4087 0240 41484231 		.ascii	"AHB1RSTR\000"
 4087      52535452 
 4087      00
 4088              	.LASF153:
 4089 0249 70776D6D 		.ascii	"pwmmode_t\000"
 4089      6F64655F 
 4089      7400
ARM GAS  /tmp/ccZi7sy1.s 			page 75


 4090              	.LASF182:
 4091 0253 50574D44 		.ascii	"PWMD1\000"
 4091      3100
 4092              	.LASF70:
 4093 0259 76746C69 		.ascii	"vtlist\000"
 4093      737400
 4094              	.LASF35:
 4095 0260 73746174 		.ascii	"state\000"
 4095      6500
 4096              	.LASF150:
 4097 0266 6368616E 		.ascii	"channels\000"
 4097      6E656C73 
 4097      00
 4098              	.LASF8:
 4099 026f 6C6F6E67 		.ascii	"long int\000"
 4099      20696E74 
 4099      00
 4100              	.LASF164:
 4101 0278 70776D5F 		.ascii	"pwm_lld_start\000"
 4101      6C6C645F 
 4101      73746172 
 4101      7400
 4102              	.LASF80:
 4103 0286 41504232 		.ascii	"APB2RSTR\000"
 4103      52535452 
 4103      00
 4104              	.LASF174:
 4105 028f 70776D5F 		.ascii	"pwm_lld_enable_channel_notification\000"
 4105      6C6C645F 
 4105      656E6162 
 4105      6C655F63 
 4105      68616E6E 
 4106              	.LASF93:
 4107 02b3 41504231 		.ascii	"APB1LPENR\000"
 4107      4C50454E 
 4107      5200
 4108              	.LASF21:
 4109 02bd 74737461 		.ascii	"tstate_t\000"
 4109      74655F74 
 4109      00
 4110              	.LASF123:
 4111 02c6 63685F74 		.ascii	"ch_trace_event_t\000"
 4111      72616365 
 4111      5F657665 
 4111      6E745F74 
 4111      00
 4112              	.LASF59:
 4113 02d7 66756E63 		.ascii	"func\000"
 4113      00
 4114              	.LASF109:
 4115 02dc 43434552 		.ascii	"CCER\000"
 4115      00
 4116              	.LASF11:
 4117 02e1 6C6F6E67 		.ascii	"long long int\000"
 4117      206C6F6E 
 4117      6720696E 
 4117      7400
ARM GAS  /tmp/ccZi7sy1.s 			page 76


 4118              	.LASF15:
 4119 02ef 75696E74 		.ascii	"uint16_t\000"
 4119      31365F74 
 4119      00
 4120              	.LASF152:
 4121 02f8 70776D63 		.ascii	"pwmcallback_t\000"
 4121      616C6C62 
 4121      61636B5F 
 4121      7400
 4122              	.LASF126:
 4123 0306 62756666 		.ascii	"buffer\000"
 4123      657200
 4124              	.LASF73:
 4125 030d 504C4C43 		.ascii	"PLLCFGR\000"
 4125      46475200 
 4126              	.LASF32:
 4127 0315 6F6C6465 		.ascii	"older\000"
 4127      7200
 4128              	.LASF183:
 4129 031b 50574D44 		.ascii	"PWMD3\000"
 4129      3300
 4130              	.LASF9:
 4131 0321 5F5F7569 		.ascii	"__uint32_t\000"
 4131      6E743332 
 4131      5F7400
 4132              	.LASF101:
 4133 032c 72656761 		.ascii	"regarm_t\000"
 4133      726D5F74 
 4133      00
 4134              	.LASF38:
 4135 0335 77616974 		.ascii	"waiting\000"
 4135      696E6700 
 4136              	.LASF140:
 4137 033d 6D757465 		.ascii	"mutex_t\000"
 4137      785F7400 
 4138              	.LASF77:
 4139 0345 41484233 		.ascii	"AHB3RSTR\000"
 4139      52535452 
 4139      00
 4140              	.LASF172:
 4141 034e 70776D5F 		.ascii	"pwm_lld_enable_periodic_notification\000"
 4141      6C6C645F 
 4141      656E6162 
 4141      6C655F70 
 4141      6572696F 
 4142              	.LASF26:
 4143 0373 636E745F 		.ascii	"cnt_t\000"
 4143      7400
 4144              	.LASF39:
 4145 0379 6D736771 		.ascii	"msgqueue\000"
 4145      75657565 
 4145      00
 4146              	.LASF0:
 4147 0382 756E7369 		.ascii	"unsigned int\000"
 4147      676E6564 
 4147      20696E74 
 4147      00
ARM GAS  /tmp/ccZi7sy1.s 			page 77


 4148              	.LASF186:
 4149 038f 6E766963 		.ascii	"nvicDisableVector\000"
 4149      44697361 
 4149      626C6556 
 4149      6563746F 
 4149      7200
 4150              	.LASF191:
 4151 03a1 2F686F6D 		.ascii	"/home/johnnyco/Documentos/Embebidos/Chibios Johnny/"
 4151      652F6A6F 
 4151      686E6E79 
 4151      636F2F44 
 4151      6F63756D 
 4152 03d4 43686962 		.ascii	"ChibiOS-Contrib/testhal/STM32/STM32F4xx/1WIRE + RTC"
 4152      694F532D 
 4152      436F6E74 
 4152      7269622F 
 4152      74657374 
 4153 0407 202B2055 		.ascii	" + UART + PWM + ADC 1.0\000"
 4153      41525420 
 4153      2B205057 
 4153      4D202B20 
 4153      41444320 
 4154              	.LASF134:
 4155 041f 77747365 		.ascii	"wtsemp\000"
 4155      6D7000
 4156              	.LASF10:
 4157 0426 6C6F6E67 		.ascii	"long unsigned int\000"
 4157      20756E73 
 4157      69676E65 
 4157      6420696E 
 4157      7400
 4158              	.LASF100:
 4159 0438 5243435F 		.ascii	"RCC_TypeDef\000"
 4159      54797065 
 4159      44656600 
 4160              	.LASF46:
 4161 0444 63685F74 		.ascii	"ch_thread\000"
 4161      68726561 
 4161      6400
 4162              	.LASF33:
 4163 044e 6E616D65 		.ascii	"name\000"
 4163      00
 4164              	.LASF29:
 4165 0453 71756575 		.ascii	"queue\000"
 4165      6500
 4166              	.LASF170:
 4167 0459 77696474 		.ascii	"width\000"
 4167      6800
 4168              	.LASF43:
 4169 045f 6D706F6F 		.ascii	"mpool\000"
 4169      6C00
 4170              	.LASF105:
 4171 0465 534D4352 		.ascii	"SMCR\000"
 4171      00
 4172              	.LASF99:
 4173 046a 504C4C49 		.ascii	"PLLI2SCFGR\000"
 4173      32534346 
ARM GAS  /tmp/ccZi7sy1.s 			page 78


 4173      475200
 4174              	.LASF24:
 4175 0475 6D73675F 		.ascii	"msg_t\000"
 4175      7400
 4176              	.LASF47:
 4177 047b 63685F74 		.ascii	"ch_threads_list\000"
 4177      68726561 
 4177      64735F6C 
 4177      69737400 
 4178              	.LASF40:
 4179 048b 6570656E 		.ascii	"epending\000"
 4179      64696E67 
 4179      00
 4180              	.LASF180:
 4181 0494 56656374 		.ascii	"VectorB4\000"
 4181      6F724234 
 4181      00
 4182              	.LASF192:
 4183 049d 5F706F72 		.ascii	"_port_irq_epilogue\000"
 4183      745F6972 
 4183      715F6570 
 4183      696C6F67 
 4183      756500
 4184              	.LASF158:
 4185 04b0 63616C6C 		.ascii	"callback\000"
 4185      6261636B 
 4185      00
 4186              	.LASF114:
 4187 04b9 73746D33 		.ascii	"stm32_tim_t\000"
 4187      325F7469 
 4187      6D5F7400 
 4188              	.LASF94:
 4189 04c5 41504232 		.ascii	"APB2LPENR\000"
 4189      4C50454E 
 4189      5200
 4190              	.LASF53:
 4191 04cf 63685F72 		.ascii	"ch_ready_list\000"
 4191      65616479 
 4191      5F6C6973 
 4191      7400
 4192              	.LASF25:
 4193 04dd 6576656E 		.ascii	"eventmask_t\000"
 4193      746D6173 
 4193      6B5F7400 
 4194              	.LASF175:
 4195 04e9 70776D5F 		.ascii	"pwm_lld_disable_channel_notification\000"
 4195      6C6C645F 
 4195      64697361 
 4195      626C655F 
 4195      6368616E 
 4196              	.LASF165:
 4197 050e 63636572 		.ascii	"ccer\000"
 4197      00
 4198              	.LASF7:
 4199 0513 5F5F696E 		.ascii	"__int32_t\000"
 4199      7433325F 
 4199      7400
ARM GAS  /tmp/ccZi7sy1.s 			page 79


 4200              	.LASF167:
 4201 051d 70776D70 		.ascii	"pwmp\000"
 4201      00
 4202              	.LASF102:
 4203 0522 73746B61 		.ascii	"stkalign_t\000"
 4203      6C69676E 
 4203      5F7400
 4204              	.LASF31:
 4205 052d 6E657765 		.ascii	"newer\000"
 4205      7200
 4206              	.LASF121:
 4207 0533 72747374 		.ascii	"rtstamp\000"
 4207      616D7000 
 4208              	.LASF56:
 4209 053b 76697274 		.ascii	"virtual_timer_t\000"
 4209      75616C5F 
 4209      74696D65 
 4209      725F7400 
 4210              	.LASF42:
 4211 054b 7265616C 		.ascii	"realprio\000"
 4211      7072696F 
 4211      00
 4212              	.LASF72:
 4213 0554 73697A65 		.ascii	"sizetype\000"
 4213      74797065 
 4213      00
 4214              	.LASF44:
 4215 055d 74687265 		.ascii	"thread_reference_t\000"
 4215      61645F72 
 4215      65666572 
 4215      656E6365 
 4215      5F7400
 4216              	.LASF61:
 4217 0570 63685F76 		.ascii	"ch_virtual_timers_list\000"
 4217      69727475 
 4217      616C5F74 
 4217      696D6572 
 4217      735F6C69 
 4218              	.LASF124:
 4219 0587 73757370 		.ascii	"suspended\000"
 4219      656E6465 
 4219      6400
 4220              	.LASF84:
 4221 0591 41484233 		.ascii	"AHB3ENR\000"
 4221      454E5200 
 4222              	.LASF163:
 4223 0599 70776D5F 		.ascii	"pwm_lld_init\000"
 4223      6C6C645F 
 4223      696E6974 
 4223      00
 4224              	.LASF90:
 4225 05a6 41484232 		.ascii	"AHB2LPENR\000"
 4225      4C50454E 
 4225      5200
 4226              	.LASF129:
 4227 05b0 746D5F63 		.ascii	"tm_calibration_t\000"
 4227      616C6962 
ARM GAS  /tmp/ccZi7sy1.s 			page 80


 4227      72617469 
 4227      6F6E5F74 
 4227      00
 4228              	.LASF122:
 4229 05c1 74696D65 		.ascii	"time\000"
 4229      00
 4230              	.LASF188:
 4231 05c6 5F747261 		.ascii	"_trace_isr_leave\000"
 4231      63655F69 
 4231      73725F6C 
 4231      65617665 
 4231      00
 4232              	.LASF30:
 4233 05d7 7072696F 		.ascii	"prio\000"
 4233      00
 4234              	.LASF79:
 4235 05dc 41504231 		.ascii	"APB1RSTR\000"
 4235      52535452 
 4235      00
 4236              	.LASF54:
 4237 05e5 63757272 		.ascii	"current\000"
 4237      656E7400 
 4238              	.LASF12:
 4239 05ed 5F5F7569 		.ascii	"__uint64_t\000"
 4239      6E743634 
 4239      5F7400
 4240              	.LASF173:
 4241 05f8 70776D5F 		.ascii	"pwm_lld_disable_periodic_notification\000"
 4241      6C6C645F 
 4241      64697361 
 4241      626C655F 
 4241      70657269 
 4242              	.LASF22:
 4243 061e 74726566 		.ascii	"trefs_t\000"
 4243      735F7400 
 4244              	.LASF78:
 4245 0626 52455345 		.ascii	"RESERVED0\000"
 4245      52564544 
 4245      3000
 4246              	.LASF81:
 4247 0630 52455345 		.ascii	"RESERVED1\000"
 4247      52564544 
 4247      3100
 4248              	.LASF85:
 4249 063a 52455345 		.ascii	"RESERVED2\000"
 4249      52564544 
 4249      3200
 4250              	.LASF88:
 4251 0644 52455345 		.ascii	"RESERVED3\000"
 4251      52564544 
 4251      3300
 4252              	.LASF92:
 4253 064e 52455345 		.ascii	"RESERVED4\000"
 4253      52564544 
 4253      3400
 4254              	.LASF95:
 4255 0658 52455345 		.ascii	"RESERVED5\000"
ARM GAS  /tmp/ccZi7sy1.s 			page 81


 4255      52564544 
 4255      3500
 4256              	.LASF119:
 4257 0662 75736572 		.ascii	"user\000"
 4257      00
 4258              	.LASF144:
 4259 0667 50574D5F 		.ascii	"PWM_READY\000"
 4259      52454144 
 4259      5900
 4260              	.LASF23:
 4261 0671 74707269 		.ascii	"tprio_t\000"
 4261      6F5F7400 
 4262              	.LASF64:
 4263 0679 63685F73 		.ascii	"ch_system_debug\000"
 4263      79737465 
 4263      6D5F6465 
 4263      62756700 
 4264              	.LASF141:
 4265 0689 5F426F6F 		.ascii	"_Bool\000"
 4265      6C00
 4266              	.LASF16:
 4267 068f 696E7433 		.ascii	"int32_t\000"
 4267      325F7400 
 4268              	.LASF2:
 4269 0697 756E7369 		.ascii	"unsigned char\000"
 4269      676E6564 
 4269      20636861 
 4269      7200
 4270              	.LASF181:
 4271 06a5 49544D5F 		.ascii	"ITM_RxBuffer\000"
 4271      52784275 
 4271      66666572 
 4271      00
 4272              	.LASF3:
 4273 06b2 73686F72 		.ascii	"short int\000"
 4273      7420696E 
 4273      7400
 4274              	.LASF62:
 4275 06bc 6C617374 		.ascii	"lasttime\000"
 4275      74696D65 
 4275      00
 4276              	.LASF118:
 4277 06c5 68616C74 		.ascii	"halt\000"
 4277      00
 4278              	.LASF91:
 4279 06ca 41484233 		.ascii	"AHB3LPENR\000"
 4279      4C50454E 
 4279      5200
 4280              	.LASF136:
 4281 06d4 65776D61 		.ascii	"ewmask\000"
 4281      736B00
 4282              	.LASF155:
 4283 06db 70776D63 		.ascii	"pwmchnmsk_t\000"
 4283      686E6D73 
 4283      6B5F7400 
 4284              	.LASF179:
 4285 06e7 5F5F6675 		.ascii	"__func__\000"
ARM GAS  /tmp/ccZi7sy1.s 			page 82


 4285      6E635F5F 
 4285      00
 4286              	.LASF68:
 4287 06f0 63685F73 		.ascii	"ch_system\000"
 4287      79737465 
 4287      6D00
 4288              	.LASF87:
 4289 06fa 41504232 		.ascii	"APB2ENR\000"
 4289      454E5200 
 4290              	.LASF117:
 4291 0702 72656173 		.ascii	"reason\000"
 4291      6F6E00
 4292              	.LASF169:
 4293 0709 6368616E 		.ascii	"channel\000"
 4293      6E656C00 
 4294              	.LASF57:
 4295 0711 63685F76 		.ascii	"ch_virtual_timer\000"
 4295      69727475 
 4295      616C5F74 
 4295      696D6572 
 4295      00
 4296              	.LASF137:
 4297 0722 63685F73 		.ascii	"ch_semaphore\000"
 4297      656D6170 
 4297      686F7265 
 4297      00
 4298              	.LASF113:
 4299 072f 43435852 		.ascii	"CCXR\000"
 4299      00
 4300              	.LASF166:
 4301 0734 70776D5F 		.ascii	"pwm_lld_stop\000"
 4301      6C6C645F 
 4301      73746F70 
 4301      00
 4302              	.LASF97:
 4303 0741 52455345 		.ascii	"RESERVED6\000"
 4303      52564544 
 4303      3600
 4304              	.LASF17:
 4305 074b 75696E74 		.ascii	"uint32_t\000"
 4305      33325F74 
 4305      00
 4306              	.LASF135:
 4307 0754 77746D74 		.ascii	"wtmtxp\000"
 4307      787000
 4308              	.LASF149:
 4309 075b 656E6162 		.ascii	"enabled\000"
 4309      6C656400 
 4310              	.LASF139:
 4311 0763 6F776E65 		.ascii	"owner\000"
 4311      7200
 4312              	.LASF34:
 4313 0769 77616261 		.ascii	"wabase\000"
 4313      736500
 4314              	.LASF143:
 4315 0770 50574D5F 		.ascii	"PWM_STOP\000"
 4315      53544F50 
ARM GAS  /tmp/ccZi7sy1.s 			page 83


 4315      00
 4316              	.LASF116:
 4317 0779 63686172 		.ascii	"char\000"
 4317      00
 4318              	.LASF5:
 4319 077e 5F5F7569 		.ascii	"__uint16_t\000"
 4319      6E743136 
 4319      5F7400
 4320              	.LASF157:
 4321 0789 6D6F6465 		.ascii	"mode\000"
 4321      00
 4322              	.LASF147:
 4323 078e 636F6E66 		.ascii	"config\000"
 4323      696700
 4324              	.LASF111:
 4325 0795 444D4152 		.ascii	"DMAR\000"
 4325      00
 4326              	.LASF76:
 4327 079a 41484232 		.ascii	"AHB2RSTR\000"
 4327      52535452 
 4327      00
 4328              	.LASF28:
 4329 07a3 74687265 		.ascii	"thread_t\000"
 4329      61645F74 
 4329      00
 4330              	.LASF27:
 4331 07ac 73797374 		.ascii	"systime_t\000"
 4331      696D655F 
 4331      7400
 4332              	.LASF55:
 4333 07b6 76746675 		.ascii	"vtfunc_t\000"
 4333      6E635F74 
 4333      00
 4334              	.LASF65:
 4335 07bf 70616E69 		.ascii	"panic_msg\000"
 4335      635F6D73 
 4335      6700
 4336              	.LASF128:
 4337 07c9 6F666673 		.ascii	"offset\000"
 4337      657400
 4338              	.LASF86:
 4339 07d0 41504231 		.ascii	"APB1ENR\000"
 4339      454E5200 
 4340              	.LASF83:
 4341 07d8 41484232 		.ascii	"AHB2ENR\000"
 4341      454E5200 
 4342              	.LASF6:
 4343 07e0 73686F72 		.ascii	"short unsigned int\000"
 4343      7420756E 
 4343      7369676E 
 4343      65642069 
 4343      6E7400
 4344              	.LASF67:
 4345 07f3 63685F73 		.ascii	"ch_system_t\000"
 4345      79737465 
 4345      6D5F7400 
 4346              	.LASF159:
ARM GAS  /tmp/ccZi7sy1.s 			page 84


 4347 07ff 50574D43 		.ascii	"PWMChannelConfig\000"
 4347      68616E6E 
 4347      656C436F 
 4347      6E666967 
 4347      00
 4348              	.LASF19:
 4349 0810 7274636E 		.ascii	"rtcnt_t\000"
 4349      745F7400 
 4350              	.LASF103:
 4351 0818 706F7274 		.ascii	"port_context\000"
 4351      5F636F6E 
 4351      74657874 
 4351      00
 4352              	.LASF98:
 4353 0825 53534347 		.ascii	"SSCGR\000"
 4353      5200
 4354              	.LASF162:
 4355 082b 50574D43 		.ascii	"PWMConfig\000"
 4355      6F6E6669 
 4355      6700
 4356              	.LASF49:
 4357 0835 74687265 		.ascii	"threads_queue_t\000"
 4357      6164735F 
 4357      71756575 
 4357      655F7400 
 4358              	.LASF138:
 4359 0845 63685F6D 		.ascii	"ch_mutex\000"
 4359      75746578 
 4359      00
 4360              	.LASF96:
 4361 084e 42444352 		.ascii	"BDCR\000"
 4361      00
 4362              	.LASF69:
 4363 0853 726C6973 		.ascii	"rlist\000"
 4363      7400
 4364              	.LASF14:
 4365 0859 75696E74 		.ascii	"uint8_t\000"
 4365      385F7400 
 4366              	.LASF146:
 4367 0861 50574D44 		.ascii	"PWMDriver\000"
 4367      72697665 
 4367      7200
 4368              	.LASF36:
 4369 086b 666C6167 		.ascii	"flags\000"
 4369      7300
 4370              	.LASF145:
 4371 0871 70776D73 		.ascii	"pwmstate_t\000"
 4371      74617465 
 4371      5F7400
 4372              	.LASF156:
 4373 087c 70776D63 		.ascii	"pwmcnt_t\000"
 4373      6E745F74 
 4373      00
 4374              	.LASF115:
 4375 0885 77746F62 		.ascii	"wtobjp\000"
 4375      6A7000
 4376              	.LASF82:
ARM GAS  /tmp/ccZi7sy1.s 			page 85


 4377 088c 41484231 		.ascii	"AHB1ENR\000"
 4377      454E5200 
 4378              	.LASF125:
 4379 0894 73697A65 		.ascii	"size\000"
 4379      00
 4380              	.LASF48:
 4381 0899 6E657874 		.ascii	"next\000"
 4381      00
 4382              	.LASF74:
 4383 089e 43464752 		.ascii	"CFGR\000"
 4383      00
 4384              	.LASF20:
 4385 08a3 746D6F64 		.ascii	"tmode_t\000"
 4385      655F7400 
 4386              	.LASF66:
 4387 08ab 74726163 		.ascii	"trace_buffer\000"
 4387      655F6275 
 4387      66666572 
 4387      00
 4388              	.LASF190:
 4389 08b8 2E2E2F2E 		.ascii	"../../../../../ChibiOS-RT/os/hal/ports/STM32/LLD/TI"
 4389      2E2F2E2E 
 4389      2F2E2E2F 
 4389      2E2E2F43 
 4389      68696269 
 4390 08eb 4D76312F 		.ascii	"Mv1/hal_pwm_lld.c\000"
 4390      68616C5F 
 4390      70776D5F 
 4390      6C6C642E 
 4390      6300
 4391              	.LASF151:
 4392 08fd 636C6F63 		.ascii	"clock\000"
 4392      6B00
 4393              	.LASF41:
 4394 0903 6D74786C 		.ascii	"mtxlist\000"
 4394      69737400 
 4395              	.LASF142:
 4396 090b 50574D5F 		.ascii	"PWM_UNINIT\000"
 4396      554E494E 
 4396      495400
 4397              	.LASF184:
 4398 0916 70776D4F 		.ascii	"pwmObjectInit\000"
 4398      626A6563 
 4398      74496E69 
 4398      7400
 4399              	.LASF161:
 4400 0924 64696572 		.ascii	"dier\000"
 4400      00
 4401              		.ident	"GCC: (4.8.2-14ubuntu1+6) 4.8.2"
ARM GAS  /tmp/ccZi7sy1.s 			page 86


DEFINED SYMBOLS
                            *ABS*:0000000000000000 hal_pwm_lld.c
     /tmp/ccZi7sy1.s:19     .text.pwm_lld_init:0000000000000000 $t
     /tmp/ccZi7sy1.s:25     .text.pwm_lld_init:0000000000000000 pwm_lld_init
     /tmp/ccZi7sy1.s:820    .bss.PWMD1:0000000000000000 .LANCHOR0
     /tmp/ccZi7sy1.s:827    .bss.PWMD3:0000000000000000 .LANCHOR1
     /tmp/ccZi7sy1.s:75     .text.pwm_lld_start:0000000000000000 $t
     /tmp/ccZi7sy1.s:81     .text.pwm_lld_start:0000000000000000 pwm_lld_start
     /tmp/ccZi7sy1.s:317    .text.pwm_lld_stop:0000000000000000 $t
     /tmp/ccZi7sy1.s:323    .text.pwm_lld_stop:0000000000000000 pwm_lld_stop
     /tmp/ccZi7sy1.s:402    .text.pwm_lld_enable_channel:0000000000000000 $t
     /tmp/ccZi7sy1.s:408    .text.pwm_lld_enable_channel:0000000000000000 pwm_lld_enable_channel
     /tmp/ccZi7sy1.s:427    .text.pwm_lld_disable_channel:0000000000000000 $t
     /tmp/ccZi7sy1.s:433    .text.pwm_lld_disable_channel:0000000000000000 pwm_lld_disable_channel
     /tmp/ccZi7sy1.s:460    .text.pwm_lld_enable_periodic_notification:0000000000000000 $t
     /tmp/ccZi7sy1.s:466    .text.pwm_lld_enable_periodic_notification:0000000000000000 pwm_lld_enable_periodic_notification
     /tmp/ccZi7sy1.s:495    .text.pwm_lld_disable_periodic_notification:0000000000000000 $t
     /tmp/ccZi7sy1.s:501    .text.pwm_lld_disable_periodic_notification:0000000000000000 pwm_lld_disable_periodic_notification
     /tmp/ccZi7sy1.s:519    .text.pwm_lld_enable_channel_notification:0000000000000000 $t
     /tmp/ccZi7sy1.s:525    .text.pwm_lld_enable_channel_notification:0000000000000000 pwm_lld_enable_channel_notification
     /tmp/ccZi7sy1.s:560    .text.pwm_lld_disable_channel_notification:0000000000000000 $t
     /tmp/ccZi7sy1.s:566    .text.pwm_lld_disable_channel_notification:0000000000000000 pwm_lld_disable_channel_notification
     /tmp/ccZi7sy1.s:588    .text.pwm_lld_serve_interrupt:0000000000000000 $t
     /tmp/ccZi7sy1.s:594    .text.pwm_lld_serve_interrupt:0000000000000000 pwm_lld_serve_interrupt
     /tmp/ccZi7sy1.s:690    .text.VectorA4:0000000000000000 $t
     /tmp/ccZi7sy1.s:696    .text.VectorA4:0000000000000000 VectorA4
     /tmp/ccZi7sy1.s:834    .rodata.__func__.7592:0000000000000000 .LANCHOR2
     /tmp/ccZi7sy1.s:730    .text.VectorAC:0000000000000000 $t
     /tmp/ccZi7sy1.s:736    .text.VectorAC:0000000000000000 VectorAC
     /tmp/ccZi7sy1.s:841    .rodata.__func__.7596:0000000000000000 .LANCHOR3
     /tmp/ccZi7sy1.s:770    .text.VectorB4:0000000000000000 $t
     /tmp/ccZi7sy1.s:776    .text.VectorB4:0000000000000000 VectorB4
     /tmp/ccZi7sy1.s:813    .rodata.__func__.7600:0000000000000000 .LANCHOR4
     /tmp/ccZi7sy1.s:830    .bss.PWMD3:0000000000000000 PWMD3
     /tmp/ccZi7sy1.s:823    .bss.PWMD1:0000000000000000 PWMD1
     /tmp/ccZi7sy1.s:812    .rodata.__func__.7600:0000000000000000 $d
     /tmp/ccZi7sy1.s:816    .rodata.__func__.7600:0000000000000000 __func__.7600
     /tmp/ccZi7sy1.s:819    .bss.PWMD1:0000000000000000 $d
     /tmp/ccZi7sy1.s:826    .bss.PWMD3:0000000000000000 $d
     /tmp/ccZi7sy1.s:833    .rodata.__func__.7592:0000000000000000 $d
     /tmp/ccZi7sy1.s:837    .rodata.__func__.7592:0000000000000000 __func__.7592
     /tmp/ccZi7sy1.s:840    .rodata.__func__.7596:0000000000000000 $d
     /tmp/ccZi7sy1.s:844    .rodata.__func__.7596:0000000000000000 __func__.7596
                     .debug_frame:0000000000000010 $d

UNDEFINED SYMBOLS
pwmObjectInit
nvicEnableVector
nvicDisableVector
_trace_isr_enter
_trace_isr_leave
_port_irq_epilogue
