ARM GAS  /tmp/ccZi7sy1.s 			page 1


   1              		.syntax unified
   2              		.cpu cortex-m4
   3              		.fpu softvfp
   4              		.eabi_attribute 20, 1
   5              		.eabi_attribute 21, 1
   6              		.eabi_attribute 23, 3
   7              		.eabi_attribute 24, 1
   8              		.eabi_attribute 25, 1
   9              		.eabi_attribute 26, 1
  10              		.eabi_attribute 30, 2
  11              		.eabi_attribute 34, 1
  12              		.eabi_attribute 18, 4
  13              		.thumb
  14              		.file	"hal_pwm_lld.c"
  15              		.text
  16              	.Ltext0:
  17              		.cfi_sections	.debug_frame
  18              		.section	.text.pwm_lld_init,"ax",%progbits
  19              		.align	2
  20              		.p2align 4,,15
  21              		.global	pwm_lld_init
  22              		.thumb
  23              		.thumb_func
  24              		.type	pwm_lld_init, %function
  25              	pwm_lld_init:
  26              	.LFB273:
  27              		.file 1 "../../../../../ChibiOS-RT/os/hal/ports/STM32/LLD/TIMv1/hal_pwm_lld.c"
  28              		.loc 1 307 0
  29              		.cfi_startproc
  30              		@ args = 0, pretend = 0, frame = 0
  31              		@ frame_needed = 0, uses_anonymous_args = 0
  32 0000 70B5     		push	{r4, r5, r6, lr}
  33              		.cfi_def_cfa_offset 16
  34              		.cfi_offset 4, -16
  35              		.cfi_offset 5, -12
  36              		.cfi_offset 6, -8
  37              		.cfi_offset 14, -4
  38              		.loc 1 311 0
  39 0002 40F20005 		movw	r5, #:lower16:.LANCHOR0
  40 0006 C0F20005 		movt	r5, #:upper16:.LANCHOR0
  41 000a 2846     		mov	r0, r5
  42              		.loc 1 325 0
  43 000c 40F20004 		movw	r4, #:lower16:.LANCHOR1
  44              		.loc 1 311 0
  45 0010 FFF7FEFF 		bl	pwmObjectInit
  46              	.LVL0:
  47              		.loc 1 325 0
  48 0014 C0F20004 		movt	r4, #:upper16:.LANCHOR1
  49              		.loc 1 313 0
  50 0018 0023     		movs	r3, #0
  51 001a C4F20103 		movt	r3, 16385
  52              		.loc 1 312 0
  53 001e 0426     		movs	r6, #4
  54              		.loc 1 325 0
  55 0020 2046     		mov	r0, r4
  56              		.loc 1 313 0
  57 0022 AB61     		str	r3, [r5, #24]
ARM GAS  /tmp/ccZi7sy1.s 			page 2


  58              		.loc 1 312 0
  59 0024 2E74     		strb	r6, [r5, #16]
  60              		.loc 1 325 0
  61 0026 FFF7FEFF 		bl	pwmObjectInit
  62              	.LVL1:
  63              		.loc 1 327 0
  64 002a 4FF48063 		mov	r3, #1024
  65 002e C4F20003 		movt	r3, 16384
  66              		.loc 1 326 0
  67 0032 2674     		strb	r6, [r4, #16]
  68              		.loc 1 327 0
  69 0034 A361     		str	r3, [r4, #24]
  70 0036 70BD     		pop	{r4, r5, r6, pc}
  71              		.cfi_endproc
  72              	.LFE273:
  73              		.size	pwm_lld_init, .-pwm_lld_init
  74 0038 AFF30080 		.section	.text.pwm_lld_start,"ax",%progbits
  74      AFF30080 
  75              		.align	2
  76              		.p2align 4,,15
  77              		.global	pwm_lld_start
  78              		.thumb
  79              		.thumb_func
  80              		.type	pwm_lld_start, %function
  81              	pwm_lld_start:
  82              	.LFB274:
  83              		.loc 1 368 0
  84              		.cfi_startproc
  85              		@ args = 0, pretend = 0, frame = 0
  86              		@ frame_needed = 0, uses_anonymous_args = 0
  87              	.LVL2:
  88              		.loc 1 372 0
  89 0000 0378     		ldrb	r3, [r0]	@ zero_extendqisi2
  90 0002 012B     		cmp	r3, #1
  91              		.loc 1 368 0
  92 0004 70B5     		push	{r4, r5, r6, lr}
  93              		.cfi_def_cfa_offset 16
  94              		.cfi_offset 4, -16
  95              		.cfi_offset 5, -12
  96              		.cfi_offset 6, -8
  97              		.cfi_offset 14, -4
  98              		.loc 1 368 0
  99 0006 0446     		mov	r4, r0
 100              		.loc 1 372 0
 101 0008 4ED0     		beq	.L32
 102              		.loc 1 494 0
 103 000a 8369     		ldr	r3, [r0, #24]
 104 000c 0022     		movs	r2, #0
 105 000e 1A60     		str	r2, [r3]
 106              		.loc 1 495 0
 107 0010 5A63     		str	r2, [r3, #52]
 108              		.loc 1 496 0
 109 0012 9A63     		str	r2, [r3, #56]
 110              		.loc 1 497 0
 111 0014 DA63     		str	r2, [r3, #60]
 112              		.loc 1 498 0
 113 0016 1A64     		str	r2, [r3, #64]
ARM GAS  /tmp/ccZi7sy1.s 			page 3


 114              		.loc 1 505 0
 115 0018 5A62     		str	r2, [r3, #36]
 116              	.LVL3:
 117              	.L6:
 118              		.loc 1 509 0
 119 001a 6268     		ldr	r2, [r4, #4]
 120 001c 6669     		ldr	r6, [r4, #20]
 121 001e 1068     		ldr	r0, [r2]
 122              		.loc 1 519 0
 123 0020 D168     		ldr	r1, [r2, #12]
 124              		.loc 1 514 0
 125 0022 A568     		ldr	r5, [r4, #8]
 126              		.loc 1 515 0
 127 0024 D46A     		ldr	r4, [r2, #44]
 128              	.LVL4:
 129              		.loc 1 509 0
 130 0026 B6FBF0F0 		udiv	r0, r6, r0
 131              		.loc 1 519 0
 132 002a 01F00F01 		and	r1, r1, #15
 133              		.loc 1 509 0
 134 002e 0138     		subs	r0, r0, #1
 135              	.LVL5:
 136              		.loc 1 514 0
 137 0030 013D     		subs	r5, r5, #1
 138              		.loc 1 519 0
 139 0032 0129     		cmp	r1, #1
 140              		.loc 1 513 0
 141 0034 9862     		str	r0, [r3, #40]
 142              		.loc 1 514 0
 143 0036 DD62     		str	r5, [r3, #44]
 144              		.loc 1 515 0
 145 0038 5C60     		str	r4, [r3, #4]
 146              	.LVL6:
 147              		.loc 1 519 0
 148 003a 03D0     		beq	.L7
 149              		.loc 1 518 0
 150 003c 0229     		cmp	r1, #2
 151 003e 0CBF     		ite	eq
 152 0040 0321     		moveq	r1, #3
 153 0042 0021     		movne	r1, #0
 154              	.L7:
 155              	.LVL7:
 156              		.loc 1 527 0
 157 0044 5069     		ldr	r0, [r2, #20]
 158              	.LVL8:
 159 0046 00F00F00 		and	r0, r0, #15
 160 004a 0128     		cmp	r0, #1
 161 004c 29D0     		beq	.L11
 162 004e 0228     		cmp	r0, #2
 163 0050 25D0     		beq	.L33
 164              	.L10:
 165              		.loc 1 535 0
 166 0052 D069     		ldr	r0, [r2, #28]
 167 0054 00F00F00 		and	r0, r0, #15
 168 0058 0128     		cmp	r0, #1
 169 005a 1DD0     		beq	.L14
 170 005c 0228     		cmp	r0, #2
ARM GAS  /tmp/ccZi7sy1.s 			page 4


 171 005e 19D0     		beq	.L34
 172              	.L13:
 173              		.loc 1 543 0
 174 0060 506A     		ldr	r0, [r2, #36]
 175 0062 00F00F00 		and	r0, r0, #15
 176 0066 0128     		cmp	r0, #1
 177 0068 03D0     		beq	.L17
 178 006a 0228     		cmp	r0, #2
 179 006c 03D1     		bne	.L16
 180              		.loc 1 545 0
 181 006e 41F40051 		orr	r1, r1, #8192
 182              	.LVL9:
 183              	.L17:
 184              		.loc 1 547 0
 185 0072 41F48051 		orr	r1, r1, #4096
 186              	.LVL10:
 187              	.L16:
 188              		.loc 1 591 0
 189 0076 106B     		ldr	r0, [r2, #48]
 190              		.loc 1 588 0
 191 0078 1962     		str	r1, [r3, #32]
 192              		.loc 1 591 0
 193 007a 20F0FF00 		bic	r0, r0, #255
 194              		.loc 1 589 0
 195 007e 0125     		movs	r5, #1
 196              		.loc 1 590 0
 197 0080 0024     		movs	r4, #0
 198              		.loc 1 597 0
 199 0082 4FF40041 		mov	r1, #32768
 200              	.LVL11:
 201              		.loc 1 601 0
 202 0086 8522     		movs	r2, #133
 203              	.LVL12:
 204              		.loc 1 589 0
 205 0088 5D61     		str	r5, [r3, #20]
 206              	.LVL13:
 207              		.loc 1 590 0
 208 008a 1C61     		str	r4, [r3, #16]
 209              		.loc 1 591 0
 210 008c D860     		str	r0, [r3, #12]
 211              		.loc 1 597 0
 212 008e 5964     		str	r1, [r3, #68]
 213              		.loc 1 601 0
 214 0090 1A60     		str	r2, [r3]
 215 0092 70BD     		pop	{r4, r5, r6, pc}
 216              	.LVL14:
 217              	.L34:
 218              		.loc 1 537 0
 219 0094 41F40071 		orr	r1, r1, #512
 220              	.LVL15:
 221              	.L14:
 222              		.loc 1 539 0
 223 0098 41F48071 		orr	r1, r1, #256
 224              	.LVL16:
 225 009c E0E7     		b	.L13
 226              	.L33:
 227              		.loc 1 529 0
ARM GAS  /tmp/ccZi7sy1.s 			page 5


 228 009e 41F02001 		orr	r1, r1, #32
 229              	.LVL17:
 230              	.L11:
 231              		.loc 1 531 0
 232 00a2 41F01001 		orr	r1, r1, #16
 233              	.LVL18:
 234 00a6 D4E7     		b	.L10
 235              	.LVL19:
 236              	.L32:
 237              		.loc 1 375 0
 238 00a8 40F20003 		movw	r3, #:lower16:.LANCHOR0
 239 00ac C0F20003 		movt	r3, #:upper16:.LANCHOR0
 240 00b0 9842     		cmp	r0, r3
 241 00b2 0BD0     		beq	.L35
 242              		.loc 1 406 0
 243 00b4 40F20003 		movw	r3, #:lower16:.LANCHOR1
 244 00b8 C0F20003 		movt	r3, #:upper16:.LANCHOR1
 245 00bc 9842     		cmp	r0, r3
 246 00be 21D0     		beq	.L36
 247              	.LVL20:
 248              	.L5:
 249              		.loc 1 483 0
 250 00c0 A369     		ldr	r3, [r4, #24]
 251 00c2 46F66802 		movw	r2, #26728
 252 00c6 9A61     		str	r2, [r3, #24]
 253              		.loc 1 485 0
 254 00c8 DA61     		str	r2, [r3, #28]
 255 00ca A6E7     		b	.L6
 256              	.LVL21:
 257              	.L35:
 258              		.loc 1 376 0
 259 00cc 4FF46053 		mov	r3, #14336
 260 00d0 C4F20203 		movt	r3, 16386
 261              		.loc 1 377 0
 262 00d4 0022     		movs	r2, #0
 263              		.loc 1 376 0
 264 00d6 596C     		ldr	r1, [r3, #68]
 265 00d8 41F00101 		orr	r1, r1, #1
 266 00dc 5964     		str	r1, [r3, #68]
 267              		.loc 1 377 0
 268 00de 596A     		ldr	r1, [r3, #36]
 269 00e0 41F00101 		orr	r1, r1, #1
 270 00e4 5962     		str	r1, [r3, #36]
 271              		.loc 1 379 0
 272 00e6 1920     		movs	r0, #25
 273              	.LVL22:
 274              		.loc 1 377 0
 275 00e8 5A62     		str	r2, [r3, #36]
 276              		.loc 1 379 0
 277 00ea 0721     		movs	r1, #7
 278 00ec FFF7FEFF 		bl	nvicEnableVector
 279              	.LVL23:
 280              		.loc 1 380 0
 281 00f0 1B20     		movs	r0, #27
 282              	.L30:
 283              		.loc 1 410 0
 284 00f2 0721     		movs	r1, #7
ARM GAS  /tmp/ccZi7sy1.s 			page 6


 285 00f4 FFF7FEFF 		bl	nvicEnableVector
 286              	.LVL24:
 287              		.loc 1 415 0
 288 00f8 4FF43D43 		mov	r3, #48384
 289 00fc C0F20153 		movt	r3, 1281
 290 0100 6361     		str	r3, [r4, #20]
 291 0102 DDE7     		b	.L5
 292              	.LVL25:
 293              	.L36:
 294              		.loc 1 407 0
 295 0104 4FF46053 		mov	r3, #14336
 296 0108 C4F20203 		movt	r3, 16386
 297              		.loc 1 408 0
 298 010c 0022     		movs	r2, #0
 299              		.loc 1 407 0
 300 010e 196C     		ldr	r1, [r3, #64]
 301 0110 41F00201 		orr	r1, r1, #2
 302 0114 1964     		str	r1, [r3, #64]
 303              		.loc 1 408 0
 304 0116 196A     		ldr	r1, [r3, #32]
 305 0118 41F00201 		orr	r1, r1, #2
 306 011c 1962     		str	r1, [r3, #32]
 307              		.loc 1 410 0
 308 011e 1D20     		movs	r0, #29
 309              	.LVL26:
 310              		.loc 1 408 0
 311 0120 1A62     		str	r2, [r3, #32]
 312 0122 E6E7     		b	.L30
 313              		.cfi_endproc
 314              	.LFE274:
 315              		.size	pwm_lld_start, .-pwm_lld_start
 316 0124 AFF30080 		.section	.text.pwm_lld_stop,"ax",%progbits
 316      AFF30080 
 316      AFF30080 
 317              		.align	2
 318              		.p2align 4,,15
 319              		.global	pwm_lld_stop
 320              		.thumb
 321              		.thumb_func
 322              		.type	pwm_lld_stop, %function
 323              	pwm_lld_stop:
 324              	.LFB275:
 325              		.loc 1 612 0
 326              		.cfi_startproc
 327              		@ args = 0, pretend = 0, frame = 0
 328              		@ frame_needed = 0, uses_anonymous_args = 0
 329              	.LVL27:
 330 0000 08B5     		push	{r3, lr}
 331              		.cfi_def_cfa_offset 8
 332              		.cfi_offset 3, -8
 333              		.cfi_offset 14, -4
 334              		.loc 1 615 0
 335 0002 0378     		ldrb	r3, [r0]	@ zero_extendqisi2
 336 0004 022B     		cmp	r3, #2
 337 0006 00D0     		beq	.L42
 338              	.LVL28:
 339              	.L37:
ARM GAS  /tmp/ccZi7sy1.s 			page 7


 340 0008 08BD     		pop	{r3, pc}
 341              	.LVL29:
 342              	.L42:
 343              		.loc 1 624 0
 344 000a 40F20001 		movw	r1, #:lower16:.LANCHOR0
 345              		.loc 1 616 0
 346 000e 8369     		ldr	r3, [r0, #24]
 347              		.loc 1 624 0
 348 0010 C0F20001 		movt	r1, #:upper16:.LANCHOR0
 349              		.loc 1 616 0
 350 0014 0022     		movs	r2, #0
 351              		.loc 1 624 0
 352 0016 8842     		cmp	r0, r1
 353              		.loc 1 616 0
 354 0018 1A60     		str	r2, [r3]
 355              		.loc 1 617 0
 356 001a DA60     		str	r2, [r3, #12]
 357              		.loc 1 618 0
 358 001c 1A61     		str	r2, [r3, #16]
 359              		.loc 1 620 0
 360 001e 5A64     		str	r2, [r3, #68]
 361              		.loc 1 624 0
 362 0020 11D0     		beq	.L43
 363              		.loc 1 643 0
 364 0022 40F20003 		movw	r3, #:lower16:.LANCHOR1
 365 0026 C0F20003 		movt	r3, #:upper16:.LANCHOR1
 366 002a 9842     		cmp	r0, r3
 367 002c ECD1     		bne	.L37
 368              		.loc 1 645 0
 369 002e 1D20     		movs	r0, #29
 370              	.LVL30:
 371 0030 FFF7FEFF 		bl	nvicDisableVector
 372              	.LVL31:
 373              		.loc 1 647 0
 374 0034 4FF46053 		mov	r3, #14336
 375 0038 C4F20203 		movt	r3, 16386
 376 003c 1A6C     		ldr	r2, [r3, #64]
 377 003e 22F00202 		bic	r2, r2, #2
 378 0042 1A64     		str	r2, [r3, #64]
 379 0044 E0E7     		b	.L37
 380              	.LVL32:
 381              	.L43:
 382              		.loc 1 626 0
 383 0046 1920     		movs	r0, #25
 384              	.LVL33:
 385 0048 FFF7FEFF 		bl	nvicDisableVector
 386              	.LVL34:
 387              		.loc 1 627 0
 388 004c 1B20     		movs	r0, #27
 389 004e FFF7FEFF 		bl	nvicDisableVector
 390              	.LVL35:
 391              		.loc 1 629 0
 392 0052 4FF46053 		mov	r3, #14336
 393 0056 C4F20203 		movt	r3, 16386
 394 005a 5A6C     		ldr	r2, [r3, #68]
 395 005c 22F00102 		bic	r2, r2, #1
 396 0060 5A64     		str	r2, [r3, #68]
ARM GAS  /tmp/ccZi7sy1.s 			page 8


 397 0062 08BD     		pop	{r3, pc}
 398              		.cfi_endproc
 399              	.LFE275:
 400              		.size	pwm_lld_stop, .-pwm_lld_stop
 401 0064 AFF30080 		.section	.text.pwm_lld_enable_channel,"ax",%progbits
 401      AFF30080 
 401      AFF30080 
 402              		.align	2
 403              		.p2align 4,,15
 404              		.global	pwm_lld_enable_channel
 405              		.thumb
 406              		.thumb_func
 407              		.type	pwm_lld_enable_channel, %function
 408              	pwm_lld_enable_channel:
 409              	.LFB276:
 410              		.loc 1 705 0
 411              		.cfi_startproc
 412              		@ args = 0, pretend = 0, frame = 0
 413              		@ frame_needed = 0, uses_anonymous_args = 0
 414              		@ link register save eliminated.
 415              	.LVL36:
 416              		.loc 1 709 0
 417 0000 8369     		ldr	r3, [r0, #24]
 418 0002 0C31     		adds	r1, r1, #12
 419              	.LVL37:
 420 0004 03EB8103 		add	r3, r3, r1, lsl #2
 421 0008 5A60     		str	r2, [r3, #4]
 422 000a 7047     		bx	lr
 423              		.cfi_endproc
 424              	.LFE276:
 425              		.size	pwm_lld_enable_channel, .-pwm_lld_enable_channel
 426 000c AFF30080 		.section	.text.pwm_lld_disable_channel,"ax",%progbits
 427              		.align	2
 428              		.p2align 4,,15
 429              		.global	pwm_lld_disable_channel
 430              		.thumb
 431              		.thumb_func
 432              		.type	pwm_lld_disable_channel, %function
 433              	pwm_lld_disable_channel:
 434              	.LFB277:
 435              		.loc 1 730 0
 436              		.cfi_startproc
 437              		@ args = 0, pretend = 0, frame = 0
 438              		@ frame_needed = 0, uses_anonymous_args = 0
 439              		@ link register save eliminated.
 440              	.LVL38:
 441              		.loc 1 733 0
 442 0000 8369     		ldr	r3, [r0, #24]
 443 0002 01F10C02 		add	r2, r1, #12
 444 0006 03EB8202 		add	r2, r3, r2, lsl #2
 445 000a 0020     		movs	r0, #0
 446              	.LVL39:
 447 000c 5060     		str	r0, [r2, #4]
 448              		.loc 1 734 0
 449 000e DA68     		ldr	r2, [r3, #12]
 450 0010 0220     		movs	r0, #2
 451 0012 00FA01F1 		lsl	r1, r0, r1
ARM GAS  /tmp/ccZi7sy1.s 			page 9


 452              	.LVL40:
 453 0016 22EA0101 		bic	r1, r2, r1
 454 001a D960     		str	r1, [r3, #12]
 455 001c 7047     		bx	lr
 456              		.cfi_endproc
 457              	.LFE277:
 458              		.size	pwm_lld_disable_channel, .-pwm_lld_disable_channel
 459 001e 00BF     		.section	.text.pwm_lld_enable_periodic_notification,"ax",%progbits
 460              		.align	2
 461              		.p2align 4,,15
 462              		.global	pwm_lld_enable_periodic_notification
 463              		.thumb
 464              		.thumb_func
 465              		.type	pwm_lld_enable_periodic_notification, %function
 466              	pwm_lld_enable_periodic_notification:
 467              	.LFB278:
 468              		.loc 1 754 0
 469              		.cfi_startproc
 470              		@ args = 0, pretend = 0, frame = 0
 471              		@ frame_needed = 0, uses_anonymous_args = 0
 472              		@ link register save eliminated.
 473              	.LVL41:
 474              		.loc 1 755 0
 475 0000 8369     		ldr	r3, [r0, #24]
 476 0002 DA68     		ldr	r2, [r3, #12]
 477              	.LVL42:
 478              		.loc 1 759 0
 479 0004 D107     		lsls	r1, r2, #31
 480              		.loc 1 760 0
 481 0006 5FBF     		itttt	pl
 482 0008 42F00102 		orrpl	r2, r2, #1
 483              	.LVL43:
 484 000c DA60     		strpl	r2, [r3, #12]
 485              		.loc 1 761 0
 486 000e 1A69     		ldrpl	r2, [r3, #16]
 487 0010 02F00102 		andpl	r2, r2, #1
 488 0014 58BF     		it	pl
 489 0016 1A61     		strpl	r2, [r3, #16]
 490 0018 7047     		bx	lr
 491              		.cfi_endproc
 492              	.LFE278:
 493              		.size	pwm_lld_enable_periodic_notification, .-pwm_lld_enable_periodic_notification
 494 001a 00BFAFF3 		.section	.text.pwm_lld_disable_periodic_notification,"ax",%progbits
 494      0080
 495              		.align	2
 496              		.p2align 4,,15
 497              		.global	pwm_lld_disable_periodic_notification
 498              		.thumb
 499              		.thumb_func
 500              		.type	pwm_lld_disable_periodic_notification, %function
 501              	pwm_lld_disable_periodic_notification:
 502              	.LFB279:
 503              		.loc 1 774 0
 504              		.cfi_startproc
 505              		@ args = 0, pretend = 0, frame = 0
 506              		@ frame_needed = 0, uses_anonymous_args = 0
 507              		@ link register save eliminated.
ARM GAS  /tmp/ccZi7sy1.s 			page 10


 508              	.LVL44:
 509              		.loc 1 776 0
 510 0000 8369     		ldr	r3, [r0, #24]
 511 0002 DA68     		ldr	r2, [r3, #12]
 512 0004 22F00102 		bic	r2, r2, #1
 513 0008 DA60     		str	r2, [r3, #12]
 514 000a 7047     		bx	lr
 515              		.cfi_endproc
 516              	.LFE279:
 517              		.size	pwm_lld_disable_periodic_notification, .-pwm_lld_disable_periodic_notification
 518 000c AFF30080 		.section	.text.pwm_lld_enable_channel_notification,"ax",%progbits
 519              		.align	2
 520              		.p2align 4,,15
 521              		.global	pwm_lld_enable_channel_notification
 522              		.thumb
 523              		.thumb_func
 524              		.type	pwm_lld_enable_channel_notification, %function
 525              	pwm_lld_enable_channel_notification:
 526              	.LFB280:
 527              		.loc 1 791 0
 528              		.cfi_startproc
 529              		@ args = 0, pretend = 0, frame = 0
 530              		@ frame_needed = 0, uses_anonymous_args = 0
 531              		@ link register save eliminated.
 532              	.LVL45:
 533              		.loc 1 792 0
 534 0000 8369     		ldr	r3, [r0, #24]
 535              		.loc 1 801 0
 536 0002 0220     		movs	r0, #2
 537              	.LVL46:
 538              		.loc 1 792 0
 539 0004 DA68     		ldr	r2, [r3, #12]
 540              	.LVL47:
 541              		.loc 1 801 0
 542 0006 00FA01F1 		lsl	r1, r0, r1
 543              	.LVL48:
 544 000a 1142     		tst	r1, r2
 545              		.loc 1 802 0
 546 000c 01BF     		itttt	eq
 547 000e 0A43     		orreq	r2, r1, r2
 548              	.LVL49:
 549              		.loc 1 803 0
 550 0010 C943     		mvneq	r1, r1
 551              		.loc 1 802 0
 552 0012 DA60     		streq	r2, [r3, #12]
 553              		.loc 1 803 0
 554 0014 1961     		streq	r1, [r3, #16]
 555 0016 7047     		bx	lr
 556              		.cfi_endproc
 557              	.LFE280:
 558              		.size	pwm_lld_enable_channel_notification, .-pwm_lld_enable_channel_notification
 559 0018 AFF30080 		.section	.text.pwm_lld_disable_channel_notification,"ax",%progbits
 559      AFF30080 
 560              		.align	2
 561              		.p2align 4,,15
 562              		.global	pwm_lld_disable_channel_notification
 563              		.thumb
ARM GAS  /tmp/ccZi7sy1.s 			page 11


 564              		.thumb_func
 565              		.type	pwm_lld_disable_channel_notification, %function
 566              	pwm_lld_disable_channel_notification:
 567              	.LFB281:
 568              		.loc 1 819 0
 569              		.cfi_startproc
 570              		@ args = 0, pretend = 0, frame = 0
 571              		@ frame_needed = 0, uses_anonymous_args = 0
 572              		@ link register save eliminated.
 573              	.LVL50:
 574              		.loc 1 821 0
 575 0000 8369     		ldr	r3, [r0, #24]
 576 0002 0220     		movs	r0, #2
 577              	.LVL51:
 578 0004 DA68     		ldr	r2, [r3, #12]
 579 0006 00FA01F1 		lsl	r1, r0, r1
 580              	.LVL52:
 581 000a 22EA0102 		bic	r2, r2, r1
 582 000e DA60     		str	r2, [r3, #12]
 583 0010 7047     		bx	lr
 584              		.cfi_endproc
 585              	.LFE281:
 586              		.size	pwm_lld_disable_channel_notification, .-pwm_lld_disable_channel_notification
 587 0012 00BFAFF3 		.section	.text.pwm_lld_serve_interrupt,"ax",%progbits
 587      0080AFF3 
 587      0080AFF3 
 587      0080
 588              		.align	2
 589              		.p2align 4,,15
 590              		.global	pwm_lld_serve_interrupt
 591              		.thumb
 592              		.thumb_func
 593              		.type	pwm_lld_serve_interrupt, %function
 594              	pwm_lld_serve_interrupt:
 595              	.LFB282:
 596              		.loc 1 834 0
 597              		.cfi_startproc
 598              		@ args = 0, pretend = 0, frame = 0
 599              		@ frame_needed = 0, uses_anonymous_args = 0
 600              	.LVL53:
 601 0000 38B5     		push	{r3, r4, r5, lr}
 602              		.cfi_def_cfa_offset 16
 603              		.cfi_offset 3, -16
 604              		.cfi_offset 4, -12
 605              		.cfi_offset 5, -8
 606              		.cfi_offset 14, -4
 607              		.loc 1 837 0
 608 0002 8369     		ldr	r3, [r0, #24]
 609 0004 1A69     		ldr	r2, [r3, #16]
 610              	.LVL54:
 611              		.loc 1 838 0
 612 0006 DC68     		ldr	r4, [r3, #12]
 613 0008 1440     		ands	r4, r4, r2
 614              	.LVL55:
 615 000a E2B2     		uxtb	r2, r4
 616              		.loc 1 839 0
 617 000c D243     		mvns	r2, r2
ARM GAS  /tmp/ccZi7sy1.s 			page 12


 618 000e 1A61     		str	r2, [r3, #16]
 619              		.loc 1 840 0
 620 0010 A307     		lsls	r3, r4, #30
 621              		.loc 1 834 0
 622 0012 0546     		mov	r5, r0
 623              		.loc 1 840 0
 624 0014 03D5     		bpl	.L53
 625              		.loc 1 841 0 discriminator 1
 626 0016 4368     		ldr	r3, [r0, #4]
 627 0018 1B69     		ldr	r3, [r3, #16]
 628              		.loc 1 840 0 discriminator 1
 629 001a 03B1     		cbz	r3, .L53
 630              		.loc 1 842 0
 631 001c 9847     		blx	r3
 632              	.LVL56:
 633              	.L53:
 634              		.loc 1 843 0
 635 001e 6107     		lsls	r1, r4, #29
 636 0020 04D5     		bpl	.L54
 637              		.loc 1 844 0 discriminator 1
 638 0022 6B68     		ldr	r3, [r5, #4]
 639 0024 9B69     		ldr	r3, [r3, #24]
 640              		.loc 1 843 0 discriminator 1
 641 0026 0BB1     		cbz	r3, .L54
 642              		.loc 1 845 0
 643 0028 2846     		mov	r0, r5
 644 002a 9847     		blx	r3
 645              	.LVL57:
 646              	.L54:
 647              		.loc 1 846 0
 648 002c 2207     		lsls	r2, r4, #28
 649 002e 04D5     		bpl	.L55
 650              		.loc 1 847 0 discriminator 1
 651 0030 6B68     		ldr	r3, [r5, #4]
 652 0032 1B6A     		ldr	r3, [r3, #32]
 653              		.loc 1 846 0 discriminator 1
 654 0034 0BB1     		cbz	r3, .L55
 655              		.loc 1 848 0
 656 0036 2846     		mov	r0, r5
 657 0038 9847     		blx	r3
 658              	.LVL58:
 659              	.L55:
 660              		.loc 1 849 0
 661 003a E306     		lsls	r3, r4, #27
 662 003c 04D5     		bpl	.L56
 663              		.loc 1 850 0 discriminator 1
 664 003e 6B68     		ldr	r3, [r5, #4]
 665 0040 9B6A     		ldr	r3, [r3, #40]
 666              		.loc 1 849 0 discriminator 1
 667 0042 0BB1     		cbz	r3, .L56
 668              		.loc 1 851 0
 669 0044 2846     		mov	r0, r5
 670 0046 9847     		blx	r3
 671              	.LVL59:
 672              	.L56:
 673              		.loc 1 852 0
 674 0048 E007     		lsls	r0, r4, #31
ARM GAS  /tmp/ccZi7sy1.s 			page 13


 675 004a 04D5     		bpl	.L52
 676              		.loc 1 852 0 is_stmt 0 discriminator 1
 677 004c 6B68     		ldr	r3, [r5, #4]
 678 004e 9B68     		ldr	r3, [r3, #8]
 679 0050 0BB1     		cbz	r3, .L52
 680              		.loc 1 853 0 is_stmt 1
 681 0052 2846     		mov	r0, r5
 682 0054 9847     		blx	r3
 683              	.LVL60:
 684              	.L52:
 685 0056 38BD     		pop	{r3, r4, r5, pc}
 686              		.cfi_endproc
 687              	.LFE282:
 688              		.size	pwm_lld_serve_interrupt, .-pwm_lld_serve_interrupt
 689 0058 AFF30080 		.section	.text.VectorA4,"ax",%progbits
 689      AFF30080 
 690              		.align	2
 691              		.p2align 4,,15
 692              		.global	VectorA4
 693              		.thumb
 694              		.thumb_func
 695              		.type	VectorA4, %function
 696              	VectorA4:
 697              	.LFB270:
 698              		.loc 1 118 0
 699              		.cfi_startproc
 700              		@ args = 0, pretend = 0, frame = 0
 701              		@ frame_needed = 0, uses_anonymous_args = 0
 702 0000 10B5     		push	{r4, lr}
 703              		.cfi_def_cfa_offset 8
 704              		.cfi_offset 4, -8
 705              		.cfi_offset 14, -4
 706              		.loc 1 120 0
 707 0002 40F20004 		movw	r4, #:lower16:.LANCHOR2
 708 0006 C0F20004 		movt	r4, #:upper16:.LANCHOR2
 709 000a 2046     		mov	r0, r4
 710 000c FFF7FEFF 		bl	_trace_isr_enter
 711              	.LVL61:
 712              		.loc 1 122 0
 713 0010 40F20000 		movw	r0, #:lower16:.LANCHOR0
 714 0014 C0F20000 		movt	r0, #:upper16:.LANCHOR0
 715 0018 FFF7FEFF 		bl	pwm_lld_serve_interrupt
 716              	.LVL62:
 717              		.loc 1 124 0
 718 001c 2046     		mov	r0, r4
 719 001e FFF7FEFF 		bl	_trace_isr_leave
 720              	.LVL63:
 721              		.loc 1 125 0
 722 0022 BDE81040 		pop	{r4, lr}
 723              		.loc 1 124 0
 724 0026 FFF7FEBF 		b	_port_irq_epilogue
 725              	.LVL64:
 726              		.cfi_endproc
 727              	.LFE270:
 728              		.size	VectorA4, .-VectorA4
 729 002a 00BFAFF3 		.section	.text.VectorAC,"ax",%progbits
 729      0080
ARM GAS  /tmp/ccZi7sy1.s 			page 14


 730              		.align	2
 731              		.p2align 4,,15
 732              		.global	VectorAC
 733              		.thumb
 734              		.thumb_func
 735              		.type	VectorAC, %function
 736              	VectorAC:
 737              	.LFB271:
 738              		.loc 1 138 0
 739              		.cfi_startproc
 740              		@ args = 0, pretend = 0, frame = 0
 741              		@ frame_needed = 0, uses_anonymous_args = 0
 742 0000 10B5     		push	{r4, lr}
 743              		.cfi_def_cfa_offset 8
 744              		.cfi_offset 4, -8
 745              		.cfi_offset 14, -4
 746              		.loc 1 140 0
 747 0002 40F20004 		movw	r4, #:lower16:.LANCHOR3
 748 0006 C0F20004 		movt	r4, #:upper16:.LANCHOR3
 749 000a 2046     		mov	r0, r4
 750 000c FFF7FEFF 		bl	_trace_isr_enter
 751              	.LVL65:
 752              		.loc 1 142 0
 753 0010 40F20000 		movw	r0, #:lower16:.LANCHOR0
 754 0014 C0F20000 		movt	r0, #:upper16:.LANCHOR0
 755 0018 FFF7FEFF 		bl	pwm_lld_serve_interrupt
 756              	.LVL66:
 757              		.loc 1 144 0
 758 001c 2046     		mov	r0, r4
 759 001e FFF7FEFF 		bl	_trace_isr_leave
 760              	.LVL67:
 761              		.loc 1 145 0
 762 0022 BDE81040 		pop	{r4, lr}
 763              		.loc 1 144 0
 764 0026 FFF7FEBF 		b	_port_irq_epilogue
 765              	.LVL68:
 766              		.cfi_endproc
 767              	.LFE271:
 768              		.size	VectorAC, .-VectorAC
 769 002a 00BFAFF3 		.section	.text.VectorB4,"ax",%progbits
 769      0080
 770              		.align	2
 771              		.p2align 4,,15
 772              		.global	VectorB4
 773              		.thumb
 774              		.thumb_func
 775              		.type	VectorB4, %function
 776              	VectorB4:
 777              	.LFB272:
 778              		.loc 1 180 0
 779              		.cfi_startproc
 780              		@ args = 0, pretend = 0, frame = 0
 781              		@ frame_needed = 0, uses_anonymous_args = 0
 782 0000 10B5     		push	{r4, lr}
 783              		.cfi_def_cfa_offset 8
 784              		.cfi_offset 4, -8
 785              		.cfi_offset 14, -4
ARM GAS  /tmp/ccZi7sy1.s 			page 15


 786              		.loc 1 182 0
 787 0002 40F20004 		movw	r4, #:lower16:.LANCHOR4
 788 0006 C0F20004 		movt	r4, #:upper16:.LANCHOR4
 789 000a 2046     		mov	r0, r4
 790 000c FFF7FEFF 		bl	_trace_isr_enter
 791              	.LVL69:
 792              		.loc 1 184 0
 793 0010 40F20000 		movw	r0, #:lower16:.LANCHOR1
 794 0014 C0F20000 		movt	r0, #:upper16:.LANCHOR1
 795 0018 FFF7FEFF 		bl	pwm_lld_serve_interrupt
 796              	.LVL70:
 797              		.loc 1 186 0
 798 001c 2046     		mov	r0, r4
 799 001e FFF7FEFF 		bl	_trace_isr_leave
 800              	.LVL71:
 801              		.loc 1 187 0
 802 0022 BDE81040 		pop	{r4, lr}
 803              		.loc 1 186 0
 804 0026 FFF7FEBF 		b	_port_irq_epilogue
 805              	.LVL72:
 806              		.cfi_endproc
 807              	.LFE272:
 808              		.size	VectorB4, .-VectorB4
 809              		.global	PWMD3
 810              		.global	PWMD1
 811 002a 00BFAFF3 		.section	.rodata.__func__.7600,"a",%progbits
 811      0080
 812              		.align	2
 813              		.set	.LANCHOR4,. + 0
 814              		.type	__func__.7600, %object
 815              		.size	__func__.7600, 9
 816              	__func__.7600:
 817 0000 56656374 		.ascii	"VectorB4\000"
 817      6F724234 
 817      00
 818 0009 000000   		.section	.bss.PWMD1,"aw",%nobits
 819              		.align	2
 820              		.set	.LANCHOR0,. + 0
 821              		.type	PWMD1, %object
 822              		.size	PWMD1, 28
 823              	PWMD1:
 824 0000 00000000 		.space	28
 824      00000000 
 824      00000000 
 824      00000000 
 824      00000000 
 825              		.section	.bss.PWMD3,"aw",%nobits
 826              		.align	2
 827              		.set	.LANCHOR1,. + 0
 828              		.type	PWMD3, %object
 829              		.size	PWMD3, 28
 830              	PWMD3:
 831 0000 00000000 		.space	28
 831      00000000 
 831      00000000 
 831      00000000 
 831      00000000 
ARM GAS  /tmp/ccZi7sy1.s 			page 16


 832              		.section	.rodata.__func__.7592,"a",%progbits
 833              		.align	2
 834              		.set	.LANCHOR2,. + 0
 835              		.type	__func__.7592, %object
 836              		.size	__func__.7592, 9
 837              	__func__.7592:
 838 0000 56656374 		.ascii	"VectorA4\000"
 838      6F724134 
 838      00
 839 0009 000000   		.section	.rodata.__func__.7596,"a",%progbits
 840              		.align	2
 841              		.set	.LANCHOR3,. + 0
 842              		.type	__func__.7596, %object
 843              		.size	__func__.7596, 9
 844              	__func__.7596:
 845 0000 56656374 		.ascii	"VectorAC\000"
 845      6F724143 
 845      00
 846 0009 000000   		.text
 847              	.Letext0:
 848              		.file 2 "/usr/include/newlib/machine/_default_types.h"
 849              		.file 3 "/usr/include/newlib/stdint.h"
 850              		.file 4 "../../../../../ChibiOS-RT/os/common/ports/ARMCMx/compilers/GCC/chtypes.h"
 851              		.file 5 "../../../../../ChibiOS-RT/os/rt/include/chsystypes.h"
 852              		.file 6 "../../../../../ChibiOS-RT/os/rt/include/chschd.h"
 853              		.file 7 "../../../../../ChibiOS-RT/os/common/ext/CMSIS/ST/STM32F4xx/stm32f401xe.h"
 854              		.file 8 "../../../../../ChibiOS-RT/os/common/ports/ARMCMx/chcore.h"
 855              		.file 9 "../../../../../ChibiOS-RT/os/common/ports/ARMCMx/chcore_v7m.h"
 856              		.file 10 "../../../../../ChibiOS-RT/os/hal/ports/STM32/LLD/TIMv1/stm32_tim.h"
 857              		.file 11 "../../../../../ChibiOS-RT/os/rt/include/chtrace.h"
 858              		.file 12 "../../../../../ChibiOS-RT/os/rt/include/chtm.h"
 859              		.file 13 "../../../../../ChibiOS-RT/os/rt/include/chsem.h"
 860              		.file 14 "../../../../../ChibiOS-RT/os/rt/include/chmtx.h"
 861              		.file 15 "../../../../../ChibiOS-RT/os/hal/include/hal_pwm.h"
 862              		.file 16 "../../../../../ChibiOS-RT/os/hal/ports/STM32/LLD/TIMv1/hal_pwm_lld.h"
 863              		.file 17 "../../../../../ChibiOS-RT/os/common/ext/CMSIS/include/core_cm4.h"
 864              		.file 18 "../../../../../ChibiOS-RT/os/hal/ports/common/ARMCMx/nvic.h"