ARM GAS  /tmp/ccYlXmaR.s 			page 1


   1              		.syntax unified
   2              		.cpu cortex-m4
   3              		.fpu softvfp
   4              		.eabi_attribute 20, 1
   5              		.eabi_attribute 21, 1
   6              		.eabi_attribute 23, 3
   7              		.eabi_attribute 24, 1
   8              		.eabi_attribute 25, 1
   9              		.eabi_attribute 26, 1
  10              		.eabi_attribute 30, 2
  11              		.eabi_attribute 34, 1
  12              		.eabi_attribute 18, 4
  13              		.thumb
  14              		.file	"hal_rtc.c"
  15              		.text
  16              	.Ltext0:
  17              		.cfi_sections	.debug_frame
  18              		.section	.text.rtcInit,"ax",%progbits
  19              		.align	2
  20              		.p2align 4,,15
  21              		.global	rtcInit
  22              		.thumb
  23              		.thumb_func
  24              		.type	rtcInit, %function
  25              	rtcInit:
  26              	.LFB270:
  27              		.file 1 "../../../../../ChibiOS-RT/os/hal/src/hal_rtc.c"
  28              		.loc 1 67 0
  29              		.cfi_startproc
  30              		@ args = 0, pretend = 0, frame = 0
  31              		@ frame_needed = 0, uses_anonymous_args = 0
  32              		@ link register save eliminated.
  33              		.loc 1 69 0
  34 0000 FFF7FEBF 		b	rtc_lld_init
  35              	.LVL0:
  36              		.cfi_endproc
  37              	.LFE270:
  38              		.size	rtcInit, .-rtcInit
  39 0004 AFF30080 		.section	.text.rtcObjectInit,"ax",%progbits
  39      AFF30080 
  39      AFF30080 
  40              		.align	2
  41              		.p2align 4,,15
  42              		.global	rtcObjectInit
  43              		.thumb
  44              		.thumb_func
  45              		.type	rtcObjectInit, %function
  46              	rtcObjectInit:
  47              	.LFB271:
  48              		.loc 1 81 0
  49              		.cfi_startproc
  50              		@ args = 0, pretend = 0, frame = 0
  51              		@ frame_needed = 0, uses_anonymous_args = 0
  52              		@ link register save eliminated.
  53              	.LVL1:
  54 0000 7047     		bx	lr
  55              		.cfi_endproc
ARM GAS  /tmp/ccYlXmaR.s 			page 2


  56              	.LFE271:
  57              		.size	rtcObjectInit, .-rtcObjectInit
  58 0002 00BFAFF3 		.section	.text.rtcSetTime,"ax",%progbits
  58      0080AFF3 
  58      0080AFF3 
  58      0080
  59              		.align	2
  60              		.p2align 4,,15
  61              		.global	rtcSetTime
  62              		.thumb
  63              		.thumb_func
  64              		.type	rtcSetTime, %function
  65              	rtcSetTime:
  66              	.LFB272:
  67              		.loc 1 104 0
  68              		.cfi_startproc
  69              		@ args = 0, pretend = 0, frame = 0
  70              		@ frame_needed = 0, uses_anonymous_args = 0
  71              		@ link register save eliminated.
  72              	.LVL2:
  73              		.loc 1 108 0
  74 0000 FFF7FEBF 		b	rtc_lld_set_time
  75              	.LVL3:
  76              		.cfi_endproc
  77              	.LFE272:
  78              		.size	rtcSetTime, .-rtcSetTime
  79 0004 AFF30080 		.section	.text.rtcGetTime,"ax",%progbits
  79      AFF30080 
  79      AFF30080 
  80              		.align	2
  81              		.p2align 4,,15
  82              		.global	rtcGetTime
  83              		.thumb
  84              		.thumb_func
  85              		.type	rtcGetTime, %function
  86              	rtcGetTime:
  87              	.LFB273:
  88              		.loc 1 125 0
  89              		.cfi_startproc
  90              		@ args = 0, pretend = 0, frame = 0
  91              		@ frame_needed = 0, uses_anonymous_args = 0
  92              		@ link register save eliminated.
  93              	.LVL4:
  94              		.loc 1 129 0
  95 0000 FFF7FEBF 		b	rtc_lld_get_time
  96              	.LVL5:
  97              		.cfi_endproc
  98              	.LFE273:
  99              		.size	rtcGetTime, .-rtcGetTime
 100 0004 AFF30080 		.section	.text.rtcSetAlarm,"ax",%progbits
 100      AFF30080 
 100      AFF30080 
 101              		.align	2
 102              		.p2align 4,,15
 103              		.global	rtcSetAlarm
 104              		.thumb
 105              		.thumb_func
ARM GAS  /tmp/ccYlXmaR.s 			page 3


 106              		.type	rtcSetAlarm, %function
 107              	rtcSetAlarm:
 108              	.LFB274:
 109              		.loc 1 150 0
 110              		.cfi_startproc
 111              		@ args = 0, pretend = 0, frame = 0
 112              		@ frame_needed = 0, uses_anonymous_args = 0
 113              		@ link register save eliminated.
 114              	.LVL6:
 115              		.loc 1 154 0
 116 0000 FFF7FEBF 		b	rtc_lld_set_alarm
 117              	.LVL7:
 118              		.cfi_endproc
 119              	.LFE274:
 120              		.size	rtcSetAlarm, .-rtcSetAlarm
 121 0004 AFF30080 		.section	.text.rtcGetAlarm,"ax",%progbits
 121      AFF30080 
 121      AFF30080 
 122              		.align	2
 123              		.p2align 4,,15
 124              		.global	rtcGetAlarm
 125              		.thumb
 126              		.thumb_func
 127              		.type	rtcGetAlarm, %function
 128              	rtcGetAlarm:
 129              	.LFB275:
 130              		.loc 1 176 0
 131              		.cfi_startproc
 132              		@ args = 0, pretend = 0, frame = 0
 133              		@ frame_needed = 0, uses_anonymous_args = 0
 134              		@ link register save eliminated.
 135              	.LVL8:
 136              		.loc 1 182 0
 137 0000 FFF7FEBF 		b	rtc_lld_get_alarm
 138              	.LVL9:
 139              		.cfi_endproc
 140              	.LFE275:
 141              		.size	rtcGetAlarm, .-rtcGetAlarm
 142 0004 AFF30080 		.section	.text.rtcConvertDateTimeToStructTm,"ax",%progbits
 142      AFF30080 
 142      AFF30080 
 143              		.align	2
 144              		.p2align 4,,15
 145              		.global	rtcConvertDateTimeToStructTm
 146              		.thumb
 147              		.thumb_func
 148              		.type	rtcConvertDateTimeToStructTm, %function
 149              	rtcConvertDateTimeToStructTm:
 150              	.LFB276:
 151              		.loc 1 222 0
 152              		.cfi_startproc
 153              		@ args = 0, pretend = 0, frame = 0
 154              		@ frame_needed = 0, uses_anonymous_args = 0
 155              		@ link register save eliminated.
 156              	.LVL10:
 157 0000 2DE9F00F 		push	{r4, r5, r6, r7, r8, r9, r10, fp}
 158              		.cfi_def_cfa_offset 32
ARM GAS  /tmp/ccYlXmaR.s 			page 4


 159              		.cfi_offset 4, -32
 160              		.cfi_offset 5, -28
 161              		.cfi_offset 6, -24
 162              		.cfi_offset 7, -20
 163              		.cfi_offset 8, -16
 164              		.cfi_offset 9, -12
 165              		.cfi_offset 10, -8
 166              		.cfi_offset 11, -4
 167              		.loc 1 231 0
 168 0004 4668     		ldr	r6, [r0, #4]
 169              		.loc 1 226 0
 170 0006 4478     		ldrb	r4, [r0, #1]	@ zero_extendqisi2
 171              		.loc 1 225 0
 172 0008 90F800C0 		ldrb	ip, [r0]	@ zero_extendqisi2
 173              		.loc 1 227 0
 174 000c 90F80280 		ldrb	r8, [r0, #2]	@ zero_extendqisi2
 175              		.loc 1 231 0
 176 0010 44F6D355 		movw	r5, #19923
 177 0014 C6F31A06 		ubfx	r6, r6, #0, #27
 178 0018 C1F26205 		movt	r5, 4194
 179 001c 85FB0603 		smull	r0, r3, r5, r6
 180              	.LVL11:
 181              		.loc 1 232 0
 182 0020 4BF2C537 		movw	r7, #46021
 183              		.loc 1 231 0
 184 0024 9B09     		lsrs	r3, r3, #6
 185              	.LVL12:
 186              		.loc 1 232 0
 187 0026 C9F2A217 		movt	r7, 37282
 188 002a 87FB0397 		smull	r9, r7, r7, r3
 189 002e 1F44     		add	r7, r7, r3
 190              		.loc 1 233 0
 191 0030 4FF46169 		mov	r9, #3600
 192              		.loc 1 232 0
 193 0034 FF12     		asrs	r7, r7, #11
 194              		.loc 1 234 0
 195 0036 48F68900 		movw	r0, #34953
 196              		.loc 1 233 0
 197 003a 09FB1733 		mls	r3, r9, r7, r3
 198              	.LVL13:
 199              		.loc 1 234 0
 200 003e C8F68800 		movt	r0, 34952
 201 0042 80FB0390 		smull	r9, r0, r0, r3
 202 0046 1844     		add	r0, r0, r3
 203 0048 4FEAE379 		asr	r9, r3, #31
 204 004c C9EB6010 		rsb	r0, r9, r0, asr #5
 205              		.loc 1 226 0
 206 0050 04F00F0B 		and	fp, r4, #15
 207              		.loc 1 229 0
 208 0054 4FEA541A 		lsr	r10, r4, #5
 209              		.loc 1 235 0
 210 0058 C0EB0019 		rsb	r9, r0, r0, lsl #4
 211              		.loc 1 225 0
 212 005c 0CF1500C 		add	ip, ip, #80
 213              		.loc 1 226 0
 214 0060 0BF1FF3B 		add	fp, fp, #-1
 215              		.loc 1 227 0
ARM GAS  /tmp/ccYlXmaR.s 			page 5


 216 0064 08F01F08 		and	r8, r8, #31
 217              		.loc 1 228 0
 218 0068 C4F30014 		ubfx	r4, r4, #4, #1
 219              		.loc 1 229 0
 220 006c 0AF1FF3A 		add	r10, r10, #-1
 221              		.loc 1 235 0
 222 0070 A3EB8903 		sub	r3, r3, r9, lsl #2
 223              	.LVL14:
 224              		.loc 1 225 0
 225 0074 C1F814C0 		str	ip, [r1, #20]
 226              		.loc 1 226 0
 227 0078 C1F810B0 		str	fp, [r1, #16]
 228              		.loc 1 227 0
 229 007c C1F80C80 		str	r8, [r1, #12]
 230              		.loc 1 228 0
 231 0080 0C62     		str	r4, [r1, #32]
 232              		.loc 1 229 0
 233 0082 C1F818A0 		str	r10, [r1, #24]
 234              		.loc 1 232 0
 235 0086 8F60     		str	r7, [r1, #8]
 236              		.loc 1 234 0
 237 0088 4860     		str	r0, [r1, #4]
 238              		.loc 1 235 0
 239 008a 0B60     		str	r3, [r1]
 240              		.loc 1 237 0
 241 008c 3AB1     		cbz	r2, .L7
 242              		.loc 1 238 0
 243 008e A5FB0605 		umull	r0, r5, r5, r6
 244              	.LVL15:
 245 0092 AD09     		lsrs	r5, r5, #6
 246 0094 4FF47A73 		mov	r3, #1000
 247 0098 03FB1566 		mls	r6, r3, r5, r6
 248 009c 1660     		str	r6, [r2]
 249              	.L7:
 250              		.loc 1 240 0
 251 009e BDE8F00F 		pop	{r4, r5, r6, r7, r8, r9, r10, fp}
 252 00a2 7047     		bx	lr
 253              		.cfi_endproc
 254              	.LFE276:
 255              		.size	rtcConvertDateTimeToStructTm, .-rtcConvertDateTimeToStructTm
 256 00a4 AFF30080 		.section	.text.rtcConvertStructTmToDateTime,"ax",%progbits
 256      AFF30080 
 256      AFF30080 
 257              		.align	2
 258              		.p2align 4,,15
 259              		.global	rtcConvertStructTmToDateTime
 260              		.thumb
 261              		.thumb_func
 262              		.type	rtcConvertStructTmToDateTime, %function
 263              	rtcConvertStructTmToDateTime:
 264              	.LFB277:
 265              		.loc 1 253 0
 266              		.cfi_startproc
 267              		@ args = 0, pretend = 0, frame = 0
 268              		@ frame_needed = 0, uses_anonymous_args = 0
 269              		@ link register save eliminated.
 270              	.LVL16:
ARM GAS  /tmp/ccYlXmaR.s 			page 6


 271 0000 2DE9F001 		push	{r4, r5, r6, r7, r8}
 272              		.cfi_def_cfa_offset 20
 273              		.cfi_offset 4, -20
 274              		.cfi_offset 5, -16
 275              		.cfi_offset 6, -12
 276              		.cfi_offset 7, -8
 277              		.cfi_offset 8, -4
 278              		.loc 1 257 0
 279 0004 0669     		ldr	r6, [r0, #16]
 280              		.loc 1 258 0
 281 0006 9478     		ldrb	r4, [r2, #2]	@ zero_extendqisi2
 282              		.loc 1 260 0
 283 0008 056A     		ldr	r5, [r0, #32]
 284              		.loc 1 259 0
 285 000a 8769     		ldr	r7, [r0, #24]
 286              		.loc 1 257 0
 287 000c 5378     		ldrb	r3, [r2, #1]	@ zero_extendqisi2
 288 000e 06F10108 		add	r8, r6, #1
 289              		.loc 1 256 0
 290 0012 4669     		ldr	r6, [r0, #20]
 291 0014 A6F1500C 		sub	ip, r6, #80
 292              		.loc 1 258 0
 293 0018 C668     		ldr	r6, [r0, #12]
 294              		.loc 1 256 0
 295 001a 82F800C0 		strb	ip, [r2]
 296              		.loc 1 258 0
 297 001e 66F30404 		bfi	r4, r6, #0, #5
 298              		.loc 1 257 0
 299 0022 68F30303 		bfi	r3, r8, #0, #4
 300              		.loc 1 259 0
 301 0026 0137     		adds	r7, r7, #1
 302              		.loc 1 258 0
 303 0028 9470     		strb	r4, [r2, #2]
 304              		.loc 1 260 0
 305 002a 6C1C     		adds	r4, r5, #1
 306              		.loc 1 269 0
 307 002c 51C8     		ldmia	r0, {r0, r4, r6}
 308              	.LVL17:
 309              		.loc 1 259 0
 310 002e 67F34713 		bfi	r3, r7, #5, #3
 311 0032 5370     		strb	r3, [r2, #1]
 312              		.loc 1 264 0
 313 0034 18BF     		it	ne
 314 0036 5378     		ldrbne	r3, [r2, #1]	@ zero_extendqisi2
 315              		.loc 1 269 0
 316 0038 C4EB0414 		rsb	r4, r4, r4, lsl #4
 317              		.loc 1 261 0
 318 003c 0CBF     		ite	eq
 319 003e DBB2     		uxtbeq	r3, r3
 320              		.loc 1 264 0
 321 0040 65F30413 		bfine	r3, r5, #4, #1
 322              		.loc 1 269 0
 323 0044 4FEA8405 		lsl	r5, r4, #2
 324              		.loc 1 268 0
 325 0048 4FF46164 		mov	r4, #3600
 326              		.loc 1 261 0
 327 004c 08BF     		it	eq
ARM GAS  /tmp/ccYlXmaR.s 			page 7


 328 004e 6FF30413 		bfceq	r3, #4, #1
 329              		.loc 1 268 0
 330 0052 04FB0654 		mla	r4, r4, r6, r5
 331              		.loc 1 269 0
 332 0056 0444     		add	r4, r4, r0
 333              		.loc 1 264 0
 334 0058 5370     		strb	r3, [r2, #1]
 335              		.loc 1 270 0
 336 005a 4FF47A70 		mov	r0, #1000
 337              		.loc 1 268 0
 338 005e 5368     		ldr	r3, [r2, #4]
 339 0060 00FB0411 		mla	r1, r0, r4, r1
 340              	.LVL18:
 341 0064 61F31A03 		bfi	r3, r1, #0, #27
 342 0068 5360     		str	r3, [r2, #4]
 343              		.loc 1 272 0
 344 006a BDE8F001 		pop	{r4, r5, r6, r7, r8}
 345 006e 7047     		bx	lr
 346              		.cfi_endproc
 347              	.LFE277:
 348              		.size	rtcConvertStructTmToDateTime, .-rtcConvertStructTmToDateTime
 349              		.section	.text.rtcConvertDateTimeToFAT,"ax",%progbits
 350              		.align	2
 351              		.p2align 4,,15
 352              		.global	rtcConvertDateTimeToFAT
 353              		.thumb
 354              		.thumb_func
 355              		.type	rtcConvertDateTimeToFAT, %function
 356              	rtcConvertDateTimeToFAT:
 357              	.LFB278:
 358              		.loc 1 284 0
 359              		.cfi_startproc
 360              		@ args = 0, pretend = 0, frame = 0
 361              		@ frame_needed = 0, uses_anonymous_args = 0
 362              		@ link register save eliminated.
 363              	.LVL19:
 364              		.loc 1 288 0
 365 0000 4168     		ldr	r1, [r0, #4]
 366              		.loc 1 294 0
 367 0002 4278     		ldrb	r2, [r0, #1]	@ zero_extendqisi2
 368              		.loc 1 288 0
 369 0004 44F6D353 		movw	r3, #19923
 370 0008 C1F26203 		movt	r3, 4194
 371 000c C1F31A01 		ubfx	r1, r1, #0, #27
 372              		.loc 1 284 0
 373 0010 70B4     		push	{r4, r5, r6}
 374              		.cfi_def_cfa_offset 12
 375              		.cfi_offset 4, -12
 376              		.cfi_offset 5, -8
 377              		.cfi_offset 6, -4
 378              		.loc 1 288 0
 379 0012 A3FB0141 		umull	r4, r1, r3, r1
 380              		.loc 1 289 0
 381 0016 4BF2C533 		movw	r3, #46021
 382              		.loc 1 288 0
 383 001a 8909     		lsrs	r1, r1, #6
 384              	.LVL20:
ARM GAS  /tmp/ccYlXmaR.s 			page 8


 385              		.loc 1 289 0
 386 001c C9F2A213 		movt	r3, 37282
 387 0020 A3FB0163 		umull	r6, r3, r3, r1
 388 0024 DC0A     		lsrs	r4, r3, #11
 389              	.LVL21:
 390              		.loc 1 290 0
 391 0026 4FF46166 		mov	r6, #3600
 392              		.loc 1 291 0
 393 002a 48F68903 		movw	r3, #34953
 394              		.loc 1 290 0
 395 002e 06FB1411 		mls	r1, r6, r4, r1
 396              	.LVL22:
 397              		.loc 1 291 0
 398 0032 C8F68803 		movt	r3, 34952
 399 0036 A3FB0163 		umull	r6, r3, r3, r1
 400              		.loc 1 293 0
 401 003a 8578     		ldrb	r5, [r0, #2]	@ zero_extendqisi2
 402              		.loc 1 291 0
 403 003c 5B09     		lsrs	r3, r3, #5
 404              	.LVL23:
 405              		.loc 1 292 0
 406 003e C3EB0316 		rsb	r6, r3, r3, lsl #4
 407 0042 A1EB8601 		sub	r1, r1, r6, lsl #2
 408              	.LVL24:
 409              		.loc 1 293 0
 410 0046 05F01F06 		and	r6, r5, #31
 411              	.LVL25:
 412              		.loc 1 294 0
 413 004a 02F00F05 		and	r5, r2, #15
 414              	.LVL26:
 415              		.loc 1 297 0
 416 004e D206     		lsls	r2, r2, #27
 417 0050 0ED4     		bmi	.L17
 418              	.L21:
 419 0052 E402     		lsls	r4, r4, #11
 420              	.LVL27:
 421 0054 3604     		lsls	r6, r6, #16
 422              	.LVL28:
 423              	.L18:
 424              		.loc 1 314 0
 425 0056 0278     		ldrb	r2, [r0]	@ zero_extendqisi2
 426              		.loc 1 310 0
 427 0058 5B01     		lsls	r3, r3, #5
 428              	.LVL29:
 429 005a 43EA5101 		orr	r1, r3, r1, lsr #1
 430              	.LVL30:
 431              		.loc 1 311 0
 432 005e 41EA4261 		orr	r1, r1, r2, lsl #25
 433              	.LVL31:
 434              		.loc 1 312 0
 435 0062 0C43     		orrs	r4, r4, r1
 436              		.loc 1 313 0
 437 0064 44EA0600 		orr	r0, r4, r6
 438              	.LVL32:
 439              		.loc 1 317 0
 440 0068 40EA4550 		orr	r0, r0, r5, lsl #21
 441              	.LVL33:
ARM GAS  /tmp/ccYlXmaR.s 			page 9


 442 006c 70BC     		pop	{r4, r5, r6}
 443              	.LVL34:
 444 006e 7047     		bx	lr
 445              	.LVL35:
 446              	.L17:
 447              		.loc 1 298 0
 448 0070 0134     		adds	r4, r4, #1
 449              	.LVL36:
 450              		.loc 1 299 0
 451 0072 182C     		cmp	r4, #24
 452 0074 EDD1     		bne	.L21
 453              	.LVL37:
 454              		.loc 1 302 0
 455 0076 40F20002 		movw	r2, #:lower16:.LANCHOR0
 456 007a C0F20002 		movt	r2, #:upper16:.LANCHOR0
 457 007e 2A44     		add	r2, r2, r5
 458              		.loc 1 301 0
 459 0080 0136     		adds	r6, r6, #1
 460              	.LVL38:
 461              		.loc 1 302 0
 462 0082 12F8012C 		ldrb	r2, [r2, #-1]	@ zero_extendqisi2
 463 0086 9642     		cmp	r6, r2
 464 0088 92BF     		itee	ls
 465 008a 3604     		lslls	r6, r6, #16
 466              	.LVL39:
 467              		.loc 1 304 0
 468 008c 0135     		addhi	r5, r5, #1
 469              	.LVL40:
 470 008e 4FF48036 		movhi	r6, #65536
 471 0092 0024     		movs	r4, #0
 472 0094 DFE7     		b	.L18
 473              		.cfi_endproc
 474              	.LFE278:
 475              		.size	rtcConvertDateTimeToFAT, .-rtcConvertDateTimeToFAT
 476 0096 00BFAFF3 		.section	.rodata.month_len,"a",%progbits
 476      0080AFF3 
 476      0080
 477              		.align	2
 478              		.set	.LANCHOR0,. + 0
 479              		.type	month_len, %object
 480              		.size	month_len, 12
 481              	month_len:
 482 0000 1F       		.byte	31
 483 0001 1E       		.byte	30
 484 0002 1F       		.byte	31
 485 0003 1E       		.byte	30
 486 0004 1F       		.byte	31
 487 0005 1E       		.byte	30
 488 0006 1F       		.byte	31
 489 0007 1F       		.byte	31
 490 0008 1E       		.byte	30
 491 0009 1F       		.byte	31
 492 000a 1E       		.byte	30
 493 000b 1F       		.byte	31
 494              		.text
 495              	.Letext0:
 496              		.file 2 "/usr/include/newlib/machine/_default_types.h"
ARM GAS  /tmp/ccYlXmaR.s 			page 10


 497              		.file 3 "/usr/include/newlib/stdint.h"
 498              		.file 4 "../../../../../ChibiOS-RT/os/common/ports/ARMCMx/compilers/GCC/chtypes.h"
 499              		.file 5 "../../../../../ChibiOS-RT/os/rt/include/chsystypes.h"
 500              		.file 6 "../../../../../ChibiOS-RT/os/rt/include/chschd.h"
 501              		.file 7 "../../../../../ChibiOS-RT/os/common/ext/CMSIS/ST/STM32F4xx/stm32f401xe.h"
 502              		.file 8 "../../../../../ChibiOS-RT/os/common/ports/ARMCMx/chcore.h"
 503              		.file 9 "../../../../../ChibiOS-RT/os/common/ports/ARMCMx/chcore_v7m.h"
 504              		.file 10 "../../../../../ChibiOS-RT/os/rt/include/chtrace.h"
 505              		.file 11 "../../../../../ChibiOS-RT/os/rt/include/chtm.h"
 506              		.file 12 "../../../../../ChibiOS-RT/os/rt/include/chsem.h"
 507              		.file 13 "../../../../../ChibiOS-RT/os/rt/include/chmtx.h"
 508              		.file 14 "/usr/include/newlib/time.h"
 509              		.file 15 "../../../../../ChibiOS-RT/os/hal/include/hal_rtc.h"
 510              		.file 16 "../../../../../ChibiOS-RT/os/hal/ports/STM32/LLD/RTCv2/hal_rtc_lld.h"
 511              		.file 17 "../../../../../ChibiOS-RT/os/common/ext/CMSIS/include/core_cm4.h"