ARM GAS  /tmp/cczUYEXc.s 			page 1


   1              		.syntax unified
   2              		.cpu cortex-m4
   3              		.fpu softvfp
   4              		.eabi_attribute 20, 1
   5              		.eabi_attribute 21, 1
   6              		.eabi_attribute 23, 3
   7              		.eabi_attribute 24, 1
   8              		.eabi_attribute 25, 1
   9              		.eabi_attribute 26, 1
  10              		.eabi_attribute 30, 2
  11              		.eabi_attribute 34, 1
  12              		.eabi_attribute 18, 4
  13              		.thumb
  14              		.file	"hal_onewire.c"
  15              		.text
  16              	.Ltext0:
  17              		.cfi_sections	.debug_frame
  18              		.section	.text.ow_write_bit_I.isra.1,"ax",%progbits
  19              		.align	2
  20              		.p2align 4,,15
  21              		.thumb
  22              		.thumb_func
  23              		.type	ow_write_bit_I.isra.1, %function
  24              	ow_write_bit_I.isra.1:
  25              	.LFB296:
  26              		.file 1 "../../../../../ChibiOS-RT/../ChibiOS-Contrib/os/hal/src/hal_onewire.c"
  27              		.loc 1 224 0
  28              		.cfi_startproc
  29              		@ args = 0, pretend = 0, frame = 0
  30              		@ frame_needed = 0, uses_anonymous_args = 0
  31              	.LVL0:
  32 0000 08B5     		push	{r3, lr}
  33              		.cfi_def_cfa_offset 8
  34              		.cfi_offset 3, -8
  35              		.cfi_offset 14, -4
  36              	.LBB390:
  37              	.LBB391:
  38              	.LBB392:
  39              	.LBB393:
  40              	.LBB394:
  41              	.LBB395:
  42              		.file 2 "../../../../../ChibiOS-RT/os/common/ext/CMSIS/include/cmsis_gcc.h"
  43              		.loc 2 264 0
  44 0002 2023     		movs	r3, #32
  45              	@ 264 "../../../../../ChibiOS-RT/os/common/ext/CMSIS/include/cmsis_gcc.h" 1
  46 0004 83F31188 		MSR basepri, r3
  47              	@ 0 "" 2
  48              		.thumb
  49              	.LBE395:
  50              	.LBE394:
  51              	.LBE393:
  52              	.LBE392:
  53              	.LBE391:
  54              	.LBE390:
  55              		.loc 1 230 0
  56 0008 0368     		ldr	r3, [r0]
  57 000a 1868     		ldr	r0, [r3]
ARM GAS  /tmp/cczUYEXc.s 			page 2


  58              		.loc 1 229 0
  59 000c 69B1     		cbz	r1, .L5
  60              		.loc 1 234 0
  61 000e D968     		ldr	r1, [r3, #12]
  62              	.LVL1:
  63 0010 C368     		ldr	r3, [r0, #12]
  64 0012 0122     		movs	r2, #1
  65 0014 8A40     		lsls	r2, r2, r1
  66 0016 1343     		orrs	r3, r3, r2
  67 0018 C360     		str	r3, [r0, #12]
  68 001a C9B2     		uxtb	r1, r1
  69 001c 0622     		movs	r2, #6
  70 001e FFF7FEFF 		bl	pwm_lld_enable_channel
  71              	.LVL2:
  72              	.LBB396:
  73              	.LBB397:
  74              	.LBB398:
  75              	.LBB399:
  76              	.LBB400:
  77              	.LBB401:
  78              		.loc 2 264 0
  79 0022 0023     		movs	r3, #0
  80              	@ 264 "../../../../../ChibiOS-RT/os/common/ext/CMSIS/include/cmsis_gcc.h" 1
  81 0024 83F31188 		MSR basepri, r3
  82              	@ 0 "" 2
  83              		.thumb
  84 0028 08BD     		pop	{r3, pc}
  85              	.LVL3:
  86              	.L5:
  87              	.LBE401:
  88              	.LBE400:
  89              	.LBE399:
  90              	.LBE398:
  91              	.LBE397:
  92              	.LBE396:
  93              		.loc 1 230 0
  94 002a D968     		ldr	r1, [r3, #12]
  95              	.LVL4:
  96 002c C368     		ldr	r3, [r0, #12]
  97 002e 0122     		movs	r2, #1
  98 0030 8A40     		lsls	r2, r2, r1
  99 0032 1343     		orrs	r3, r3, r2
 100 0034 C360     		str	r3, [r0, #12]
 101 0036 C9B2     		uxtb	r1, r1
 102 0038 3C22     		movs	r2, #60
 103 003a FFF7FEFF 		bl	pwm_lld_enable_channel
 104              	.LVL5:
 105              	.LBB407:
 106              	.LBB406:
 107              	.LBB405:
 108              	.LBB404:
 109              	.LBB403:
 110              	.LBB402:
 111              		.loc 2 264 0
 112 003e 0023     		movs	r3, #0
 113              	@ 264 "../../../../../ChibiOS-RT/os/common/ext/CMSIS/include/cmsis_gcc.h" 1
 114 0040 83F31188 		MSR basepri, r3
ARM GAS  /tmp/cczUYEXc.s 			page 3


 115              	@ 0 "" 2
 116              		.thumb
 117 0044 08BD     		pop	{r3, pc}
 118              	.LBE402:
 119              	.LBE403:
 120              	.LBE404:
 121              	.LBE405:
 122              	.LBE406:
 123              	.LBE407:
 124              		.cfi_endproc
 125              	.LFE296:
 126              		.size	ow_write_bit_I.isra.1, .-ow_write_bit_I.isra.1
 127 0046 00BFAFF3 		.section	.text.pwm_search_rom_cb,"ax",%progbits
 127      0080AFF3 
 127      0080
 128              		.align	2
 129              		.p2align 4,,15
 130              		.thumb
 131              		.thumb_func
 132              		.type	pwm_search_rom_cb, %function
 133              	pwm_search_rom_cb:
 134              	.LFB276:
 135              		.loc 1 209 0
 136              		.cfi_startproc
 137              		@ args = 0, pretend = 0, frame = 0
 138              		@ frame_needed = 0, uses_anonymous_args = 0
 139              	.LVL6:
 140 0000 F8B5     		push	{r3, r4, r5, r6, r7, lr}
 141              		.cfi_def_cfa_offset 24
 142              		.cfi_offset 3, -24
 143              		.cfi_offset 4, -20
 144              		.cfi_offset 5, -16
 145              		.cfi_offset 6, -12
 146              		.cfi_offset 7, -8
 147              		.cfi_offset 14, -4
 148              	.LBB446:
 149              	.LBB447:
 150              		.loc 1 439 0
 151 0002 40F20004 		movw	r4, #:lower16:.LANCHOR0
 152 0006 C0F20004 		movt	r4, #:upper16:.LANCHOR0
 153              	.LBE447:
 154              	.LBE446:
 155              		.loc 1 209 0
 156 000a 0546     		mov	r5, r0
 157              	.LVL7:
 158              	.LBB503:
 159              	.LBB500:
 160              		.loc 1 439 0
 161 000c 237B     		ldrb	r3, [r4, #12]	@ zero_extendqisi2
 162 000e C3F30112 		ubfx	r2, r3, #4, #2
 163 0012 CAB9     		cbnz	r2, .L7
 164              	.LBE500:
 165              	.LBE503:
 166              		.loc 1 435 0
 167 0014 6268     		ldr	r2, [r4, #4]
 168              	.LVL8:
 169              	.LBB504:
ARM GAS  /tmp/cczUYEXc.s 			page 4


 170              	.LBB501:
 171              	.LBB448:
 172              	.LBB449:
 173              		.loc 1 180 0
 174 0016 5169     		ldr	r1, [r2, #20]
 175 0018 9269     		ldr	r2, [r2, #24]
 176 001a 0969     		ldr	r1, [r1, #16]
 177 001c 21FA02F2 		lsr	r2, r1, r2
 178 0020 02F00102 		and	r2, r2, #1
 179              	.LBE449:
 180              	.LBE448:
 181              		.loc 1 440 0
 182 0024 42EA9312 		orr	r2, r2, r3, lsr #6
 183 0028 62F38713 		bfi	r3, r2, #6, #2
 184              		.loc 1 441 0
 185 002c 0122     		movs	r2, #1
 186 002e 62F30513 		bfi	r3, r2, #4, #2
 187 0032 2373     		strb	r3, [r4, #12]
 188              	.LVL9:
 189              	.L8:
 190              		.loc 1 478 0
 191 0034 627B     		ldrb	r2, [r4, #13]	@ zero_extendqisi2
 192 0036 02F07F02 		and	r2, r2, #127
 193 003a 40F20003 		movw	r3, #:lower16:.LANCHOR0
 194 003e 402A     		cmp	r2, #64
 195 0040 C0F20003 		movt	r3, #:upper16:.LANCHOR0
 196 0044 51D0     		beq	.L24
 197 0046 F8BD     		pop	{r3, r4, r5, r6, r7, pc}
 198              	.LVL10:
 199              	.L7:
 200              		.loc 1 443 0
 201 0048 012A     		cmp	r2, #1
 202 004a 0AD0     		beq	.L25
 203              		.loc 1 471 0
 204 004c 201D     		adds	r0, r4, #4
 205              	.LVL11:
 206 004e 0121     		movs	r1, #1
 207 0050 FFF7FEFF 		bl	ow_write_bit_I.isra.1
 208              	.LVL12:
 209              		.loc 1 473 0
 210 0054 237B     		ldrb	r3, [r4, #12]	@ zero_extendqisi2
 211              		.loc 1 474 0
 212 0056 03F0CF03 		and	r3, r3, #207
 213 005a 6FF38713 		bfc	r3, #6, #2
 214 005e 2373     		strb	r3, [r4, #12]
 215 0060 E8E7     		b	.L8
 216              	.LVL13:
 217              	.L25:
 218              	.LBE501:
 219              	.LBE504:
 220              		.loc 1 435 0
 221 0062 6268     		ldr	r2, [r4, #4]
 222              	.LVL14:
 223              	.LBB505:
 224              	.LBB502:
 225              	.LBB450:
 226              	.LBB451:
ARM GAS  /tmp/cczUYEXc.s 			page 5


 227              		.loc 1 180 0
 228 0064 5169     		ldr	r1, [r2, #20]
 229 0066 9269     		ldr	r2, [r2, #24]
 230 0068 0969     		ldr	r1, [r1, #16]
 231 006a D140     		lsrs	r1, r1, r2
 232 006c 01F00101 		and	r1, r1, #1
 233              	.LBE451:
 234              	.LBE450:
 235              		.loc 1 444 0
 236 0070 4900     		lsls	r1, r1, #1
 237 0072 41EA9311 		orr	r1, r1, r3, lsr #6
 238              		.loc 1 445 0
 239 0076 0222     		movs	r2, #2
 240              		.loc 1 444 0
 241 0078 61F38713 		bfi	r3, r1, #6, #2
 242              		.loc 1 445 0
 243 007c 62F30513 		bfi	r3, r2, #4, #2
 244              		.loc 1 446 0
 245 0080 9142     		cmp	r1, r2
 246              		.loc 1 445 0
 247 0082 2373     		strb	r3, [r4, #12]
 248              		.loc 1 446 0
 249 0084 67D0     		beq	.L11
 250 0086 0329     		cmp	r1, #3
 251 0088 00F08480 		beq	.L12
 252 008c 0129     		cmp	r1, #1
 253 008e 6CD0     		beq	.L26
 254              		.loc 1 464 0
 255 0090 237B     		ldrb	r3, [r4, #12]	@ zero_extendqisi2
 256 0092 6FF30003 		bfc	r3, #0, #1
 257              	.LBB452:
 258              	.LBB453:
 259              		.loc 1 384 0
 260 0096 DAB2     		uxtb	r2, r3
 261 0098 C2F34001 		ubfx	r1, r2, #1, #1
 262              	.LBE453:
 263              	.LBE452:
 264              		.loc 1 464 0
 265 009c 2373     		strb	r3, [r4, #12]
 266              	.LVL15:
 267              	.LBB475:
 268              	.LBB472:
 269              		.loc 1 384 0
 270 009e 0029     		cmp	r1, #0
 271 00a0 7DD0     		beq	.L23
 272              		.loc 1 386 0
 273 00a2 677B     		ldrb	r7, [r4, #13]	@ zero_extendqisi2
 274 00a4 267F     		ldrb	r6, [r4, #28]	@ zero_extendqisi2
 275 00a6 C7F30600 		ubfx	r0, r7, #0, #7
 276              	.LVL16:
 277 00aa C3B2     		uxtb	r3, r0
 278 00ac 4FFA86FE 		sxtb	lr, r6
 279 00b0 7345     		cmp	r3, lr
 280 00b2 80F28680 		bge	.L17
 281              	.LVL17:
 282              	.LBB454:
 283              	.LBB455:
ARM GAS  /tmp/cczUYEXc.s 			page 6


 284              		.loc 1 370 0
 285 00b6 DE08     		lsrs	r6, r3, #3
 286 00b8 A119     		adds	r1, r4, r6
 287 00ba 03F00703 		and	r3, r3, #7
 288 00be 097D     		ldrb	r1, [r1, #20]	@ zero_extendqisi2
 289 00c0 1941     		asrs	r1, r1, r3
 290              	.LBE455:
 291              	.LBE454:
 292              		.loc 1 388 0
 293 00c2 11F00101 		ands	r1, r1, #1
 294              	.LVL18:
 295              		.loc 1 390 0
 296 00c6 04BF     		itt	eq
 297 00c8 61F38302 		bfieq	r2, r1, #2, #2
 298 00cc 2273     		strbeq	r2, [r4, #12]
 299              	.LBB456:
 300              	.LBB457:
 301              		.loc 1 356 0
 302 00ce 2269     		ldr	r2, [r4, #16]
 303              	.LBE457:
 304              	.LBE456:
 305              		.loc 1 389 0
 306 00d0 08BF     		it	eq
 307 00d2 6077     		strbeq	r0, [r4, #29]
 308              	.LBB459:
 309              	.LBB458:
 310              		.loc 1 356 0
 311 00d4 905D     		ldrb	r0, [r2, r6]	@ zero_extendqisi2
 312 00d6 01FA03F3 		lsl	r3, r1, r3
 313 00da 0343     		orrs	r3, r3, r0
 314 00dc 9355     		strb	r3, [r2, r6]
 315              		.loc 1 357 0
 316 00de 637B     		ldrb	r3, [r4, #13]	@ zero_extendqisi2
 317 00e0 5A1C     		adds	r2, r3, #1
 318 00e2 62F30603 		bfi	r3, r2, #0, #7
 319 00e6 6373     		strb	r3, [r4, #13]
 320 00e8 67E0     		b	.L19
 321              	.LVL19:
 322              	.L24:
 323              	.LBE458:
 324              	.LBE459:
 325              	.LBE472:
 326              	.LBE475:
 327              		.loc 1 479 0
 328 00ea DA68     		ldr	r2, [r3, #12]
 329 00ec C2F3C731 		ubfx	r1, r2, #15, #8
 330 00f0 0131     		adds	r1, r1, #1
 331 00f2 61F3D632 		bfi	r2, r1, #15, #8
 332              		.loc 1 480 0
 333 00f6 D0B2     		uxtb	r0, r2
 334 00f8 40F00200 		orr	r0, r0, #2
 335              		.loc 1 479 0
 336 00fc DA60     		str	r2, [r3, #12]
 337              		.loc 1 481 0
 338 00fe 0146     		mov	r1, r0
 339 0100 10F00102 		ands	r2, r0, #1
 340              		.loc 1 482 0
ARM GAS  /tmp/cczUYEXc.s 			page 7


 341 0104 18BF     		it	ne
 342 0106 62F38301 		bfine	r1, r2, #2, #2
 343              		.loc 1 480 0
 344 010a 1873     		strb	r0, [r3, #12]
 345              		.loc 1 482 0
 346 010c 18BF     		it	ne
 347 010e 1973     		strbne	r1, [r3, #12]
 348              	.L14:
 349              	.LVL20:
 350              	.LBB476:
 351              	.LBB477:
 352              	.LBB478:
 353              	.LBB479:
 354              	.LBB480:
 355              	.LBB481:
 356              		.loc 2 264 0
 357 0110 2023     		movs	r3, #32
 358              	@ 264 "../../../../../ChibiOS-RT/os/common/ext/CMSIS/include/cmsis_gcc.h" 1
 359 0112 83F31188 		MSR basepri, r3
 360              	@ 0 "" 2
 361              		.thumb
 362              	.LBE481:
 363              	.LBE480:
 364              	.LBE479:
 365              	.LBE478:
 366              	.LBE477:
 367              	.LBE476:
 368              		.loc 1 493 0
 369 0116 6268     		ldr	r2, [r4, #4]
 370 0118 EB68     		ldr	r3, [r5, #12]
 371 011a D168     		ldr	r1, [r2, #12]
 372 011c 0126     		movs	r6, #1
 373 011e 06FA01F2 		lsl	r2, r6, r1
 374 0122 23EA0203 		bic	r3, r3, r2
 375 0126 EB60     		str	r3, [r5, #12]
 376 0128 2846     		mov	r0, r5
 377 012a C9B2     		uxtb	r1, r1
 378 012c FFF7FEFF 		bl	pwm_lld_disable_channel
 379              	.LVL21:
 380              		.loc 1 494 0
 381 0130 6268     		ldr	r2, [r4, #4]
 382 0132 EB68     		ldr	r3, [r5, #12]
 383 0134 1169     		ldr	r1, [r2, #16]
 384 0136 8E40     		lsls	r6, r6, r1
 385 0138 23EA0603 		bic	r3, r3, r6
 386 013c EB60     		str	r3, [r5, #12]
 387 013e 2846     		mov	r0, r5
 388 0140 C9B2     		uxtb	r1, r1
 389 0142 FFF7FEFF 		bl	pwm_lld_disable_channel
 390              	.LVL22:
 391              	.LBB482:
 392              	.LBB483:
 393              		.file 3 "../../../../../ChibiOS-RT/os/hal/osal/rt/osal.h"
 394              		.loc 3 728 0
 395 0146 2D48     		ldr	r0, .L28
 396 0148 0021     		movs	r1, #0
 397 014a FFF7FEFF 		bl	chThdResumeI
ARM GAS  /tmp/cczUYEXc.s 			page 8


 398              	.LVL23:
 399              	.LBE483:
 400              	.LBE482:
 401              	.LBB484:
 402              	.LBB485:
 403              	.LBB486:
 404              	.LBB487:
 405              	.LBB488:
 406              	.LBB489:
 407              		.loc 2 264 0
 408 014e 0023     		movs	r3, #0
 409              	@ 264 "../../../../../ChibiOS-RT/os/common/ext/CMSIS/include/cmsis_gcc.h" 1
 410 0150 83F31188 		MSR basepri, r3
 411              	@ 0 "" 2
 412              		.thumb
 413 0154 F8BD     		pop	{r3, r4, r5, r6, r7, pc}
 414              	.LVL24:
 415              	.L11:
 416              	.LBE489:
 417              	.LBE488:
 418              	.LBE487:
 419              	.LBE486:
 420              	.LBE485:
 421              	.LBE484:
 422              	.LBB490:
 423              	.LBB491:
 424              		.loc 1 353 0
 425 0156 637B     		ldrb	r3, [r4, #13]	@ zero_extendqisi2
 426              	.LVL25:
 427              		.loc 1 357 0
 428 0158 5A1C     		adds	r2, r3, #1
 429 015a 62F30603 		bfi	r3, r2, #0, #7
 430              	.LVL26:
 431              	.LBE491:
 432              	.LBE490:
 433              		.loc 1 460 0
 434 015e 201D     		adds	r0, r4, #4
 435              	.LVL27:
 436 0160 0021     		movs	r1, #0
 437              	.LBB493:
 438              	.LBB492:
 439              		.loc 1 357 0
 440 0162 6373     		strb	r3, [r4, #13]
 441              	.LBE492:
 442              	.LBE493:
 443              		.loc 1 460 0
 444 0164 FFF7FEFF 		bl	ow_write_bit_I.isra.1
 445              	.LVL28:
 446 0168 64E7     		b	.L8
 447              	.LVL29:
 448              	.L26:
 449              	.LBB494:
 450              	.LBB495:
 451              		.loc 1 353 0
 452 016a 607B     		ldrb	r0, [r4, #13]	@ zero_extendqisi2
 453              	.LVL30:
 454              		.loc 1 356 0
ARM GAS  /tmp/cczUYEXc.s 			page 9


 455 016c 2269     		ldr	r2, [r4, #16]
 456              		.loc 1 353 0
 457 016e 00F07F00 		and	r0, r0, #127
 458              	.LVL31:
 459              		.loc 1 356 0
 460 0172 C308     		lsrs	r3, r0, #3
 461 0174 00F00700 		and	r0, r0, #7
 462 0178 D65C     		ldrb	r6, [r2, r3]	@ zero_extendqisi2
 463 017a 01FA00F0 		lsl	r0, r1, r0
 464 017e 3043     		orrs	r0, r0, r6
 465 0180 D054     		strb	r0, [r2, r3]
 466              	.LVL32:
 467              		.loc 1 357 0
 468 0182 637B     		ldrb	r3, [r4, #13]	@ zero_extendqisi2
 469 0184 5A1C     		adds	r2, r3, #1
 470 0186 62F30603 		bfi	r3, r2, #0, #7
 471              	.LBE495:
 472              	.LBE494:
 473              		.loc 1 455 0
 474 018a 201D     		adds	r0, r4, #4
 475              	.LBB497:
 476              	.LBB496:
 477              		.loc 1 357 0
 478 018c 6373     		strb	r3, [r4, #13]
 479              	.LBE496:
 480              	.LBE497:
 481              		.loc 1 455 0
 482 018e FFF7FEFF 		bl	ow_write_bit_I.isra.1
 483              	.LVL33:
 484 0192 4FE7     		b	.L8
 485              	.LVL34:
 486              	.L12:
 487              		.loc 1 449 0
 488 0194 237B     		ldrb	r3, [r4, #12]	@ zero_extendqisi2
 489 0196 62F38303 		bfi	r3, r2, #2, #2
 490 019a 2373     		strb	r3, [r4, #12]
 491 019c B8E7     		b	.L14
 492              	.LVL35:
 493              	.L23:
 494              	.LBB498:
 495              	.LBB473:
 496              		.loc 1 413 0
 497 019e 617B     		ldrb	r1, [r4, #13]	@ zero_extendqisi2
 498              		.loc 1 412 0
 499 01a0 207F     		ldrb	r0, [r4, #28]	@ zero_extendqisi2
 500              	.LVL36:
 501              		.loc 1 413 0
 502 01a2 C1F30603 		ubfx	r3, r1, #0, #7
 503              	.LBB460:
 504              	.LBB461:
 505              		.loc 1 357 0
 506 01a6 5E1C     		adds	r6, r3, #1
 507 01a8 66F30601 		bfi	r1, r6, #0, #7
 508              	.LBE461:
 509              	.LBE460:
 510              		.loc 1 415 0
 511 01ac 6FF38302 		bfc	r2, #2, #2
ARM GAS  /tmp/cczUYEXc.s 			page 10


 512              	.LBB463:
 513              	.LBB462:
 514              		.loc 1 357 0
 515 01b0 6173     		strb	r1, [r4, #13]
 516              	.LBE462:
 517              	.LBE463:
 518              		.loc 1 415 0
 519 01b2 2273     		strb	r2, [r4, #12]
 520              		.loc 1 413 0
 521 01b4 2377     		strb	r3, [r4, #28]
 522              	.LVL37:
 523              		.loc 1 412 0
 524 01b6 6077     		strb	r0, [r4, #29]
 525              		.loc 1 416 0
 526 01b8 0021     		movs	r1, #0
 527              	.LVL38:
 528              	.L19:
 529              	.LBE473:
 530              	.LBE498:
 531              		.loc 1 465 0
 532 01ba 1148     		ldr	r0, .L28+4
 533 01bc FFF7FEFF 		bl	ow_write_bit_I.isra.1
 534              	.LVL39:
 535 01c0 38E7     		b	.L8
 536              	.L17:
 537              	.LBB499:
 538              	.LBB474:
 539              		.loc 1 395 0
 540 01c2 0AD0     		beq	.L27
 541              	.LBB464:
 542              	.LBB465:
 543              		.loc 1 357 0
 544 01c4 0133     		adds	r3, r3, #1
 545 01c6 63F30607 		bfi	r7, r3, #0, #7
 546              	.LBE465:
 547              	.LBE464:
 548              		.loc 1 405 0
 549 01ca 6FF38302 		bfc	r2, #2, #2
 550              	.LBB467:
 551              	.LBB466:
 552              		.loc 1 357 0
 553 01ce 6773     		strb	r7, [r4, #13]
 554              	.LBE466:
 555              	.LBE467:
 556              		.loc 1 405 0
 557 01d0 2273     		strb	r2, [r4, #12]
 558              		.loc 1 402 0
 559 01d2 6677     		strb	r6, [r4, #29]
 560              		.loc 1 403 0
 561 01d4 2077     		strb	r0, [r4, #28]
 562              	.LVL40:
 563              		.loc 1 406 0
 564 01d6 0021     		movs	r1, #0
 565 01d8 EFE7     		b	.L19
 566              	.LVL41:
 567              	.L27:
 568              		.loc 1 396 0
ARM GAS  /tmp/cczUYEXc.s 			page 11


 569 01da 627F     		ldrb	r2, [r4, #29]	@ zero_extendqisi2
 570              	.LBB468:
 571              	.LBB469:
 572              		.loc 1 356 0
 573 01dc 2069     		ldr	r0, [r4, #16]
 574              	.LBE469:
 575              	.LBE468:
 576              		.loc 1 396 0
 577 01de 2277     		strb	r2, [r4, #28]
 578              	.LVL42:
 579              	.LBB471:
 580              	.LBB470:
 581              		.loc 1 356 0
 582 01e0 DA08     		lsrs	r2, r3, #3
 583 01e2 03F00703 		and	r3, r3, #7
 584 01e6 865C     		ldrb	r6, [r0, r2]	@ zero_extendqisi2
 585 01e8 01FA03F3 		lsl	r3, r1, r3
 586 01ec 3343     		orrs	r3, r3, r6
 587 01ee 8354     		strb	r3, [r0, r2]
 588              		.loc 1 357 0
 589 01f0 637B     		ldrb	r3, [r4, #13]	@ zero_extendqisi2
 590 01f2 5A1C     		adds	r2, r3, #1
 591 01f4 62F30603 		bfi	r3, r2, #0, #7
 592 01f8 6373     		strb	r3, [r4, #13]
 593 01fa DEE7     		b	.L19
 594              	.L29:
 595              		.align	2
 596              	.L28:
 597 01fc 20000000 		.word	.LANCHOR0+32
 598 0200 04000000 		.word	.LANCHOR0+4
 599              	.LBE470:
 600              	.LBE471:
 601              	.LBE474:
 602              	.LBE499:
 603              	.LBE502:
 604              	.LBE505:
 605              		.cfi_endproc
 606              	.LFE276:
 607              		.size	pwm_search_rom_cb, .-pwm_search_rom_cb
 608 0204 AFF30080 		.section	.text.pwm_write_bit_cb,"ax",%progbits
 608      AFF30080 
 608      AFF30080 
 609              		.align	2
 610              		.p2align 4,,15
 611              		.thumb
 612              		.thumb_func
 613              		.type	pwm_write_bit_cb, %function
 614              	pwm_write_bit_cb:
 615              	.LFB275:
 616              		.loc 1 201 0
 617              		.cfi_startproc
 618              		@ args = 0, pretend = 0, frame = 0
 619              		@ frame_needed = 0, uses_anonymous_args = 0
 620              	.LVL43:
 621 0000 10B5     		push	{r4, lr}
 622              		.cfi_def_cfa_offset 8
 623              		.cfi_offset 4, -8
ARM GAS  /tmp/cczUYEXc.s 			page 12


 624              		.cfi_offset 14, -4
 625              	.LBB534:
 626              	.LBB535:
 627              		.loc 1 309 0
 628 0002 40F20003 		movw	r3, #:lower16:.LANCHOR0
 629 0006 C0F20003 		movt	r3, #:upper16:.LANCHOR0
 630              	.LVL44:
 631 000a 1A78     		ldrb	r2, [r3]	@ zero_extendqisi2
 632 000c C2F3C301 		ubfx	r1, r2, #3, #4
 633 0010 0829     		cmp	r1, #8
 634 0012 18D0     		beq	.L34
 635              	.L31:
 636              		.loc 1 325 0
 637 0014 1B78     		ldrb	r3, [r3]	@ zero_extendqisi2
 638 0016 40F20004 		movw	r4, #:lower16:.LANCHOR0
 639 001a DA09     		lsrs	r2, r3, #7
 640 001c C0F20004 		movt	r4, #:upper16:.LANCHOR0
 641 0020 39D1     		bne	.L35
 642              		.loc 1 340 0
 643 0022 A268     		ldr	r2, [r4, #8]
 644 0024 1178     		ldrb	r1, [r2]	@ zero_extendqisi2
 645 0026 C3F3C303 		ubfx	r3, r3, #3, #4
 646 002a 1941     		asrs	r1, r1, r3
 647 002c 01F00101 		and	r1, r1, #1
 648 0030 201D     		adds	r0, r4, #4
 649              	.LVL45:
 650 0032 FFF7FEFF 		bl	ow_write_bit_I.isra.1
 651              	.LVL46:
 652              		.loc 1 341 0
 653 0036 2378     		ldrb	r3, [r4]	@ zero_extendqisi2
 654 0038 C3F3C302 		ubfx	r2, r3, #3, #4
 655 003c 0132     		adds	r2, r2, #1
 656 003e 62F3C603 		bfi	r3, r2, #3, #4
 657 0042 2370     		strb	r3, [r4]
 658 0044 10BD     		pop	{r4, pc}
 659              	.LVL47:
 660              	.L34:
 661              		.loc 1 312 0
 662 0046 B3F80110 		ldrh	r1, [r3, #1]	@ unaligned
 663              		.loc 1 310 0
 664 004a 9C68     		ldr	r4, [r3, #8]
 665              		.loc 1 312 0
 666 004c 0139     		subs	r1, r1, #1
 667              		.loc 1 311 0
 668 004e 6FF3C602 		bfc	r2, #3, #4
 669              		.loc 1 312 0
 670 0052 89B2     		uxth	r1, r1
 671              		.loc 1 310 0
 672 0054 0134     		adds	r4, r4, #1
 673              		.loc 1 311 0
 674 0056 1A70     		strb	r2, [r3]
 675              		.loc 1 312 0
 676 0058 A3F80110 		strh	r1, [r3, #1]	@ unaligned
 677              		.loc 1 310 0
 678 005c 9C60     		str	r4, [r3, #8]
 679              		.loc 1 314 0
 680 005e 0029     		cmp	r1, #0
ARM GAS  /tmp/cczUYEXc.s 			page 13


 681 0060 D8D1     		bne	.L31
 682              	.LVL48:
 683              	.LBB536:
 684              	.LBB537:
 685              	.LBB538:
 686              	.LBB539:
 687              	.LBB540:
 688              	.LBB541:
 689              		.loc 2 264 0
 690 0062 2022     		movs	r2, #32
 691              	@ 264 "../../../../../ChibiOS-RT/os/common/ext/CMSIS/include/cmsis_gcc.h" 1
 692 0064 82F31188 		MSR basepri, r2
 693              	@ 0 "" 2
 694              		.thumb
 695              	.LBE541:
 696              	.LBE540:
 697              	.LBE539:
 698              	.LBE538:
 699              	.LBE537:
 700              	.LBE536:
 701              		.loc 1 316 0
 702 0068 5A68     		ldr	r2, [r3, #4]
 703 006a C368     		ldr	r3, [r0, #12]
 704 006c D168     		ldr	r1, [r2, #12]
 705 006e 0122     		movs	r2, #1
 706 0070 8A40     		lsls	r2, r2, r1
 707 0072 23EA0203 		bic	r3, r3, r2
 708 0076 C360     		str	r3, [r0, #12]
 709 0078 C9B2     		uxtb	r1, r1
 710 007a FFF7FEFF 		bl	pwm_lld_disable_channel
 711              	.LVL49:
 712              	.LBB542:
 713              	.LBB543:
 714              	.LBB544:
 715              	.LBB545:
 716              	.LBB546:
 717              	.LBB547:
 718              		.loc 2 264 0
 719 007e 0023     		movs	r3, #0
 720              	@ 264 "../../../../../ChibiOS-RT/os/common/ext/CMSIS/include/cmsis_gcc.h" 1
 721 0080 83F31188 		MSR basepri, r3
 722              	@ 0 "" 2
 723              		.thumb
 724              	.LBE547:
 725              	.LBE546:
 726              	.LBE545:
 727              	.LBE544:
 728              	.LBE543:
 729              	.LBE542:
 730              		.loc 1 319 0
 731 0084 40F20003 		movw	r3, #:lower16:.LANCHOR0
 732 0088 C0F20003 		movt	r3, #:upper16:.LANCHOR0
 733 008c 1A78     		ldrb	r2, [r3]	@ zero_extendqisi2
 734 008e 42F08002 		orr	r2, r2, #128
 735 0092 1A70     		strb	r2, [r3]
 736 0094 10BD     		pop	{r4, pc}
 737              	.LVL50:
ARM GAS  /tmp/cczUYEXc.s 			page 14


 738              	.L35:
 739              	.LBB548:
 740              	.LBB549:
 741              	.LBB550:
 742              	.LBB551:
 743              	.LBB552:
 744              	.LBB553:
 745              		.loc 2 264 0
 746 0096 2023     		movs	r3, #32
 747              	@ 264 "../../../../../ChibiOS-RT/os/common/ext/CMSIS/include/cmsis_gcc.h" 1
 748 0098 83F31188 		MSR basepri, r3
 749              	@ 0 "" 2
 750              	.LVL51:
 751              		.thumb
 752              	.LBE553:
 753              	.LBE552:
 754              	.LBE551:
 755              	.LBE550:
 756              	.LBE549:
 757              	.LBE548:
 758              	.LBB554:
 759              	.LBB555:
 760              		.loc 3 728 0
 761 009c 0021     		movs	r1, #0
 762 009e 04F12000 		add	r0, r4, #32
 763              	.LVL52:
 764 00a2 FFF7FEFF 		bl	chThdResumeI
 765              	.LVL53:
 766              	.LBE555:
 767              	.LBE554:
 768              	.LBB556:
 769              	.LBB557:
 770              	.LBB558:
 771              	.LBB559:
 772              	.LBB560:
 773              	.LBB561:
 774              		.loc 2 264 0
 775 00a6 0023     		movs	r3, #0
 776              	@ 264 "../../../../../ChibiOS-RT/os/common/ext/CMSIS/include/cmsis_gcc.h" 1
 777 00a8 83F31188 		MSR basepri, r3
 778              	@ 0 "" 2
 779              		.thumb
 780 00ac 10BD     		pop	{r4, pc}
 781              	.LBE561:
 782              	.LBE560:
 783              	.LBE559:
 784              	.LBE558:
 785              	.LBE557:
 786              	.LBE556:
 787              	.LBE535:
 788              	.LBE534:
 789              		.cfi_endproc
 790              	.LFE275:
 791              		.size	pwm_write_bit_cb, .-pwm_write_bit_cb
 792 00ae 00BF     		.section	.text.pwm_read_bit_cb,"ax",%progbits
 793              		.align	2
 794              		.p2align 4,,15
ARM GAS  /tmp/cczUYEXc.s 			page 15


 795              		.thumb
 796              		.thumb_func
 797              		.type	pwm_read_bit_cb, %function
 798              	pwm_read_bit_cb:
 799              	.LFB274:
 800              		.loc 1 194 0
 801              		.cfi_startproc
 802              		@ args = 0, pretend = 0, frame = 0
 803              		@ frame_needed = 0, uses_anonymous_args = 0
 804              	.LVL54:
 805 0000 70B5     		push	{r4, r5, r6, lr}
 806              		.cfi_def_cfa_offset 16
 807              		.cfi_offset 4, -16
 808              		.cfi_offset 5, -12
 809              		.cfi_offset 6, -8
 810              		.cfi_offset 14, -4
 811              	.LBB592:
 812              	.LBB593:
 813              		.loc 1 271 0
 814 0002 40F20003 		movw	r3, #:lower16:.LANCHOR0
 815 0006 C0F20003 		movt	r3, #:upper16:.LANCHOR0
 816              	.LVL55:
 817 000a 1A78     		ldrb	r2, [r3]	@ zero_extendqisi2
 818 000c D109     		lsrs	r1, r2, #7
 819 000e 40D1     		bne	.L41
 820              	.LBE593:
 821              	.LBE592:
 822              		.loc 1 269 0
 823 0010 5C68     		ldr	r4, [r3, #4]
 824              	.LVL56:
 825              	.LBB627:
 826              	.LBB626:
 827              		.loc 1 279 0
 828 0012 9968     		ldr	r1, [r3, #8]
 829              	.LBB594:
 830              	.LBB595:
 831              		.loc 1 180 0
 832 0014 6669     		ldr	r6, [r4, #20]
 833 0016 A569     		ldr	r5, [r4, #24]
 834 0018 3669     		ldr	r6, [r6, #16]
 835              	.LBE595:
 836              	.LBE594:
 837              		.loc 1 279 0
 838 001a 0C78     		ldrb	r4, [r1]	@ zero_extendqisi2
 839              	.LBB598:
 840              	.LBB596:
 841              		.loc 1 180 0
 842 001c 26FA05F5 		lsr	r5, r6, r5
 843              	.LBE596:
 844              	.LBE598:
 845              		.loc 1 279 0
 846 0020 C2F3C302 		ubfx	r2, r2, #3, #4
 847              	.LBB599:
 848              	.LBB597:
 849              		.loc 1 180 0
 850 0024 05F00105 		and	r5, r5, #1
 851              	.LBE597:
ARM GAS  /tmp/cczUYEXc.s 			page 16


 852              	.LBE599:
 853              		.loc 1 279 0
 854 0028 05FA02F2 		lsl	r2, r5, r2
 855 002c 2243     		orrs	r2, r2, r4
 856 002e 0A70     		strb	r2, [r1]
 857              		.loc 1 280 0
 858 0030 1978     		ldrb	r1, [r3]	@ zero_extendqisi2
 859 0032 C1F3C302 		ubfx	r2, r1, #3, #4
 860 0036 0132     		adds	r2, r2, #1
 861 0038 02F00F02 		and	r2, r2, #15
 862 003c 62F3C601 		bfi	r1, r2, #3, #4
 863              		.loc 1 281 0
 864 0040 082A     		cmp	r2, #8
 865              		.loc 1 280 0
 866 0042 1970     		strb	r1, [r3]
 867              		.loc 1 281 0
 868 0044 00D0     		beq	.L42
 869              	.L36:
 870 0046 70BD     		pop	{r4, r5, r6, pc}
 871              	.L42:
 872              		.loc 1 284 0
 873 0048 B3F80120 		ldrh	r2, [r3, #1]	@ unaligned
 874              		.loc 1 283 0
 875 004c 9C68     		ldr	r4, [r3, #8]
 876              		.loc 1 282 0
 877 004e C9B2     		uxtb	r1, r1
 878              		.loc 1 284 0
 879 0050 013A     		subs	r2, r2, #1
 880 0052 92B2     		uxth	r2, r2
 881              		.loc 1 282 0
 882 0054 6FF3C601 		bfc	r1, #3, #4
 883              		.loc 1 283 0
 884 0058 0134     		adds	r4, r4, #1
 885              		.loc 1 284 0
 886 005a A3F80120 		strh	r2, [r3, #1]	@ unaligned
 887              		.loc 1 282 0
 888 005e 1970     		strb	r1, [r3]
 889              		.loc 1 283 0
 890 0060 9C60     		str	r4, [r3, #8]
 891              		.loc 1 285 0
 892 0062 002A     		cmp	r2, #0
 893 0064 EFD1     		bne	.L36
 894              		.loc 1 286 0
 895 0066 CAB2     		uxtb	r2, r1
 896 0068 42F08002 		orr	r2, r2, #128
 897 006c 1A70     		strb	r2, [r3]
 898              	.LVL57:
 899              	.LBB600:
 900              	.LBB601:
 901              	.LBB602:
 902              	.LBB603:
 903              	.LBB604:
 904              	.LBB605:
 905              		.loc 2 264 0
 906 006e 2022     		movs	r2, #32
 907              	@ 264 "../../../../../ChibiOS-RT/os/common/ext/CMSIS/include/cmsis_gcc.h" 1
 908 0070 82F31188 		MSR basepri, r2
ARM GAS  /tmp/cczUYEXc.s 			page 17


 909              	@ 0 "" 2
 910              		.thumb
 911              	.LBE605:
 912              	.LBE604:
 913              	.LBE603:
 914              	.LBE602:
 915              	.LBE601:
 916              	.LBE600:
 917              		.loc 1 291 0
 918 0074 5A68     		ldr	r2, [r3, #4]
 919 0076 C368     		ldr	r3, [r0, #12]
 920 0078 D168     		ldr	r1, [r2, #12]
 921 007a 0122     		movs	r2, #1
 922 007c 8A40     		lsls	r2, r2, r1
 923 007e 23EA0203 		bic	r3, r3, r2
 924 0082 C360     		str	r3, [r0, #12]
 925 0084 C9B2     		uxtb	r1, r1
 926 0086 FFF7FEFF 		bl	pwm_lld_disable_channel
 927              	.LVL58:
 928              	.LBB606:
 929              	.LBB607:
 930              	.LBB608:
 931              	.LBB609:
 932              	.LBB610:
 933              	.LBB611:
 934              		.loc 2 264 0
 935 008a 0023     		movs	r3, #0
 936              	@ 264 "../../../../../ChibiOS-RT/os/common/ext/CMSIS/include/cmsis_gcc.h" 1
 937 008c 83F31188 		MSR basepri, r3
 938              	@ 0 "" 2
 939              		.thumb
 940 0090 70BD     		pop	{r4, r5, r6, pc}
 941              	.LVL59:
 942              	.L41:
 943              	.LBE611:
 944              	.LBE610:
 945              	.LBE609:
 946              	.LBE608:
 947              	.LBE607:
 948              	.LBE606:
 949              	.LBB612:
 950              	.LBB613:
 951              	.LBB614:
 952              	.LBB615:
 953              	.LBB616:
 954              	.LBB617:
 955 0092 2022     		movs	r2, #32
 956              	@ 264 "../../../../../ChibiOS-RT/os/common/ext/CMSIS/include/cmsis_gcc.h" 1
 957 0094 82F31188 		MSR basepri, r2
 958              	@ 0 "" 2
 959              		.thumb
 960              	.LBE617:
 961              	.LBE616:
 962              	.LBE615:
 963              	.LBE614:
 964              	.LBE613:
 965              	.LBE612:
ARM GAS  /tmp/cczUYEXc.s 			page 18


 966              		.loc 1 273 0
 967 0098 5A68     		ldr	r2, [r3, #4]
 968 009a C368     		ldr	r3, [r0, #12]
 969 009c 1169     		ldr	r1, [r2, #16]
 970 009e 0122     		movs	r2, #1
 971 00a0 8A40     		lsls	r2, r2, r1
 972 00a2 23EA0203 		bic	r3, r3, r2
 973 00a6 C360     		str	r3, [r0, #12]
 974 00a8 C9B2     		uxtb	r1, r1
 975 00aa FFF7FEFF 		bl	pwm_lld_disable_channel
 976              	.LVL60:
 977              	.LBB618:
 978              	.LBB619:
 979              		.loc 3 728 0
 980 00ae 0448     		ldr	r0, .L43
 981 00b0 0021     		movs	r1, #0
 982 00b2 FFF7FEFF 		bl	chThdResumeI
 983              	.LVL61:
 984              	.LBE619:
 985              	.LBE618:
 986              	.LBB620:
 987              	.LBB621:
 988              	.LBB622:
 989              	.LBB623:
 990              	.LBB624:
 991              	.LBB625:
 992              		.loc 2 264 0
 993 00b6 0023     		movs	r3, #0
 994              	@ 264 "../../../../../ChibiOS-RT/os/common/ext/CMSIS/include/cmsis_gcc.h" 1
 995 00b8 83F31188 		MSR basepri, r3
 996              	@ 0 "" 2
 997              		.thumb
 998 00bc 70BD     		pop	{r4, r5, r6, pc}
 999              	.L44:
 1000 00be 00BF     		.align	2
 1001              	.L43:
 1002 00c0 20000000 		.word	.LANCHOR0+32
 1003              	.LBE625:
 1004              	.LBE624:
 1005              	.LBE623:
 1006              	.LBE622:
 1007              	.LBE621:
 1008              	.LBE620:
 1009              	.LBE626:
 1010              	.LBE627:
 1011              		.cfi_endproc
 1012              	.LFE274:
 1013              		.size	pwm_read_bit_cb, .-pwm_read_bit_cb
 1014 00c4 AFF30080 		.section	.text.pwm_reset_cb,"ax",%progbits
 1014      AFF30080 
 1014      AFF30080 
 1015              		.align	2
 1016              		.p2align 4,,15
 1017              		.thumb
 1018              		.thumb_func
 1019              		.type	pwm_reset_cb, %function
 1020              	pwm_reset_cb:
ARM GAS  /tmp/cczUYEXc.s 			page 19


 1021              	.LFB273:
 1022              		.loc 1 187 0
 1023              		.cfi_startproc
 1024              		@ args = 0, pretend = 0, frame = 0
 1025              		@ frame_needed = 0, uses_anonymous_args = 0
 1026              	.LVL62:
 1027 0000 10B5     		push	{r4, lr}
 1028              		.cfi_def_cfa_offset 8
 1029              		.cfi_offset 4, -8
 1030              		.cfi_offset 14, -4
 1031              		.loc 1 250 0
 1032 0002 40F20003 		movw	r3, #:lower16:.LANCHOR0
 1033 0006 C0F20003 		movt	r3, #:upper16:.LANCHOR0
 1034              	.LVL63:
 1035 000a 5968     		ldr	r1, [r3, #4]
 1036              	.LVL64:
 1037              	.LBB646:
 1038              	.LBB647:
 1039              		.loc 1 252 0
 1040 000c 1A78     		ldrb	r2, [r3]	@ zero_extendqisi2
 1041              	.LBB648:
 1042              	.LBB649:
 1043              		.loc 1 180 0
 1044 000e 4C69     		ldr	r4, [r1, #20]
 1045 0010 8969     		ldr	r1, [r1, #24]
 1046 0012 2469     		ldr	r4, [r4, #16]
 1047 0014 24FA01F1 		lsr	r1, r4, r1
 1048 0018 01F00101 		and	r1, r1, #1
 1049 001c 81F00101 		eor	r1, r1, #1
 1050              	.LBE649:
 1051              	.LBE648:
 1052              		.loc 1 252 0
 1053 0020 61F30002 		bfi	r2, r1, #0, #1
 1054 0024 1A70     		strb	r2, [r3]
 1055              	.LVL65:
 1056              	.LBB650:
 1057              	.LBB651:
 1058              	.LBB652:
 1059              	.LBB653:
 1060              	.LBB654:
 1061              	.LBB655:
 1062              		.loc 2 264 0
 1063 0026 2023     		movs	r3, #32
 1064              	@ 264 "../../../../../ChibiOS-RT/os/common/ext/CMSIS/include/cmsis_gcc.h" 1
 1065 0028 83F31188 		MSR basepri, r3
 1066              	@ 0 "" 2
 1067              		.thumb
 1068              	.LBE655:
 1069              	.LBE654:
 1070              	.LBE653:
 1071              	.LBE652:
 1072              	.LBE651:
 1073              	.LBE650:
 1074              		.loc 1 255 0
 1075 002c 40F20004 		movw	r4, #:lower16:.LANCHOR0
 1076 0030 C0F20004 		movt	r4, #:upper16:.LANCHOR0
 1077 0034 C368     		ldr	r3, [r0, #12]
ARM GAS  /tmp/cczUYEXc.s 			page 20


 1078 0036 6268     		ldr	r2, [r4, #4]
 1079 0038 1169     		ldr	r1, [r2, #16]
 1080 003a 0122     		movs	r2, #1
 1081 003c 8A40     		lsls	r2, r2, r1
 1082 003e 23EA0203 		bic	r3, r3, r2
 1083 0042 C360     		str	r3, [r0, #12]
 1084 0044 C9B2     		uxtb	r1, r1
 1085 0046 FFF7FEFF 		bl	pwm_lld_disable_channel
 1086              	.LVL66:
 1087              	.LBB656:
 1088              	.LBB657:
 1089              		.loc 3 728 0
 1090 004a 04F12000 		add	r0, r4, #32
 1091 004e 0021     		movs	r1, #0
 1092 0050 FFF7FEFF 		bl	chThdResumeI
 1093              	.LVL67:
 1094              	.LBE657:
 1095              	.LBE656:
 1096              	.LBB658:
 1097              	.LBB659:
 1098              	.LBB660:
 1099              	.LBB661:
 1100              	.LBB662:
 1101              	.LBB663:
 1102              		.loc 2 264 0
 1103 0054 0023     		movs	r3, #0
 1104              	@ 264 "../../../../../ChibiOS-RT/os/common/ext/CMSIS/include/cmsis_gcc.h" 1
 1105 0056 83F31188 		MSR basepri, r3
 1106              	@ 0 "" 2
 1107              		.thumb
 1108 005a 10BD     		pop	{r4, pc}
 1109              	.LBE663:
 1110              	.LBE662:
 1111              	.LBE661:
 1112              	.LBE660:
 1113              	.LBE659:
 1114              	.LBE658:
 1115              	.LBE647:
 1116              	.LBE646:
 1117              		.cfi_endproc
 1118              	.LFE273:
 1119              		.size	pwm_reset_cb, .-pwm_reset_cb
 1120 005c AFF30080 		.section	.text.ow_bus_idle,"ax",%progbits
 1121              		.align	2
 1122              		.p2align 4,,15
 1123              		.global	ow_bus_idle
 1124              		.thumb
 1125              		.thumb_func
 1126              		.type	ow_bus_idle, %function
 1127              	ow_bus_idle:
 1128              	.LFB270:
 1129              		.loc 1 152 0
 1130              		.cfi_startproc
 1131              		@ args = 0, pretend = 0, frame = 0
 1132              		@ frame_needed = 0, uses_anonymous_args = 0
 1133              		@ link register save eliminated.
 1134              	.LVL68:
ARM GAS  /tmp/cczUYEXc.s 			page 21


 1135              		.loc 1 157 0
 1136 0000 4368     		ldr	r3, [r0, #4]
 1137 0002 1868     		ldr	r0, [r3]
 1138              	.LVL69:
 1139 0004 FFF7FEBF 		b	pwmStop
 1140              	.LVL70:
 1141              		.cfi_endproc
 1142              	.LFE270:
 1143              		.size	ow_bus_idle, .-ow_bus_idle
 1144 0008 AFF30080 		.section	.text.onewireCRC,"ax",%progbits
 1144      AFF30080 
 1145              		.align	2
 1146              		.p2align 4,,15
 1147              		.global	onewireCRC
 1148              		.thumb
 1149              		.thumb_func
 1150              		.type	onewireCRC, %function
 1151              	onewireCRC:
 1152              	.LFB287:
 1153              		.loc 1 548 0
 1154              		.cfi_startproc
 1155              		@ args = 0, pretend = 0, frame = 0
 1156              		@ frame_needed = 0, uses_anonymous_args = 0
 1157              		@ link register save eliminated.
 1158              	.LVL71:
 1159 0000 10B4     		push	{r4}
 1160              		.cfi_def_cfa_offset 4
 1161              		.cfi_offset 4, -4
 1162              		.loc 1 552 0
 1163 0002 81B1     		cbz	r1, .L50
 1164 0004 40F20004 		movw	r4, #:lower16:.LANCHOR1
 1165 0008 0346     		mov	r3, r0
 1166 000a 0144     		add	r1, r1, r0
 1167              	.LVL72:
 1168 000c C0F20004 		movt	r4, #:upper16:.LANCHOR1
 1169              		.loc 1 549 0
 1170 0010 0020     		movs	r0, #0
 1171              	.LVL73:
 1172              	.L49:
 1173              		.loc 1 553 0 discriminator 2
 1174 0012 13F8012B 		ldrb	r2, [r3], #1	@ zero_extendqisi2
 1175              	.LVL74:
 1176 0016 5040     		eors	r0, r0, r2
 1177              	.LVL75:
 1178 0018 C0B2     		uxtb	r0, r0
 1179              		.loc 1 552 0 discriminator 2
 1180 001a 8B42     		cmp	r3, r1
 1181              		.loc 1 553 0 discriminator 2
 1182 001c 205C     		ldrb	r0, [r4, r0]	@ zero_extendqisi2
 1183              	.LVL76:
 1184              		.loc 1 552 0 discriminator 2
 1185 001e F8D1     		bne	.L49
 1186              	.LVL77:
 1187              	.L48:
 1188              		.loc 1 556 0
 1189 0020 5DF8044B 		ldr	r4, [sp], #4
 1190 0024 7047     		bx	lr
ARM GAS  /tmp/cczUYEXc.s 			page 22


 1191              	.LVL78:
 1192              	.L50:
 1193              		.loc 1 549 0
 1194 0026 0846     		mov	r0, r1
 1195              	.LVL79:
 1196 0028 FAE7     		b	.L48
 1197              		.cfi_endproc
 1198              	.LFE287:
 1199              		.size	onewireCRC, .-onewireCRC
 1200 002a 00BFAFF3 		.section	.text.onewireObjectInit,"ax",%progbits
 1200      0080
 1201              		.align	2
 1202              		.p2align 4,,15
 1203              		.global	onewireObjectInit
 1204              		.thumb
 1205              		.thumb_func
 1206              		.type	onewireObjectInit, %function
 1207              	onewireObjectInit:
 1208              	.LFB288:
 1209              		.loc 1 565 0
 1210              		.cfi_startproc
 1211              		@ args = 0, pretend = 0, frame = 0
 1212              		@ frame_needed = 0, uses_anonymous_args = 0
 1213              		@ link register save eliminated.
 1214              	.LVL80:
 1215              		.loc 1 570 0
 1216 0000 0378     		ldrb	r3, [r0]	@ zero_extendqisi2
 1217              		.loc 1 571 0
 1218 0002 0122     		movs	r2, #1
 1219 0004 03F0FE03 		and	r3, r3, #254
 1220 0008 62F34203 		bfi	r3, r2, #1, #2
 1221 000c 0370     		strb	r3, [r0]
 1222              		.loc 1 574 0
 1223 000e 0268     		ldr	r2, [r0]
 1224              		.loc 1 569 0
 1225 0010 0023     		movs	r3, #0
 1226              		.loc 1 574 0
 1227 0012 63F31722 		bfi	r2, r3, #8, #16
 1228              		.loc 1 576 0
 1229 0016 02F08701 		and	r1, r2, #135
 1230 001a 63F3C711 		bfi	r1, r3, #7, #1
 1231              		.loc 1 569 0
 1232 001e 80E80C00 		stmia	r0, {r2, r3}
 1233              		.loc 1 572 0
 1234 0022 0362     		str	r3, [r0, #32]
 1235              		.loc 1 576 0
 1236 0024 0170     		strb	r1, [r0]
 1237              		.loc 1 577 0
 1238 0026 8360     		str	r3, [r0, #8]
 1239 0028 7047     		bx	lr
 1240              		.cfi_endproc
 1241              	.LFE288:
 1242              		.size	onewireObjectInit, .-onewireObjectInit
 1243 002a 00BFAFF3 		.section	.text.onewireStart,"ax",%progbits
 1243      0080
 1244              		.align	2
 1245              		.p2align 4,,15
ARM GAS  /tmp/cczUYEXc.s 			page 23


 1246              		.global	onewireStart
 1247              		.thumb
 1248              		.thumb_func
 1249              		.type	onewireStart, %function
 1250              	onewireStart:
 1251              	.LFB289:
 1252              		.loc 1 592 0
 1253              		.cfi_startproc
 1254              		@ args = 0, pretend = 0, frame = 0
 1255              		@ frame_needed = 0, uses_anonymous_args = 0
 1256              	.LVL81:
 1257 0000 0B46     		mov	r3, r1
 1258 0002 70B5     		push	{r4, r5, r6, lr}
 1259              		.cfi_def_cfa_offset 16
 1260              		.cfi_offset 4, -16
 1261              		.cfi_offset 5, -12
 1262              		.cfi_offset 6, -8
 1263              		.cfi_offset 14, -4
 1264              		.loc 1 604 0
 1265 0004 4A68     		ldr	r2, [r1, #4]
 1266              		.loc 1 608 0
 1267 0006 8969     		ldr	r1, [r1, #24]
 1268              	.LVL82:
 1269              		.loc 1 603 0
 1270 0008 4360     		str	r3, [r0, #4]
 1271              		.loc 1 592 0
 1272 000a 0446     		mov	r4, r0
 1273              		.loc 1 604 0
 1274 000c 44F24020 		movw	r0, #16960
 1275              	.LVL83:
 1276 0010 C0F20F00 		movt	r0, 15
 1277              		.loc 1 605 0
 1278 0014 4FF47076 		mov	r6, #960
 1279              		.loc 1 608 0
 1280 0018 0125     		movs	r5, #1
 1281              		.loc 1 605 0
 1282 001a 82E84100 		stmia	r2, {r0, r6}
 1283              		.loc 1 608 0
 1284 001e 05FA01F1 		lsl	r1, r5, r1
 1285 0022 DA69     		ldr	r2, [r3, #28]
 1286 0024 5869     		ldr	r0, [r3, #20]
 1287 0026 FFF7FEFF 		bl	_pal_lld_setgroupmode
 1288              	.LVL84:
 1289              	.LBB664:
 1290              	.LBB665:
 1291              		.loc 1 157 0
 1292 002a 6368     		ldr	r3, [r4, #4]
 1293 002c 1868     		ldr	r0, [r3]
 1294 002e FFF7FEFF 		bl	pwmStop
 1295              	.LVL85:
 1296              	.LBE665:
 1297              	.LBE664:
 1298              		.loc 1 612 0
 1299 0032 2378     		ldrb	r3, [r4]	@ zero_extendqisi2
 1300 0034 0222     		movs	r2, #2
 1301 0036 62F34203 		bfi	r3, r2, #1, #2
 1302 003a 2370     		strb	r3, [r4]
ARM GAS  /tmp/cczUYEXc.s 			page 24


 1303 003c 70BD     		pop	{r4, r5, r6, pc}
 1304              		.cfi_endproc
 1305              	.LFE289:
 1306              		.size	onewireStart, .-onewireStart
 1307 003e 00BF     		.section	.text.onewireStop,"ax",%progbits
 1308              		.align	2
 1309              		.p2align 4,,15
 1310              		.global	onewireStop
 1311              		.thumb
 1312              		.thumb_func
 1313              		.type	onewireStop, %function
 1314              	onewireStop:
 1315              	.LFB290:
 1316              		.loc 1 622 0
 1317              		.cfi_startproc
 1318              		@ args = 0, pretend = 0, frame = 0
 1319              		@ frame_needed = 0, uses_anonymous_args = 0
 1320              	.LVL86:
 1321              	.LBB666:
 1322              	.LBB667:
 1323              		.loc 1 157 0
 1324 0000 4368     		ldr	r3, [r0, #4]
 1325              	.LBE667:
 1326              	.LBE666:
 1327              		.loc 1 622 0
 1328 0002 10B5     		push	{r4, lr}
 1329              		.cfi_def_cfa_offset 8
 1330              		.cfi_offset 4, -8
 1331              		.cfi_offset 14, -4
 1332              		.loc 1 622 0
 1333 0004 0446     		mov	r4, r0
 1334              	.LVL87:
 1335              	.LBB669:
 1336              	.LBB668:
 1337              		.loc 1 157 0
 1338 0006 1868     		ldr	r0, [r3]
 1339              	.LVL88:
 1340 0008 FFF7FEFF 		bl	pwmStop
 1341              	.LVL89:
 1342              	.LBE668:
 1343              	.LBE669:
 1344              		.loc 1 628 0
 1345 000c 6368     		ldr	r3, [r4, #4]
 1346 000e 1868     		ldr	r0, [r3]
 1347 0010 FFF7FEFF 		bl	pwmStop
 1348              	.LVL90:
 1349              		.loc 1 630 0
 1350 0014 2378     		ldrb	r3, [r4]	@ zero_extendqisi2
 1351 0016 0121     		movs	r1, #1
 1352              		.loc 1 629 0
 1353 0018 0022     		movs	r2, #0
 1354              		.loc 1 630 0
 1355 001a 61F34203 		bfi	r3, r1, #1, #2
 1356              		.loc 1 629 0
 1357 001e 6260     		str	r2, [r4, #4]
 1358              		.loc 1 630 0
 1359 0020 2370     		strb	r3, [r4]
ARM GAS  /tmp/cczUYEXc.s 			page 25


 1360 0022 10BD     		pop	{r4, pc}
 1361              		.cfi_endproc
 1362              	.LFE290:
 1363              		.size	onewireStop, .-onewireStop
 1364 0024 AFF30080 		.section	.text.onewireReset,"ax",%progbits
 1364      AFF30080 
 1364      AFF30080 
 1365              		.align	2
 1366              		.p2align 4,,15
 1367              		.global	onewireReset
 1368              		.thumb
 1369              		.thumb_func
 1370              		.type	onewireReset, %function
 1371              	onewireReset:
 1372              	.LFB291:
 1373              		.loc 1 641 0
 1374              		.cfi_startproc
 1375              		@ args = 0, pretend = 0, frame = 0
 1376              		@ frame_needed = 0, uses_anonymous_args = 0
 1377              	.LVL91:
 1378 0000 2DE9F843 		push	{r3, r4, r5, r6, r7, r8, r9, lr}
 1379              		.cfi_def_cfa_offset 32
 1380              		.cfi_offset 3, -32
 1381              		.cfi_offset 4, -28
 1382              		.cfi_offset 5, -24
 1383              		.cfi_offset 6, -20
 1384              		.cfi_offset 7, -16
 1385              		.cfi_offset 8, -12
 1386              		.cfi_offset 9, -8
 1387              		.cfi_offset 14, -4
 1388              		.loc 1 641 0
 1389 0004 4368     		ldr	r3, [r0, #4]
 1390              	.LVL92:
 1391              	.LBB670:
 1392              	.LBB671:
 1393              		.loc 1 180 0
 1394 0006 5969     		ldr	r1, [r3, #20]
 1395 0008 9A69     		ldr	r2, [r3, #24]
 1396              	.LBE671:
 1397              	.LBE670:
 1398              		.loc 1 641 0
 1399 000a 0446     		mov	r4, r0
 1400              	.LBB673:
 1401              	.LBB672:
 1402              		.loc 1 180 0
 1403 000c 0869     		ldr	r0, [r1, #16]
 1404              	.LVL93:
 1405 000e D040     		lsrs	r0, r0, r2
 1406              	.LBE672:
 1407              	.LBE673:
 1408              		.loc 1 650 0
 1409 0010 10F00100 		ands	r0, r0, #1
 1410 0014 01D1     		bne	.L60
 1411              	.L56:
 1412              		.loc 1 680 0
 1413 0016 BDE8F883 		pop	{r3, r4, r5, r6, r7, r8, r9, pc}
 1414              	.LVL94:
ARM GAS  /tmp/cczUYEXc.s 			page 26


 1415              	.L60:
 1416              		.loc 1 654 0
 1417 001a 5A68     		ldr	r2, [r3, #4]
 1418              		.loc 1 655 0
 1419 001c DF68     		ldr	r7, [r3, #12]
 1420              		.loc 1 656 0
 1421 001e 1E69     		ldr	r6, [r3, #16]
 1422              		.loc 1 662 0
 1423 0020 D3F80880 		ldr	r8, [r3, #8]
 1424              		.loc 1 653 0
 1425 0024 1D68     		ldr	r5, [r3]
 1426              	.LVL95:
 1427 0026 02EBC700 		add	r0, r2, r7, lsl #3
 1428 002a 02EBC601 		add	r1, r2, r6, lsl #3
 1429              		.loc 1 663 0
 1430 002e 40F20003 		movw	r3, #:lower16:pwm_reset_cb
 1431              		.loc 1 660 0
 1432 0032 4FF0000E 		mov	lr, #0
 1433              		.loc 1 664 0
 1434 0036 4FF0020C 		mov	ip, #2
 1435              		.loc 1 659 0
 1436 003a 40F20649 		movw	r9, #1030
 1437              		.loc 1 663 0
 1438 003e C0F20003 		movt	r3, #:upper16:pwm_reset_cb
 1439              		.loc 1 659 0
 1440 0042 C2F80490 		str	r9, [r2, #4]
 1441              		.loc 1 660 0
 1442 0046 C2F808E0 		str	lr, [r2, #8]
 1443              		.loc 1 662 0
 1444 004a C0F80C80 		str	r8, [r0, #12]
 1445              		.loc 1 661 0
 1446 004e C0F810E0 		str	lr, [r0, #16]
 1447              		.loc 1 664 0
 1448 0052 C1F80CC0 		str	ip, [r1, #12]
 1449              		.loc 1 663 0
 1450 0056 0B61     		str	r3, [r1, #16]
 1451              		.loc 1 641 0
 1452 0058 6368     		ldr	r3, [r4, #4]
 1453              	.LVL96:
 1454              	.LBB674:
 1455              	.LBB675:
 1456              		.loc 1 164 0
 1457 005a 93E80300 		ldmia	r3, {r0, r1}
 1458 005e FFF7FEFF 		bl	pwmStart
 1459              	.LVL97:
 1460              	.LBE675:
 1461              	.LBE674:
 1462              	.LBB676:
 1463              	.LBB677:
 1464              	.LBB678:
 1465              	.LBB679:
 1466              	.LBB680:
 1467              		.loc 2 264 0
 1468 0062 2023     		movs	r3, #32
 1469              	@ 264 "../../../../../ChibiOS-RT/os/common/ext/CMSIS/include/cmsis_gcc.h" 1
 1470 0064 83F31188 		MSR basepri, r3
 1471              	@ 0 "" 2
ARM GAS  /tmp/cczUYEXc.s 			page 27


 1472              		.thumb
 1473              	.LBE680:
 1474              	.LBE679:
 1475              	.LBE678:
 1476              	.LBE677:
 1477              	.LBE676:
 1478              		.loc 1 669 0
 1479 0068 4FF00108 		mov	r8, #1
 1480 006c EB68     		ldr	r3, [r5, #12]
 1481 006e 08FA07F2 		lsl	r2, r8, r7
 1482 0072 1343     		orrs	r3, r3, r2
 1483 0074 EB60     		str	r3, [r5, #12]
 1484 0076 F9B2     		uxtb	r1, r7
 1485 0078 2846     		mov	r0, r5
 1486 007a 4FF4F072 		mov	r2, #480
 1487 007e FFF7FEFF 		bl	pwm_lld_enable_channel
 1488              	.LVL98:
 1489              		.loc 1 670 0
 1490 0082 EB68     		ldr	r3, [r5, #12]
 1491 0084 08FA06F8 		lsl	r8, r8, r6
 1492 0088 43EA0803 		orr	r3, r3, r8
 1493 008c F6B2     		uxtb	r6, r6
 1494              	.LVL99:
 1495 008e EB60     		str	r3, [r5, #12]
 1496 0090 40F22622 		movw	r2, #550
 1497 0094 3146     		mov	r1, r6
 1498 0096 2846     		mov	r0, r5
 1499 0098 FFF7FEFF 		bl	pwm_lld_enable_channel
 1500              	.LVL100:
 1501              		.loc 1 671 0
 1502 009c 2846     		mov	r0, r5
 1503 009e 3146     		mov	r1, r6
 1504 00a0 FFF7FEFF 		bl	pwm_lld_enable_channel_notification
 1505              	.LVL101:
 1506              	.LBB681:
 1507              	.LBB682:
 1508              		.loc 3 688 0
 1509 00a4 04F12000 		add	r0, r4, #32
 1510              	.LVL102:
 1511 00a8 FFF7FEFF 		bl	chThdSuspendS
 1512              	.LVL103:
 1513              	.LBE682:
 1514              	.LBE681:
 1515              	.LBB683:
 1516              	.LBB684:
 1517              	.LBB685:
 1518              	.LBB686:
 1519              	.LBB687:
 1520              	.LBB688:
 1521              		.loc 2 264 0
 1522 00ac 0023     		movs	r3, #0
 1523              	@ 264 "../../../../../ChibiOS-RT/os/common/ext/CMSIS/include/cmsis_gcc.h" 1
 1524 00ae 83F31188 		MSR basepri, r3
 1525              	@ 0 "" 2
 1526              	.LVL104:
 1527              		.thumb
 1528              	.LBE688:
ARM GAS  /tmp/cczUYEXc.s 			page 28


 1529              	.LBE687:
 1530              	.LBE686:
 1531              	.LBE685:
 1532              	.LBE684:
 1533              	.LBE683:
 1534              	.LBB689:
 1535              	.LBB690:
 1536              		.loc 1 157 0
 1537 00b2 6368     		ldr	r3, [r4, #4]
 1538 00b4 1868     		ldr	r0, [r3]
 1539 00b6 FFF7FEFF 		bl	pwmStop
 1540              	.LVL105:
 1541              	.LBE690:
 1542              	.LBE689:
 1543              	.LBB691:
 1544              	.LBB692:
 1545              		.loc 3 673 0
 1546 00ba 0520     		movs	r0, #5
 1547 00bc FFF7FEFF 		bl	chThdSleep
 1548              	.LVL106:
 1549              	.LBE692:
 1550              	.LBE691:
 1551              		.loc 1 641 0
 1552 00c0 6368     		ldr	r3, [r4, #4]
 1553              	.LVL107:
 1554              	.LBB693:
 1555              	.LBB694:
 1556              		.loc 1 180 0
 1557 00c2 5A69     		ldr	r2, [r3, #20]
 1558 00c4 9B69     		ldr	r3, [r3, #24]
 1559 00c6 1269     		ldr	r2, [r2, #16]
 1560 00c8 22FA03F3 		lsr	r3, r2, r3
 1561              	.LBE694:
 1562              	.LBE693:
 1563              		.loc 1 679 0
 1564 00cc DB07     		lsls	r3, r3, #31
 1565 00ce 58BF     		it	pl
 1566 00d0 0020     		movpl	r0, #0
 1567 00d2 A0D5     		bpl	.L56
 1568              		.loc 1 679 0 is_stmt 0 discriminator 1
 1569 00d4 2078     		ldrb	r0, [r4]	@ zero_extendqisi2
 1570 00d6 00F00100 		and	r0, r0, #1
 1571 00da BDE8F883 		pop	{r3, r4, r5, r6, r7, r8, r9, pc}
 1572              		.cfi_endproc
 1573              	.LFE291:
 1574              		.size	onewireReset, .-onewireReset
 1575              		.section	.text.onewireRead,"ax",%progbits
 1576              		.align	2
 1577              		.p2align 4,,15
 1578              		.global	onewireRead
 1579              		.thumb
 1580              		.thumb_func
 1581              		.type	onewireRead, %function
 1582              	onewireRead:
 1583              	.LFB292:
 1584              		.loc 1 689 0 is_stmt 1
 1585              		.cfi_startproc
ARM GAS  /tmp/cczUYEXc.s 			page 29


 1586              		@ args = 0, pretend = 0, frame = 0
 1587              		@ frame_needed = 0, uses_anonymous_args = 0
 1588              	.LVL108:
 1589 0000 2DE9F84F 		push	{r3, r4, r5, r6, r7, r8, r9, r10, fp, lr}
 1590              		.cfi_def_cfa_offset 40
 1591              		.cfi_offset 3, -40
 1592              		.cfi_offset 4, -36
 1593              		.cfi_offset 5, -32
 1594              		.cfi_offset 6, -28
 1595              		.cfi_offset 7, -24
 1596              		.cfi_offset 8, -20
 1597              		.cfi_offset 9, -16
 1598              		.cfi_offset 10, -12
 1599              		.cfi_offset 11, -8
 1600              		.cfi_offset 14, -4
 1601              		.loc 1 689 0
 1602 0004 0446     		mov	r4, r0
 1603 0006 8946     		mov	r9, r1
 1604              		.loc 1 700 0
 1605 0008 0846     		mov	r0, r1
 1606              	.LVL109:
 1607 000a 0021     		movs	r1, #0
 1608              	.LVL110:
 1609              		.loc 1 689 0
 1610 000c 9246     		mov	r10, r2
 1611              		.loc 1 700 0
 1612 000e FFF7FEFF 		bl	memset
 1613              	.LVL111:
 1614              		.loc 1 702 0
 1615 0012 6368     		ldr	r3, [r4, #4]
 1616              		.loc 1 707 0
 1617 0014 94F800E0 		ldrb	lr, [r4]	@ zero_extendqisi2
 1618              		.loc 1 703 0
 1619 0018 5E68     		ldr	r6, [r3, #4]
 1620              		.loc 1 704 0
 1621 001a D3F80C80 		ldr	r8, [r3, #12]
 1622              		.loc 1 705 0
 1623 001e 1F69     		ldr	r7, [r3, #16]
 1624              		.loc 1 715 0
 1625 0020 D3F808C0 		ldr	ip, [r3, #8]
 1626              		.loc 1 702 0
 1627 0024 1D68     		ldr	r5, [r3]
 1628              	.LVL112:
 1629              		.loc 1 709 0
 1630 0026 C4F80890 		str	r9, [r4, #8]
 1631 002a 06EBC802 		add	r2, r6, r8, lsl #3
 1632 002e 06EBC701 		add	r1, r6, r7, lsl #3
 1633              		.loc 1 708 0
 1634 0032 0EF0870E 		and	lr, lr, #135
 1635              		.loc 1 716 0
 1636 0036 40F20003 		movw	r3, #:lower16:pwm_read_bit_cb
 1637              		.loc 1 708 0
 1638 003a 6FF3C71E 		bfc	lr, #7, #1
 1639              		.loc 1 713 0
 1640 003e 0020     		movs	r0, #0
 1641              		.loc 1 712 0
 1642 0040 4FF0460B 		mov	fp, #70
ARM GAS  /tmp/cczUYEXc.s 			page 30


 1643              		.loc 1 716 0
 1644 0044 C0F20003 		movt	r3, #:upper16:pwm_read_bit_cb
 1645              		.loc 1 717 0
 1646 0048 4FF00209 		mov	r9, #2
 1647              	.LVL113:
 1648              		.loc 1 708 0
 1649 004c 84F800E0 		strb	lr, [r4]
 1650              		.loc 1 710 0
 1651 0050 A4F801A0 		strh	r10, [r4, #1]	@ unaligned
 1652              		.loc 1 713 0
 1653 0054 B060     		str	r0, [r6, #8]
 1654              		.loc 1 712 0
 1655 0056 C6F804B0 		str	fp, [r6, #4]
 1656              		.loc 1 714 0
 1657 005a 1061     		str	r0, [r2, #16]
 1658              	.LVL114:
 1659              		.loc 1 715 0
 1660 005c C2F80CC0 		str	ip, [r2, #12]
 1661              		.loc 1 717 0
 1662 0060 C1F80C90 		str	r9, [r1, #12]
 1663              		.loc 1 716 0
 1664 0064 0B61     		str	r3, [r1, #16]
 1665              		.loc 1 689 0
 1666 0066 6368     		ldr	r3, [r4, #4]
 1667              	.LVL115:
 1668              	.LBB695:
 1669              	.LBB696:
 1670              		.loc 1 164 0
 1671 0068 93E80300 		ldmia	r3, {r0, r1}
 1672 006c FFF7FEFF 		bl	pwmStart
 1673              	.LVL116:
 1674              	.LBE696:
 1675              	.LBE695:
 1676              	.LBB697:
 1677              	.LBB698:
 1678              	.LBB699:
 1679              	.LBB700:
 1680              	.LBB701:
 1681              		.loc 2 264 0
 1682 0070 2023     		movs	r3, #32
 1683              	@ 264 "../../../../../ChibiOS-RT/os/common/ext/CMSIS/include/cmsis_gcc.h" 1
 1684 0072 83F31188 		MSR basepri, r3
 1685              	@ 0 "" 2
 1686              		.thumb
 1687              	.LBE701:
 1688              	.LBE700:
 1689              	.LBE699:
 1690              	.LBE698:
 1691              	.LBE697:
 1692              		.loc 1 721 0
 1693 0076 0126     		movs	r6, #1
 1694              	.LVL117:
 1695 0078 EB68     		ldr	r3, [r5, #12]
 1696 007a 06FA08F2 		lsl	r2, r6, r8
 1697 007e 1343     		orrs	r3, r3, r2
 1698 0080 EB60     		str	r3, [r5, #12]
 1699 0082 5FFA88F1 		uxtb	r1, r8
ARM GAS  /tmp/cczUYEXc.s 			page 31


 1700 0086 2846     		mov	r0, r5
 1701 0088 0622     		movs	r2, #6
 1702 008a FFF7FEFF 		bl	pwm_lld_enable_channel
 1703              	.LVL118:
 1704              		.loc 1 722 0
 1705 008e EB68     		ldr	r3, [r5, #12]
 1706 0090 BE40     		lsls	r6, r6, r7
 1707 0092 3343     		orrs	r3, r3, r6
 1708 0094 FFB2     		uxtb	r7, r7
 1709              	.LVL119:
 1710 0096 EB60     		str	r3, [r5, #12]
 1711 0098 0F22     		movs	r2, #15
 1712 009a 3946     		mov	r1, r7
 1713 009c 2846     		mov	r0, r5
 1714 009e FFF7FEFF 		bl	pwm_lld_enable_channel
 1715              	.LVL120:
 1716              		.loc 1 723 0
 1717 00a2 2846     		mov	r0, r5
 1718 00a4 3946     		mov	r1, r7
 1719 00a6 FFF7FEFF 		bl	pwm_lld_enable_channel_notification
 1720              	.LVL121:
 1721              	.LBB702:
 1722              	.LBB703:
 1723              		.loc 3 688 0
 1724 00aa 04F12000 		add	r0, r4, #32
 1725              	.LVL122:
 1726 00ae FFF7FEFF 		bl	chThdSuspendS
 1727              	.LVL123:
 1728              	.LBE703:
 1729              	.LBE702:
 1730              	.LBB704:
 1731              	.LBB705:
 1732              	.LBB706:
 1733              	.LBB707:
 1734              	.LBB708:
 1735              	.LBB709:
 1736              		.loc 2 264 0
 1737 00b2 0023     		movs	r3, #0
 1738              	@ 264 "../../../../../ChibiOS-RT/os/common/ext/CMSIS/include/cmsis_gcc.h" 1
 1739 00b4 83F31188 		MSR basepri, r3
 1740              	@ 0 "" 2
 1741              	.LVL124:
 1742              		.thumb
 1743              	.LBE709:
 1744              	.LBE708:
 1745              	.LBE707:
 1746              	.LBE706:
 1747              	.LBE705:
 1748              	.LBE704:
 1749              	.LBB710:
 1750              	.LBB711:
 1751              		.loc 1 157 0
 1752 00b8 6368     		ldr	r3, [r4, #4]
 1753 00ba 1868     		ldr	r0, [r3]
 1754              	.LBE711:
 1755              	.LBE710:
 1756              		.loc 1 728 0
ARM GAS  /tmp/cczUYEXc.s 			page 32


 1757 00bc BDE8F84F 		pop	{r3, r4, r5, r6, r7, r8, r9, r10, fp, lr}
 1758              	.LVL125:
 1759              	.LBB713:
 1760              	.LBB712:
 1761              		.loc 1 157 0
 1762 00c0 FFF7FEBF 		b	pwmStop
 1763              	.LVL126:
 1764              	.LBE712:
 1765              	.LBE713:
 1766              		.cfi_endproc
 1767              	.LFE292:
 1768              		.size	onewireRead, .-onewireRead
 1769 00c4 AFF30080 		.section	.text.onewireWrite,"ax",%progbits
 1769      AFF30080 
 1769      AFF30080 
 1770              		.align	2
 1771              		.p2align 4,,15
 1772              		.global	onewireWrite
 1773              		.thumb
 1774              		.thumb_func
 1775              		.type	onewireWrite, %function
 1776              	onewireWrite:
 1777              	.LFB293:
 1778              		.loc 1 740 0
 1779              		.cfi_startproc
 1780              		@ args = 0, pretend = 0, frame = 0
 1781              		@ frame_needed = 0, uses_anonymous_args = 0
 1782              	.LVL127:
 1783              		.loc 1 753 0
 1784 0000 4368     		ldr	r3, [r0, #4]
 1785              	.LVL128:
 1786              		.loc 1 740 0
 1787 0002 2DE9F041 		push	{r4, r5, r6, r7, r8, lr}
 1788              		.cfi_def_cfa_offset 24
 1789              		.cfi_offset 4, -24
 1790              		.cfi_offset 5, -20
 1791              		.cfi_offset 6, -16
 1792              		.cfi_offset 7, -12
 1793              		.cfi_offset 8, -8
 1794              		.cfi_offset 14, -4
 1795              		.loc 1 754 0
 1796 0006 5D68     		ldr	r5, [r3, #4]
 1797              		.loc 1 756 0
 1798 0008 D3F81080 		ldr	r8, [r3, #16]
 1799              		.loc 1 759 0
 1800 000c 90F800E0 		ldrb	lr, [r0]	@ zero_extendqisi2
 1801              		.loc 1 766 0
 1802 0010 D3F808C0 		ldr	ip, [r3, #8]
 1803              		.loc 1 753 0
 1804 0014 1F68     		ldr	r7, [r3]
 1805              	.LVL129:
 1806              		.loc 1 740 0
 1807 0016 0446     		mov	r4, r0
 1808              		.loc 1 755 0
 1809 0018 D868     		ldr	r0, [r3, #12]
 1810              	.LVL130:
 1811              		.loc 1 758 0
ARM GAS  /tmp/cczUYEXc.s 			page 33


 1812 001a A160     		str	r1, [r4, #8]
 1813 001c 05EBC000 		add	r0, r5, r0, lsl #3
 1814              	.LVL131:
 1815 0020 05EBC801 		add	r1, r5, r8, lsl #3
 1816              	.LVL132:
 1817              		.loc 1 764 0
 1818 0024 40F20006 		movw	r6, #:lower16:pwm_write_bit_cb
 1819              		.loc 1 760 0
 1820 0028 0EF0870E 		and	lr, lr, #135
 1821              		.loc 1 765 0
 1822 002c 0023     		movs	r3, #0
 1823              	.LVL133:
 1824              		.loc 1 760 0
 1825 002e 6FF3C71E 		bfc	lr, #7, #1
 1826              		.loc 1 763 0
 1827 0032 4FF04608 		mov	r8, #70
 1828              	.LVL134:
 1829              		.loc 1 764 0
 1830 0036 C0F20006 		movt	r6, #:upper16:pwm_write_bit_cb
 1831              		.loc 1 761 0
 1832 003a A4F80120 		strh	r2, [r4, #1]	@ unaligned
 1833              		.loc 1 760 0
 1834 003e 84F800E0 		strb	lr, [r4]
 1835              		.loc 1 763 0
 1836 0042 C5F80480 		str	r8, [r5, #4]
 1837              		.loc 1 764 0
 1838 0046 AE60     		str	r6, [r5, #8]
 1839              		.loc 1 766 0
 1840 0048 C0F80CC0 		str	ip, [r0, #12]
 1841              	.LVL135:
 1842              		.loc 1 765 0
 1843 004c 0361     		str	r3, [r0, #16]
 1844              		.loc 1 767 0
 1845 004e 0B61     		str	r3, [r1, #16]
 1846              		.loc 1 768 0
 1847 0050 CB60     		str	r3, [r1, #12]
 1848              		.loc 1 739 0
 1849 0052 6368     		ldr	r3, [r4, #4]
 1850              	.LVL136:
 1851              	.LBB714:
 1852              	.LBB715:
 1853              		.loc 1 164 0
 1854 0054 93E80300 		ldmia	r3, {r0, r1}
 1855 0058 FFF7FEFF 		bl	pwmStart
 1856              	.LVL137:
 1857              	.LBE715:
 1858              	.LBE714:
 1859              	.LBB716:
 1860              	.LBB717:
 1861              	.LBB718:
 1862              	.LBB719:
 1863              	.LBB720:
 1864              		.loc 2 264 0
 1865 005c 2023     		movs	r3, #32
 1866              	@ 264 "../../../../../ChibiOS-RT/os/common/ext/CMSIS/include/cmsis_gcc.h" 1
 1867 005e 83F31188 		MSR basepri, r3
 1868              	@ 0 "" 2
ARM GAS  /tmp/cczUYEXc.s 			page 34


 1869              		.thumb
 1870              	.LBE720:
 1871              	.LBE719:
 1872              	.LBE718:
 1873              	.LBE717:
 1874              	.LBE716:
 1875              		.loc 1 779 0
 1876 0062 3846     		mov	r0, r7
 1877 0064 FFF7FEFF 		bl	pwm_lld_enable_periodic_notification
 1878              	.LVL138:
 1879              	.LBB721:
 1880              	.LBB722:
 1881              		.loc 3 688 0
 1882 0068 04F12000 		add	r0, r4, #32
 1883              	.LVL139:
 1884 006c FFF7FEFF 		bl	chThdSuspendS
 1885              	.LVL140:
 1886              	.LBE722:
 1887              	.LBE721:
 1888              	.LBB723:
 1889              	.LBB724:
 1890              	.LBB725:
 1891              	.LBB726:
 1892              	.LBB727:
 1893              	.LBB728:
 1894              		.loc 2 264 0
 1895 0070 0023     		movs	r3, #0
 1896              	@ 264 "../../../../../ChibiOS-RT/os/common/ext/CMSIS/include/cmsis_gcc.h" 1
 1897 0072 83F31188 		MSR basepri, r3
 1898              	@ 0 "" 2
 1899              		.thumb
 1900              	.LBE728:
 1901              	.LBE727:
 1902              	.LBE726:
 1903              	.LBE725:
 1904              	.LBE724:
 1905              	.LBE723:
 1906              		.loc 1 783 0
 1907 0076 3846     		mov	r0, r7
 1908 0078 FFF7FEFF 		bl	pwmDisablePeriodicNotification
 1909              	.LVL141:
 1910              	.LBB729:
 1911              	.LBB730:
 1912              		.loc 1 157 0
 1913 007c 6368     		ldr	r3, [r4, #4]
 1914              	.LBE730:
 1915              	.LBE729:
 1916              		.loc 1 793 0
 1917 007e BDE8F041 		pop	{r4, r5, r6, r7, r8, lr}
 1918              	.LVL142:
 1919              	.LBB732:
 1920              	.LBB731:
 1921              		.loc 1 157 0
 1922 0082 1868     		ldr	r0, [r3]
 1923 0084 FFF7FEBF 		b	pwmStop
 1924              	.LVL143:
 1925              	.LBE731:
ARM GAS  /tmp/cczUYEXc.s 			page 35


 1926              	.LBE732:
 1927              		.cfi_endproc
 1928              	.LFE293:
 1929              		.size	onewireWrite, .-onewireWrite
 1930 0088 AFF30080 		.section	.text.onewireSearchRom,"ax",%progbits
 1930      AFF30080 
 1931              		.align	2
 1932              		.p2align 4,,15
 1933              		.global	onewireSearchRom
 1934              		.thumb
 1935              		.thumb_func
 1936              		.type	onewireSearchRom, %function
 1937              	onewireSearchRom:
 1938              	.LFB294:
 1939              		.loc 1 809 0
 1940              		.cfi_startproc
 1941              		@ args = 0, pretend = 0, frame = 48
 1942              		@ frame_needed = 0, uses_anonymous_args = 0
 1943              	.LVL144:
 1944 0000 2DE9F04F 		push	{r4, r5, r6, r7, r8, r9, r10, fp, lr}
 1945              		.cfi_def_cfa_offset 36
 1946              		.cfi_offset 4, -36
 1947              		.cfi_offset 5, -32
 1948              		.cfi_offset 6, -28
 1949              		.cfi_offset 7, -24
 1950              		.cfi_offset 8, -20
 1951              		.cfi_offset 9, -16
 1952              		.cfi_offset 10, -12
 1953              		.cfi_offset 11, -8
 1954              		.cfi_offset 14, -4
 1955 0004 0446     		mov	r4, r0
 1956 0006 8DB0     		sub	sp, sp, #52
 1957              		.cfi_def_cfa_offset 88
 1958              		.loc 1 819 0
 1959 0008 6368     		ldr	r3, [r4, #4]
 1960              	.LBB756:
 1961              	.LBB757:
 1962              		.loc 1 508 0
 1963 000a 257B     		ldrb	r5, [r4, #12]	@ zero_extendqisi2
 1964              	.LBE757:
 1965              	.LBE756:
 1966              		.loc 1 819 0
 1967 000c 1E68     		ldr	r6, [r3]
 1968              		.loc 1 820 0
 1969 000e 5F68     		ldr	r7, [r3, #4]
 1970              		.loc 1 819 0
 1971 0010 0196     		str	r6, [sp, #4]
 1972              	.LVL145:
 1973              	.LBB770:
 1974              	.LBB758:
 1975              		.loc 1 509 0
 1976 0012 0120     		movs	r0, #1
 1977              	.LVL146:
 1978 0014 0543     		orrs	r5, r5, r0
 1979              	.LBE758:
 1980              	.LBE770:
 1981              		.loc 1 822 0
ARM GAS  /tmp/cczUYEXc.s 			page 36


 1982 0016 DE68     		ldr	r6, [r3, #12]
 1983              	.LVL147:
 1984              		.loc 1 823 0
 1985 0018 D3F81080 		ldr	r8, [r3, #16]
 1986              		.loc 1 822 0
 1987 001c 0396     		str	r6, [sp, #12]
 1988              	.LVL148:
 1989              	.LBB771:
 1990              	.LBB759:
 1991              		.loc 1 509 0
 1992 001e 60F38305 		bfi	r5, r0, #2, #2
 1993              		.loc 1 510 0
 1994 0022 6FF34105 		bfc	r5, #1, #1
 1995 0026 2573     		strb	r5, [r4, #12]
 1996              		.loc 1 512 0
 1997 0028 E368     		ldr	r3, [r4, #12]
 1998              	.LVL149:
 1999              	.LBE759:
 2000              	.LBE771:
 2001              		.loc 1 809 0
 2002 002a 0991     		str	r1, [sp, #36]
 2003              	.LBB772:
 2004              	.LBB760:
 2005              		.loc 1 511 0
 2006 002c 0025     		movs	r5, #0
 2007              		.loc 1 512 0
 2008 002e 65F3D633 		bfi	r3, r5, #15, #8
 2009              	.LBE760:
 2010              	.LBE772:
 2011              		.loc 1 850 0
 2012 0032 40F20006 		movw	r6, #:lower16:pwm_search_rom_cb
 2013              	.LVL150:
 2014              		.loc 1 809 0
 2015 0036 0592     		str	r2, [sp, #20]
 2016              		.loc 1 850 0
 2017 0038 0496     		str	r6, [sp, #16]
 2018              	.LBB773:
 2019              	.LBB761:
 2020              		.loc 1 512 0
 2021 003a E360     		str	r3, [r4, #12]
 2022              	.LVL151:
 2023              	.LBE761:
 2024              	.LBE773:
 2025              		.loc 1 855 0
 2026 003c 039E     		ldr	r6, [sp, #12]
 2027              	.LBB774:
 2028              	.LBB762:
 2029              		.loc 1 511 0
 2030 003e 2561     		str	r5, [r4, #16]
 2031              	.LBE762:
 2032              	.LBE774:
 2033              		.loc 1 855 0
 2034 0040 00FA06F6 		lsl	r6, r0, r6
 2035 0044 0696     		str	r6, [sp, #24]
 2036 0046 039E     		ldr	r6, [sp, #12]
 2037              	.LBB775:
 2038              	.LBB763:
ARM GAS  /tmp/cczUYEXc.s 			page 37


 2039              		.loc 1 513 0
 2040 0048 2575     		strb	r5, [r4, #20]
 2041              	.LBE763:
 2042              	.LBE775:
 2043              		.loc 1 834 0
 2044 004a 02F10052 		add	r2, r2, #536870912
 2045              	.LVL152:
 2046 004e 07EBC609 		add	r9, r7, r6, lsl #3
 2047 0052 099E     		ldr	r6, [sp, #36]
 2048              	.LBB776:
 2049              	.LBB764:
 2050              		.loc 1 513 0
 2051 0054 6575     		strb	r5, [r4, #21]
 2052              		.loc 1 515 0
 2053 0056 4FEA132C 		lsr	ip, r3, #8
 2054              		.loc 1 517 0
 2055 005a 03F0CF0E 		and	lr, r3, #207
 2056              	.LBE764:
 2057              	.LBE776:
 2058              		.loc 1 834 0
 2059 005e 013A     		subs	r2, r2, #1
 2060              	.LVL153:
 2061              	.LBB777:
 2062              	.LBB765:
 2063              		.loc 1 518 0
 2064 0060 FF21     		movs	r1, #255
 2065              	.LVL154:
 2066              	.LBE765:
 2067              	.LBE777:
 2068              		.loc 1 834 0
 2069 0062 06EBC202 		add	r2, r6, r2, lsl #3
 2070              	.LVL155:
 2071              	.LBB778:
 2072              	.LBB766:
 2073              		.loc 1 515 0
 2074 0066 65F3060C 		bfi	ip, r5, #0, #7
 2075              		.loc 1 513 0
 2076 006a 04F11406 		add	r6, r4, #20
 2077              		.loc 1 517 0
 2078 006e 65F3871E 		bfi	lr, r5, #6, #2
 2079              	.LBE766:
 2080              	.LBE778:
 2081              		.loc 1 856 0
 2082 0072 00FA08F0 		lsl	r0, r0, r8
 2083              	.LBB779:
 2084              	.LBB767:
 2085              		.loc 1 513 0
 2086 0076 0296     		str	r6, [sp, #8]
 2087 0078 A575     		strb	r5, [r4, #22]
 2088 007a E575     		strb	r5, [r4, #23]
 2089 007c 2576     		strb	r5, [r4, #24]
 2090 007e 6576     		strb	r5, [r4, #25]
 2091 0080 A576     		strb	r5, [r4, #26]
 2092 0082 E576     		strb	r5, [r4, #27]
 2093              		.loc 1 515 0
 2094 0084 84F80DC0 		strb	ip, [r4, #13]
 2095              		.loc 1 517 0
ARM GAS  /tmp/cczUYEXc.s 			page 38


 2096 0088 84F80CE0 		strb	lr, [r4, #12]
 2097              	.LBE767:
 2098              	.LBE779:
 2099              		.loc 1 856 0
 2100 008c 0790     		str	r0, [sp, #28]
 2101              		.loc 1 834 0
 2102 008e 0892     		str	r2, [sp, #32]
 2103              	.LBB780:
 2104              	.LBB768:
 2105              		.loc 1 518 0
 2106 0090 2177     		strb	r1, [r4, #28]
 2107              	.LBE768:
 2108              	.LBE780:
 2109              		.loc 1 850 0
 2110 0092 049E     		ldr	r6, [sp, #16]
 2111              	.LBB781:
 2112              	.LBB769:
 2113              		.loc 1 519 0
 2114 0094 6177     		strb	r1, [r4, #29]
 2115              	.LBE769:
 2116              	.LBE781:
 2117              		.loc 1 850 0
 2118 0096 C0F20006 		movt	r6, #:upper16:pwm_search_rom_cb
 2119              		.loc 1 821 0
 2120 009a 4FF0F00A 		mov	r10, #240
 2121 009e 40F2000B 		movw	fp, #:lower16:.LANCHOR1
 2122              		.loc 1 850 0
 2123 00a2 0496     		str	r6, [sp, #16]
 2124 00a4 019E     		ldr	r6, [sp, #4]
 2125              		.loc 1 821 0
 2126 00a6 8DF82FA0 		strb	r10, [sp, #47]
 2127 00aa C0F2000B 		movt	fp, #:upper16:.LANCHOR1
 2128              	.L72:
 2129              		.loc 1 829 0
 2130 00ae 2046     		mov	r0, r4
 2131 00b0 FFF7FEFF 		bl	onewireReset
 2132              	.LVL156:
 2133 00b4 0028     		cmp	r0, #0
 2134 00b6 00F09480 		beq	.L68
 2135              		.loc 1 833 0
 2136 00ba E168     		ldr	r1, [r4, #12]
 2137 00bc 059A     		ldr	r2, [sp, #20]
 2138 00be C1F3C731 		ubfx	r1, r1, #15, #8
 2139 00c2 9142     		cmp	r1, r2
 2140              		.loc 1 834 0
 2141 00c4 2BBF     		itete	cs
 2142 00c6 089B     		ldrcs	r3, [sp, #32]
 2143              		.loc 1 836 0
 2144 00c8 099A     		ldrcc	r2, [sp, #36]
 2145              		.loc 1 834 0
 2146 00ca 2361     		strcs	r3, [r4, #16]
 2147              		.loc 1 836 0
 2148 00cc 02EBC101 		addcc	r1, r2, r1, lsl #3
 2149 00d0 28BF     		it	cs
 2150 00d2 1946     		movcs	r1, r3
 2151              		.loc 1 837 0
 2152 00d4 0B46     		mov	r3, r1
ARM GAS  /tmp/cczUYEXc.s 			page 39


 2153              		.loc 1 836 0
 2154 00d6 38BF     		it	cc
 2155 00d8 2161     		strcc	r1, [r4, #16]
 2156              		.loc 1 837 0
 2157 00da 03F8015B 		strb	r5, [r3], #1
 2158              	.LBB782:
 2159              	.LBB783:
 2160              		.loc 1 532 0
 2161 00de 0122     		movs	r2, #1
 2162              	.LBE783:
 2163              	.LBE782:
 2164              		.loc 1 837 0
 2165 00e0 1344     		add	r3, r3, r2
 2166 00e2 4D70     		strb	r5, [r1, #1]
 2167 00e4 03F8015B 		strb	r5, [r3], #1
 2168 00e8 03F8015B 		strb	r5, [r3], #1
 2169 00ec 03F8015B 		strb	r5, [r3], #1
 2170 00f0 03F8015B 		strb	r5, [r3], #1
 2171 00f4 03F8015B 		strb	r5, [r3], #1
 2172 00f8 1D70     		strb	r5, [r3]
 2173              	.LVL157:
 2174              	.LBB786:
 2175              	.LBB784:
 2176              		.loc 1 530 0
 2177 00fa 217B     		ldrb	r1, [r4, #12]	@ zero_extendqisi2
 2178              		.loc 1 529 0
 2179 00fc 637B     		ldrb	r3, [r4, #13]	@ zero_extendqisi2
 2180              		.loc 1 532 0
 2181 00fe 01F00F01 		and	r1, r1, #15
 2182 0102 62F38301 		bfi	r1, r2, #2, #2
 2183              		.loc 1 529 0
 2184 0106 6FF30603 		bfc	r3, #0, #7
 2185              	.LBE784:
 2186              	.LBE786:
 2187              		.loc 1 843 0
 2188 010a 40F20000 		movw	r0, #:lower16:.LANCHOR0
 2189              	.LBB787:
 2190              	.LBB785:
 2191              		.loc 1 532 0
 2192 010e 2173     		strb	r1, [r4, #12]
 2193              		.loc 1 529 0
 2194 0110 6373     		strb	r3, [r4, #13]
 2195              	.LBE785:
 2196              	.LBE787:
 2197              		.loc 1 843 0
 2198 0112 0DF12F01 		add	r1, sp, #47
 2199 0116 C0F20000 		movt	r0, #:upper16:.LANCHOR0
 2200 011a 0023     		movs	r3, #0
 2201 011c FFF7FEFF 		bl	onewireWrite
 2202              	.LVL158:
 2203              		.loc 1 846 0
 2204 0120 4623     		movs	r3, #70
 2205 0122 7B60     		str	r3, [r7, #4]
 2206              		.loc 1 847 0
 2207 0124 BD60     		str	r5, [r7, #8]
 2208              		.loc 1 848 0
 2209 0126 C9F81050 		str	r5, [r9, #16]
ARM GAS  /tmp/cczUYEXc.s 			page 40


 2210              		.loc 1 849 0
 2211 012a 6268     		ldr	r2, [r4, #4]
 2212 012c 9268     		ldr	r2, [r2, #8]
 2213 012e 07EBC803 		add	r3, r7, r8, lsl #3
 2214 0132 C9F80C20 		str	r2, [r9, #12]
 2215              		.loc 1 850 0
 2216 0136 049A     		ldr	r2, [sp, #16]
 2217              		.loc 1 851 0
 2218 0138 0221     		movs	r1, #2
 2219              		.loc 1 850 0
 2220 013a 1A61     		str	r2, [r3, #16]
 2221              		.loc 1 851 0
 2222 013c D960     		str	r1, [r3, #12]
 2223              		.loc 1 808 0
 2224 013e 6368     		ldr	r3, [r4, #4]
 2225              	.LVL159:
 2226              	.LBB788:
 2227              	.LBB789:
 2228              		.loc 1 164 0
 2229 0140 93E80300 		ldmia	r3, {r0, r1}
 2230 0144 FFF7FEFF 		bl	pwmStart
 2231              	.LVL160:
 2232              	.LBE789:
 2233              	.LBE788:
 2234              	.LBB790:
 2235              	.LBB791:
 2236              	.LBB792:
 2237              	.LBB793:
 2238              	.LBB794:
 2239              		.loc 2 264 0
 2240 0148 2023     		movs	r3, #32
 2241              	@ 264 "../../../../../ChibiOS-RT/os/common/ext/CMSIS/include/cmsis_gcc.h" 1
 2242 014a 83F31188 		MSR basepri, r3
 2243              	@ 0 "" 2
 2244              		.thumb
 2245              	.LBE794:
 2246              	.LBE793:
 2247              	.LBE792:
 2248              	.LBE791:
 2249              	.LBE790:
 2250              		.loc 1 855 0
 2251 014e F368     		ldr	r3, [r6, #12]
 2252 0150 0699     		ldr	r1, [sp, #24]
 2253 0152 039A     		ldr	r2, [sp, #12]
 2254 0154 0B43     		orrs	r3, r3, r1
 2255 0156 F360     		str	r3, [r6, #12]
 2256 0158 3046     		mov	r0, r6
 2257 015a D1B2     		uxtb	r1, r2
 2258 015c 0622     		movs	r2, #6
 2259 015e FFF7FEFF 		bl	pwm_lld_enable_channel
 2260              	.LVL161:
 2261              		.loc 1 856 0
 2262 0162 F268     		ldr	r2, [r6, #12]
 2263 0164 0799     		ldr	r1, [sp, #28]
 2264 0166 5FFA88F3 		uxtb	r3, r8
 2265 016a 0A43     		orrs	r2, r2, r1
 2266 016c 9A46     		mov	r10, r3
ARM GAS  /tmp/cczUYEXc.s 			page 41


 2267 016e 1946     		mov	r1, r3
 2268 0170 F260     		str	r2, [r6, #12]
 2269 0172 3046     		mov	r0, r6
 2270 0174 0F22     		movs	r2, #15
 2271 0176 FFF7FEFF 		bl	pwm_lld_enable_channel
 2272              	.LVL162:
 2273              		.loc 1 857 0
 2274 017a 3046     		mov	r0, r6
 2275 017c 5146     		mov	r1, r10
 2276 017e FFF7FEFF 		bl	pwm_lld_enable_channel_notification
 2277              	.LVL163:
 2278              	.LBB795:
 2279              	.LBB796:
 2280              		.loc 3 688 0
 2281 0182 04F12000 		add	r0, r4, #32
 2282              	.LVL164:
 2283 0186 FFF7FEFF 		bl	chThdSuspendS
 2284              	.LVL165:
 2285              	.LBE796:
 2286              	.LBE795:
 2287              	.LBB797:
 2288              	.LBB798:
 2289              	.LBB799:
 2290              	.LBB800:
 2291              	.LBB801:
 2292              	.LBB802:
 2293              		.loc 2 264 0
 2294              	@ 264 "../../../../../ChibiOS-RT/os/common/ext/CMSIS/include/cmsis_gcc.h" 1
 2295 018a 85F31188 		MSR basepri, r5
 2296              	@ 0 "" 2
 2297              	.LVL166:
 2298              		.thumb
 2299              	.LBE802:
 2300              	.LBE801:
 2301              	.LBE800:
 2302              	.LBE799:
 2303              	.LBE798:
 2304              	.LBE797:
 2305              	.LBB803:
 2306              	.LBB804:
 2307              		.loc 1 157 0
 2308 018e 6368     		ldr	r3, [r4, #4]
 2309 0190 1868     		ldr	r0, [r3]
 2310 0192 FFF7FEFF 		bl	pwmStop
 2311              	.LVL167:
 2312              	.LBE804:
 2313              	.LBE803:
 2314              		.loc 1 863 0
 2315 0196 237B     		ldrb	r3, [r4, #12]	@ zero_extendqisi2
 2316 0198 C3F38103 		ubfx	r3, r3, #2, #2
 2317 019c 022B     		cmp	r3, #2
 2318 019e 20D0     		beq	.L68
 2319              		.loc 1 865 0
 2320 01a0 2069     		ldr	r0, [r4, #16]
 2321              	.LBB805:
 2322              	.LBB806:
 2323              		.loc 1 549 0
ARM GAS  /tmp/cczUYEXc.s 			page 42


 2324 01a2 0022     		movs	r2, #0
 2325              	.LBE806:
 2326              	.LBE805:
 2327              		.loc 1 865 0
 2328 01a4 90F807C0 		ldrb	ip, [r0, #7]	@ zero_extendqisi2
 2329              	.LVL168:
 2330              	.LBB808:
 2331              	.LBB807:
 2332              		.loc 1 552 0
 2333 01a8 1346     		mov	r3, r2
 2334              	.LVL169:
 2335              	.L70:
 2336              		.loc 1 553 0
 2337 01aa C15C     		ldrb	r1, [r0, r3]	@ zero_extendqisi2
 2338              		.loc 1 552 0
 2339 01ac 0133     		adds	r3, r3, #1
 2340              	.LVL170:
 2341              		.loc 1 553 0
 2342 01ae 4A40     		eors	r2, r2, r1
 2343              	.LVL171:
 2344              		.loc 1 552 0
 2345 01b0 072B     		cmp	r3, #7
 2346              		.loc 1 553 0
 2347 01b2 1BF80220 		ldrb	r2, [fp, r2]	@ zero_extendqisi2
 2348              	.LVL172:
 2349              		.loc 1 552 0
 2350 01b6 F8D1     		bne	.L70
 2351              	.LBE807:
 2352              	.LBE808:
 2353              		.loc 1 865 0
 2354 01b8 9445     		cmp	ip, r2
 2355 01ba 12D1     		bne	.L68
 2356              		.loc 1 868 0
 2357 01bc 4368     		ldr	r3, [r0, #4]	@ unaligned
 2358              	.LVL173:
 2359 01be 0268     		ldr	r2, [r0]	@ unaligned
 2360              	.LVL174:
 2361 01c0 0299     		ldr	r1, [sp, #8]
 2362 01c2 0A60     		str	r2, [r1]	@ unaligned
 2363 01c4 4B60     		str	r3, [r1, #4]	@ unaligned
 2364              		.loc 1 871 0
 2365 01c6 237B     		ldrb	r3, [r4, #12]	@ zero_extendqisi2
 2366 01c8 C3F38103 		ubfx	r3, r3, #2, #2
 2367 01cc 002B     		cmp	r3, #0
 2368 01ce 3FF46EAF 		beq	.L72
 2369              		.loc 1 874 0
 2370 01d2 022B     		cmp	r3, #2
 2371 01d4 05D0     		beq	.L68
 2372              		.loc 1 877 0
 2373 01d6 E068     		ldr	r0, [r4, #12]
 2374              	.LVL175:
 2375 01d8 C0F3C730 		ubfx	r0, r0, #15, #8
 2376              		.loc 1 878 0
 2377 01dc 0DB0     		add	sp, sp, #52
 2378              		@ sp needed
 2379 01de BDE8F08F 		pop	{r4, r5, r6, r7, r8, r9, r10, fp, pc}
 2380              	.LVL176:
ARM GAS  /tmp/cczUYEXc.s 			page 43


 2381              	.L68:
 2382              		.loc 1 830 0
 2383 01e2 0020     		movs	r0, #0
 2384              		.loc 1 878 0
 2385 01e4 0DB0     		add	sp, sp, #52
 2386              		@ sp needed
 2387 01e6 BDE8F08F 		pop	{r4, r5, r6, r7, r8, r9, r10, fp, pc}
 2388              		.cfi_endproc
 2389              	.LFE294:
 2390              		.size	onewireSearchRom, .-onewireSearchRom
 2391              		.global	OWD1
 2392 01ea 00BFAFF3 		.section	.bss.OWD1,"aw",%nobits
 2392      0080
 2393              		.align	2
 2394              		.set	.LANCHOR0,. + 0
 2395              		.type	OWD1, %object
 2396              		.size	OWD1, 36
 2397              	OWD1:
 2398 0000 00000000 		.space	36
 2398      00000000 
 2398      00000000 
 2398      00000000 
 2398      00000000 
 2399              		.section	.rodata.onewire_crc_table,"a",%progbits
 2400              		.align	2
 2401              		.set	.LANCHOR1,. + 0
 2402              		.type	onewire_crc_table, %object
 2403              		.size	onewire_crc_table, 256
 2404              	onewire_crc_table:
 2405 0000 00       		.byte	0
 2406 0001 5E       		.byte	94
 2407 0002 BC       		.byte	-68
 2408 0003 E2       		.byte	-30
 2409 0004 61       		.byte	97
 2410 0005 3F       		.byte	63
 2411 0006 DD       		.byte	-35
 2412 0007 83       		.byte	-125
 2413 0008 C2       		.byte	-62
 2414 0009 9C       		.byte	-100
 2415 000a 7E       		.byte	126
 2416 000b 20       		.byte	32
 2417 000c A3       		.byte	-93
 2418 000d FD       		.byte	-3
 2419 000e 1F       		.byte	31
 2420 000f 41       		.byte	65
 2421 0010 9D       		.byte	-99
 2422 0011 C3       		.byte	-61
 2423 0012 21       		.byte	33
 2424 0013 7F       		.byte	127
 2425 0014 FC       		.byte	-4
 2426 0015 A2       		.byte	-94
 2427 0016 40       		.byte	64
 2428 0017 1E       		.byte	30
 2429 0018 5F       		.byte	95
 2430 0019 01       		.byte	1
 2431 001a E3       		.byte	-29
 2432 001b BD       		.byte	-67
ARM GAS  /tmp/cczUYEXc.s 			page 44


 2433 001c 3E       		.byte	62
 2434 001d 60       		.byte	96
 2435 001e 82       		.byte	-126
 2436 001f DC       		.byte	-36
 2437 0020 23       		.byte	35
 2438 0021 7D       		.byte	125
 2439 0022 9F       		.byte	-97
 2440 0023 C1       		.byte	-63
 2441 0024 42       		.byte	66
 2442 0025 1C       		.byte	28
 2443 0026 FE       		.byte	-2
 2444 0027 A0       		.byte	-96
 2445 0028 E1       		.byte	-31
 2446 0029 BF       		.byte	-65
 2447 002a 5D       		.byte	93
 2448 002b 03       		.byte	3
 2449 002c 80       		.byte	-128
 2450 002d DE       		.byte	-34
 2451 002e 3C       		.byte	60
 2452 002f 62       		.byte	98
 2453 0030 BE       		.byte	-66
 2454 0031 E0       		.byte	-32
 2455 0032 02       		.byte	2
 2456 0033 5C       		.byte	92
 2457 0034 DF       		.byte	-33
 2458 0035 81       		.byte	-127
 2459 0036 63       		.byte	99
 2460 0037 3D       		.byte	61
 2461 0038 7C       		.byte	124
 2462 0039 22       		.byte	34
 2463 003a C0       		.byte	-64
 2464 003b 9E       		.byte	-98
 2465 003c 1D       		.byte	29
 2466 003d 43       		.byte	67
 2467 003e A1       		.byte	-95
 2468 003f FF       		.byte	-1
 2469 0040 46       		.byte	70
 2470 0041 18       		.byte	24
 2471 0042 FA       		.byte	-6
 2472 0043 A4       		.byte	-92
 2473 0044 27       		.byte	39
 2474 0045 79       		.byte	121
 2475 0046 9B       		.byte	-101
 2476 0047 C5       		.byte	-59
 2477 0048 84       		.byte	-124
 2478 0049 DA       		.byte	-38
 2479 004a 38       		.byte	56
 2480 004b 66       		.byte	102
 2481 004c E5       		.byte	-27
 2482 004d BB       		.byte	-69
 2483 004e 59       		.byte	89
 2484 004f 07       		.byte	7
 2485 0050 DB       		.byte	-37
 2486 0051 85       		.byte	-123
 2487 0052 67       		.byte	103
 2488 0053 39       		.byte	57
 2489 0054 BA       		.byte	-70
ARM GAS  /tmp/cczUYEXc.s 			page 45


 2490 0055 E4       		.byte	-28
 2491 0056 06       		.byte	6
 2492 0057 58       		.byte	88
 2493 0058 19       		.byte	25
 2494 0059 47       		.byte	71
 2495 005a A5       		.byte	-91
 2496 005b FB       		.byte	-5
 2497 005c 78       		.byte	120
 2498 005d 26       		.byte	38
 2499 005e C4       		.byte	-60
 2500 005f 9A       		.byte	-102
 2501 0060 65       		.byte	101
 2502 0061 3B       		.byte	59
 2503 0062 D9       		.byte	-39
 2504 0063 87       		.byte	-121
 2505 0064 04       		.byte	4
 2506 0065 5A       		.byte	90
 2507 0066 B8       		.byte	-72
 2508 0067 E6       		.byte	-26
 2509 0068 A7       		.byte	-89
 2510 0069 F9       		.byte	-7
 2511 006a 1B       		.byte	27
 2512 006b 45       		.byte	69
 2513 006c C6       		.byte	-58
 2514 006d 98       		.byte	-104
 2515 006e 7A       		.byte	122
 2516 006f 24       		.byte	36
 2517 0070 F8       		.byte	-8
 2518 0071 A6       		.byte	-90
 2519 0072 44       		.byte	68
 2520 0073 1A       		.byte	26
 2521 0074 99       		.byte	-103
 2522 0075 C7       		.byte	-57
 2523 0076 25       		.byte	37
 2524 0077 7B       		.byte	123
 2525 0078 3A       		.byte	58
 2526 0079 64       		.byte	100
 2527 007a 86       		.byte	-122
 2528 007b D8       		.byte	-40
 2529 007c 5B       		.byte	91
 2530 007d 05       		.byte	5
 2531 007e E7       		.byte	-25
 2532 007f B9       		.byte	-71
 2533 0080 8C       		.byte	-116
 2534 0081 D2       		.byte	-46
 2535 0082 30       		.byte	48
 2536 0083 6E       		.byte	110
 2537 0084 ED       		.byte	-19
 2538 0085 B3       		.byte	-77
 2539 0086 51       		.byte	81
 2540 0087 0F       		.byte	15
 2541 0088 4E       		.byte	78
 2542 0089 10       		.byte	16
 2543 008a F2       		.byte	-14
 2544 008b AC       		.byte	-84
 2545 008c 2F       		.byte	47
 2546 008d 71       		.byte	113
ARM GAS  /tmp/cczUYEXc.s 			page 46


 2547 008e 93       		.byte	-109
 2548 008f CD       		.byte	-51
 2549 0090 11       		.byte	17
 2550 0091 4F       		.byte	79
 2551 0092 AD       		.byte	-83
 2552 0093 F3       		.byte	-13
 2553 0094 70       		.byte	112
 2554 0095 2E       		.byte	46
 2555 0096 CC       		.byte	-52
 2556 0097 92       		.byte	-110
 2557 0098 D3       		.byte	-45
 2558 0099 8D       		.byte	-115
 2559 009a 6F       		.byte	111
 2560 009b 31       		.byte	49
 2561 009c B2       		.byte	-78
 2562 009d EC       		.byte	-20
 2563 009e 0E       		.byte	14
 2564 009f 50       		.byte	80
 2565 00a0 AF       		.byte	-81
 2566 00a1 F1       		.byte	-15
 2567 00a2 13       		.byte	19
 2568 00a3 4D       		.byte	77
 2569 00a4 CE       		.byte	-50
 2570 00a5 90       		.byte	-112
 2571 00a6 72       		.byte	114
 2572 00a7 2C       		.byte	44
 2573 00a8 6D       		.byte	109
 2574 00a9 33       		.byte	51
 2575 00aa D1       		.byte	-47
 2576 00ab 8F       		.byte	-113
 2577 00ac 0C       		.byte	12
 2578 00ad 52       		.byte	82
 2579 00ae B0       		.byte	-80
 2580 00af EE       		.byte	-18
 2581 00b0 32       		.byte	50
 2582 00b1 6C       		.byte	108
 2583 00b2 8E       		.byte	-114
 2584 00b3 D0       		.byte	-48
 2585 00b4 53       		.byte	83
 2586 00b5 0D       		.byte	13
 2587 00b6 EF       		.byte	-17
 2588 00b7 B1       		.byte	-79
 2589 00b8 F0       		.byte	-16
 2590 00b9 AE       		.byte	-82
 2591 00ba 4C       		.byte	76
 2592 00bb 12       		.byte	18
 2593 00bc 91       		.byte	-111
 2594 00bd CF       		.byte	-49
 2595 00be 2D       		.byte	45
 2596 00bf 73       		.byte	115
 2597 00c0 CA       		.byte	-54
 2598 00c1 94       		.byte	-108
 2599 00c2 76       		.byte	118
 2600 00c3 28       		.byte	40
 2601 00c4 AB       		.byte	-85
 2602 00c5 F5       		.byte	-11
 2603 00c6 17       		.byte	23
ARM GAS  /tmp/cczUYEXc.s 			page 47


 2604 00c7 49       		.byte	73
 2605 00c8 08       		.byte	8
 2606 00c9 56       		.byte	86
 2607 00ca B4       		.byte	-76
 2608 00cb EA       		.byte	-22
 2609 00cc 69       		.byte	105
 2610 00cd 37       		.byte	55
 2611 00ce D5       		.byte	-43
 2612 00cf 8B       		.byte	-117
 2613 00d0 57       		.byte	87
 2614 00d1 09       		.byte	9
 2615 00d2 EB       		.byte	-21
 2616 00d3 B5       		.byte	-75
 2617 00d4 36       		.byte	54
 2618 00d5 68       		.byte	104
 2619 00d6 8A       		.byte	-118
 2620 00d7 D4       		.byte	-44
 2621 00d8 95       		.byte	-107
 2622 00d9 CB       		.byte	-53
 2623 00da 29       		.byte	41
 2624 00db 77       		.byte	119
 2625 00dc F4       		.byte	-12
 2626 00dd AA       		.byte	-86
 2627 00de 48       		.byte	72
 2628 00df 16       		.byte	22
 2629 00e0 E9       		.byte	-23
 2630 00e1 B7       		.byte	-73
 2631 00e2 55       		.byte	85
 2632 00e3 0B       		.byte	11
 2633 00e4 88       		.byte	-120
 2634 00e5 D6       		.byte	-42
 2635 00e6 34       		.byte	52
 2636 00e7 6A       		.byte	106
 2637 00e8 2B       		.byte	43
 2638 00e9 75       		.byte	117
 2639 00ea 97       		.byte	-105
 2640 00eb C9       		.byte	-55
 2641 00ec 4A       		.byte	74
 2642 00ed 14       		.byte	20
 2643 00ee F6       		.byte	-10
 2644 00ef A8       		.byte	-88
 2645 00f0 74       		.byte	116
 2646 00f1 2A       		.byte	42
 2647 00f2 C8       		.byte	-56
 2648 00f3 96       		.byte	-106
 2649 00f4 15       		.byte	21
 2650 00f5 4B       		.byte	75
 2651 00f6 A9       		.byte	-87
 2652 00f7 F7       		.byte	-9
 2653 00f8 B6       		.byte	-74
 2654 00f9 E8       		.byte	-24
 2655 00fa 0A       		.byte	10
 2656 00fb 54       		.byte	84
 2657 00fc D7       		.byte	-41
 2658 00fd 89       		.byte	-119
 2659 00fe 6B       		.byte	107
 2660 00ff 35       		.byte	53
ARM GAS  /tmp/cczUYEXc.s 			page 48


 2661              		.text
 2662              	.Letext0:
 2663              		.file 4 "/usr/lib/gcc/arm-none-eabi/4.8.2/include/stddef.h"
 2664              		.file 5 "/usr/include/newlib/machine/_default_types.h"
 2665              		.file 6 "/usr/include/newlib/stdint.h"
 2666              		.file 7 "../../../../../ChibiOS-RT/os/common/ports/ARMCMx/compilers/GCC/chtypes.h"
 2667              		.file 8 "../../../../../ChibiOS-RT/os/rt/include/chsystypes.h"
 2668              		.file 9 "../../../../../ChibiOS-RT/os/rt/include/chschd.h"
 2669              		.file 10 "../../../../../ChibiOS-RT/os/common/ports/ARMCMx/chcore.h"
 2670              		.file 11 "../../../../../ChibiOS-RT/os/common/ports/ARMCMx/chcore_v7m.h"
 2671              		.file 12 "../../../../../ChibiOS-RT/os/hal/ports/STM32/LLD/TIMv1/stm32_tim.h"
 2672              		.file 13 "../../../../../ChibiOS-RT/os/rt/include/chtrace.h"
 2673              		.file 14 "../../../../../ChibiOS-RT/os/rt/include/chtm.h"
 2674              		.file 15 "../../../../../ChibiOS-RT/os/rt/include/chsem.h"
 2675              		.file 16 "../../../../../ChibiOS-RT/os/rt/include/chmtx.h"
 2676              		.file 17 "../../../../../ChibiOS-RT/os/hal/ports/STM32/LLD/GPIOv2/hal_pal_lld.h"
 2677              		.file 18 "../../../../../ChibiOS-RT/os/hal/include/hal_pwm.h"
 2678              		.file 19 "../../../../../ChibiOS-RT/os/hal/ports/STM32/LLD/TIMv1/hal_pwm_lld.h"
 2679              		.file 20 "../../../../../ChibiOS-RT/../ChibiOS-Contrib/os/hal/include/hal_onewire.h"
 2680              		.file 21 "../../../../../ChibiOS-RT/os/rt/include/chsys.h"
 2681              		.file 22 "../../../../../ChibiOS-RT/os/common/ext/CMSIS/include/core_cm4.h"
 2682              		.file 23 "../../../../../ChibiOS-RT/os/rt/include/chthreads.h"