ARM GAS  /tmp/ccfsf5eS.s 			page 1


   1              		.syntax unified
   2              		.cpu cortex-m4
   3              		.fpu softvfp
   4              		.eabi_attribute 20, 1
   5              		.eabi_attribute 21, 1
   6              		.eabi_attribute 23, 3
   7              		.eabi_attribute 24, 1
   8              		.eabi_attribute 25, 1
   9              		.eabi_attribute 26, 1
  10              		.eabi_attribute 30, 2
  11              		.eabi_attribute 34, 1
  12              		.eabi_attribute 18, 4
  13              		.thumb
  14              		.file	"main.c"
  15              		.text
  16              	.Ltext0:
  17              		.cfi_sections	.debug_frame
  18              		.section	.text.pwmpcb,"ax",%progbits
  19              		.align	2
  20              		.p2align 4,,15
  21              		.thumb
  22              		.thumb_func
  23              		.type	pwmpcb, %function
  24              	pwmpcb:
  25              	.LFB270:
  26              		.file 1 "main.c"
  27              		.loc 1 73 0
  28              		.cfi_startproc
  29              		@ args = 0, pretend = 0, frame = 0
  30              		@ frame_needed = 0, uses_anonymous_args = 0
  31              		@ link register save eliminated.
  32              	.LVL0:
  33              		.loc 1 75 0
  34 0000 40F20003 		movw	r3, #:lower16:.LANCHOR0
  35 0004 C0F20003 		movt	r3, #:upper16:.LANCHOR0
  36 0008 1B88     		ldrh	r3, [r3]
  37 000a 33B1     		cbz	r3, .L2
  38              		.loc 1 76 0
  39 000c 4FF48063 		mov	r3, #1024
  40 0010 C4F20203 		movt	r3, 16386
  41 0014 4FF40052 		mov	r2, #8192
  42 0018 5A83     		strh	r2, [r3, #26]	@ movhi
  43              	.L2:
  44              		.loc 1 77 0
  45 001a 40F20003 		movw	r3, #:lower16:.LANCHOR1
  46 001e C0F20003 		movt	r3, #:upper16:.LANCHOR1
  47 0022 1B88     		ldrh	r3, [r3]
  48 0024 33B1     		cbz	r3, .L3
  49              		.loc 1 78 0
  50 0026 4FF48063 		mov	r3, #1024
  51 002a C4F20203 		movt	r3, 16386
  52 002e 4FF48042 		mov	r2, #16384
  53 0032 5A83     		strh	r2, [r3, #26]	@ movhi
  54              	.L3:
  55              		.loc 1 79 0
  56 0034 40F20003 		movw	r3, #:lower16:.LANCHOR2
  57 0038 C0F20003 		movt	r3, #:upper16:.LANCHOR2
ARM GAS  /tmp/ccfsf5eS.s 			page 2


  58 003c 1B88     		ldrh	r3, [r3]
  59 003e 33B1     		cbz	r3, .L1
  60              		.loc 1 80 0
  61 0040 4FF48063 		mov	r3, #1024
  62 0044 C4F20203 		movt	r3, 16386
  63 0048 4FF40042 		mov	r2, #32768
  64 004c 5A83     		strh	r2, [r3, #26]	@ movhi
  65              	.L1:
  66 004e 7047     		bx	lr
  67              		.cfi_endproc
  68              	.LFE270:
  69              		.size	pwmpcb, .-pwmpcb
  70              		.section	.text.pwmc1cb,"ax",%progbits
  71              		.align	2
  72              		.p2align 4,,15
  73              		.thumb
  74              		.thumb_func
  75              		.type	pwmc1cb, %function
  76              	pwmc1cb:
  77              	.LFB271:
  78              		.loc 1 83 0
  79              		.cfi_startproc
  80              		@ args = 0, pretend = 0, frame = 0
  81              		@ frame_needed = 0, uses_anonymous_args = 0
  82              		@ link register save eliminated.
  83              	.LVL1:
  84              		.loc 1 86 0
  85 0000 4FF48063 		mov	r3, #1024
  86 0004 C4F20203 		movt	r3, 16386
  87 0008 4FF40052 		mov	r2, #8192
  88 000c 1A83     		strh	r2, [r3, #24]	@ movhi
  89 000e 7047     		bx	lr
  90              		.cfi_endproc
  91              	.LFE271:
  92              		.size	pwmc1cb, .-pwmc1cb
  93              		.section	.text.pwmc2cb,"ax",%progbits
  94              		.align	2
  95              		.p2align 4,,15
  96              		.thumb
  97              		.thumb_func
  98              		.type	pwmc2cb, %function
  99              	pwmc2cb:
 100              	.LFB272:
 101              		.loc 1 89 0
 102              		.cfi_startproc
 103              		@ args = 0, pretend = 0, frame = 0
 104              		@ frame_needed = 0, uses_anonymous_args = 0
 105              		@ link register save eliminated.
 106              	.LVL2:
 107              		.loc 1 92 0
 108 0000 4FF48063 		mov	r3, #1024
 109 0004 C4F20203 		movt	r3, 16386
 110 0008 4FF48042 		mov	r2, #16384
 111 000c 1A83     		strh	r2, [r3, #24]	@ movhi
 112 000e 7047     		bx	lr
 113              		.cfi_endproc
 114              	.LFE272:
ARM GAS  /tmp/ccfsf5eS.s 			page 3


 115              		.size	pwmc2cb, .-pwmc2cb
 116              		.section	.text.pwmc3cb,"ax",%progbits
 117              		.align	2
 118              		.p2align 4,,15
 119              		.thumb
 120              		.thumb_func
 121              		.type	pwmc3cb, %function
 122              	pwmc3cb:
 123              	.LFB273:
 124              		.loc 1 95 0
 125              		.cfi_startproc
 126              		@ args = 0, pretend = 0, frame = 0
 127              		@ frame_needed = 0, uses_anonymous_args = 0
 128              		@ link register save eliminated.
 129              	.LVL3:
 130              		.loc 1 98 0
 131 0000 4FF48063 		mov	r3, #1024
 132 0004 C4F20203 		movt	r3, 16386
 133 0008 4FF40042 		mov	r2, #32768
 134 000c 1A83     		strh	r2, [r3, #24]	@ movhi
 135 000e 7047     		bx	lr
 136              		.cfi_endproc
 137              	.LFE273:
 138              		.size	pwmc3cb, .-pwmc3cb
 139              		.global	__aeabi_i2f
 140              		.global	__aeabi_f2d
 141              		.global	__aeabi_dmul
 142              		.global	__aeabi_d2f
 143              		.section	.text.Thd1,"ax",%progbits
 144              		.align	2
 145              		.p2align 4,,15
 146              		.thumb
 147              		.thumb_func
 148              		.type	Thd1, %function
 149              	Thd1:
 150              	.LFB274:
 151              		.loc 1 148 0
 152              		.cfi_startproc
 153              		@ args = 0, pretend = 0, frame = 0
 154              		@ frame_needed = 0, uses_anonymous_args = 0
 155              	.LVL4:
 156              	.LBB6:
 157              	.LBB7:
 158              		.file 2 "../../../../../ChibiOS-RT/os/rt/include/chregistry.h"
 159              		.loc 2 136 0
 160 0000 40F20002 		movw	r2, #:lower16:ch
 161 0004 C0F20002 		movt	r2, #:upper16:ch
 162              	.LBE7:
 163              	.LBE6:
 164              		.loc 1 148 0
 165 0008 F8B5     		push	{r3, r4, r5, r6, r7, lr}
 166              		.cfi_def_cfa_offset 24
 167              		.cfi_offset 3, -24
 168              		.cfi_offset 4, -20
 169              		.cfi_offset 5, -16
 170              		.cfi_offset 6, -12
 171              		.cfi_offset 7, -8
ARM GAS  /tmp/ccfsf5eS.s 			page 4


 172              		.cfi_offset 14, -4
 173              	.LBB10:
 174              	.LBB8:
 175              		.loc 2 136 0
 176 000a 9269     		ldr	r2, [r2, #24]
 177 000c 304C     		ldr	r4, .L24+16
 178 000e 40F20003 		movw	r3, #:lower16:.LC0
 179 0012 C0F20003 		movt	r3, #:upper16:.LC0
 180              	.LBE8:
 181              	.LBE10:
 182              		.loc 1 155 0
 183 0016 40F20000 		movw	r0, #:lower16:ADCD1
 184              	.LVL5:
 185              	.LBB11:
 186              	.LBB9:
 187              		.loc 2 136 0
 188 001a 9361     		str	r3, [r2, #24]
 189              	.LBE9:
 190              	.LBE11:
 191              		.loc 1 155 0
 192 001c C0F20000 		movt	r0, #:upper16:ADCD1
 193 0020 0021     		movs	r1, #0
 194 0022 FFF7FEFF 		bl	adcStart
 195              	.LVL6:
 196 0026 40F20007 		movw	r7, #:lower16:.LANCHOR5
 197 002a 40F20006 		movw	r6, #:lower16:.LANCHOR6
 198 002e 40F20005 		movw	r5, #:lower16:.LANCHOR7
 199 0032 C0F20007 		movt	r7, #:upper16:.LANCHOR5
 200 0036 C0F20006 		movt	r6, #:upper16:.LANCHOR6
 201 003a C0F20005 		movt	r5, #:upper16:.LANCHOR7
 202              	.L21:
 203              		.loc 1 157 0
 204 003e 40F20000 		movw	r0, #:lower16:ADCD1
 205 0042 40F20001 		movw	r1, #:lower16:.LANCHOR3
 206 0046 40F20002 		movw	r2, #:lower16:.LANCHOR4
 207 004a C0F20002 		movt	r2, #:upper16:.LANCHOR4
 208 004e 0A23     		movs	r3, #10
 209 0050 C0F20000 		movt	r0, #:upper16:ADCD1
 210 0054 C0F20001 		movt	r1, #:upper16:.LANCHOR3
 211 0058 FFF7FEFF 		bl	adcConvert
 212              	.LVL7:
 213 005c 1D4B     		ldr	r3, .L24+20
 214 005e 0022     		movs	r2, #0
 215              	.LVL8:
 216              	.L20:
 217              		.loc 1 162 0 discriminator 2
 218 0060 33F8021F 		ldrh	r1, [r3, #2]!
 219              		.loc 1 161 0 discriminator 2
 220 0064 A342     		cmp	r3, r4
 221              		.loc 1 162 0 discriminator 2
 222 0066 0A44     		add	r2, r2, r1
 223              		.loc 1 161 0 discriminator 2
 224 0068 FAD1     		bne	.L20
 225              		.loc 1 164 0
 226 006a 46F26763 		movw	r3, #26215
 227 006e C6F26663 		movt	r3, 26214
 228 0072 83FB0213 		smull	r1, r3, r3, r2
ARM GAS  /tmp/ccfsf5eS.s 			page 5


 229 0076 D217     		asrs	r2, r2, #31
 230 0078 C2EBA302 		rsb	r2, r2, r3, asr #2
 231              		.loc 1 165 0
 232 007c 1046     		mov	r0, r2
 233              		.loc 1 164 0
 234 007e 3A60     		str	r2, [r7]
 235              		.loc 1 165 0
 236 0080 FFF7FEFF 		bl	__aeabi_i2f
 237              	.LVL9:
 238 0084 FFF7FEFF 		bl	__aeabi_f2d
 239              	.LVL10:
 240 0088 0DA3     		adr	r3, .L24
 241 008a D3E90023 		ldrd	r2, [r3]
 242 008e FFF7FEFF 		bl	__aeabi_dmul
 243              	.LVL11:
 244 0092 0023     		movs	r3, #0
 245 0094 0022     		movs	r2, #0
 246 0096 C3F63073 		movt	r3, 16176
 247 009a FFF7FEFF 		bl	__aeabi_dmul
 248              	.LVL12:
 249 009e FFF7FEFF 		bl	__aeabi_d2f
 250              	.LVL13:
 251 00a2 3060     		str	r0, [r6]	@ float
 252              		.loc 1 168 0
 253 00a4 FFF7FEFF 		bl	__aeabi_f2d
 254              	.LVL14:
 255 00a8 07A3     		adr	r3, .L24+8
 256 00aa D3E90023 		ldrd	r2, [r3]
 257 00ae FFF7FEFF 		bl	__aeabi_dmul
 258              	.LVL15:
 259 00b2 FFF7FEFF 		bl	__aeabi_d2f
 260              	.LVL16:
 261 00b6 2860     		str	r0, [r5]	@ float
 262              		.loc 1 169 0
 263 00b8 C1E7     		b	.L21
 264              	.L25:
 265 00ba 00BFAFF3 		.align	3
 265      0080
 266              	.L24:
 267 00c0 66666666 		.word	1717986918
 268 00c4 66660A40 		.word	1074423398
 269 00c8 F6285C8F 		.word	2405181686
 270 00cc C2F51040 		.word	1074853314
 271 00d0 12000000 		.word	.LANCHOR4+18
 272 00d4 FEFFFFFF 		.word	.LANCHOR4-2
 273              		.cfi_endproc
 274              	.LFE274:
 275              		.size	Thd1, .-Thd1
 276              		.global	__aeabi_i2d
 277              		.global	__aeabi_d2uiz
 278 00d8 AFF30080 		.section	.text.Thd2,"ax",%progbits
 278      AFF30080 
 279              		.align	2
 280              		.p2align 4,,15
 281              		.thumb
 282              		.thumb_func
 283              		.type	Thd2, %function
ARM GAS  /tmp/ccfsf5eS.s 			page 6


 284              	Thd2:
 285              	.LFB275:
 286              		.loc 1 179 0
 287              		.cfi_startproc
 288              		@ args = 0, pretend = 0, frame = 0
 289              		@ frame_needed = 0, uses_anonymous_args = 0
 290              	.LVL17:
 291              	.LBB12:
 292              	.LBB13:
 293              		.loc 2 136 0
 294 0000 40F20002 		movw	r2, #:lower16:ch
 295 0004 C0F20002 		movt	r2, #:upper16:ch
 296              	.LBE13:
 297              	.LBE12:
 298              		.loc 1 179 0
 299 0008 2DE9F843 		push	{r3, r4, r5, r6, r7, r8, r9, lr}
 300              		.cfi_def_cfa_offset 32
 301              		.cfi_offset 3, -32
 302              		.cfi_offset 4, -28
 303              		.cfi_offset 5, -24
 304              		.cfi_offset 6, -20
 305              		.cfi_offset 7, -16
 306              		.cfi_offset 8, -12
 307              		.cfi_offset 9, -8
 308              		.cfi_offset 14, -4
 309              	.LBB16:
 310              	.LBB14:
 311              		.loc 2 136 0
 312 000c 9269     		ldr	r2, [r2, #24]
 313 000e 40F20003 		movw	r3, #:lower16:.LC1
 314 0012 C0F20003 		movt	r3, #:upper16:.LC1
 315              	.LBE14:
 316              	.LBE16:
 317              		.loc 1 184 0
 318 0016 40F20000 		movw	r0, #:lower16:PWMD1
 319              	.LVL18:
 320 001a 40F20001 		movw	r1, #:lower16:.LANCHOR8
 321              	.LBB17:
 322              	.LBB15:
 323              		.loc 2 136 0
 324 001e 9361     		str	r3, [r2, #24]
 325              	.LBE15:
 326              	.LBE17:
 327              		.loc 1 184 0
 328 0020 C0F20000 		movt	r0, #:upper16:PWMD1
 329 0024 C0F20001 		movt	r1, #:upper16:.LANCHOR8
 330 0028 FFF7FEFF 		bl	pwmStart
 331              	.LVL19:
 332 002c 40F20009 		movw	r9, #:lower16:.LANCHOR0
 333 0030 40F20005 		movw	r5, #:lower16:.LANCHOR9
 334 0034 40F20004 		movw	r4, #:lower16:PWMD1
 335 0038 40F20008 		movw	r8, #:lower16:.LANCHOR1
 336 003c 40F20007 		movw	r7, #:lower16:.LANCHOR2
 337              		.loc 1 190 0
 338 0040 41F25976 		movw	r6, #5977
 339 0044 C0F20009 		movt	r9, #:upper16:.LANCHOR0
 340 0048 C0F20005 		movt	r5, #:upper16:.LANCHOR9
ARM GAS  /tmp/ccfsf5eS.s 			page 7


 341 004c C0F20004 		movt	r4, #:upper16:PWMD1
 342 0050 C0F20008 		movt	r8, #:upper16:.LANCHOR1
 343 0054 C0F20007 		movt	r7, #:upper16:.LANCHOR2
 344 0058 CDF2B716 		movt	r6, 53687
 345              	.L27:
 346              		.loc 1 189 0 discriminator 1
 347 005c B9F80000 		ldrh	r0, [r9]
 348 0060 FFF7FEFF 		bl	__aeabi_i2d
 349              	.LVL20:
 350 0064 3CA3     		adr	r3, .L28
 351 0066 D3E90023 		ldrd	r2, [r3]
 352 006a FFF7FEFF 		bl	__aeabi_dmul
 353              	.LVL21:
 354 006e FFF7FEFF 		bl	__aeabi_d2uiz
 355              	.LVL22:
 356              		.loc 1 190 0 discriminator 1
 357 0072 A268     		ldr	r2, [r4, #8]
 358              		.loc 1 189 0 discriminator 1
 359 0074 83B2     		uxth	r3, r0
 360              		.loc 1 190 0 discriminator 1
 361 0076 02FB03F2 		mul	r2, r2, r3
 362 007a A6FB0212 		umull	r1, r2, r6, r2
 363 007e 40F20000 		movw	r0, #:lower16:PWMD1
 364 0082 520B     		lsrs	r2, r2, #13
 365 0084 C0F20000 		movt	r0, #:upper16:PWMD1
 366 0088 0021     		movs	r1, #0
 367              		.loc 1 189 0 discriminator 1
 368 008a 2B80     		strh	r3, [r5]	@ movhi
 369              		.loc 1 190 0 discriminator 1
 370 008c FFF7FEFF 		bl	pwmEnableChannel
 371              	.LVL23:
 372              		.loc 1 191 0 discriminator 1
 373 0090 40F20000 		movw	r0, #:lower16:PWMD1
 374 0094 0021     		movs	r1, #0
 375 0096 C0F20000 		movt	r0, #:upper16:PWMD1
 376 009a FFF7FEFF 		bl	pwmEnableChannelNotification
 377              	.LVL24:
 378              		.loc 1 192 0 discriminator 1
 379 009e 40F20000 		movw	r0, #:lower16:PWMD1
 380 00a2 C0F20000 		movt	r0, #:upper16:PWMD1
 381 00a6 FFF7FEFF 		bl	pwmEnablePeriodicNotification
 382              	.LVL25:
 383              		.loc 1 193 0 discriminator 1
 384 00aa 6420     		movs	r0, #100
 385 00ac FFF7FEFF 		bl	chThdSleep
 386              	.LVL26:
 387              		.loc 1 194 0 discriminator 1
 388 00b0 B8F80000 		ldrh	r0, [r8]
 389 00b4 FFF7FEFF 		bl	__aeabi_i2d
 390              	.LVL27:
 391 00b8 27A3     		adr	r3, .L28
 392 00ba D3E90023 		ldrd	r2, [r3]
 393 00be FFF7FEFF 		bl	__aeabi_dmul
 394              	.LVL28:
 395 00c2 FFF7FEFF 		bl	__aeabi_d2uiz
 396              	.LVL29:
 397              		.loc 1 195 0 discriminator 1
ARM GAS  /tmp/ccfsf5eS.s 			page 8


 398 00c6 A268     		ldr	r2, [r4, #8]
 399              		.loc 1 194 0 discriminator 1
 400 00c8 83B2     		uxth	r3, r0
 401              		.loc 1 195 0 discriminator 1
 402 00ca 02FB03F2 		mul	r2, r2, r3
 403 00ce A6FB0212 		umull	r1, r2, r6, r2
 404 00d2 40F20000 		movw	r0, #:lower16:PWMD1
 405 00d6 520B     		lsrs	r2, r2, #13
 406 00d8 C0F20000 		movt	r0, #:upper16:PWMD1
 407 00dc 0121     		movs	r1, #1
 408              		.loc 1 194 0 discriminator 1
 409 00de 2B80     		strh	r3, [r5]	@ movhi
 410              		.loc 1 195 0 discriminator 1
 411 00e0 FFF7FEFF 		bl	pwmEnableChannel
 412              	.LVL30:
 413              		.loc 1 196 0 discriminator 1
 414 00e4 40F20000 		movw	r0, #:lower16:PWMD1
 415 00e8 0121     		movs	r1, #1
 416 00ea C0F20000 		movt	r0, #:upper16:PWMD1
 417 00ee FFF7FEFF 		bl	pwmEnableChannelNotification
 418              	.LVL31:
 419              		.loc 1 197 0 discriminator 1
 420 00f2 40F20000 		movw	r0, #:lower16:PWMD1
 421 00f6 C0F20000 		movt	r0, #:upper16:PWMD1
 422 00fa FFF7FEFF 		bl	pwmEnablePeriodicNotification
 423              	.LVL32:
 424              		.loc 1 198 0 discriminator 1
 425 00fe 6420     		movs	r0, #100
 426 0100 FFF7FEFF 		bl	chThdSleep
 427              	.LVL33:
 428              		.loc 1 199 0 discriminator 1
 429 0104 3888     		ldrh	r0, [r7]
 430 0106 FFF7FEFF 		bl	__aeabi_i2d
 431              	.LVL34:
 432 010a 13A3     		adr	r3, .L28
 433 010c D3E90023 		ldrd	r2, [r3]
 434 0110 FFF7FEFF 		bl	__aeabi_dmul
 435              	.LVL35:
 436 0114 FFF7FEFF 		bl	__aeabi_d2uiz
 437              	.LVL36:
 438              		.loc 1 200 0 discriminator 1
 439 0118 A268     		ldr	r2, [r4, #8]
 440              		.loc 1 199 0 discriminator 1
 441 011a 83B2     		uxth	r3, r0
 442              		.loc 1 200 0 discriminator 1
 443 011c 02FB03F2 		mul	r2, r2, r3
 444 0120 A6FB0212 		umull	r1, r2, r6, r2
 445 0124 40F20000 		movw	r0, #:lower16:PWMD1
 446 0128 520B     		lsrs	r2, r2, #13
 447 012a C0F20000 		movt	r0, #:upper16:PWMD1
 448 012e 0221     		movs	r1, #2
 449              		.loc 1 199 0 discriminator 1
 450 0130 2B80     		strh	r3, [r5]	@ movhi
 451              		.loc 1 200 0 discriminator 1
 452 0132 FFF7FEFF 		bl	pwmEnableChannel
 453              	.LVL37:
 454              		.loc 1 201 0 discriminator 1
ARM GAS  /tmp/ccfsf5eS.s 			page 9


 455 0136 40F20000 		movw	r0, #:lower16:PWMD1
 456 013a 0221     		movs	r1, #2
 457 013c C0F20000 		movt	r0, #:upper16:PWMD1
 458 0140 FFF7FEFF 		bl	pwmEnableChannelNotification
 459              	.LVL38:
 460              		.loc 1 202 0 discriminator 1
 461 0144 40F20000 		movw	r0, #:lower16:PWMD1
 462 0148 C0F20000 		movt	r0, #:upper16:PWMD1
 463 014c FFF7FEFF 		bl	pwmEnablePeriodicNotification
 464              	.LVL39:
 465              		.loc 1 203 0 discriminator 1
 466 0150 6420     		movs	r0, #100
 467 0152 FFF7FEFF 		bl	chThdSleep
 468              	.LVL40:
 469 0156 81E7     		b	.L27
 470              	.L29:
 471              		.align	3
 472              	.L28:
 473 0158 9A999999 		.word	2576980378
 474 015c 99994340 		.word	1078172057
 475              		.cfi_endproc
 476              	.LFE275:
 477              		.size	Thd2, .-Thd2
 478              		.section	.text.numero,"ax",%progbits
 479              		.align	2
 480              		.p2align 4,,15
 481              		.global	numero
 482              		.thumb
 483              		.thumb_func
 484              		.type	numero, %function
 485              	numero:
 486              	.LFB277:
 487              		.loc 1 219 0
 488              		.cfi_startproc
 489              		@ args = 0, pretend = 0, frame = 8
 490              		@ frame_needed = 0, uses_anonymous_args = 0
 491              		@ link register save eliminated.
 492              	.LVL41:
 493 0000 82B0     		sub	sp, sp, #8
 494              		.cfi_def_cfa_offset 8
 495              		.loc 1 221 0
 496 0002 0928     		cmp	r0, #9
 497 0004 09D8     		bhi	.L31
 498 0006 DFE800F0 		tbb	[pc, r0]
 499              	.L33:
 500 000a 05       		.byte	(.L32-.L33)/2
 501 000b 0F       		.byte	(.L34-.L33)/2
 502 000c 13       		.byte	(.L35-.L33)/2
 503 000d 17       		.byte	(.L36-.L33)/2
 504 000e 1B       		.byte	(.L37-.L33)/2
 505 000f 1F       		.byte	(.L38-.L33)/2
 506 0010 23       		.byte	(.L39-.L33)/2
 507 0011 27       		.byte	(.L40-.L33)/2
 508 0012 2B       		.byte	(.L41-.L33)/2
 509 0013 0B       		.byte	(.L42-.L33)/2
 510              		.align	1
 511              	.L32:
ARM GAS  /tmp/ccfsf5eS.s 			page 10


 512              		.loc 1 231 0
 513 0014 3023     		movs	r3, #48
 514 0016 8DF80430 		strb	r3, [sp, #4]
 515              	.L31:
 516              		.loc 1 234 0
 517 001a 0198     		ldr	r0, [sp, #4]
 518              	.LVL42:
 519 001c 02B0     		add	sp, sp, #8
 520              		@ sp needed
 521 001e 7047     		bx	lr
 522              	.LVL43:
 523              	.L42:
 524              		.loc 1 230 0
 525 0020 3923     		movs	r3, #57
 526 0022 8DF80430 		strb	r3, [sp, #4]
 527 0026 F8E7     		b	.L31
 528              	.L34:
 529              		.loc 1 222 0
 530 0028 3123     		movs	r3, #49
 531 002a 8DF80430 		strb	r3, [sp, #4]
 532 002e F4E7     		b	.L31
 533              	.L35:
 534              		.loc 1 223 0
 535 0030 3223     		movs	r3, #50
 536 0032 8DF80430 		strb	r3, [sp, #4]
 537 0036 F0E7     		b	.L31
 538              	.L36:
 539              		.loc 1 224 0
 540 0038 3323     		movs	r3, #51
 541 003a 8DF80430 		strb	r3, [sp, #4]
 542 003e ECE7     		b	.L31
 543              	.L37:
 544              		.loc 1 225 0
 545 0040 3423     		movs	r3, #52
 546 0042 8DF80430 		strb	r3, [sp, #4]
 547 0046 E8E7     		b	.L31
 548              	.L38:
 549              		.loc 1 226 0
 550 0048 3523     		movs	r3, #53
 551 004a 8DF80430 		strb	r3, [sp, #4]
 552 004e E4E7     		b	.L31
 553              	.L39:
 554              		.loc 1 227 0
 555 0050 3623     		movs	r3, #54
 556 0052 8DF80430 		strb	r3, [sp, #4]
 557 0056 E0E7     		b	.L31
 558              	.L40:
 559              		.loc 1 228 0
 560 0058 3723     		movs	r3, #55
 561 005a 8DF80430 		strb	r3, [sp, #4]
 562 005e DCE7     		b	.L31
 563              	.L41:
 564              		.loc 1 229 0
 565 0060 3823     		movs	r3, #56
 566 0062 8DF80430 		strb	r3, [sp, #4]
 567 0066 D8E7     		b	.L31
 568              		.cfi_endproc
ARM GAS  /tmp/ccfsf5eS.s 			page 11


 569              	.LFE277:
 570              		.size	numero, .-numero
 571              		.global	__aeabi_f2iz
 572              		.global	__aeabi_fmul
 573 0068 AFF30080 		.section	.text.startup.main,"ax",%progbits
 573      AFF30080 
 574              		.align	2
 575              		.p2align 4,,15
 576              		.global	main
 577              		.thumb
 578              		.thumb_func
 579              		.type	main, %function
 580              	main:
 581              	.LFB278:
 582              		.loc 1 240 0
 583              		.cfi_startproc
 584              		@ args = 0, pretend = 0, frame = 136
 585              		@ frame_needed = 0, uses_anonymous_args = 0
 586 0000 2DE9F04F 		push	{r4, r5, r6, r7, r8, r9, r10, fp, lr}
 587              		.cfi_def_cfa_offset 36
 588              		.cfi_offset 4, -36
 589              		.cfi_offset 5, -32
 590              		.cfi_offset 6, -28
 591              		.cfi_offset 7, -24
 592              		.cfi_offset 8, -20
 593              		.cfi_offset 9, -16
 594              		.cfi_offset 10, -12
 595              		.cfi_offset 11, -8
 596              		.cfi_offset 14, -4
 597 0004 A5B0     		sub	sp, sp, #148
 598              		.cfi_def_cfa_offset 184
 599              		.loc 1 249 0
 600 0006 FFF7FEFF 		bl	halInit
 601              	.LVL44:
 602              		.loc 1 257 0
 603 000a 0027     		movs	r7, #0
 604              		.loc 1 250 0
 605 000c FFF7FEFF 		bl	chSysInit
 606              	.LVL45:
 607              		.loc 1 254 0
 608 0010 40F20000 		movw	r0, #:lower16:RTCD1
 609 0014 3946     		mov	r1, r7
 610 0016 C0F20000 		movt	r0, #:upper16:RTCD1
 611              		.loc 1 257 0
 612 001a C4F20207 		movt	r7, 16386
 613              		.loc 1 254 0
 614 001e FFF7FEFF 		bl	rtcSTM32SetPeriodicWakeup
 615              	.LVL46:
 616              		.loc 1 257 0
 617 0022 3846     		mov	r0, r7
 618 0024 0121     		movs	r1, #1
 619 0026 0322     		movs	r2, #3
 620 0028 FFF7FEFF 		bl	_pal_lld_setgroupmode
 621              	.LVL47:
 622              		.loc 1 259 0
 623 002c 3846     		mov	r0, r7
 624 002e 4FF40071 		mov	r1, #512
ARM GAS  /tmp/ccfsf5eS.s 			page 12


 625 0032 40F28232 		movw	r2, #898
 626 0036 FFF7FEFF 		bl	_pal_lld_setgroupmode
 627              	.LVL48:
 628              		.loc 1 260 0
 629 003a 3846     		mov	r0, r7
 630 003c 4FF48061 		mov	r1, #1024
 631 0040 40F28232 		movw	r2, #898
 632 0044 FFF7FEFF 		bl	_pal_lld_setgroupmode
 633              	.LVL49:
 634              		.loc 1 262 0
 635 0048 4FF48060 		mov	r0, #1024
 636 004c C4F20200 		movt	r0, 16386
 637 0050 4FF46041 		mov	r1, #57344
 638 0054 0122     		movs	r2, #1
 639 0056 FFF7FEFF 		bl	_pal_lld_setgroupmode
 640              	.LVL50:
 641              		.loc 1 264 0
 642 005a 0024     		movs	r4, #0
 643 005c 40F20000 		movw	r0, #:lower16:.LANCHOR10
 644 0060 40F20003 		movw	r3, #:lower16:Thd2
 645 0064 0094     		str	r4, [sp]
 646 0066 C0F20003 		movt	r3, #:upper16:Thd2
 647 006a 4FF4E471 		mov	r1, #456
 648 006e 8022     		movs	r2, #128
 649 0070 C0F20000 		movt	r0, #:upper16:.LANCHOR10
 650 0074 FFF7FEFF 		bl	chThdCreateStatic
 651              	.LVL51:
 652              		.loc 1 265 0
 653 0078 40F20000 		movw	r0, #:lower16:.LANCHOR11
 654 007c 40F20003 		movw	r3, #:lower16:Thd1
 655 0080 0094     		str	r4, [sp]
 656 0082 C0F20003 		movt	r3, #:upper16:Thd1
 657 0086 40F2000A 		movw	r10, #:lower16:.LANCHOR13
 658 008a C0F20000 		movt	r0, #:upper16:.LANCHOR11
 659 008e 4FF43271 		mov	r1, #712
 660 0092 8122     		movs	r2, #129
 661 0094 FFF7FEFF 		bl	chThdCreateStatic
 662              	.LVL52:
 663 0098 CDF81CA0 		str	r10, [sp, #28]
 664 009c 40F2000A 		movw	r10, #:lower16:.LANCHOR14
 665 00a0 CDF858A0 		str	r10, [sp, #88]
 666 00a4 40F2000A 		movw	r10, #:lower16:.LANCHOR15
 667 00a8 CDF85CA0 		str	r10, [sp, #92]
 668 00ac 40F2000A 		movw	r10, #:lower16:.LANCHOR16
 669 00b0 CDF840A0 		str	r10, [sp, #64]
 670 00b4 40F2000A 		movw	r10, #:lower16:.LANCHOR17
 671 00b8 CDF844A0 		str	r10, [sp, #68]
 672 00bc 40F2000A 		movw	r10, #:lower16:.LANCHOR18
 673 00c0 CDF848A0 		str	r10, [sp, #72]
 674 00c4 40F2000A 		movw	r10, #:lower16:.LANCHOR19
 675 00c8 CDF84CA0 		str	r10, [sp, #76]
 676 00cc 40F2000A 		movw	r10, #:lower16:.LANCHOR20
 677 00d0 CDF860A0 		str	r10, [sp, #96]
 678 00d4 40F2000A 		movw	r10, #:lower16:.LANCHOR21
 679 00d8 CDF864A0 		str	r10, [sp, #100]
 680 00dc 40F2000A 		movw	r10, #:lower16:.LANCHOR22
 681 00e0 CDF868A0 		str	r10, [sp, #104]
ARM GAS  /tmp/ccfsf5eS.s 			page 13


 682 00e4 40F2000A 		movw	r10, #:lower16:.LANCHOR23
 683 00e8 CDF86CA0 		str	r10, [sp, #108]
 684 00ec 40F2000A 		movw	r10, #:lower16:.LANCHOR24
 685 00f0 CDF870A0 		str	r10, [sp, #112]
 686 00f4 40F2000A 		movw	r10, #:lower16:.LANCHOR25
 687 00f8 CDF888A0 		str	r10, [sp, #136]
 688 00fc 40F2000A 		movw	r10, #:lower16:.LANCHOR26
 689 0100 CDF88CA0 		str	r10, [sp, #140]
 690 0104 40F2000A 		movw	r10, #:lower16:.LANCHOR27
 691 0108 CDF820A0 		str	r10, [sp, #32]
 692 010c 40F2000A 		movw	r10, #:lower16:.LANCHOR28
 693 0110 CDF854A0 		str	r10, [sp, #84]
 694 0114 40F2000A 		movw	r10, #:lower16:.LANCHOR29
 695 0118 CDF824A0 		str	r10, [sp, #36]
 696 011c 40F2000A 		movw	r10, #:lower16:.LANCHOR30
 697 0120 CDF884A0 		str	r10, [sp, #132]
 698 0124 40F2000A 		movw	r10, #:lower16:.LANCHOR34
 699 0128 CDF82CA0 		str	r10, [sp, #44]
 700 012c 40F2000A 		movw	r10, #:lower16:.LANCHOR35
 701 0130 CDF830A0 		str	r10, [sp, #48]
 702 0134 40F2000A 		movw	r10, #:lower16:.LANCHOR0
 703 0138 CDF878A0 		str	r10, [sp, #120]
 704 013c 40F2000A 		movw	r10, #:lower16:.LANCHOR1
 705 0140 CDF87CA0 		str	r10, [sp, #124]
 706 0144 40F2000A 		movw	r10, #:lower16:.LANCHOR2
 707 0148 CDF880A0 		str	r10, [sp, #128]
 708 014c 40F2000A 		movw	r10, #:lower16:.LANCHOR36
 709 0150 CDF834A0 		str	r10, [sp, #52]
 710 0154 40F2000A 		movw	r10, #:lower16:.LANCHOR37
 711 0158 CDF838A0 		str	r10, [sp, #56]
 712 015c 40F2000A 		movw	r10, #:lower16:.LANCHOR38
 713 0160 CDF83CA0 		str	r10, [sp, #60]
 714 0164 40F2000A 		movw	r10, #:lower16:.LANCHOR41
 715 0168 CDF818A0 		str	r10, [sp, #24]
 716              		.loc 1 267 0
 717 016c 2023     		movs	r3, #32
 718 016e 40F2000A 		movw	r10, #:lower16:.LANCHOR7
 719 0172 CDF828A0 		str	r10, [sp, #40]
 720 0176 7B83     		strh	r3, [r7, #26]	@ movhi
 721 0178 079F     		ldr	r7, [sp, #28]
 722 017a DDF858A0 		ldr	r10, [sp, #88]
 723 017e C0F20007 		movt	r7, #:upper16:.LANCHOR13
 724 0182 0797     		str	r7, [sp, #28]
 725 0184 179F     		ldr	r7, [sp, #92]
 726 0186 C0F2000A 		movt	r10, #:upper16:.LANCHOR14
 727 018a C0F20007 		movt	r7, #:upper16:.LANCHOR15
 728 018e CDF858A0 		str	r10, [sp, #88]
 729 0192 1797     		str	r7, [sp, #92]
 730 0194 DDF840A0 		ldr	r10, [sp, #64]
 731 0198 119F     		ldr	r7, [sp, #68]
 732 019a C0F2000A 		movt	r10, #:upper16:.LANCHOR16
 733 019e CDF840A0 		str	r10, [sp, #64]
 734 01a2 DDF848A0 		ldr	r10, [sp, #72]
 735 01a6 C0F20007 		movt	r7, #:upper16:.LANCHOR17
 736 01aa C0F2000A 		movt	r10, #:upper16:.LANCHOR18
 737 01ae 1197     		str	r7, [sp, #68]
 738 01b0 CDF848A0 		str	r10, [sp, #72]
ARM GAS  /tmp/ccfsf5eS.s 			page 14


 739 01b4 139F     		ldr	r7, [sp, #76]
 740 01b6 DDF860A0 		ldr	r10, [sp, #96]
 741 01ba C0F20007 		movt	r7, #:upper16:.LANCHOR19
 742 01be C0F2000A 		movt	r10, #:upper16:.LANCHOR20
 743 01c2 1397     		str	r7, [sp, #76]
 744 01c4 CDF860A0 		str	r10, [sp, #96]
 745 01c8 199F     		ldr	r7, [sp, #100]
 746 01ca DDF868A0 		ldr	r10, [sp, #104]
 747 01ce C0F20007 		movt	r7, #:upper16:.LANCHOR21
 748 01d2 C0F2000A 		movt	r10, #:upper16:.LANCHOR22
 749 01d6 1997     		str	r7, [sp, #100]
 750 01d8 CDF868A0 		str	r10, [sp, #104]
 751 01dc 1B9F     		ldr	r7, [sp, #108]
 752 01de DDF870A0 		ldr	r10, [sp, #112]
 753 01e2 C0F20007 		movt	r7, #:upper16:.LANCHOR23
 754 01e6 C0F2000A 		movt	r10, #:upper16:.LANCHOR24
 755 01ea 1B97     		str	r7, [sp, #108]
 756 01ec CDF870A0 		str	r10, [sp, #112]
 757 01f0 229F     		ldr	r7, [sp, #136]
 758 01f2 DDF88CA0 		ldr	r10, [sp, #140]
 759 01f6 C0F20007 		movt	r7, #:upper16:.LANCHOR25
 760 01fa C0F2000A 		movt	r10, #:upper16:.LANCHOR26
 761 01fe 2297     		str	r7, [sp, #136]
 762 0200 CDF88CA0 		str	r10, [sp, #140]
 763 0204 089F     		ldr	r7, [sp, #32]
 764 0206 DDF854A0 		ldr	r10, [sp, #84]
 765 020a C0F20007 		movt	r7, #:upper16:.LANCHOR27
 766 020e C0F2000A 		movt	r10, #:upper16:.LANCHOR28
 767 0212 0897     		str	r7, [sp, #32]
 768 0214 CDF854A0 		str	r10, [sp, #84]
 769 0218 099F     		ldr	r7, [sp, #36]
 770 021a DDF884A0 		ldr	r10, [sp, #132]
 771 021e C0F20007 		movt	r7, #:upper16:.LANCHOR29
 772 0222 C0F2000A 		movt	r10, #:upper16:.LANCHOR30
 773 0226 0997     		str	r7, [sp, #36]
 774 0228 CDF884A0 		str	r10, [sp, #132]
 775 022c 0B9F     		ldr	r7, [sp, #44]
 776 022e DDF830A0 		ldr	r10, [sp, #48]
 777 0232 C0F20007 		movt	r7, #:upper16:.LANCHOR34
 778 0236 C0F2000A 		movt	r10, #:upper16:.LANCHOR35
 779 023a 0B97     		str	r7, [sp, #44]
 780 023c CDF830A0 		str	r10, [sp, #48]
 781 0240 1E9F     		ldr	r7, [sp, #120]
 782 0242 DDF87CA0 		ldr	r10, [sp, #124]
 783 0246 C0F20007 		movt	r7, #:upper16:.LANCHOR0
 784 024a C0F2000A 		movt	r10, #:upper16:.LANCHOR1
 785 024e 1E97     		str	r7, [sp, #120]
 786 0250 CDF87CA0 		str	r10, [sp, #124]
 787 0254 209F     		ldr	r7, [sp, #128]
 788 0256 DDF834A0 		ldr	r10, [sp, #52]
 789 025a C0F20007 		movt	r7, #:upper16:.LANCHOR2
 790 025e C0F2000A 		movt	r10, #:upper16:.LANCHOR36
 791 0262 2097     		str	r7, [sp, #128]
 792 0264 CDF834A0 		str	r10, [sp, #52]
 793 0268 0E9F     		ldr	r7, [sp, #56]
 794 026a DDF83CA0 		ldr	r10, [sp, #60]
 795 026e C0F20007 		movt	r7, #:upper16:.LANCHOR37
ARM GAS  /tmp/ccfsf5eS.s 			page 15


 796 0272 C0F2000A 		movt	r10, #:upper16:.LANCHOR38
 797 0276 0E97     		str	r7, [sp, #56]
 798 0278 CDF83CA0 		str	r10, [sp, #60]
 799 027c 069F     		ldr	r7, [sp, #24]
 800 027e DDF828A0 		ldr	r10, [sp, #40]
 801 0282 40F20006 		movw	r6, #:lower16:.LANCHOR31
 802 0286 40F20005 		movw	r5, #:lower16:.LANCHOR39
 803 028a 40F2000B 		movw	fp, #:lower16:.LANCHOR40
 804 028e 40F20004 		movw	r4, #:lower16:.LANCHOR42
 805 0292 C0F20007 		movt	r7, #:upper16:.LANCHOR41
 806 0296 C0F2000A 		movt	r10, #:upper16:.LANCHOR7
 807 029a C0F20006 		movt	r6, #:upper16:.LANCHOR31
 808 029e C0F20005 		movt	r5, #:upper16:.LANCHOR39
 809 02a2 C0F2000B 		movt	fp, #:upper16:.LANCHOR40
 810 02a6 0697     		str	r7, [sp, #24]
 811 02a8 C0F20004 		movt	r4, #:upper16:.LANCHOR42
 812 02ac CDF828A0 		str	r10, [sp, #40]
 813 02b0 29E1     		b	.L52
 814              	.L44:
 815              	.LVL53:
 816              	.LBB21:
 817              	.LBB22:
 818              		.loc 1 214 0
 819 02b2 40F20000 		movw	r0, #:lower16:RTCD1
 820 02b6 40F20001 		movw	r1, #:lower16:.LANCHOR33
 821 02ba C0F20000 		movt	r0, #:upper16:RTCD1
 822 02be C0F20001 		movt	r1, #:upper16:.LANCHOR33
 823 02c2 FFF7FEFF 		bl	rtcGetTime
 824              	.LVL54:
 825              		.loc 1 215 0
 826 02c6 40F20000 		movw	r0, #:lower16:.LANCHOR33
 827 02ca 40F20001 		movw	r1, #:lower16:.LANCHOR31
 828 02ce C0F20000 		movt	r0, #:upper16:.LANCHOR33
 829 02d2 C0F20001 		movt	r1, #:upper16:.LANCHOR31
 830 02d6 0022     		movs	r2, #0
 831 02d8 FFF7FEFF 		bl	rtcConvertDateTimeToStructTm
 832              	.LVL55:
 833              	.LBE22:
 834              	.LBE21:
 835              		.loc 1 337 0
 836 02dc DDF820A0 		ldr	r10, [sp, #32]
 837              		.loc 1 339 0
 838 02e0 B068     		ldr	r0, [r6, #8]
 839              		.loc 1 337 0
 840 02e2 9AF80070 		ldrb	r7, [r10]	@ zero_extendqisi2
 841 02e6 DDF824A0 		ldr	r10, [sp, #36]
 842 02ea 9AF80010 		ldrb	r1, [r10]	@ zero_extendqisi2
 843 02ee DDF82CA0 		ldr	r10, [sp, #44]
 844 02f2 4BB2     		sxtb	r3, r1
 845 02f4 7AB2     		sxtb	r2, r7
 846 02f6 92FBF3F2 		sdiv	r2, r2, r3
 847              		.loc 1 338 0
 848 02fa 02FB1171 		mls	r1, r2, r1, r7
 849 02fe C9B2     		uxtb	r1, r1
 850              		.loc 1 339 0
 851 0300 90FBF3F7 		sdiv	r7, r0, r3
 852 0304 03FB1703 		mls	r3, r3, r7, r0
ARM GAS  /tmp/ccfsf5eS.s 			page 16


 853 0308 48B2     		sxtb	r0, r1
 854              		.loc 1 338 0
 855 030a 0C9F     		ldr	r7, [sp, #48]
 856              		.loc 1 337 0
 857 030c 8AF80020 		strb	r2, [r10]
 858              		.loc 1 339 0
 859 0310 9842     		cmp	r0, r3
 860              		.loc 1 338 0
 861 0312 3970     		strb	r1, [r7]
 862              		.loc 1 339 0
 863 0314 00F08483 		beq	.L81
 864              	.L48:
 865              		.loc 1 355 0
 866 0318 6420     		movs	r0, #100
 867 031a FFF7FEFF 		bl	chThdSleep
 868              	.LVL56:
 869              		.loc 1 356 0
 870 031e 079F     		ldr	r7, [sp, #28]
 871 0320 3B78     		ldrb	r3, [r7]	@ zero_extendqisi2
 872 0322 4C2B     		cmp	r3, #76
 873 0324 00F09982 		beq	.L82
 874              	.L50:
 875              		.loc 1 394 0
 876 0328 6420     		movs	r0, #100
 877 032a FFF7FEFF 		bl	chThdSleep
 878              	.LVL57:
 879              		.loc 1 395 0
 880 032e FFF7FEFF 		bl	onewireTest
 881              	.LVL58:
 882              		.loc 1 396 0
 883 0332 44F6D353 		movw	r3, #19923
 884 0336 C1F26203 		movt	r3, 4194
 885 033a 83FB00E3 		smull	lr, r3, r3, r0
 886 033e C717     		asrs	r7, r0, #31
 887              		.loc 1 399 0
 888 0340 46F26761 		movw	r1, #26215
 889              		.loc 1 396 0
 890 0344 C7EBA313 		rsb	r3, r7, r3, asr #6
 891              		.loc 1 399 0
 892 0348 C6F26661 		movt	r1, 26214
 893 034c 81FB03A1 		smull	r10, r1, r1, r3
 894              		.loc 1 395 0
 895 0350 DDF834A0 		ldr	r10, [sp, #52]
 896              		.loc 1 397 0
 897 0354 4FF61842 		movw	r2, #64536
 898              		.loc 1 395 0
 899 0358 CAF80000 		str	r0, [r10]
 900              		.loc 1 396 0
 901 035c DDF838A0 		ldr	r10, [sp, #56]
 902              		.loc 1 397 0
 903 0360 CFF6FF72 		movt	r2, 65535
 904              		.loc 1 401 0
 905 0364 48F21F57 		movw	r7, #34079
 906              		.loc 1 397 0
 907 0368 02FB0302 		mla	r2, r2, r3, r0
 908              		.loc 1 396 0
 909 036c CAF80030 		str	r3, [r10]
ARM GAS  /tmp/ccfsf5eS.s 			page 17


 910              		.loc 1 401 0
 911 0370 C5F2EB17 		movt	r7, 20971
 912              		.loc 1 397 0
 913 0374 DDF83CA0 		ldr	r10, [sp, #60]
 914              		.loc 1 401 0
 915 0378 87FB02E7 		smull	lr, r7, r7, r2
 916 037c D017     		asrs	r0, r2, #31
 917              		.loc 1 399 0
 918 037e 4FEAE37E 		asr	lr, r3, #31
 919 0382 CEEBA101 		rsb	r1, lr, r1, asr #2
 920              		.loc 1 397 0
 921 0386 CAF80020 		str	r2, [r10]
 922              		.loc 1 401 0
 923 038a C0EB671E 		rsb	lr, r0, r7, asr #5
 924 038e DDF818A0 		ldr	r10, [sp, #24]
 925              		.loc 1 399 0
 926 0392 2960     		str	r1, [r5]
 927              		.loc 1 400 0
 928 0394 6FF00907 		mvn	r7, #9
 929 0398 07FB0133 		mla	r3, r7, r1, r3
 930              		.loc 1 404 0
 931 039c 6420     		movs	r0, #100
 932              		.loc 1 401 0
 933 039e CAF800E0 		str	lr, [r10]
 934              		.loc 1 400 0
 935 03a2 CBF80030 		str	r3, [fp]
 936              		.loc 1 404 0
 937 03a6 FFF7FEFF 		bl	chThdSleep
 938              	.LVL59:
 939              		.loc 1 405 0
 940 03aa 40F20000 		movw	r0, #:lower16:UARTD1
 941 03ae 40F20002 		movw	r2, #:lower16:.LC11
 942 03b2 C0F20002 		movt	r2, #:upper16:.LC11
 943 03b6 0121     		movs	r1, #1
 944 03b8 C0F20000 		movt	r0, #:upper16:UARTD1
 945 03bc FFF7FEFF 		bl	uartStartSend
 946              	.LVL60:
 947              		.loc 1 407 0
 948 03c0 6420     		movs	r0, #100
 949 03c2 FFF7FEFF 		bl	chThdSleep
 950              	.LVL61:
 951              		.loc 1 408 0
 952 03c6 2868     		ldr	r0, [r5]
 953 03c8 FFF7FEFF 		bl	numero
 954              	.LVL62:
 955              		.loc 1 409 0
 956 03cc 40F20002 		movw	r2, #:lower16:.LANCHOR42
 957              		.loc 1 408 0
 958 03d0 2060     		str	r0, [r4]
 959              		.loc 1 409 0
 960 03d2 40F20000 		movw	r0, #:lower16:UARTD1
 961 03d6 C0F20002 		movt	r2, #:upper16:.LANCHOR42
 962 03da 0121     		movs	r1, #1
 963 03dc C0F20000 		movt	r0, #:upper16:UARTD1
 964 03e0 FFF7FEFF 		bl	uartStartSend
 965              	.LVL63:
 966              		.loc 1 411 0
ARM GAS  /tmp/ccfsf5eS.s 			page 18


 967 03e4 DBF80000 		ldr	r0, [fp]
 968 03e8 FFF7FEFF 		bl	numero
 969              	.LVL64:
 970 03ec 2060     		str	r0, [r4]
 971              		.loc 1 412 0
 972 03ee 6420     		movs	r0, #100
 973 03f0 FFF7FEFF 		bl	chThdSleep
 974              	.LVL65:
 975              		.loc 1 413 0
 976 03f4 40F20000 		movw	r0, #:lower16:UARTD1
 977 03f8 40F20002 		movw	r2, #:lower16:.LANCHOR42
 978 03fc C0F20002 		movt	r2, #:upper16:.LANCHOR42
 979 0400 0121     		movs	r1, #1
 980 0402 C0F20000 		movt	r0, #:upper16:UARTD1
 981 0406 FFF7FEFF 		bl	uartStartSend
 982              	.LVL66:
 983              		.loc 1 415 0
 984 040a 6420     		movs	r0, #100
 985 040c FFF7FEFF 		bl	chThdSleep
 986              	.LVL67:
 987              		.loc 1 416 0
 988 0410 40F20000 		movw	r0, #:lower16:UARTD1
 989 0414 40F20002 		movw	r2, #:lower16:.LC12
 990 0418 C0F20002 		movt	r2, #:upper16:.LC12
 991 041c 0121     		movs	r1, #1
 992 041e C0F20000 		movt	r0, #:upper16:UARTD1
 993 0422 FFF7FEFF 		bl	uartStartSend
 994              	.LVL68:
 995              		.loc 1 418 0
 996 0426 DAF80000 		ldr	r0, [r10]
 997 042a FFF7FEFF 		bl	numero
 998              	.LVL69:
 999 042e 2060     		str	r0, [r4]
 1000              		.loc 1 419 0
 1001 0430 6420     		movs	r0, #100
 1002 0432 FFF7FEFF 		bl	chThdSleep
 1003              	.LVL70:
 1004              		.loc 1 420 0
 1005 0436 40F20000 		movw	r0, #:lower16:UARTD1
 1006 043a 40F20002 		movw	r2, #:lower16:.LANCHOR42
 1007 043e C0F20002 		movt	r2, #:upper16:.LANCHOR42
 1008 0442 0121     		movs	r1, #1
 1009 0444 C0F20000 		movt	r0, #:upper16:UARTD1
 1010 0448 FFF7FEFF 		bl	uartStartSend
 1011              	.LVL71:
 1012              		.loc 1 428 0
 1013 044c 6420     		movs	r0, #100
 1014 044e FFF7FEFF 		bl	chThdSleep
 1015              	.LVL72:
 1016              		.loc 1 430 0
 1017 0452 DDF828A0 		ldr	r10, [sp, #40]
 1018 0456 DAF80090 		ldr	r9, [r10]	@ float
 1019 045a 4846     		mov	r0, r9
 1020 045c FFF7FEFF 		bl	__aeabi_f2iz
 1021              	.LVL73:
 1022              		.loc 1 431 0
 1023 0460 0021     		movs	r1, #0
ARM GAS  /tmp/ccfsf5eS.s 			page 19


 1024 0462 C4F22011 		movt	r1, 16672
 1025              		.loc 1 430 0
 1026 0466 8046     		mov	r8, r0
 1027 0468 2860     		str	r0, [r5]
 1028              		.loc 1 431 0
 1029 046a 4846     		mov	r0, r9
 1030 046c FFF7FEFF 		bl	__aeabi_fmul
 1031              	.LVL74:
 1032 0470 FFF7FEFF 		bl	__aeabi_f2iz
 1033              	.LVL75:
 1034 0474 07FB0807 		mla	r7, r7, r8, r0
 1035              		.loc 1 433 0
 1036 0478 6420     		movs	r0, #100
 1037              		.loc 1 431 0
 1038 047a CBF80070 		str	r7, [fp]
 1039              		.loc 1 433 0
 1040 047e FFF7FEFF 		bl	chThdSleep
 1041              	.LVL76:
 1042              		.loc 1 434 0
 1043 0482 40F20000 		movw	r0, #:lower16:UARTD1
 1044 0486 40F20002 		movw	r2, #:lower16:.LC13
 1045 048a C0F20002 		movt	r2, #:upper16:.LC13
 1046 048e 0121     		movs	r1, #1
 1047 0490 C0F20000 		movt	r0, #:upper16:UARTD1
 1048 0494 FFF7FEFF 		bl	uartStartSend
 1049              	.LVL77:
 1050              		.loc 1 436 0
 1051 0498 6420     		movs	r0, #100
 1052 049a FFF7FEFF 		bl	chThdSleep
 1053              	.LVL78:
 1054              		.loc 1 437 0
 1055 049e 2868     		ldr	r0, [r5]
 1056 04a0 FFF7FEFF 		bl	numero
 1057              	.LVL79:
 1058              		.loc 1 438 0
 1059 04a4 40F20002 		movw	r2, #:lower16:.LANCHOR42
 1060              		.loc 1 437 0
 1061 04a8 2060     		str	r0, [r4]
 1062              		.loc 1 438 0
 1063 04aa 40F20000 		movw	r0, #:lower16:UARTD1
 1064 04ae C0F20002 		movt	r2, #:upper16:.LANCHOR42
 1065 04b2 0121     		movs	r1, #1
 1066 04b4 C0F20000 		movt	r0, #:upper16:UARTD1
 1067 04b8 FFF7FEFF 		bl	uartStartSend
 1068              	.LVL80:
 1069              		.loc 1 440 0
 1070 04bc 6420     		movs	r0, #100
 1071 04be FFF7FEFF 		bl	chThdSleep
 1072              	.LVL81:
 1073              		.loc 1 441 0
 1074 04c2 40F20000 		movw	r0, #:lower16:UARTD1
 1075 04c6 40F20002 		movw	r2, #:lower16:.LC12
 1076 04ca C0F20002 		movt	r2, #:upper16:.LC12
 1077 04ce 0121     		movs	r1, #1
 1078 04d0 C0F20000 		movt	r0, #:upper16:UARTD1
 1079 04d4 FFF7FEFF 		bl	uartStartSend
 1080              	.LVL82:
ARM GAS  /tmp/ccfsf5eS.s 			page 20


 1081              		.loc 1 443 0
 1082 04d8 DBF80000 		ldr	r0, [fp]
 1083 04dc FFF7FEFF 		bl	numero
 1084              	.LVL83:
 1085 04e0 2060     		str	r0, [r4]
 1086              		.loc 1 444 0
 1087 04e2 6420     		movs	r0, #100
 1088 04e4 FFF7FEFF 		bl	chThdSleep
 1089              	.LVL84:
 1090              		.loc 1 445 0
 1091 04e8 40F20000 		movw	r0, #:lower16:UARTD1
 1092 04ec 40F20002 		movw	r2, #:lower16:.LANCHOR42
 1093 04f0 C0F20000 		movt	r0, #:upper16:UARTD1
 1094 04f4 C0F20002 		movt	r2, #:upper16:.LANCHOR42
 1095 04f8 0121     		movs	r1, #1
 1096 04fa FFF7FEFF 		bl	uartStartSend
 1097              	.LVL85:
 1098              		.loc 1 449 0
 1099 04fe 40F6AC50 		movw	r0, #3500
 1100 0502 FFF7FEFF 		bl	chThdSleep
 1101              	.LVL86:
 1102              	.L52:
 1103              		.loc 1 273 0
 1104 0506 40F20000 		movw	r0, #:lower16:UARTD1
 1105 050a 40F20001 		movw	r1, #:lower16:.LANCHOR12
 1106 050e C0F20001 		movt	r1, #:upper16:.LANCHOR12
 1107 0512 C0F20000 		movt	r0, #:upper16:UARTD1
 1108 0516 FFF7FEFF 		bl	uartStart
 1109              	.LVL87:
 1110              		.loc 1 274 0
 1111 051a 40F20000 		movw	r0, #:lower16:UARTD1
 1112 051e C0F20000 		movt	r0, #:upper16:UARTD1
 1113 0522 FFF7FEFF 		bl	uartStopReceive
 1114              	.LVL88:
 1115              		.loc 1 275 0
 1116 0526 40F20000 		movw	r0, #:lower16:UARTD1
 1117 052a C0F20000 		movt	r0, #:upper16:UARTD1
 1118 052e FFF7FEFF 		bl	uartStopSend
 1119              	.LVL89:
 1120              		.loc 1 276 0
 1121 0532 40F20000 		movw	r0, #:lower16:UARTD1
 1122 0536 40F20002 		movw	r2, #:lower16:.LANCHOR13
 1123 053a C0F20000 		movt	r0, #:upper16:UARTD1
 1124 053e C0F20002 		movt	r2, #:upper16:.LANCHOR13
 1125 0542 1221     		movs	r1, #18
 1126 0544 FFF7FEFF 		bl	uartStartReceive
 1127              	.LVL90:
 1128              		.loc 1 285 0
 1129 0548 6420     		movs	r0, #100
 1130 054a FFF7FEFF 		bl	chThdSleep
 1131              	.LVL91:
 1132              		.loc 1 286 0
 1133 054e 079F     		ldr	r7, [sp, #28]
 1134 0550 3B78     		ldrb	r3, [r7]	@ zero_extendqisi2
 1135 0552 442B     		cmp	r3, #68
 1136 0554 7FF4ADAE 		bne	.L44
 1137              	.LBB23:
ARM GAS  /tmp/ccfsf5eS.s 			page 21


 1138              		.loc 1 288 0
 1139 0558 0023     		movs	r3, #0
 1140 055a C4F20203 		movt	r3, 16386
 1141 055e 2022     		movs	r2, #32
 1142              		.loc 1 290 0
 1143 0560 40F20000 		movw	r0, #:lower16:.LANCHOR13
 1144              		.loc 1 288 0
 1145 0564 5A83     		strh	r2, [r3, #26]	@ movhi
 1146              		.loc 1 290 0
 1147 0566 6821     		movs	r1, #104
 1148 0568 C0F20000 		movt	r0, #:upper16:.LANCHOR13
 1149 056c FFF7FEFF 		bl	strchr
 1150              	.LVL92:
 1151 0570 DDF858A0 		ldr	r10, [sp, #88]
 1152 0574 8146     		mov	r9, r0
 1153              		.loc 1 291 0
 1154 0576 40F20000 		movw	r0, #:lower16:.LANCHOR13
 1155 057a 6D21     		movs	r1, #109
 1156 057c C0F20000 		movt	r0, #:upper16:.LANCHOR13
 1157              		.loc 1 290 0
 1158 0580 CAF80090 		str	r9, [r10]
 1159              		.loc 1 291 0
 1160 0584 FFF7FEFF 		bl	strchr
 1161              	.LVL93:
 1162 0588 179F     		ldr	r7, [sp, #92]
 1163 058a 8246     		mov	r10, r0
 1164              		.loc 1 292 0
 1165 058c 40F20000 		movw	r0, #:lower16:.LANCHOR13
 1166 0590 6F21     		movs	r1, #111
 1167 0592 C0F20000 		movt	r0, #:upper16:.LANCHOR13
 1168              		.loc 1 291 0
 1169 0596 C7F800A0 		str	r10, [r7]
 1170              		.loc 1 292 0
 1171 059a FFF7FEFF 		bl	strchr
 1172              	.LVL94:
 1173 059e DDF840E0 		ldr	lr, [sp, #64]
 1174 05a2 0746     		mov	r7, r0
 1175              		.loc 1 293 0
 1176 05a4 40F20000 		movw	r0, #:lower16:.LANCHOR13
 1177 05a8 6621     		movs	r1, #102
 1178 05aa C0F20000 		movt	r0, #:upper16:.LANCHOR13
 1179              		.loc 1 292 0
 1180 05ae CEF80070 		str	r7, [lr]
 1181              		.loc 1 293 0
 1182 05b2 FFF7FEFF 		bl	strchr
 1183              	.LVL95:
 1184 05b6 119A     		ldr	r2, [sp, #68]
 1185 05b8 8046     		mov	r8, r0
 1186              		.loc 1 294 0
 1187 05ba 40F20000 		movw	r0, #:lower16:.LANCHOR13
 1188 05be 6721     		movs	r1, #103
 1189 05c0 C0F20000 		movt	r0, #:upper16:.LANCHOR13
 1190              		.loc 1 293 0
 1191 05c4 C2F80080 		str	r8, [r2]
 1192              		.loc 1 294 0
 1193 05c8 FFF7FEFF 		bl	strchr
 1194              	.LVL96:
ARM GAS  /tmp/ccfsf5eS.s 			page 22


 1195 05cc 129B     		ldr	r3, [sp, #72]
 1196 05ce 0246     		mov	r2, r0
 1197              		.loc 1 295 0
 1198 05d0 40F20000 		movw	r0, #:lower16:.LANCHOR13
 1199 05d4 C0F20000 		movt	r0, #:upper16:.LANCHOR13
 1200 05d8 7A21     		movs	r1, #122
 1201              		.loc 1 294 0
 1202 05da 1A60     		str	r2, [r3]
 1203              		.loc 1 295 0
 1204 05dc 0492     		str	r2, [sp, #16]
 1205 05de FFF7FEFF 		bl	strchr
 1206              	.LVL97:
 1207 05e2 DDF84CE0 		ldr	lr, [sp, #76]
 1208              		.loc 1 297 0
 1209 05e6 049A     		ldr	r2, [sp, #16]
 1210              		.loc 1 295 0
 1211 05e8 CEF80000 		str	r0, [lr]
 1212              		.loc 1 297 0
 1213 05ec 002F     		cmp	r7, #0
 1214 05ee 00F02B82 		beq	.L47
 1215              		.loc 1 297 0 is_stmt 0 discriminator 1
 1216 05f2 B8F1000F 		cmp	r8, #0
 1217 05f6 00F02782 		beq	.L47
 1218 05fa 002A     		cmp	r2, #0
 1219 05fc 00F02482 		beq	.L47
 1220 0600 0028     		cmp	r0, #0
 1221 0602 00F02182 		beq	.L47
 1222 0606 B9F1000F 		cmp	r9, #0
 1223 060a 00F01D82 		beq	.L47
 1224 060e BAF1000F 		cmp	r10, #0
 1225 0612 00F01982 		beq	.L47
 1226              		.loc 1 299 0 is_stmt 1
 1227 0616 40F20000 		movw	r0, #:lower16:.LANCHOR13
 1228 061a 40F20001 		movw	r1, #:lower16:.LC2
 1229 061e C0F20001 		movt	r1, #:upper16:.LC2
 1230 0622 C0F20000 		movt	r0, #:upper16:.LANCHOR13
 1231 0626 0492     		str	r2, [sp, #16]
 1232 0628 FFF7FEFF 		bl	strcspn
 1233              	.LVL98:
 1234 062c 40F20001 		movw	r1, #:lower16:.LC3
 1235 0630 0346     		mov	r3, r0
 1236 0632 40F20000 		movw	r0, #:lower16:.LANCHOR13
 1237 0636 C0F20001 		movt	r1, #:upper16:.LC3
 1238 063a C0F20000 		movt	r0, #:upper16:.LANCHOR13
 1239 063e 0593     		str	r3, [sp, #20]
 1240 0640 FFF7FEFF 		bl	strcspn
 1241              	.LVL99:
 1242 0644 059B     		ldr	r3, [sp, #20]
 1243 0646 DDF868E0 		ldr	lr, [sp, #104]
 1244 064a 013B     		subs	r3, r3, #1
 1245 064c 1B1A     		subs	r3, r3, r0
 1246              		.loc 1 300 0
 1247 064e 40F20001 		movw	r1, #:lower16:.LC4
 1248 0652 40F20000 		movw	r0, #:lower16:.LANCHOR13
 1249 0656 C0F20001 		movt	r1, #:upper16:.LC4
 1250 065a C0F20000 		movt	r0, #:upper16:.LANCHOR13
 1251              		.loc 1 299 0
ARM GAS  /tmp/ccfsf5eS.s 			page 23


 1252 065e 8EF80030 		strb	r3, [lr]
 1253              		.loc 1 300 0
 1254 0662 FFF7FEFF 		bl	strcspn
 1255              	.LVL100:
 1256 0666 40F20001 		movw	r1, #:lower16:.LC2
 1257 066a 0346     		mov	r3, r0
 1258 066c 40F20000 		movw	r0, #:lower16:.LANCHOR13
 1259 0670 C0F20001 		movt	r1, #:upper16:.LC2
 1260 0674 C0F20000 		movt	r0, #:upper16:.LANCHOR13
 1261 0678 0593     		str	r3, [sp, #20]
 1262 067a FFF7FEFF 		bl	strcspn
 1263              	.LVL101:
 1264 067e 059B     		ldr	r3, [sp, #20]
 1265 0680 DDF86CE0 		ldr	lr, [sp, #108]
 1266 0684 013B     		subs	r3, r3, #1
 1267 0686 1B1A     		subs	r3, r3, r0
 1268              		.loc 1 301 0
 1269 0688 40F20001 		movw	r1, #:lower16:.LC5
 1270 068c 40F20000 		movw	r0, #:lower16:.LANCHOR13
 1271 0690 C0F20001 		movt	r1, #:upper16:.LC5
 1272 0694 C0F20000 		movt	r0, #:upper16:.LANCHOR13
 1273              		.loc 1 300 0
 1274 0698 8EF80030 		strb	r3, [lr]
 1275              		.loc 1 301 0
 1276 069c FFF7FEFF 		bl	strcspn
 1277              	.LVL102:
 1278 06a0 40F20001 		movw	r1, #:lower16:.LC4
 1279 06a4 0346     		mov	r3, r0
 1280 06a6 40F20000 		movw	r0, #:lower16:.LANCHOR13
 1281 06aa C0F20001 		movt	r1, #:upper16:.LC4
 1282 06ae C0F20000 		movt	r0, #:upper16:.LANCHOR13
 1283 06b2 0593     		str	r3, [sp, #20]
 1284 06b4 FFF7FEFF 		bl	strcspn
 1285              	.LVL103:
 1286 06b8 059B     		ldr	r3, [sp, #20]
 1287 06ba DDF870E0 		ldr	lr, [sp, #112]
 1288 06be 013B     		subs	r3, r3, #1
 1289 06c0 1B1A     		subs	r3, r3, r0
 1290              		.loc 1 302 0
 1291 06c2 40F20001 		movw	r1, #:lower16:.LC6
 1292 06c6 40F20000 		movw	r0, #:lower16:.LANCHOR13
 1293 06ca C0F20001 		movt	r1, #:upper16:.LC6
 1294 06ce C0F20000 		movt	r0, #:upper16:.LANCHOR13
 1295              		.loc 1 301 0
 1296 06d2 8EF80030 		strb	r3, [lr]
 1297              		.loc 1 302 0
 1298 06d6 FFF7FEFF 		bl	strcspn
 1299              	.LVL104:
 1300 06da 40F20001 		movw	r1, #:lower16:.LC5
 1301 06de 0346     		mov	r3, r0
 1302 06e0 40F20000 		movw	r0, #:lower16:.LANCHOR13
 1303 06e4 C0F20001 		movt	r1, #:upper16:.LC5
 1304 06e8 C0F20000 		movt	r0, #:upper16:.LANCHOR13
 1305 06ec 0593     		str	r3, [sp, #20]
 1306 06ee FFF7FEFF 		bl	strcspn
 1307              	.LVL105:
 1308 06f2 059B     		ldr	r3, [sp, #20]
ARM GAS  /tmp/ccfsf5eS.s 			page 24


 1309 06f4 DDF888E0 		ldr	lr, [sp, #136]
 1310 06f8 013B     		subs	r3, r3, #1
 1311 06fa 1B1A     		subs	r3, r3, r0
 1312              		.loc 1 303 0
 1313 06fc 40F20001 		movw	r1, #:lower16:.LC7
 1314 0700 40F20000 		movw	r0, #:lower16:.LANCHOR13
 1315 0704 C0F20001 		movt	r1, #:upper16:.LC7
 1316 0708 C0F20000 		movt	r0, #:upper16:.LANCHOR13
 1317              		.loc 1 302 0
 1318 070c 8EF80030 		strb	r3, [lr]
 1319              		.loc 1 303 0
 1320 0710 FFF7FEFF 		bl	strcspn
 1321              	.LVL106:
 1322 0714 40F20001 		movw	r1, #:lower16:.LC6
 1323 0718 1490     		str	r0, [sp, #80]
 1324 071a 40F20000 		movw	r0, #:lower16:.LANCHOR13
 1325 071e C0F20001 		movt	r1, #:upper16:.LC6
 1326 0722 C0F20000 		movt	r0, #:upper16:.LANCHOR13
 1327 0726 FFF7FEFF 		bl	strcspn
 1328              	.LVL107:
 1329              		.loc 1 323 0
 1330 072a 9AF801E0 		ldrb	lr, [r10, #1]	@ zero_extendqisi2
 1331              		.loc 1 321 0
 1332 072e 049A     		ldr	r2, [sp, #16]
 1333              		.loc 1 323 0
 1334 0730 9AF802A0 		ldrb	r10, [r10, #2]	@ zero_extendqisi2
 1335              		.loc 1 321 0
 1336 0734 5278     		ldrb	r2, [r2, #1]	@ zero_extendqisi2
 1337              		.loc 1 319 0
 1338 0736 FB78     		ldrb	r3, [r7, #3]	@ zero_extendqisi2
 1339              		.loc 1 318 0
 1340 0738 7978     		ldrb	r1, [r7, #1]	@ zero_extendqisi2
 1341              		.loc 1 321 0
 1342 073a 0392     		str	r2, [sp, #12]
 1343              		.loc 1 323 0
 1344 073c AEF1300E 		sub	lr, lr, #48
 1345 0740 AAF1300A 		sub	r10, r10, #48
 1346 0744 0EEB8E0E 		add	lr, lr, lr, lsl #2
 1347              		.loc 1 303 0
 1348 0748 149A     		ldr	r2, [sp, #80]
 1349              		.loc 1 322 0
 1350 074a 99F801C0 		ldrb	ip, [r9, #1]	@ zero_extendqisi2
 1351 074e 99F80290 		ldrb	r9, [r9, #2]	@ zero_extendqisi2
 1352              		.loc 1 323 0
 1353 0752 0AEB4E0E 		add	lr, r10, lr, lsl #1
 1354              		.loc 1 319 0
 1355 0756 303B     		subs	r3, r3, #48
 1356              		.loc 1 318 0
 1357 0758 97F802A0 		ldrb	r10, [r7, #2]	@ zero_extendqisi2
 1358              		.loc 1 319 0
 1359 075c 3F79     		ldrb	r7, [r7, #4]	@ zero_extendqisi2
 1360 075e 03EB8303 		add	r3, r3, r3, lsl #2
 1361              		.loc 1 318 0
 1362 0762 3039     		subs	r1, r1, #48
 1363              		.loc 1 319 0
 1364 0764 1D93     		str	r3, [sp, #116]
 1365              		.loc 1 303 0
ARM GAS  /tmp/ccfsf5eS.s 			page 25


 1366 0766 013A     		subs	r2, r2, #1
 1367              		.loc 1 318 0
 1368 0768 AAF1300A 		sub	r10, r10, #48
 1369 076c 01EB8101 		add	r1, r1, r1, lsl #2
 1370              		.loc 1 303 0
 1371 0770 131A     		subs	r3, r2, r0
 1372              		.loc 1 318 0
 1373 0772 0AEB4101 		add	r1, r10, r1, lsl #1
 1374              		.loc 1 321 0
 1375 0776 0398     		ldr	r0, [sp, #12]
 1376              		.loc 1 319 0
 1377 0778 DDF874A0 		ldr	r10, [sp, #116]
 1378 077c 303F     		subs	r7, r7, #48
 1379              		.loc 1 321 0
 1380 077e A0F13002 		sub	r2, r0, #48
 1381              		.loc 1 322 0
 1382 0782 ACF1300C 		sub	ip, ip, #48
 1383              		.loc 1 319 0
 1384 0786 07EB4A00 		add	r0, r7, r10, lsl #1
 1385              		.loc 1 303 0
 1386 078a 239F     		ldr	r7, [sp, #140]
 1387              		.loc 1 322 0
 1388 078c A9F13009 		sub	r9, r9, #48
 1389 0790 0CEB8C0C 		add	ip, ip, ip, lsl #2
 1390 0794 09EB4C0C 		add	ip, r9, ip, lsl #1
 1391              		.loc 1 320 0
 1392 0798 98F80190 		ldrb	r9, [r8, #1]	@ zero_extendqisi2
 1393 079c 98F80280 		ldrb	r8, [r8, #2]	@ zero_extendqisi2
 1394              		.loc 1 303 0
 1395 07a0 3B70     		strb	r3, [r7]
 1396              		.loc 1 321 0
 1397 07a2 DDF884A0 		ldr	r10, [sp, #132]
 1398              		.loc 1 322 0
 1399 07a6 199F     		ldr	r7, [sp, #100]
 1400              		.loc 1 321 0
 1401 07a8 8AF80020 		strb	r2, [r10]
 1402              		.loc 1 322 0
 1403 07ac 5FFA8CFC 		uxtb	ip, ip
 1404 07b0 87F800C0 		strb	ip, [r7]
 1405              		.loc 1 323 0
 1406 07b4 DDF860A0 		ldr	r10, [sp, #96]
 1407              		.loc 1 318 0
 1408 07b8 089F     		ldr	r7, [sp, #32]
 1409              		.loc 1 320 0
 1410 07ba A9F13009 		sub	r9, r9, #48
 1411              		.loc 1 323 0
 1412 07be 5FFA8EFE 		uxtb	lr, lr
 1413 07c2 8AF800E0 		strb	lr, [r10]
 1414              		.loc 1 318 0
 1415 07c6 3970     		strb	r1, [r7]
 1416              		.loc 1 320 0
 1417 07c8 09EB8909 		add	r9, r9, r9, lsl #2
 1418 07cc A8F13008 		sub	r8, r8, #48
 1419              		.loc 1 319 0
 1420 07d0 DDF854A0 		ldr	r10, [sp, #84]
 1421              		.loc 1 320 0
 1422 07d4 099F     		ldr	r7, [sp, #36]
ARM GAS  /tmp/ccfsf5eS.s 			page 26


 1423              		.loc 1 319 0
 1424 07d6 8AF80000 		strb	r0, [r10]
 1425              		.loc 1 320 0
 1426 07da 08EB4909 		add	r9, r8, r9, lsl #1
 1427 07de 87F80090 		strb	r9, [r7]
 1428              	.L46:
 1429              		.loc 1 326 0
 1430 07e2 40F20008 		movw	r8, #:lower16:.LC8
 1431 07e6 C0F20008 		movt	r8, #:upper16:.LC8
 1432 07ea B8E80F00 		ldmia	r8!, {r0, r1, r2, r3}
 1433 07ee 40F20007 		movw	r7, #:lower16:.LANCHOR13
 1434 07f2 C0F20007 		movt	r7, #:upper16:.LANCHOR13
 1435 07f6 0FC7     		stmia	r7!, {r0, r1, r2, r3}
 1436 07f8 D8F80080 		ldr	r8, [r8]
 1437              		.loc 1 329 0
 1438 07fc 0023     		movs	r3, #0
 1439              		.loc 1 328 0
 1440 07fe 4FFA8EF1 		sxtb	r1, lr
 1441 0802 4FFA8CFC 		sxtb	ip, ip
 1442              		.loc 1 330 0
 1443 0806 40F20000 		movw	r0, #:lower16:.LANCHOR31
 1444 080a 40F20002 		movw	r2, #:lower16:.LANCHOR32
 1445              		.loc 1 328 0
 1446 080e 7160     		str	r1, [r6, #4]
 1447 0810 C6F808C0 		str	ip, [r6, #8]
 1448              		.loc 1 330 0
 1449 0814 1946     		mov	r1, r3
 1450              		.loc 1 329 0
 1451 0816 4FF0380E 		mov	lr, #56
 1452              		.loc 1 326 0
 1453 081a A7F80080 		strh	r8, [r7]	@ movhi
 1454              	.LVL108:
 1455              		.loc 1 329 0
 1456 081e 4FF0040C 		mov	ip, #4
 1457 0822 3360     		str	r3, [r6]
 1458 0824 F361     		str	r3, [r6, #28]
 1459 0826 3362     		str	r3, [r6, #32]
 1460              		.loc 1 330 0
 1461 0828 C0F20000 		movt	r0, #:upper16:.LANCHOR31
 1462              		.loc 1 329 0
 1463 082c 0323     		movs	r3, #3
 1464              		.loc 1 330 0
 1465 082e C0F20002 		movt	r2, #:upper16:.LANCHOR32
 1466              		.loc 1 329 0
 1467 0832 3C27     		movs	r7, #60
 1468 0834 C6F80CE0 		str	lr, [r6, #12]
 1469 0838 C6F810C0 		str	ip, [r6, #16]
 1470 083c 7761     		str	r7, [r6, #20]
 1471 083e B361     		str	r3, [r6, #24]
 1472              		.loc 1 330 0
 1473 0840 FFF7FEFF 		bl	rtcConvertStructTmToDateTime
 1474              	.LVL109:
 1475              		.loc 1 331 0
 1476 0844 40F20000 		movw	r0, #:lower16:RTCD1
 1477 0848 40F20001 		movw	r1, #:lower16:.LANCHOR32
 1478 084c C0F20000 		movt	r0, #:upper16:RTCD1
 1479 0850 C0F20001 		movt	r1, #:upper16:.LANCHOR32
ARM GAS  /tmp/ccfsf5eS.s 			page 27


 1480 0854 FFF7FEFF 		bl	rtcSetTime
 1481              	.LVL110:
 1482 0858 2BE5     		b	.L44
 1483              	.LVL111:
 1484              	.L82:
 1485              	.LBE23:
 1486              		.loc 1 358 0
 1487 085a 40F20000 		movw	r0, #:lower16:.LANCHOR13
 1488 085e 7221     		movs	r1, #114
 1489 0860 C0F20000 		movt	r0, #:upper16:.LANCHOR13
 1490 0864 FFF7FEFF 		bl	strchr
 1491              	.LVL112:
 1492 0868 DDF840A0 		ldr	r10, [sp, #64]
 1493 086c 0746     		mov	r7, r0
 1494              		.loc 1 359 0
 1495 086e 40F20000 		movw	r0, #:lower16:.LANCHOR13
 1496 0872 6721     		movs	r1, #103
 1497 0874 C0F20000 		movt	r0, #:upper16:.LANCHOR13
 1498              		.loc 1 358 0
 1499 0878 CAF80070 		str	r7, [r10]
 1500              		.loc 1 359 0
 1501 087c FFF7FEFF 		bl	strchr
 1502              	.LVL113:
 1503 0880 DDF844A0 		ldr	r10, [sp, #68]
 1504 0884 8046     		mov	r8, r0
 1505              		.loc 1 360 0
 1506 0886 40F20000 		movw	r0, #:lower16:.LANCHOR13
 1507 088a 6221     		movs	r1, #98
 1508 088c C0F20000 		movt	r0, #:upper16:.LANCHOR13
 1509              		.loc 1 359 0
 1510 0890 CAF80080 		str	r8, [r10]
 1511              		.loc 1 360 0
 1512 0894 FFF7FEFF 		bl	strchr
 1513              	.LVL114:
 1514 0898 DDF848A0 		ldr	r10, [sp, #72]
 1515 089c 8146     		mov	r9, r0
 1516              		.loc 1 361 0
 1517 089e 40F20000 		movw	r0, #:lower16:.LANCHOR13
 1518 08a2 C0F20000 		movt	r0, #:upper16:.LANCHOR13
 1519 08a6 7A21     		movs	r1, #122
 1520              		.loc 1 360 0
 1521 08a8 CAF80090 		str	r9, [r10]
 1522              		.loc 1 361 0
 1523 08ac FFF7FEFF 		bl	strchr
 1524              	.LVL115:
 1525 08b0 DDF84CA0 		ldr	r10, [sp, #76]
 1526 08b4 CAF80000 		str	r0, [r10]
 1527              		.loc 1 363 0
 1528 08b8 002F     		cmp	r7, #0
 1529 08ba 00F0A280 		beq	.L51
 1530              		.loc 1 363 0 is_stmt 0 discriminator 1
 1531 08be B8F1000F 		cmp	r8, #0
 1532 08c2 00F09E80 		beq	.L51
 1533 08c6 B9F1000F 		cmp	r9, #0
 1534 08ca 00F09A80 		beq	.L51
 1535 08ce 0028     		cmp	r0, #0
 1536 08d0 00F09780 		beq	.L51
ARM GAS  /tmp/ccfsf5eS.s 			page 28


 1537              		.loc 1 365 0 is_stmt 1
 1538 08d4 40F20000 		movw	r0, #:lower16:.LANCHOR13
 1539 08d8 40F20001 		movw	r1, #:lower16:.LC6
 1540 08dc C0F20001 		movt	r1, #:upper16:.LC6
 1541 08e0 C0F20000 		movt	r0, #:upper16:.LANCHOR13
 1542 08e4 FFF7FEFF 		bl	strcspn
 1543              	.LVL116:
 1544 08e8 40F20001 		movw	r1, #:lower16:.LC9
 1545 08ec 8246     		mov	r10, r0
 1546 08ee 40F20000 		movw	r0, #:lower16:.LANCHOR13
 1547 08f2 C0F20001 		movt	r1, #:upper16:.LC9
 1548 08f6 C0F20000 		movt	r0, #:upper16:.LANCHOR13
 1549 08fa FFF7FEFF 		bl	strcspn
 1550              	.LVL117:
 1551 08fe 0AF1FF3A 		add	r10, r10, #-1
 1552 0902 DDF868E0 		ldr	lr, [sp, #104]
 1553 0906 C0EB0A0A 		rsb	r10, r0, r10
 1554              		.loc 1 366 0
 1555 090a 40F20001 		movw	r1, #:lower16:.LC10
 1556 090e 40F20000 		movw	r0, #:lower16:.LANCHOR13
 1557 0912 C0F20001 		movt	r1, #:upper16:.LC10
 1558 0916 C0F20000 		movt	r0, #:upper16:.LANCHOR13
 1559              		.loc 1 365 0
 1560 091a 8EF800A0 		strb	r10, [lr]
 1561              		.loc 1 366 0
 1562 091e FFF7FEFF 		bl	strcspn
 1563              	.LVL118:
 1564 0922 40F20001 		movw	r1, #:lower16:.LC6
 1565 0926 8246     		mov	r10, r0
 1566 0928 40F20000 		movw	r0, #:lower16:.LANCHOR13
 1567 092c C0F20001 		movt	r1, #:upper16:.LC6
 1568 0930 C0F20000 		movt	r0, #:upper16:.LANCHOR13
 1569 0934 FFF7FEFF 		bl	strcspn
 1570              	.LVL119:
 1571 0938 0AF1FF3A 		add	r10, r10, #-1
 1572 093c 1B9A     		ldr	r2, [sp, #108]
 1573 093e C0EB0A0A 		rsb	r10, r0, r10
 1574              		.loc 1 367 0
 1575 0942 40F20001 		movw	r1, #:lower16:.LC7
 1576 0946 40F20000 		movw	r0, #:lower16:.LANCHOR13
 1577 094a C0F20001 		movt	r1, #:upper16:.LC7
 1578 094e C0F20000 		movt	r0, #:upper16:.LANCHOR13
 1579              		.loc 1 366 0
 1580 0952 82F800A0 		strb	r10, [r2]
 1581              		.loc 1 367 0
 1582 0956 FFF7FEFF 		bl	strcspn
 1583              	.LVL120:
 1584 095a 40F20001 		movw	r1, #:lower16:.LC10
 1585 095e 8246     		mov	r10, r0
 1586 0960 40F20000 		movw	r0, #:lower16:.LANCHOR13
 1587 0964 C0F20001 		movt	r1, #:upper16:.LC10
 1588 0968 C0F20000 		movt	r0, #:upper16:.LANCHOR13
 1589 096c FFF7FEFF 		bl	strcspn
 1590              	.LVL121:
 1591              		.loc 1 378 0
 1592 0970 7A78     		ldrb	r2, [r7, #1]	@ zero_extendqisi2
 1593 0972 FB78     		ldrb	r3, [r7, #3]	@ zero_extendqisi2
ARM GAS  /tmp/ccfsf5eS.s 			page 29


 1594 0974 B978     		ldrb	r1, [r7, #2]	@ zero_extendqisi2
 1595 0976 1E9F     		ldr	r7, [sp, #120]
 1596              		.loc 1 379 0
 1597 0978 DDF87CE0 		ldr	lr, [sp, #124]
 1598              		.loc 1 378 0
 1599 097c C2F13002 		rsb	r2, r2, #48
 1600 0980 02EB8202 		add	r2, r2, r2, lsl #2
 1601 0984 02EB8202 		add	r2, r2, r2, lsl #2
 1602 0988 CF33     		adds	r3, r3, #207
 1603 098a 3039     		subs	r1, r1, #48
 1604 098c 03EB8203 		add	r3, r3, r2, lsl #2
 1605 0990 01EB8101 		add	r1, r1, r1, lsl #2
 1606 0994 03EB4101 		add	r1, r3, r1, lsl #1
 1607 0998 3980     		strh	r1, [r7]	@ movhi
 1608              		.loc 1 379 0
 1609 099a 98F80110 		ldrb	r1, [r8, #1]	@ zero_extendqisi2
 1610 099e 98F80320 		ldrb	r2, [r8, #3]	@ zero_extendqisi2
 1611 09a2 98F80270 		ldrb	r7, [r8, #2]	@ zero_extendqisi2
 1612              		.loc 1 380 0
 1613 09a6 99F80330 		ldrb	r3, [r9, #3]	@ zero_extendqisi2
 1614              		.loc 1 379 0
 1615 09aa C1F13001 		rsb	r1, r1, #48
 1616 09ae 01EB8101 		add	r1, r1, r1, lsl #2
 1617 09b2 01EB8101 		add	r1, r1, r1, lsl #2
 1618 09b6 CF32     		adds	r2, r2, #207
 1619 09b8 303F     		subs	r7, r7, #48
 1620 09ba 02EB8102 		add	r2, r2, r1, lsl #2
 1621 09be 07EB8707 		add	r7, r7, r7, lsl #2
 1622 09c2 02EB4707 		add	r7, r2, r7, lsl #1
 1623 09c6 AEF80070 		strh	r7, [lr]	@ movhi
 1624              		.loc 1 380 0
 1625 09ca 99F80110 		ldrb	r1, [r9, #1]	@ zero_extendqisi2
 1626 09ce 99F80220 		ldrb	r2, [r9, #2]	@ zero_extendqisi2
 1627              		.loc 1 367 0
 1628 09d2 1C9F     		ldr	r7, [sp, #112]
 1629              		.loc 1 380 0
 1630 09d4 C1F13001 		rsb	r1, r1, #48
 1631 09d8 01EB8101 		add	r1, r1, r1, lsl #2
 1632              		.loc 1 367 0
 1633 09dc 0AF1FF3A 		add	r10, r10, #-1
 1634              		.loc 1 380 0
 1635 09e0 01EB8101 		add	r1, r1, r1, lsl #2
 1636 09e4 CF33     		adds	r3, r3, #207
 1637 09e6 303A     		subs	r2, r2, #48
 1638              		.loc 1 367 0
 1639 09e8 C0EB0A00 		rsb	r0, r0, r10
 1640              		.loc 1 380 0
 1641 09ec 03EB8101 		add	r1, r3, r1, lsl #2
 1642 09f0 02EB8202 		add	r2, r2, r2, lsl #2
 1643 09f4 DDF880A0 		ldr	r10, [sp, #128]
 1644              		.loc 1 367 0
 1645 09f8 3870     		strb	r0, [r7]
 1646              		.loc 1 380 0
 1647 09fa 01EB4202 		add	r2, r1, r2, lsl #1
 1648 09fe AAF80020 		strh	r2, [r10]	@ movhi
 1649              	.L51:
 1650              		.loc 1 383 0
ARM GAS  /tmp/ccfsf5eS.s 			page 30


 1651 0a02 40F2000E 		movw	lr, #:lower16:.LC8
 1652 0a06 C0F2000E 		movt	lr, #:upper16:.LC8
 1653 0a0a BEE80F00 		ldmia	lr!, {r0, r1, r2, r3}
 1654 0a0e 40F20007 		movw	r7, #:lower16:.LANCHOR13
 1655 0a12 C0F20007 		movt	r7, #:upper16:.LANCHOR13
 1656 0a16 0FC7     		stmia	r7!, {r0, r1, r2, r3}
 1657 0a18 DEF80030 		ldr	r3, [lr]
 1658 0a1c 3B80     		strh	r3, [r7]	@ movhi
 1659 0a1e 83E4     		b	.L50
 1660              	.L81:
 1661              		.loc 1 339 0 discriminator 1
 1662 0a20 40F2000A 		movw	r10, #:lower16:.LANCHOR31
 1663 0a24 159F     		ldr	r7, [sp, #84]
 1664 0a26 C0F2000A 		movt	r10, #:upper16:.LANCHOR31
 1665 0a2a 97F90020 		ldrsb	r2, [r7]
 1666 0a2e DAF80430 		ldr	r3, [r10, #4]
 1667 0a32 9342     		cmp	r3, r2
 1668 0a34 7FF470AC 		bne	.L48
 1669 0a38 DAF80030 		ldr	r3, [r10]
 1670 0a3c 63B9     		cbnz	r3, .L49
 1671              		.loc 1 340 0
 1672 0a3e C4F20203 		movt	r3, 16386
 1673 0a42 2022     		movs	r2, #32
 1674 0a44 1A83     		strh	r2, [r3, #24]	@ movhi
 1675 0a46 67E4     		b	.L48
 1676              	.LVL122:
 1677              	.L47:
 1678 0a48 189F     		ldr	r7, [sp, #96]
 1679 0a4a DDF864A0 		ldr	r10, [sp, #100]
 1680 0a4e 97F800E0 		ldrb	lr, [r7]	@ zero_extendqisi2
 1681 0a52 9AF800C0 		ldrb	ip, [r10]	@ zero_extendqisi2
 1682 0a56 C4E6     		b	.L46
 1683              	.LVL123:
 1684              	.L49:
 1685              		.loc 1 343 0
 1686 0a58 219F     		ldr	r7, [sp, #132]
 1687 0a5a 97F90020 		ldrsb	r2, [r7]
 1688 0a5e B3EB820F 		cmp	r3, r2, lsl #2
 1689 0a62 7FF459AC 		bne	.L48
 1690              		.loc 1 344 0
 1691 0a66 0023     		movs	r3, #0
 1692 0a68 C4F20203 		movt	r3, 16386
 1693 0a6c 2022     		movs	r2, #32
 1694 0a6e 5A83     		strh	r2, [r3, #26]	@ movhi
 1695 0a70 52E4     		b	.L48
 1696              		.cfi_endproc
 1697              	.LFE278:
 1698              		.size	main, .-main
 1699              		.global	aux
 1700              		.global	razul
 1701              		.global	rverde
 1702              		.global	rrojo
 1703              		.global	pcharz
 1704              		.global	pcharg
 1705              		.global	pcharr
 1706              		.global	timx
 1707              		.global	cmin
ARM GAS  /tmp/ccfsf5eS.s 			page 31


 1708              		.global	chora
 1709              		.global	rmin
 1710              		.global	rgram
 1711              		.global	rfrec
 1712              		.global	rhora
 1713              		.global	k5
 1714              		.global	k4
 1715              		.global	k3
 1716              		.global	k2
 1717              		.global	k1
 1718              		.global	r2
 1719              		.global	c2
 1720              		.global	pcharm
 1721              		.global	pcharh
 1722              		.global	pcharb
 1723              		.global	x
 1724              		.global	p3
 1725              		.global	p2
 1726              		.global	p1
 1727              		.global	temp2
 1728              		.global	temp1
 1729              		.global	temp
 1730 0a72 00BFAFF3 		.section	.bss.timespec,"aw",%nobits
 1730      0080AFF3 
 1730      0080AFF3 
 1730      0080
 1731              		.align	2
 1732              		.set	.LANCHOR33,. + 0
 1733              		.type	timespec, %object
 1734              		.size	timespec, 8
 1735              	timespec:
 1736 0000 00000000 		.space	8
 1736      00000000 
 1737              		.section	.bss.aux,"aw",%nobits
 1738              		.align	1
 1739              		.set	.LANCHOR9,. + 0
 1740              		.type	aux, %object
 1741              		.size	aux, 2
 1742              	aux:
 1743 0000 0000     		.space	2
 1744              		.section	.bss.pcharz,"aw",%nobits
 1745              		.align	2
 1746              		.set	.LANCHOR19,. + 0
 1747              		.type	pcharz, %object
 1748              		.size	pcharz, 4
 1749              	pcharz:
 1750 0000 00000000 		.space	4
 1751              		.section	.bss.temp2,"aw",%nobits
 1752              		.align	2
 1753              		.set	.LANCHOR38,. + 0
 1754              		.type	temp2, %object
 1755              		.size	temp2, 4
 1756              	temp2:
 1757 0000 00000000 		.space	4
 1758              		.section	.bss.pH,"aw",%nobits
 1759              		.align	2
 1760              		.set	.LANCHOR7,. + 0
ARM GAS  /tmp/ccfsf5eS.s 			page 32


 1761              		.type	pH, %object
 1762              		.size	pH, 4
 1763              	pH:
 1764 0000 00000000 		.space	4
 1765              		.section	.bss.mean,"aw",%nobits
 1766              		.align	2
 1767              		.set	.LANCHOR5,. + 0
 1768              		.type	mean, %object
 1769              		.size	mean, 4
 1770              	mean:
 1771 0000 00000000 		.space	4
 1772              		.section	.data.timx,"aw",%progbits
 1773              		.align	2
 1774              		.set	.LANCHOR31,. + 0
 1775              		.type	timx, %object
 1776              		.size	timx, 36
 1777              	timx:
 1778 0000 00000000 		.word	0
 1779 0004 35000000 		.word	53
 1780 0008 11000000 		.word	17
 1781 000c 38000000 		.word	56
 1782 0010 04000000 		.word	4
 1783 0014 3C000000 		.word	60
 1784 0018 03000000 		.word	3
 1785 001c 00000000 		.word	0
 1786 0020 00000000 		.word	0
 1787              		.section	.data.uart_cfg_1,"aw",%progbits
 1788              		.align	2
 1789              		.set	.LANCHOR12,. + 0
 1790              		.type	uart_cfg_1, %object
 1791              		.size	uart_cfg_1, 32
 1792              	uart_cfg_1:
 1793 0000 00000000 		.word	0
 1794 0004 00000000 		.word	0
 1795 0008 00000000 		.word	0
 1796 000c 00000000 		.word	0
 1797 0010 00000000 		.word	0
 1798 0014 80250000 		.word	9600
 1799 0018 0000     		.short	0
 1800 001a 0040     		.short	16384
 1801 001c 0000     		.short	0
 1802 001e 0000     		.space	2
 1803              		.section	.bss.waThd1,"aw",%nobits
 1804              		.align	3
 1805              		.set	.LANCHOR11,. + 0
 1806              		.type	waThd1, %object
 1807              		.size	waThd1, 712
 1808              	waThd1:
 1809 0000 00000000 		.space	712
 1809      00000000 
 1809      00000000 
 1809      00000000 
 1809      00000000 
 1810              		.section	.bss.temp1,"aw",%nobits
 1811              		.align	2
 1812              		.set	.LANCHOR37,. + 0
 1813              		.type	temp1, %object
ARM GAS  /tmp/ccfsf5eS.s 			page 33


 1814              		.size	temp1, 4
 1815              	temp1:
 1816 0000 00000000 		.space	4
 1817              		.section	.data.pwmcfg,"aw",%progbits
 1818              		.align	2
 1819              		.set	.LANCHOR8,. + 0
 1820              		.type	pwmcfg, %object
 1821              		.size	pwmcfg, 52
 1822              	pwmcfg:
 1823 0000 40420F00 		.word	1000000
 1824 0004 10270000 		.word	10000
 1825 0008 00000000 		.word	pwmpcb
 1826 000c 01000000 		.word	1
 1827 0010 00000000 		.word	pwmc1cb
 1828 0014 01000000 		.word	1
 1829 0018 00000000 		.word	pwmc2cb
 1830 001c 01000000 		.word	1
 1831 0020 00000000 		.word	pwmc3cb
 1832 0024 00000000 		.word	0
 1833 0028 00000000 		.word	0
 1834 002c 00000000 		.word	0
 1835 0030 00000000 		.word	0
 1836              		.section	.bss.cmin,"aw",%nobits
 1837              		.set	.LANCHOR20,. + 0
 1838              		.type	cmin, %object
 1839              		.size	cmin, 1
 1840              	cmin:
 1841 0000 00       		.space	1
 1842              		.section	.bss.k1,"aw",%nobits
 1843              		.set	.LANCHOR22,. + 0
 1844              		.type	k1, %object
 1845              		.size	k1, 1
 1846              	k1:
 1847 0000 00       		.space	1
 1848              		.section	.bss.k2,"aw",%nobits
 1849              		.set	.LANCHOR23,. + 0
 1850              		.type	k2, %object
 1851              		.size	k2, 1
 1852              	k2:
 1853 0000 00       		.space	1
 1854              		.section	.bss.k3,"aw",%nobits
 1855              		.set	.LANCHOR24,. + 0
 1856              		.type	k3, %object
 1857              		.size	k3, 1
 1858              	k3:
 1859 0000 00       		.space	1
 1860              		.section	.bss.k4,"aw",%nobits
 1861              		.set	.LANCHOR25,. + 0
 1862              		.type	k4, %object
 1863              		.size	k4, 1
 1864              	k4:
 1865 0000 00       		.space	1
 1866              		.section	.bss.k5,"aw",%nobits
 1867              		.set	.LANCHOR26,. + 0
 1868              		.type	k5, %object
 1869              		.size	k5, 1
 1870              	k5:
ARM GAS  /tmp/ccfsf5eS.s 			page 34


 1871 0000 00       		.space	1
 1872              		.section	.bss.rverde,"aw",%nobits
 1873              		.align	1
 1874              		.set	.LANCHOR1,. + 0
 1875              		.type	rverde, %object
 1876              		.size	rverde, 2
 1877              	rverde:
 1878 0000 0000     		.space	2
 1879              		.section	.bss.rrojo,"aw",%nobits
 1880              		.align	1
 1881              		.set	.LANCHOR0,. + 0
 1882              		.type	rrojo, %object
 1883              		.size	rrojo, 2
 1884              	rrojo:
 1885 0000 0000     		.space	2
 1886              		.section	.bss.p2,"aw",%nobits
 1887              		.align	2
 1888              		.set	.LANCHOR40,. + 0
 1889              		.type	p2, %object
 1890              		.size	p2, 4
 1891              	p2:
 1892 0000 00000000 		.space	4
 1893              		.section	.bss.sample_buff,"aw",%nobits
 1894              		.align	2
 1895              		.set	.LANCHOR4,. + 0
 1896              		.type	sample_buff, %object
 1897              		.size	sample_buff, 20
 1898              	sample_buff:
 1899 0000 00000000 		.space	20
 1899      00000000 
 1899      00000000 
 1899      00000000 
 1899      00000000 
 1900              		.section	.rodata.my_conversion_group,"a",%progbits
 1901              		.align	2
 1902              		.set	.LANCHOR3,. + 0
 1903              		.type	my_conversion_group, %object
 1904              		.size	my_conversion_group, 40
 1905              	my_conversion_group:
 1906 0000 00       		.byte	0
 1907 0001 00       		.space	1
 1908 0002 0100     		.short	1
 1909 0004 00000000 		.word	0
 1910 0008 00000000 		.word	0
 1911 000c 00000000 		.word	0
 1912 0010 00000040 		.word	1073741824
 1913 0014 00000000 		.word	0
 1914 0018 00000000 		.word	0
 1915 001c 00000000 		.word	0
 1916 0020 00000000 		.word	0
 1917 0024 00000000 		.word	0
 1918              		.section	.rodata.str1.4,"aMS",%progbits,1
 1919              		.align	2
 1920              	.LC0:
 1921 0000 41444320 		.ascii	"ADC handler\000"
 1921      68616E64 
 1921      6C657200 
ARM GAS  /tmp/ccfsf5eS.s 			page 35


 1922              	.LC1:
 1923 000c 4C656420 		.ascii	"Led handler\000"
 1923      68616E64 
 1923      6C657200 
 1924              	.LC2:
 1925 0018 6D00     		.ascii	"m\000"
 1926 001a 0000     		.space	2
 1927              	.LC3:
 1928 001c 6800     		.ascii	"h\000"
 1929 001e 0000     		.space	2
 1930              	.LC4:
 1931 0020 6F00     		.ascii	"o\000"
 1932 0022 0000     		.space	2
 1933              	.LC5:
 1934 0024 6600     		.ascii	"f\000"
 1935 0026 0000     		.space	2
 1936              	.LC6:
 1937 0028 6700     		.ascii	"g\000"
 1938 002a 0000     		.space	2
 1939              	.LC7:
 1940 002c 7A00     		.ascii	"z\000"
 1941 002e 0000     		.space	2
 1942              	.LC9:
 1943 0030 7200     		.ascii	"r\000"
 1944 0032 0000     		.space	2
 1945              	.LC10:
 1946 0034 6200     		.ascii	"b\000"
 1947 0036 0000     		.space	2
 1948              	.LC11:
 1949 0038 7400     		.ascii	"t\000"
 1950 003a 0000     		.space	2
 1951              	.LC12:
 1952 003c 2E00     		.ascii	".\000"
 1953 003e 0000     		.space	2
 1954              	.LC13:
 1955 0040 7000     		.ascii	"p\000"
 1956 0042 0000     		.space	2
 1957              	.LC8:
 1958 0044 30303030 		.ascii	"00000000000000000\000"
 1958      30303030 
 1958      30303030 
 1958      30303030 
 1958      3000
 1959 0056 0000     		.space	2
 1960              	.LC14:
 1961 0058 3000     		.ascii	"0\000"
 1962 005a 0000     		.section	.bss.c2,"aw",%nobits
 1963              		.set	.LANCHOR34,. + 0
 1964              		.type	c2, %object
 1965              		.size	c2, 1
 1966              	c2:
 1967 0000 00       		.space	1
 1968              		.section	.bss.rhora,"aw",%nobits
 1969              		.set	.LANCHOR27,. + 0
 1970              		.type	rhora, %object
 1971              		.size	rhora, 1
 1972              	rhora:
ARM GAS  /tmp/ccfsf5eS.s 			page 36


 1973 0000 00       		.space	1
 1974              		.section	.bss.rmin,"aw",%nobits
 1975              		.set	.LANCHOR28,. + 0
 1976              		.type	rmin, %object
 1977              		.size	rmin, 1
 1978              	rmin:
 1979 0000 00       		.space	1
 1980              		.section	.bss.r2,"aw",%nobits
 1981              		.set	.LANCHOR35,. + 0
 1982              		.type	r2, %object
 1983              		.size	r2, 1
 1984              	r2:
 1985 0000 00       		.space	1
 1986              		.section	.bss.temp,"aw",%nobits
 1987              		.align	2
 1988              		.set	.LANCHOR36,. + 0
 1989              		.type	temp, %object
 1990              		.size	temp, 4
 1991              	temp:
 1992 0000 00000000 		.space	4
 1993              		.section	.data.x,"aw",%progbits
 1994              		.align	2
 1995              		.set	.LANCHOR42,. + 0
 1996              		.type	x, %object
 1997              		.size	x, 4
 1998              	x:
 1999 0000 58000000 		.word	.LC14
 2000              		.section	.bss.pcharb,"aw",%nobits
 2001              		.align	2
 2002              		.set	.LANCHOR18,. + 0
 2003              		.type	pcharb, %object
 2004              		.size	pcharb, 4
 2005              	pcharb:
 2006 0000 00000000 		.space	4
 2007              		.section	.bss.lastvalue,"aw",%nobits
 2008              		.align	2
 2009              		.set	.LANCHOR6,. + 0
 2010              		.type	lastvalue, %object
 2011              		.size	lastvalue, 4
 2012              	lastvalue:
 2013 0000 00000000 		.space	4
 2014              		.section	.bss.razul,"aw",%nobits
 2015              		.align	1
 2016              		.set	.LANCHOR2,. + 0
 2017              		.type	razul, %object
 2018              		.size	razul, 2
 2019              	razul:
 2020 0000 0000     		.space	2
 2021              		.section	.bss.waThd2,"aw",%nobits
 2022              		.align	3
 2023              		.set	.LANCHOR10,. + 0
 2024              		.type	waThd2, %object
 2025              		.size	waThd2, 456
 2026              	waThd2:
 2027 0000 00000000 		.space	456
 2027      00000000 
 2027      00000000 
ARM GAS  /tmp/ccfsf5eS.s 			page 37


 2027      00000000 
 2027      00000000 
 2028              		.section	.bss.pcharg,"aw",%nobits
 2029              		.align	2
 2030              		.set	.LANCHOR17,. + 0
 2031              		.type	pcharg, %object
 2032              		.size	pcharg, 4
 2033              	pcharg:
 2034 0000 00000000 		.space	4
 2035              		.section	.bss.pcharh,"aw",%nobits
 2036              		.align	2
 2037              		.set	.LANCHOR14,. + 0
 2038              		.type	pcharh, %object
 2039              		.size	pcharh, 4
 2040              	pcharh:
 2041 0000 00000000 		.space	4
 2042              		.section	.bss.chora,"aw",%nobits
 2043              		.set	.LANCHOR21,. + 0
 2044              		.type	chora, %object
 2045              		.size	chora, 1
 2046              	chora:
 2047 0000 00       		.space	1
 2048              		.section	.bss.p1,"aw",%nobits
 2049              		.align	2
 2050              		.set	.LANCHOR39,. + 0
 2051              		.type	p1, %object
 2052              		.size	p1, 4
 2053              	p1:
 2054 0000 00000000 		.space	4
 2055              		.section	.bss.p3,"aw",%nobits
 2056              		.align	2
 2057              		.set	.LANCHOR41,. + 0
 2058              		.type	p3, %object
 2059              		.size	p3, 4
 2060              	p3:
 2061 0000 00000000 		.space	4
 2062              		.section	.bss.pcharm,"aw",%nobits
 2063              		.align	2
 2064              		.set	.LANCHOR15,. + 0
 2065              		.type	pcharm, %object
 2066              		.size	pcharm, 4
 2067              	pcharm:
 2068 0000 00000000 		.space	4
 2069              		.section	.bss.rgram,"aw",%nobits
 2070              		.set	.LANCHOR30,. + 0
 2071              		.type	rgram, %object
 2072              		.size	rgram, 1
 2073              	rgram:
 2074 0000 00       		.space	1
 2075              		.section	.bss.pcharr,"aw",%nobits
 2076              		.align	2
 2077              		.set	.LANCHOR16,. + 0
 2078              		.type	pcharr, %object
 2079              		.size	pcharr, 4
 2080              	pcharr:
 2081 0000 00000000 		.space	4
 2082              		.section	.bss.tiempo,"aw",%nobits
ARM GAS  /tmp/ccfsf5eS.s 			page 38


 2083              		.align	2
 2084              		.set	.LANCHOR32,. + 0
 2085              		.type	tiempo, %object
 2086              		.size	tiempo, 8
 2087              	tiempo:
 2088 0000 00000000 		.space	8
 2088      00000000 
 2089              		.section	.bss.buffer,"aw",%nobits
 2090              		.align	2
 2091              		.set	.LANCHOR13,. + 0
 2092              		.type	buffer, %object
 2093              		.size	buffer, 18
 2094              	buffer:
 2095 0000 00000000 		.space	18
 2095      00000000 
 2095      00000000 
 2095      00000000 
 2095      0000
 2096 0012 0000     		.section	.bss.rfrec,"aw",%nobits
 2097              		.set	.LANCHOR29,. + 0
 2098              		.type	rfrec, %object
 2099              		.size	rfrec, 1
 2100              	rfrec:
 2101 0000 00       		.space	1
 2102              		.text
 2103              	.Letext0:
 2104              		.file 3 "/usr/lib/gcc/arm-none-eabi/4.8.2/include/stddef.h"
 2105              		.file 4 "/usr/include/newlib/machine/_default_types.h"
 2106              		.file 5 "/usr/include/newlib/stdint.h"
 2107              		.file 6 "../../../../../ChibiOS-RT/os/common/ports/ARMCMx/compilers/GCC/chtypes.h"
 2108              		.file 7 "../../../../../ChibiOS-RT/os/rt/include/chsystypes.h"
 2109              		.file 8 "../../../../../ChibiOS-RT/os/rt/include/chschd.h"
 2110              		.file 9 "../../../../../ChibiOS-RT/os/common/ext/CMSIS/ST/STM32F4xx/stm32f401xe.h"
 2111              		.file 10 "../../../../../ChibiOS-RT/os/common/ports/ARMCMx/chcore.h"
 2112              		.file 11 "../../../../../ChibiOS-RT/os/common/ports/ARMCMx/chcore_v7m.h"
 2113              		.file 12 "../../../../../ChibiOS-RT/os/hal/ports/STM32/LLD/TIMv1/stm32_tim.h"
 2114              		.file 13 "../../../../../ChibiOS-RT/os/rt/include/chtrace.h"
 2115              		.file 14 "../../../../../ChibiOS-RT/os/rt/include/chtm.h"
 2116              		.file 15 "../../../../../ChibiOS-RT/os/rt/include/chsem.h"
 2117              		.file 16 "../../../../../ChibiOS-RT/os/rt/include/chmtx.h"
 2118              		.file 17 "../../../../../ChibiOS-RT/os/rt/include/chthreads.h"
 2119              		.file 18 "../../../../../ChibiOS-RT/os/hal/ports/STM32/LLD/DMAv2/stm32_dma.h"
 2120              		.file 19 "../../../../../ChibiOS-RT/os/hal/ports/STM32/LLD/GPIOv2/hal_pal_lld.h"
 2121              		.file 20 "../../../../../ChibiOS-RT/os/hal/include/hal_adc.h"
 2122              		.file 21 "../../../../../ChibiOS-RT/os/hal/ports/STM32/LLD/ADCv2/hal_adc_lld.h"
 2123              		.file 22 "../../../../../ChibiOS-RT/os/hal/include/hal_pwm.h"
 2124              		.file 23 "../../../../../ChibiOS-RT/os/hal/ports/STM32/LLD/TIMv1/hal_pwm_lld.h"
 2125              		.file 24 "/usr/include/newlib/time.h"
 2126              		.file 25 "../../../../../ChibiOS-RT/os/hal/include/hal_rtc.h"
 2127              		.file 26 "../../../../../ChibiOS-RT/os/hal/ports/STM32/LLD/RTCv2/hal_rtc_lld.h"
 2128              		.file 27 "../../../../../ChibiOS-RT/os/hal/include/hal_uart.h"
 2129              		.file 28 "../../../../../ChibiOS-RT/os/hal/ports/STM32/LLD/USARTv1/hal_uart_lld.h"
 2130              		.file 29 "../../../../../ChibiOS-RT/os/common/ext/CMSIS/include/core_cm4.h"
 2131              		.file 30 "/usr/include/newlib/string.h"
 2132              		.file 31 "../../../../../ChibiOS-RT/os/hal/include/hal.h"
 2133              		.file 32 "../../../../../ChibiOS-RT/os/rt/include/chsys.h"
 2134              		.file 33 "onewire_test.h"
ARM GAS  /tmp/ccfsf5eS.s 			page 39

