ARM GAS  /tmp/ccgByge0.s 			page 1


   1              		.syntax unified
   2              		.cpu cortex-m4
   3              		.fpu softvfp
   4              		.eabi_attribute 20, 1
   5              		.eabi_attribute 21, 1
   6              		.eabi_attribute 23, 3
   7              		.eabi_attribute 24, 1
   8              		.eabi_attribute 25, 1
   9              		.eabi_attribute 26, 1
  10              		.eabi_attribute 30, 2
  11              		.eabi_attribute 34, 1
  12              		.eabi_attribute 18, 4
  13              		.thumb
  14              		.file	"memstreams.c"
  15              		.text
  16              	.Ltext0:
  17              		.cfi_sections	.debug_frame
  18              		.section	.text.put,"ax",%progbits
  19              		.align	2
  20              		.p2align 4,,15
  21              		.thumb
  22              		.thumb_func
  23              		.type	put, %function
  24              	put:
  25              	.LFB272:
  26              		.file 1 "../../../../../ChibiOS-RT/os/hal/lib/streams/memstreams.c"
  27              		.loc 1 66 0
  28              		.cfi_startproc
  29              		@ args = 0, pretend = 0, frame = 0
  30              		@ frame_needed = 0, uses_anonymous_args = 0
  31              		@ link register save eliminated.
  32              	.LVL0:
  33              		.loc 1 69 0
  34 0000 C368     		ldr	r3, [r0, #12]
  35 0002 8268     		ldr	r2, [r0, #8]
  36 0004 9A42     		cmp	r2, r3
  37              		.loc 1 71 0
  38 0006 1FBF     		itttt	ne
  39 0008 4268     		ldrne	r2, [r0, #4]
  40 000a D154     		strbne	r1, [r2, r3]
  41              		.loc 1 72 0
  42 000c C368     		ldrne	r3, [r0, #12]
  43 000e 0133     		addne	r3, r3, #1
  44 0010 1ABF     		itte	ne
  45 0012 C360     		strne	r3, [r0, #12]
  46              		.loc 1 73 0
  47 0014 0020     		movne	r0, #0
  48              	.LVL1:
  49              		.loc 1 70 0
  50 0016 6FF00100 		mvneq	r0, #1
  51              		.loc 1 74 0
  52 001a 7047     		bx	lr
  53              		.cfi_endproc
  54              	.LFE272:
  55              		.size	put, .-put
  56 001c AFF30080 		.section	.text.get,"ax",%progbits
  57              		.align	2
ARM GAS  /tmp/ccgByge0.s 			page 2


  58              		.p2align 4,,15
  59              		.thumb
  60              		.thumb_func
  61              		.type	get, %function
  62              	get:
  63              	.LFB273:
  64              		.loc 1 76 0
  65              		.cfi_startproc
  66              		@ args = 0, pretend = 0, frame = 0
  67              		@ frame_needed = 0, uses_anonymous_args = 0
  68              		@ link register save eliminated.
  69              	.LVL2:
  70              		.loc 1 80 0
  71 0000 0269     		ldr	r2, [r0, #16]
  72 0002 C168     		ldr	r1, [r0, #12]
  73 0004 9142     		cmp	r1, r2
  74              		.loc 1 82 0
  75 0006 18BF     		it	ne
  76 0008 4168     		ldrne	r1, [r0, #4]
  77              		.loc 1 76 0
  78 000a 0346     		mov	r3, r0
  79              	.LVL3:
  80              		.loc 1 82 0
  81 000c 1DBF     		ittte	ne
  82 000e 885C     		ldrbne	r0, [r1, r2]	@ zero_extendqisi2
  83              	.LVL4:
  84              		.loc 1 83 0
  85 0010 0132     		addne	r2, r2, #1
  86 0012 1A61     		strne	r2, [r3, #16]
  87              		.loc 1 81 0
  88 0014 6FF00100 		mvneq	r0, #1
  89              	.LVL5:
  90              		.loc 1 85 0
  91 0018 7047     		bx	lr
  92              		.cfi_endproc
  93              	.LFE273:
  94              		.size	get, .-get
  95 001a 00BFAFF3 		.section	.text.reads,"ax",%progbits
  95      0080
  96              		.align	2
  97              		.p2align 4,,15
  98              		.thumb
  99              		.thumb_func
 100              		.type	reads, %function
 101              	reads:
 102              	.LFB271:
 103              		.loc 1 56 0
 104              		.cfi_startproc
 105              		@ args = 0, pretend = 0, frame = 0
 106              		@ frame_needed = 0, uses_anonymous_args = 0
 107              	.LVL6:
 108 0000 38B5     		push	{r3, r4, r5, lr}
 109              		.cfi_def_cfa_offset 16
 110              		.cfi_offset 3, -16
 111              		.cfi_offset 4, -12
 112              		.cfi_offset 5, -8
 113              		.cfi_offset 14, -4
ARM GAS  /tmp/ccgByge0.s 			page 3


 114              		.loc 1 56 0
 115 0002 0446     		mov	r4, r0
 116              	.LVL7:
 117              		.loc 1 61 0
 118 0004 0846     		mov	r0, r1
 119              	.LVL8:
 120              		.loc 1 59 0
 121 0006 2369     		ldr	r3, [r4, #16]
 122 0008 E568     		ldr	r5, [r4, #12]
 123              		.loc 1 61 0
 124 000a 6168     		ldr	r1, [r4, #4]
 125              	.LVL9:
 126              		.loc 1 59 0
 127 000c ED1A     		subs	r5, r5, r3
 128 000e AA42     		cmp	r2, r5
 129 0010 38BF     		it	cc
 130 0012 1546     		movcc	r5, r2
 131              	.LVL10:
 132              		.loc 1 61 0
 133 0014 1944     		add	r1, r1, r3
 134 0016 2A46     		mov	r2, r5
 135 0018 FFF7FEFF 		bl	memcpy
 136              	.LVL11:
 137              		.loc 1 62 0
 138 001c 2369     		ldr	r3, [r4, #16]
 139 001e 2B44     		add	r3, r3, r5
 140 0020 2361     		str	r3, [r4, #16]
 141              		.loc 1 64 0
 142 0022 2846     		mov	r0, r5
 143 0024 38BD     		pop	{r3, r4, r5, pc}
 144              		.cfi_endproc
 145              	.LFE271:
 146              		.size	reads, .-reads
 147 0026 00BFAFF3 		.section	.text.writes,"ax",%progbits
 147      0080AFF3 
 147      0080
 148              		.align	2
 149              		.p2align 4,,15
 150              		.thumb
 151              		.thumb_func
 152              		.type	writes, %function
 153              	writes:
 154              	.LFB270:
 155              		.loc 1 46 0
 156              		.cfi_startproc
 157              		@ args = 0, pretend = 0, frame = 0
 158              		@ frame_needed = 0, uses_anonymous_args = 0
 159              	.LVL12:
 160 0000 38B5     		push	{r3, r4, r5, lr}
 161              		.cfi_def_cfa_offset 16
 162              		.cfi_offset 3, -16
 163              		.cfi_offset 4, -12
 164              		.cfi_offset 5, -8
 165              		.cfi_offset 14, -4
 166              		.loc 1 49 0
 167 0002 C368     		ldr	r3, [r0, #12]
 168 0004 8568     		ldr	r5, [r0, #8]
ARM GAS  /tmp/ccgByge0.s 			page 4


 169              		.loc 1 46 0
 170 0006 0446     		mov	r4, r0
 171              	.LVL13:
 172              		.loc 1 49 0
 173 0008 ED1A     		subs	r5, r5, r3
 174              		.loc 1 51 0
 175 000a 4068     		ldr	r0, [r0, #4]
 176              	.LVL14:
 177 000c AA42     		cmp	r2, r5
 178 000e 38BF     		it	cc
 179 0010 1546     		movcc	r5, r2
 180              	.LVL15:
 181 0012 1844     		add	r0, r0, r3
 182 0014 2A46     		mov	r2, r5
 183 0016 FFF7FEFF 		bl	memcpy
 184              	.LVL16:
 185              		.loc 1 52 0
 186 001a E368     		ldr	r3, [r4, #12]
 187 001c 2B44     		add	r3, r3, r5
 188 001e E360     		str	r3, [r4, #12]
 189              		.loc 1 54 0
 190 0020 2846     		mov	r0, r5
 191 0022 38BD     		pop	{r3, r4, r5, pc}
 192              		.cfi_endproc
 193              	.LFE270:
 194              		.size	writes, .-writes
 195 0024 AFF30080 		.section	.text.msObjectInit,"ax",%progbits
 195      AFF30080 
 195      AFF30080 
 196              		.align	2
 197              		.p2align 4,,15
 198              		.global	msObjectInit
 199              		.thumb
 200              		.thumb_func
 201              		.type	msObjectInit, %function
 202              	msObjectInit:
 203              	.LFB274:
 204              		.loc 1 104 0
 205              		.cfi_startproc
 206              		@ args = 0, pretend = 0, frame = 0
 207              		@ frame_needed = 0, uses_anonymous_args = 0
 208              		@ link register save eliminated.
 209              	.LVL17:
 210 0000 30B4     		push	{r4, r5}
 211              		.cfi_def_cfa_offset 8
 212              		.cfi_offset 4, -8
 213              		.cfi_offset 5, -4
 214              		.loc 1 106 0
 215 0002 40F20004 		movw	r4, #:lower16:.LANCHOR0
 216 0006 C0F20004 		movt	r4, #:upper16:.LANCHOR0
 217              		.loc 1 110 0
 218 000a 0025     		movs	r5, #0
 219              		.loc 1 106 0
 220 000c 0460     		str	r4, [r0]
 221              		.loc 1 110 0
 222 000e 0561     		str	r5, [r0, #16]
 223              		.loc 1 107 0
ARM GAS  /tmp/ccgByge0.s 			page 5


 224 0010 4160     		str	r1, [r0, #4]
 225              		.loc 1 108 0
 226 0012 8260     		str	r2, [r0, #8]
 227              		.loc 1 109 0
 228 0014 C360     		str	r3, [r0, #12]
 229              		.loc 1 111 0
 230 0016 30BC     		pop	{r4, r5}
 231 0018 7047     		bx	lr
 232              		.cfi_endproc
 233              	.LFE274:
 234              		.size	msObjectInit, .-msObjectInit
 235 001a 00BFAFF3 		.section	.rodata.vmt,"a",%progbits
 235      0080
 236              		.align	2
 237              		.set	.LANCHOR0,. + 0
 238              		.type	vmt, %object
 239              		.size	vmt, 16
 240              	vmt:
 241 0000 00000000 		.word	writes
 242 0004 00000000 		.word	reads
 243 0008 00000000 		.word	put
 244 000c 00000000 		.word	get
 245              		.text
 246              	.Letext0:
 247              		.file 2 "/usr/lib/gcc/arm-none-eabi/4.8.2/include/stddef.h"
 248              		.file 3 "/usr/include/newlib/machine/_default_types.h"
 249              		.file 4 "/usr/include/newlib/stdint.h"
 250              		.file 5 "../../../../../ChibiOS-RT/os/common/ports/ARMCMx/compilers/GCC/chtypes.h"
 251              		.file 6 "../../../../../ChibiOS-RT/os/rt/include/chsystypes.h"
 252              		.file 7 "../../../../../ChibiOS-RT/os/rt/include/chschd.h"
 253              		.file 8 "../../../../../ChibiOS-RT/os/common/ports/ARMCMx/chcore.h"
 254              		.file 9 "../../../../../ChibiOS-RT/os/common/ports/ARMCMx/chcore_v7m.h"
 255              		.file 10 "../../../../../ChibiOS-RT/os/rt/include/chtrace.h"
 256              		.file 11 "../../../../../ChibiOS-RT/os/rt/include/chtm.h"
 257              		.file 12 "../../../../../ChibiOS-RT/os/rt/include/chsem.h"
 258              		.file 13 "../../../../../ChibiOS-RT/os/rt/include/chmtx.h"
 259              		.file 14 "../../../../../ChibiOS-RT/os/hal/lib/streams/memstreams.h"
 260              		.file 15 "../../../../../ChibiOS-RT/os/common/ext/CMSIS/include/core_cm4.h"