ARM GAS  /tmp/ccMHMrzh.s 			page 1


   1              		.syntax unified
   2              		.cpu cortex-m4
   3              		.fpu softvfp
   4              		.eabi_attribute 20, 1
   5              		.eabi_attribute 21, 1
   6              		.eabi_attribute 23, 3
   7              		.eabi_attribute 24, 1
   8              		.eabi_attribute 25, 1
   9              		.eabi_attribute 26, 1
  10              		.eabi_attribute 30, 2
  11              		.eabi_attribute 34, 1
  12              		.eabi_attribute 18, 4
  13              		.thumb
  14              		.file	"nvic.c"
  15              		.text
  16              	.Ltext0:
  17              		.cfi_sections	.debug_frame
  18              		.section	.text.nvicEnableVector,"ax",%progbits
  19              		.align	2
  20              		.p2align 4,,15
  21              		.global	nvicEnableVector
  22              		.thumb
  23              		.thumb_func
  24              		.type	nvicEnableVector, %function
  25              	nvicEnableVector:
  26              	.LFB270:
  27              		.file 1 "../../../../../ChibiOS-RT/os/hal/ports/common/ARMCMx/nvic.c"
  28              		.loc 1 57 0
  29              		.cfi_startproc
  30              		@ args = 0, pretend = 0, frame = 0
  31              		@ frame_needed = 0, uses_anonymous_args = 0
  32              		@ link register save eliminated.
  33              	.LVL0:
  34              		.loc 1 65 0
  35 0000 4209     		lsrs	r2, r0, #5
  36 0002 9200     		lsls	r2, r2, #2
  37              		.loc 1 63 0
  38 0004 00F16043 		add	r3, r0, #-536870912
  39 0008 02F16042 		add	r2, r2, #-536870912
  40              		.loc 1 57 0
  41 000c 10B4     		push	{r4}
  42              		.cfi_def_cfa_offset 4
  43              		.cfi_offset 4, -4
  44 000e 02F56142 		add	r2, r2, #57600
  45              		.loc 1 65 0
  46 0012 0124     		movs	r4, #1
  47              		.loc 1 63 0
  48 0014 0901     		lsls	r1, r1, #4
  49              	.LVL1:
  50 0016 03F56143 		add	r3, r3, #57600
  51              		.loc 1 65 0
  52 001a 00F01F00 		and	r0, r0, #31
  53              	.LVL2:
  54 001e 04FA00F0 		lsl	r0, r4, r0
  55              		.loc 1 63 0
  56 0022 C9B2     		uxtb	r1, r1
  57 0024 83F80013 		strb	r1, [r3, #768]
ARM GAS  /tmp/ccMHMrzh.s 			page 2


  58              		.loc 1 65 0
  59 0028 C2F88001 		str	r0, [r2, #384]
  60              		.loc 1 66 0
  61 002c 1060     		str	r0, [r2]
  62              		.loc 1 67 0
  63 002e 5DF8044B 		ldr	r4, [sp], #4
  64 0032 7047     		bx	lr
  65              		.cfi_endproc
  66              	.LFE270:
  67              		.size	nvicEnableVector, .-nvicEnableVector
  68 0034 AFF30080 		.section	.text.nvicDisableVector,"ax",%progbits
  68      AFF30080 
  68      AFF30080 
  69              		.align	2
  70              		.p2align 4,,15
  71              		.global	nvicDisableVector
  72              		.thumb
  73              		.thumb_func
  74              		.type	nvicDisableVector, %function
  75              	nvicDisableVector:
  76              	.LFB271:
  77              		.loc 1 74 0
  78              		.cfi_startproc
  79              		@ args = 0, pretend = 0, frame = 0
  80              		@ frame_needed = 0, uses_anonymous_args = 0
  81              		@ link register save eliminated.
  82              	.LVL3:
  83              		.loc 1 76 0
  84 0000 4FF46143 		mov	r3, #57600
  85 0004 4109     		lsrs	r1, r0, #5
  86 0006 CEF20003 		movt	r3, 57344
  87              		.loc 1 74 0
  88 000a 10B4     		push	{r4}
  89              		.cfi_def_cfa_offset 4
  90              		.cfi_offset 4, -4
  91              		.loc 1 76 0
  92 000c 00F01F02 		and	r2, r0, #31
  93 0010 2031     		adds	r1, r1, #32
  94 0012 0124     		movs	r4, #1
  95              		.loc 1 80 0
  96 0014 1844     		add	r0, r0, r3
  97              	.LVL4:
  98              		.loc 1 76 0
  99 0016 9440     		lsls	r4, r4, r2
 100              		.loc 1 80 0
 101 0018 0022     		movs	r2, #0
 102              		.loc 1 76 0
 103 001a 43F82140 		str	r4, [r3, r1, lsl #2]
 104              		.loc 1 80 0
 105 001e 80F80023 		strb	r2, [r0, #768]
 106              		.loc 1 82 0
 107 0022 5DF8044B 		ldr	r4, [sp], #4
 108 0026 7047     		bx	lr
 109              		.cfi_endproc
 110              	.LFE271:
 111              		.size	nvicDisableVector, .-nvicDisableVector
 112 0028 AFF30080 		.section	.text.nvicSetSystemHandlerPriority,"ax",%progbits
ARM GAS  /tmp/ccMHMrzh.s 			page 3


 112      AFF30080 
 113              		.align	2
 114              		.p2align 4,,15
 115              		.global	nvicSetSystemHandlerPriority
 116              		.thumb
 117              		.thumb_func
 118              		.type	nvicSetSystemHandlerPriority, %function
 119              	nvicSetSystemHandlerPriority:
 120              	.LFB272:
 121              		.loc 1 90 0
 122              		.cfi_startproc
 123              		@ args = 0, pretend = 0, frame = 0
 124              		@ frame_needed = 0, uses_anonymous_args = 0
 125              		@ link register save eliminated.
 126              	.LVL5:
 127              		.loc 1 100 0
 128 0000 00F16040 		add	r0, r0, #-536870912
 129              	.LVL6:
 130 0004 00F56D40 		add	r0, r0, #60672
 131              	.LVL7:
 132 0008 0901     		lsls	r1, r1, #4
 133              	.LVL8:
 134 000a C9B2     		uxtb	r1, r1
 135 000c 0176     		strb	r1, [r0, #24]
 136 000e 7047     		bx	lr
 137              		.cfi_endproc
 138              	.LFE272:
 139              		.size	nvicSetSystemHandlerPriority, .-nvicSetSystemHandlerPriority
 140              		.section	.text.nvicClearPending,"ax",%progbits
 141              		.align	2
 142              		.p2align 4,,15
 143              		.global	nvicClearPending
 144              		.thumb
 145              		.thumb_func
 146              		.type	nvicClearPending, %function
 147              	nvicClearPending:
 148              	.LFB273:
 149              		.loc 1 109 0
 150              		.cfi_startproc
 151              		@ args = 0, pretend = 0, frame = 0
 152              		@ frame_needed = 0, uses_anonymous_args = 0
 153              		@ link register save eliminated.
 154              	.LVL9:
 155              		.loc 1 111 0
 156 0000 4209     		lsrs	r2, r0, #5
 157 0002 4FF46143 		mov	r3, #57600
 158 0006 6032     		adds	r2, r2, #96
 159 0008 00F01F00 		and	r0, r0, #31
 160              	.LVL10:
 161 000c 0121     		movs	r1, #1
 162 000e CEF20003 		movt	r3, 57344
 163 0012 01FA00F0 		lsl	r0, r1, r0
 164 0016 43F82200 		str	r0, [r3, r2, lsl #2]
 165 001a 7047     		bx	lr
 166              		.cfi_endproc
 167              	.LFE273:
 168              		.size	nvicClearPending, .-nvicClearPending
ARM GAS  /tmp/ccMHMrzh.s 			page 4


 169 001c AFF30080 		.text
 170              	.Letext0:
 171              		.file 2 "/usr/include/newlib/machine/_default_types.h"
 172              		.file 3 "/usr/include/newlib/stdint.h"
 173              		.file 4 "../../../../../ChibiOS-RT/os/common/ports/ARMCMx/compilers/GCC/chtypes.h"
 174              		.file 5 "../../../../../ChibiOS-RT/os/rt/include/chsystypes.h"
 175              		.file 6 "../../../../../ChibiOS-RT/os/rt/include/chschd.h"
 176              		.file 7 "../../../../../ChibiOS-RT/os/common/ext/CMSIS/include/core_cm4.h"
 177              		.file 8 "../../../../../ChibiOS-RT/os/common/ports/ARMCMx/chcore.h"
 178              		.file 9 "../../../../../ChibiOS-RT/os/common/ports/ARMCMx/chcore_v7m.h"
 179              		.file 10 "../../../../../ChibiOS-RT/os/rt/include/chtrace.h"
 180              		.file 11 "../../../../../ChibiOS-RT/os/rt/include/chtm.h"
 181              		.file 12 "../../../../../ChibiOS-RT/os/rt/include/chsem.h"
 182              		.file 13 "../../../../../ChibiOS-RT/os/rt/include/chmtx.h"