ARM GAS  /tmp/ccMHMrzh.s 			page 1


   1              		.syntax unified
   2              		.cpu cortex-m4
   3              		.fpu softvfp
   4              		.eabi_attribute 20, 1
   5              		.eabi_attribute 21, 1
   6              		.eabi_attribute 23, 3
   7              		.eabi_attribute 24, 1
   8              		.eabi_attribute 25, 1
   9              		.eabi_attribute 26, 1
  10              		.eabi_attribute 30, 2
  11              		.eabi_attribute 34, 1
  12              		.eabi_attribute 18, 4
  13              		.thumb
  14              		.file	"nvic.c"
  15              		.text
  16              	.Ltext0:
  17              		.cfi_sections	.debug_frame
  18              		.section	.text.nvicEnableVector,"ax",%progbits
  19              		.align	2
  20              		.p2align 4,,15
  21              		.global	nvicEnableVector
  22              		.thumb
  23              		.thumb_func
  24              		.type	nvicEnableVector, %function
  25              	nvicEnableVector:
  26              	.LFB270:
  27              		.file 1 "../../../../../ChibiOS-RT/os/hal/ports/common/ARMCMx/nvic.c"
  28              		.loc 1 57 0
  29              		.cfi_startproc
  30              		@ args = 0, pretend = 0, frame = 0
  31              		@ frame_needed = 0, uses_anonymous_args = 0
  32              		@ link register save eliminated.
  33              	.LVL0:
  34              		.loc 1 65 0
  35 0000 4209     		lsrs	r2, r0, #5
  36 0002 9200     		lsls	r2, r2, #2
  37              		.loc 1 63 0
  38 0004 00F16043 		add	r3, r0, #-536870912
  39 0008 02F16042 		add	r2, r2, #-536870912
  40              		.loc 1 57 0
  41 000c 10B4     		push	{r4}
  42              		.cfi_def_cfa_offset 4
  43              		.cfi_offset 4, -4
  44 000e 02F56142 		add	r2, r2, #57600
  45              		.loc 1 65 0
  46 0012 0124     		movs	r4, #1
  47              		.loc 1 63 0
  48 0014 0901     		lsls	r1, r1, #4
  49              	.LVL1:
  50 0016 03F56143 		add	r3, r3, #57600
  51              		.loc 1 65 0
  52 001a 00F01F00 		and	r0, r0, #31
  53              	.LVL2:
  54 001e 04FA00F0 		lsl	r0, r4, r0
  55              		.loc 1 63 0
  56 0022 C9B2     		uxtb	r1, r1
  57 0024 83F80013 		strb	r1, [r3, #768]
ARM GAS  /tmp/ccMHMrzh.s 			page 2


  58              		.loc 1 65 0
  59 0028 C2F88001 		str	r0, [r2, #384]
  60              		.loc 1 66 0
  61 002c 1060     		str	r0, [r2]
  62              		.loc 1 67 0
  63 002e 5DF8044B 		ldr	r4, [sp], #4
  64 0032 7047     		bx	lr
  65              		.cfi_endproc
  66              	.LFE270:
  67              		.size	nvicEnableVector, .-nvicEnableVector
  68 0034 AFF30080 		.section	.text.nvicDisableVector,"ax",%progbits
  68      AFF30080 
  68      AFF30080 
  69              		.align	2
  70              		.p2align 4,,15
  71              		.global	nvicDisableVector
  72              		.thumb
  73              		.thumb_func
  74              		.type	nvicDisableVector, %function
  75              	nvicDisableVector:
  76              	.LFB271:
  77              		.loc 1 74 0
  78              		.cfi_startproc
  79              		@ args = 0, pretend = 0, frame = 0
  80              		@ frame_needed = 0, uses_anonymous_args = 0
  81              		@ link register save eliminated.
  82              	.LVL3:
  83              		.loc 1 76 0
  84 0000 4FF46143 		mov	r3, #57600
  85 0004 4109     		lsrs	r1, r0, #5
  86 0006 CEF20003 		movt	r3, 57344
  87              		.loc 1 74 0
  88 000a 10B4     		push	{r4}
  89              		.cfi_def_cfa_offset 4
  90              		.cfi_offset 4, -4
  91              		.loc 1 76 0
  92 000c 00F01F02 		and	r2, r0, #31
  93 0010 2031     		adds	r1, r1, #32
  94 0012 0124     		movs	r4, #1
  95              		.loc 1 80 0
  96 0014 1844     		add	r0, r0, r3
  97              	.LVL4:
  98              		.loc 1 76 0
  99 0016 9440     		lsls	r4, r4, r2
 100              		.loc 1 80 0
 101 0018 0022     		movs	r2, #0
 102              		.loc 1 76 0
 103 001a 43F82140 		str	r4, [r3, r1, lsl #2]
 104              		.loc 1 80 0
 105 001e 80F80023 		strb	r2, [r0, #768]
 106              		.loc 1 82 0
 107 0022 5DF8044B 		ldr	r4, [sp], #4
 108 0026 7047     		bx	lr
 109              		.cfi_endproc
 110              	.LFE271:
 111              		.size	nvicDisableVector, .-nvicDisableVector
 112 0028 AFF30080 		.section	.text.nvicSetSystemHandlerPriority,"ax",%progbits
ARM GAS  /tmp/ccMHMrzh.s 			page 3


 112      AFF30080 
 113              		.align	2
 114              		.p2align 4,,15
 115              		.global	nvicSetSystemHandlerPriority
 116              		.thumb
 117              		.thumb_func
 118              		.type	nvicSetSystemHandlerPriority, %function
 119              	nvicSetSystemHandlerPriority:
 120              	.LFB272:
 121              		.loc 1 90 0
 122              		.cfi_startproc
 123              		@ args = 0, pretend = 0, frame = 0
 124              		@ frame_needed = 0, uses_anonymous_args = 0
 125              		@ link register save eliminated.
 126              	.LVL5:
 127              		.loc 1 100 0
 128 0000 00F16040 		add	r0, r0, #-536870912
 129              	.LVL6:
 130 0004 00F56D40 		add	r0, r0, #60672
 131              	.LVL7:
 132 0008 0901     		lsls	r1, r1, #4
 133              	.LVL8:
 134 000a C9B2     		uxtb	r1, r1
 135 000c 0176     		strb	r1, [r0, #24]
 136 000e 7047     		bx	lr
 137              		.cfi_endproc
 138              	.LFE272:
 139              		.size	nvicSetSystemHandlerPriority, .-nvicSetSystemHandlerPriority
 140              		.section	.text.nvicClearPending,"ax",%progbits
 141              		.align	2
 142              		.p2align 4,,15
 143              		.global	nvicClearPending
 144              		.thumb
 145              		.thumb_func
 146              		.type	nvicClearPending, %function
 147              	nvicClearPending:
 148              	.LFB273:
 149              		.loc 1 109 0
 150              		.cfi_startproc
 151              		@ args = 0, pretend = 0, frame = 0
 152              		@ frame_needed = 0, uses_anonymous_args = 0
 153              		@ link register save eliminated.
 154              	.LVL9:
 155              		.loc 1 111 0
 156 0000 4209     		lsrs	r2, r0, #5
 157 0002 4FF46143 		mov	r3, #57600
 158 0006 6032     		adds	r2, r2, #96
 159 0008 00F01F00 		and	r0, r0, #31
 160              	.LVL10:
 161 000c 0121     		movs	r1, #1
 162 000e CEF20003 		movt	r3, 57344
 163 0012 01FA00F0 		lsl	r0, r1, r0
 164 0016 43F82200 		str	r0, [r3, r2, lsl #2]
 165 001a 7047     		bx	lr
 166              		.cfi_endproc
 167              	.LFE273:
 168              		.size	nvicClearPending, .-nvicClearPending
ARM GAS  /tmp/ccMHMrzh.s 			page 4


 169 001c AFF30080 		.text
 170              	.Letext0:
 171              		.file 2 "/usr/include/newlib/machine/_default_types.h"
 172              		.file 3 "/usr/include/newlib/stdint.h"
 173              		.file 4 "../../../../../ChibiOS-RT/os/common/ports/ARMCMx/compilers/GCC/chtypes.h"
 174              		.file 5 "../../../../../ChibiOS-RT/os/rt/include/chsystypes.h"
 175              		.file 6 "../../../../../ChibiOS-RT/os/rt/include/chschd.h"
 176              		.file 7 "../../../../../ChibiOS-RT/os/common/ext/CMSIS/include/core_cm4.h"
 177              		.file 8 "../../../../../ChibiOS-RT/os/common/ports/ARMCMx/chcore.h"
 178              		.file 9 "../../../../../ChibiOS-RT/os/common/ports/ARMCMx/chcore_v7m.h"
 179              		.file 10 "../../../../../ChibiOS-RT/os/rt/include/chtrace.h"
 180              		.file 11 "../../../../../ChibiOS-RT/os/rt/include/chtm.h"
 181              		.file 12 "../../../../../ChibiOS-RT/os/rt/include/chsem.h"
 182              		.file 13 "../../../../../ChibiOS-RT/os/rt/include/chmtx.h"
 183              		.section	.debug_info,"",%progbits
 184              	.Ldebug_info0:
 185 0000 230B0000 		.4byte	0xb23
 186 0004 0400     		.2byte	0x4
 187 0006 00000000 		.4byte	.Ldebug_abbrev0
 188 000a 04       		.byte	0x4
 189 000b 01       		.uleb128 0x1
 190 000c 67000000 		.4byte	.LASF138
 191 0010 01       		.byte	0x1
 192 0011 28050000 		.4byte	.LASF139
 193 0015 75020000 		.4byte	.LASF140
 194 0019 00000000 		.4byte	.Ldebug_ranges0+0
 195 001d 00000000 		.4byte	0
 196 0021 00000000 		.4byte	.Ldebug_line0
 197 0025 02       		.uleb128 0x2
 198 0026 04       		.byte	0x4
 199 0027 05       		.byte	0x5
 200 0028 696E7400 		.ascii	"int\000"
 201 002c 03       		.uleb128 0x3
 202 002d 04       		.byte	0x4
 203 002e 07       		.byte	0x7
 204 002f 56020000 		.4byte	.LASF0
 205 0033 03       		.uleb128 0x3
 206 0034 01       		.byte	0x1
 207 0035 06       		.byte	0x6
 208 0036 B3010000 		.4byte	.LASF1
 209 003a 04       		.uleb128 0x4
 210 003b 38000000 		.4byte	.LASF4
 211 003f 02       		.byte	0x2
 212 0040 1C       		.byte	0x1c
 213 0041 45000000 		.4byte	0x45
 214 0045 03       		.uleb128 0x3
 215 0046 01       		.byte	0x1
 216 0047 08       		.byte	0x8
 217 0048 AB040000 		.4byte	.LASF2
 218 004c 03       		.uleb128 0x3
 219 004d 02       		.byte	0x2
 220 004e 05       		.byte	0x5
 221 004f CC040000 		.4byte	.LASF3
 222 0053 04       		.uleb128 0x4
 223 0054 C6050000 		.4byte	.LASF5
 224 0058 02       		.byte	0x2
 225 0059 26       		.byte	0x26
ARM GAS  /tmp/ccMHMrzh.s 			page 5


 226 005a 5E000000 		.4byte	0x5e
 227 005e 03       		.uleb128 0x3
 228 005f 02       		.byte	0x2
 229 0060 07       		.byte	0x7
 230 0061 FE050000 		.4byte	.LASF6
 231 0065 04       		.uleb128 0x4
 232 0066 7E030000 		.4byte	.LASF7
 233 006a 02       		.byte	0x2
 234 006b 37       		.byte	0x37
 235 006c 70000000 		.4byte	0x70
 236 0070 03       		.uleb128 0x3
 237 0071 04       		.byte	0x4
 238 0072 05       		.byte	0x5
 239 0073 E2010000 		.4byte	.LASF8
 240 0077 04       		.uleb128 0x4
 241 0078 1A020000 		.4byte	.LASF9
 242 007c 02       		.byte	0x2
 243 007d 38       		.byte	0x38
 244 007e 82000000 		.4byte	0x82
 245 0082 03       		.uleb128 0x3
 246 0083 04       		.byte	0x4
 247 0084 07       		.byte	0x7
 248 0085 FA020000 		.4byte	.LASF10
 249 0089 03       		.uleb128 0x3
 250 008a 08       		.byte	0x8
 251 008b 05       		.byte	0x5
 252 008c A5010000 		.4byte	.LASF11
 253 0090 04       		.uleb128 0x4
 254 0091 36040000 		.4byte	.LASF12
 255 0095 02       		.byte	0x2
 256 0096 4E       		.byte	0x4e
 257 0097 9B000000 		.4byte	0x9b
 258 009b 03       		.uleb128 0x3
 259 009c 08       		.byte	0x8
 260 009d 07       		.byte	0x7
 261 009e 0E010000 		.4byte	.LASF13
 262 00a2 04       		.uleb128 0x4
 263 00a3 43060000 		.4byte	.LASF14
 264 00a7 03       		.byte	0x3
 265 00a8 2A       		.byte	0x2a
 266 00a9 3A000000 		.4byte	0x3a
 267 00ad 04       		.uleb128 0x4
 268 00ae 0A020000 		.4byte	.LASF15
 269 00b2 03       		.byte	0x3
 270 00b3 36       		.byte	0x36
 271 00b4 53000000 		.4byte	0x53
 272 00b8 04       		.uleb128 0x4
 273 00b9 A3040000 		.4byte	.LASF16
 274 00bd 03       		.byte	0x3
 275 00be 41       		.byte	0x41
 276 00bf 65000000 		.4byte	0x65
 277 00c3 04       		.uleb128 0x4
 278 00c4 89050000 		.4byte	.LASF17
 279 00c8 03       		.byte	0x3
 280 00c9 42       		.byte	0x42
 281 00ca 77000000 		.4byte	0x77
 282 00ce 04       		.uleb128 0x4
ARM GAS  /tmp/ccMHMrzh.s 			page 6


 283 00cf 2F000000 		.4byte	.LASF18
 284 00d3 03       		.byte	0x3
 285 00d4 4E       		.byte	0x4e
 286 00d5 90000000 		.4byte	0x90
 287 00d9 04       		.uleb128 0x4
 288 00da 11060000 		.4byte	.LASF19
 289 00de 04       		.byte	0x4
 290 00df 39       		.byte	0x39
 291 00e0 C3000000 		.4byte	0xc3
 292 00e4 04       		.uleb128 0x4
 293 00e5 5C030000 		.4byte	.LASF20
 294 00e9 04       		.byte	0x4
 295 00ea 3C       		.byte	0x3c
 296 00eb A2000000 		.4byte	0xa2
 297 00ef 04       		.uleb128 0x4
 298 00f0 EB010000 		.4byte	.LASF21
 299 00f4 04       		.byte	0x4
 300 00f5 3D       		.byte	0x3d
 301 00f6 A2000000 		.4byte	0xa2
 302 00fa 04       		.uleb128 0x4
 303 00fb 41040000 		.4byte	.LASF22
 304 00ff 04       		.byte	0x4
 305 0100 3E       		.byte	0x3e
 306 0101 A2000000 		.4byte	0xa2
 307 0105 04       		.uleb128 0x4
 308 0106 85040000 		.4byte	.LASF23
 309 010a 04       		.byte	0x4
 310 010b 40       		.byte	0x40
 311 010c C3000000 		.4byte	0xc3
 312 0110 04       		.uleb128 0x4
 313 0111 35030000 		.4byte	.LASF24
 314 0115 04       		.byte	0x4
 315 0116 41       		.byte	0x41
 316 0117 B8000000 		.4byte	0xb8
 317 011b 04       		.uleb128 0x4
 318 011c 72030000 		.4byte	.LASF25
 319 0120 04       		.byte	0x4
 320 0121 43       		.byte	0x43
 321 0122 C3000000 		.4byte	0xc3
 322 0126 04       		.uleb128 0x4
 323 0127 47020000 		.4byte	.LASF26
 324 012b 04       		.byte	0x4
 325 012c 45       		.byte	0x45
 326 012d B8000000 		.4byte	0xb8
 327 0131 04       		.uleb128 0x4
 328 0132 DA050000 		.4byte	.LASF27
 329 0136 05       		.byte	0x5
 330 0137 33       		.byte	0x33
 331 0138 C3000000 		.4byte	0xc3
 332 013c 04       		.uleb128 0x4
 333 013d D1050000 		.4byte	.LASF28
 334 0141 05       		.byte	0x5
 335 0142 3F       		.byte	0x3f
 336 0143 47010000 		.4byte	0x147
 337 0147 05       		.uleb128 0x5
 338 0148 21030000 		.4byte	.LASF46
 339 014c 44       		.byte	0x44
ARM GAS  /tmp/ccMHMrzh.s 			page 7


 340 014d 06       		.byte	0x6
 341 014e 9A       		.byte	0x9a
 342 014f 25020000 		.4byte	0x225
 343 0153 06       		.uleb128 0x6
 344 0154 F1030000 		.4byte	.LASF29
 345 0158 06       		.byte	0x6
 346 0159 9B       		.byte	0x9b
 347 015a 5A020000 		.4byte	0x25a
 348 015e 00       		.byte	0
 349 015f 06       		.uleb128 0x6
 350 0160 29040000 		.4byte	.LASF30
 351 0164 06       		.byte	0x6
 352 0165 9C       		.byte	0x9c
 353 0166 05010000 		.4byte	0x105
 354 016a 08       		.byte	0x8
 355 016b 07       		.uleb128 0x7
 356 016c 63747800 		.ascii	"ctx\000"
 357 0170 06       		.byte	0x6
 358 0171 9D       		.byte	0x9d
 359 0172 2E070000 		.4byte	0x72e
 360 0176 0C       		.byte	0xc
 361 0177 06       		.uleb128 0x6
 362 0178 19060000 		.4byte	.LASF31
 363 017c 06       		.byte	0x6
 364 017d 9F       		.byte	0x9f
 365 017e 30020000 		.4byte	0x230
 366 0182 10       		.byte	0x10
 367 0183 06       		.uleb128 0x6
 368 0184 C0050000 		.4byte	.LASF32
 369 0188 06       		.byte	0x6
 370 0189 A0       		.byte	0xa0
 371 018a 30020000 		.4byte	0x230
 372 018e 14       		.byte	0x14
 373 018f 06       		.uleb128 0x6
 374 0190 11030000 		.4byte	.LASF33
 375 0194 06       		.byte	0x6
 376 0195 A7       		.byte	0xa7
 377 0196 FE070000 		.4byte	0x7fe
 378 019a 18       		.byte	0x18
 379 019b 06       		.uleb128 0x6
 380 019c B4050000 		.4byte	.LASF34
 381 01a0 06       		.byte	0x6
 382 01a1 B0       		.byte	0xb0
 383 01a2 170A0000 		.4byte	0xa17
 384 01a6 1C       		.byte	0x1c
 385 01a7 06       		.uleb128 0x6
 386 01a8 DC010000 		.4byte	.LASF35
 387 01ac 06       		.byte	0x6
 388 01ad B5       		.byte	0xb5
 389 01ae EF000000 		.4byte	0xef
 390 01b2 20       		.byte	0x20
 391 01b3 06       		.uleb128 0x6
 392 01b4 4B060000 		.4byte	.LASF36
 393 01b8 06       		.byte	0x6
 394 01b9 B9       		.byte	0xb9
 395 01ba E4000000 		.4byte	0xe4
 396 01be 21       		.byte	0x21
ARM GAS  /tmp/ccMHMrzh.s 			page 8


 397 01bf 06       		.uleb128 0x6
 398 01c0 9B010000 		.4byte	.LASF37
 399 01c4 06       		.byte	0x6
 400 01c5 BE       		.byte	0xbe
 401 01c6 FA000000 		.4byte	0xfa
 402 01ca 22       		.byte	0x22
 403 01cb 08       		.uleb128 0x8
 404 01cc 7500     		.ascii	"u\000"
 405 01ce 06       		.byte	0x6
 406 01cf 0F01     		.2byte	0x10f
 407 01d1 4C090000 		.4byte	0x94c
 408 01d5 24       		.byte	0x24
 409 01d6 09       		.uleb128 0x9
 410 01d7 37020000 		.4byte	.LASF38
 411 01db 06       		.byte	0x6
 412 01dc 1401     		.2byte	0x114
 413 01de 36020000 		.4byte	0x236
 414 01e2 28       		.byte	0x28
 415 01e3 09       		.uleb128 0x9
 416 01e4 4D020000 		.4byte	.LASF39
 417 01e8 06       		.byte	0x6
 418 01e9 1A01     		.2byte	0x11a
 419 01eb 5A020000 		.4byte	0x25a
 420 01ef 2C       		.byte	0x2c
 421 01f0 09       		.uleb128 0x9
 422 01f1 41030000 		.4byte	.LASF40
 423 01f5 06       		.byte	0x6
 424 01f6 2001     		.2byte	0x120
 425 01f8 1B010000 		.4byte	0x11b
 426 01fc 34       		.byte	0x34
 427 01fd 09       		.uleb128 0x9
 428 01fe 7E060000 		.4byte	.LASF41
 429 0202 06       		.byte	0x6
 430 0203 2701     		.2byte	0x127
 431 0205 110A0000 		.4byte	0xa11
 432 0209 38       		.byte	0x38
 433 020a 09       		.uleb128 0x9
 434 020b B5030000 		.4byte	.LASF42
 435 020f 06       		.byte	0x6
 436 0210 2B01     		.2byte	0x12b
 437 0212 05010000 		.4byte	0x105
 438 0216 3C       		.byte	0x3c
 439 0217 09       		.uleb128 0x9
 440 0218 1B030000 		.4byte	.LASF43
 441 021c 06       		.byte	0x6
 442 021d 3201     		.2byte	0x132
 443 021f 0D030000 		.4byte	0x30d
 444 0223 40       		.byte	0x40
 445 0224 00       		.byte	0
 446 0225 04       		.uleb128 0x4
 447 0226 C7030000 		.4byte	.LASF44
 448 022a 05       		.byte	0x5
 449 022b 44       		.byte	0x44
 450 022c 30020000 		.4byte	0x230
 451 0230 0A       		.uleb128 0xa
 452 0231 04       		.byte	0x4
 453 0232 3C010000 		.4byte	0x13c
ARM GAS  /tmp/ccMHMrzh.s 			page 9


 454 0236 04       		.uleb128 0x4
 455 0237 00000000 		.4byte	.LASF45
 456 023b 05       		.byte	0x5
 457 023c 49       		.byte	0x49
 458 023d 41020000 		.4byte	0x241
 459 0241 05       		.uleb128 0x5
 460 0242 9E050000 		.4byte	.LASF47
 461 0246 04       		.byte	0x4
 462 0247 06       		.byte	0x6
 463 0248 88       		.byte	0x88
 464 0249 5A020000 		.4byte	0x25a
 465 024d 06       		.uleb128 0x6
 466 024e 6F010000 		.4byte	.LASF48
 467 0252 06       		.byte	0x6
 468 0253 89       		.byte	0x89
 469 0254 30020000 		.4byte	0x230
 470 0258 00       		.byte	0
 471 0259 00       		.byte	0
 472 025a 04       		.uleb128 0x4
 473 025b 1F060000 		.4byte	.LASF49
 474 025f 05       		.byte	0x5
 475 0260 50       		.byte	0x50
 476 0261 65020000 		.4byte	0x265
 477 0265 05       		.uleb128 0x5
 478 0266 74010000 		.4byte	.LASF50
 479 026a 08       		.byte	0x8
 480 026b 06       		.byte	0x6
 481 026c 8F       		.byte	0x8f
 482 026d 8A020000 		.4byte	0x28a
 483 0271 06       		.uleb128 0x6
 484 0272 6F010000 		.4byte	.LASF48
 485 0276 06       		.byte	0x6
 486 0277 90       		.byte	0x90
 487 0278 30020000 		.4byte	0x230
 488 027c 00       		.byte	0
 489 027d 06       		.uleb128 0x6
 490 027e 42000000 		.4byte	.LASF51
 491 0282 06       		.byte	0x6
 492 0283 91       		.byte	0x91
 493 0284 30020000 		.4byte	0x230
 494 0288 04       		.byte	0x4
 495 0289 00       		.byte	0
 496 028a 04       		.uleb128 0x4
 497 028b 0F000000 		.4byte	.LASF52
 498 028f 05       		.byte	0x5
 499 0290 57       		.byte	0x57
 500 0291 95020000 		.4byte	0x295
 501 0295 0B       		.uleb128 0xb
 502 0296 64030000 		.4byte	.LASF53
 503 029a 1C       		.byte	0x1c
 504 029b 06       		.byte	0x6
 505 029c 6A01     		.2byte	0x16a
 506 029e F1020000 		.4byte	0x2f1
 507 02a2 09       		.uleb128 0x9
 508 02a3 F1030000 		.4byte	.LASF29
 509 02a7 06       		.byte	0x6
 510 02a8 6B01     		.2byte	0x16b
ARM GAS  /tmp/ccMHMrzh.s 			page 10


 511 02aa 5A020000 		.4byte	0x25a
 512 02ae 00       		.byte	0
 513 02af 09       		.uleb128 0x9
 514 02b0 29040000 		.4byte	.LASF30
 515 02b4 06       		.byte	0x6
 516 02b5 6C01     		.2byte	0x16c
 517 02b7 05010000 		.4byte	0x105
 518 02bb 08       		.byte	0x8
 519 02bc 08       		.uleb128 0x8
 520 02bd 63747800 		.ascii	"ctx\000"
 521 02c1 06       		.byte	0x6
 522 02c2 6E01     		.2byte	0x16e
 523 02c4 2E070000 		.4byte	0x72e
 524 02c8 0C       		.byte	0xc
 525 02c9 09       		.uleb128 0x9
 526 02ca 19060000 		.4byte	.LASF31
 527 02ce 06       		.byte	0x6
 528 02cf 7101     		.2byte	0x171
 529 02d1 30020000 		.4byte	0x230
 530 02d5 10       		.byte	0x10
 531 02d6 09       		.uleb128 0x9
 532 02d7 C0050000 		.4byte	.LASF32
 533 02db 06       		.byte	0x6
 534 02dc 7201     		.2byte	0x172
 535 02de 30020000 		.4byte	0x230
 536 02e2 14       		.byte	0x14
 537 02e3 09       		.uleb128 0x9
 538 02e4 2E040000 		.4byte	.LASF54
 539 02e8 06       		.byte	0x6
 540 02e9 7501     		.2byte	0x175
 541 02eb 30020000 		.4byte	0x230
 542 02ef 18       		.byte	0x18
 543 02f0 00       		.byte	0
 544 02f1 04       		.uleb128 0x4
 545 02f2 E4050000 		.4byte	.LASF55
 546 02f6 05       		.byte	0x5
 547 02f7 5C       		.byte	0x5c
 548 02f8 FC020000 		.4byte	0x2fc
 549 02fc 0A       		.uleb128 0xa
 550 02fd 04       		.byte	0x4
 551 02fe 02030000 		.4byte	0x302
 552 0302 0C       		.uleb128 0xc
 553 0303 0D030000 		.4byte	0x30d
 554 0307 0D       		.uleb128 0xd
 555 0308 0D030000 		.4byte	0x30d
 556 030c 00       		.byte	0
 557 030d 0E       		.uleb128 0xe
 558 030e 04       		.byte	0x4
 559 030f 04       		.uleb128 0x4
 560 0310 A5030000 		.4byte	.LASF56
 561 0314 05       		.byte	0x5
 562 0315 61       		.byte	0x61
 563 0316 1A030000 		.4byte	0x31a
 564 031a 0B       		.uleb128 0xb
 565 031b 6B050000 		.4byte	.LASF57
 566 031f 14       		.byte	0x14
 567 0320 06       		.byte	0x6
ARM GAS  /tmp/ccMHMrzh.s 			page 11


 568 0321 4501     		.2byte	0x145
 569 0323 69030000 		.4byte	0x369
 570 0327 09       		.uleb128 0x9
 571 0328 6F010000 		.4byte	.LASF48
 572 032c 06       		.byte	0x6
 573 032d 4601     		.2byte	0x146
 574 032f 1D0A0000 		.4byte	0xa1d
 575 0333 00       		.byte	0
 576 0334 09       		.uleb128 0x9
 577 0335 42000000 		.4byte	.LASF51
 578 0339 06       		.byte	0x6
 579 033a 4701     		.2byte	0x147
 580 033c 1D0A0000 		.4byte	0xa1d
 581 0340 04       		.byte	0x4
 582 0341 09       		.uleb128 0x9
 583 0342 22000000 		.4byte	.LASF58
 584 0346 06       		.byte	0x6
 585 0347 4801     		.2byte	0x148
 586 0349 31010000 		.4byte	0x131
 587 034d 08       		.byte	0x8
 588 034e 09       		.uleb128 0x9
 589 034f 05020000 		.4byte	.LASF59
 590 0353 06       		.byte	0x6
 591 0354 4901     		.2byte	0x149
 592 0356 F1020000 		.4byte	0x2f1
 593 035a 0C       		.byte	0xc
 594 035b 08       		.uleb128 0x8
 595 035c 70617200 		.ascii	"par\000"
 596 0360 06       		.byte	0x6
 597 0361 4B01     		.2byte	0x14b
 598 0363 0D030000 		.4byte	0x30d
 599 0367 10       		.byte	0x10
 600 0368 00       		.byte	0
 601 0369 04       		.uleb128 0x4
 602 036a 53010000 		.4byte	.LASF60
 603 036e 05       		.byte	0x5
 604 036f 66       		.byte	0x66
 605 0370 74030000 		.4byte	0x374
 606 0374 0B       		.uleb128 0xb
 607 0375 DA030000 		.4byte	.LASF61
 608 0379 10       		.byte	0x10
 609 037a 06       		.byte	0x6
 610 037b 5501     		.2byte	0x155
 611 037d B6030000 		.4byte	0x3b6
 612 0381 09       		.uleb128 0x9
 613 0382 6F010000 		.4byte	.LASF48
 614 0386 06       		.byte	0x6
 615 0387 5601     		.2byte	0x156
 616 0389 1D0A0000 		.4byte	0xa1d
 617 038d 00       		.byte	0
 618 038e 09       		.uleb128 0x9
 619 038f 42000000 		.4byte	.LASF51
 620 0393 06       		.byte	0x6
 621 0394 5801     		.2byte	0x158
 622 0396 1D0A0000 		.4byte	0xa1d
 623 039a 04       		.byte	0x4
 624 039b 09       		.uleb128 0x9
ARM GAS  /tmp/ccMHMrzh.s 			page 12


 625 039c 22000000 		.4byte	.LASF58
 626 03a0 06       		.byte	0x6
 627 03a1 5A01     		.2byte	0x15a
 628 03a3 31010000 		.4byte	0x131
 629 03a7 08       		.byte	0x8
 630 03a8 09       		.uleb128 0x9
 631 03a9 DB040000 		.4byte	.LASF62
 632 03ad 06       		.byte	0x6
 633 03ae 6201     		.2byte	0x162
 634 03b0 31010000 		.4byte	0x131
 635 03b4 0C       		.byte	0xc
 636 03b5 00       		.byte	0
 637 03b6 04       		.uleb128 0x4
 638 03b7 53000000 		.4byte	.LASF63
 639 03bb 05       		.byte	0x5
 640 03bc 6B       		.byte	0x6b
 641 03bd C1030000 		.4byte	0x3c1
 642 03c1 0F       		.uleb128 0xf
 643 03c2 8D040000 		.4byte	.LASF64
 644 03c6 0C08     		.2byte	0x80c
 645 03c8 06       		.byte	0x6
 646 03c9 7C01     		.2byte	0x17c
 647 03cb EA030000 		.4byte	0x3ea
 648 03cf 09       		.uleb128 0x9
 649 03d0 ED050000 		.4byte	.LASF65
 650 03d4 06       		.byte	0x6
 651 03d5 8401     		.2byte	0x184
 652 03d7 230A0000 		.4byte	0xa23
 653 03db 00       		.byte	0
 654 03dc 09       		.uleb128 0x9
 655 03dd 66060000 		.4byte	.LASF66
 656 03e1 06       		.byte	0x6
 657 03e2 9301     		.2byte	0x193
 658 03e4 21090000 		.4byte	0x921
 659 03e8 04       		.byte	0x4
 660 03e9 00       		.byte	0
 661 03ea 04       		.uleb128 0x4
 662 03eb 50030000 		.4byte	.LASF67
 663 03ef 05       		.byte	0x5
 664 03f0 70       		.byte	0x70
 665 03f1 F5030000 		.4byte	0x3f5
 666 03f5 0F       		.uleb128 0xf
 667 03f6 15050000 		.4byte	.LASF68
 668 03fa 8008     		.2byte	0x880
 669 03fc 06       		.byte	0x6
 670 03fd 9C01     		.2byte	0x19c
 671 03ff 46040000 		.4byte	0x446
 672 0403 09       		.uleb128 0x9
 673 0404 3D060000 		.4byte	.LASF69
 674 0408 06       		.byte	0x6
 675 0409 A001     		.2byte	0x1a0
 676 040b 8A020000 		.4byte	0x28a
 677 040f 00       		.byte	0
 678 0410 09       		.uleb128 0x9
 679 0411 D5010000 		.4byte	.LASF70
 680 0415 06       		.byte	0x6
 681 0416 A401     		.2byte	0x1a4
ARM GAS  /tmp/ccMHMrzh.s 			page 13


 682 0418 69030000 		.4byte	0x369
 683 041c 1C       		.byte	0x1c
 684 041d 08       		.uleb128 0x8
 685 041e 64626700 		.ascii	"dbg\000"
 686 0422 06       		.byte	0x6
 687 0423 A801     		.2byte	0x1a8
 688 0425 B6030000 		.4byte	0x3b6
 689 0429 2C       		.byte	0x2c
 690 042a 10       		.uleb128 0x10
 691 042b 40010000 		.4byte	.LASF71
 692 042f 06       		.byte	0x6
 693 0430 AC01     		.2byte	0x1ac
 694 0432 3C010000 		.4byte	0x13c
 695 0436 3808     		.2byte	0x838
 696 0438 11       		.uleb128 0x11
 697 0439 746D00   		.ascii	"tm\000"
 698 043c 06       		.byte	0x6
 699 043d B101     		.2byte	0x1b1
 700 043f 41090000 		.4byte	0x941
 701 0443 7C08     		.2byte	0x87c
 702 0445 00       		.byte	0
 703 0446 12       		.uleb128 0x12
 704 0447 040E     		.2byte	0xe04
 705 0449 07       		.byte	0x7
 706 044a C301     		.2byte	0x1c3
 707 044c 02050000 		.4byte	0x502
 708 0450 09       		.uleb128 0x9
 709 0451 D6040000 		.4byte	.LASF72
 710 0455 07       		.byte	0x7
 711 0456 C501     		.2byte	0x1c5
 712 0458 19050000 		.4byte	0x519
 713 045c 00       		.byte	0
 714 045d 09       		.uleb128 0x9
 715 045e 49040000 		.4byte	.LASF73
 716 0462 07       		.byte	0x7
 717 0463 C601     		.2byte	0x1c6
 718 0465 1E050000 		.4byte	0x51e
 719 0469 20       		.byte	0x20
 720 046a 09       		.uleb128 0x9
 721 046b 1F040000 		.4byte	.LASF74
 722 046f 07       		.byte	0x7
 723 0470 C701     		.2byte	0x1c7
 724 0472 2E050000 		.4byte	0x52e
 725 0476 80       		.byte	0x80
 726 0477 09       		.uleb128 0x9
 727 0478 51060000 		.4byte	.LASF75
 728 047c 07       		.byte	0x7
 729 047d C801     		.2byte	0x1c8
 730 047f 1E050000 		.4byte	0x51e
 731 0483 A0       		.byte	0xa0
 732 0484 10       		.uleb128 0x10
 733 0485 85010000 		.4byte	.LASF76
 734 0489 07       		.byte	0x7
 735 048a C901     		.2byte	0x1c9
 736 048c 33050000 		.4byte	0x533
 737 0490 0001     		.2byte	0x100
 738 0492 10       		.uleb128 0x10
ARM GAS  /tmp/ccMHMrzh.s 			page 14


 739 0493 58040000 		.4byte	.LASF77
 740 0497 07       		.byte	0x7
 741 0498 CA01     		.2byte	0x1ca
 742 049a 1E050000 		.4byte	0x51e
 743 049e 2001     		.2byte	0x120
 744 04a0 10       		.uleb128 0x10
 745 04a1 0C030000 		.4byte	.LASF78
 746 04a5 07       		.byte	0x7
 747 04a6 CB01     		.2byte	0x1cb
 748 04a8 38050000 		.4byte	0x538
 749 04ac 8001     		.2byte	0x180
 750 04ae 10       		.uleb128 0x10
 751 04af 62040000 		.4byte	.LASF79
 752 04b3 07       		.byte	0x7
 753 04b4 CC01     		.2byte	0x1cc
 754 04b6 1E050000 		.4byte	0x51e
 755 04ba A001     		.2byte	0x1a0
 756 04bc 10       		.uleb128 0x10
 757 04bd FC030000 		.4byte	.LASF80
 758 04c1 07       		.byte	0x7
 759 04c2 CD01     		.2byte	0x1cd
 760 04c4 3D050000 		.4byte	0x53d
 761 04c8 0002     		.2byte	0x200
 762 04ca 10       		.uleb128 0x10
 763 04cb 6C040000 		.4byte	.LASF81
 764 04cf 07       		.byte	0x7
 765 04d0 CE01     		.2byte	0x1ce
 766 04d2 42050000 		.4byte	0x542
 767 04d6 2002     		.2byte	0x220
 768 04d8 11       		.uleb128 0x11
 769 04d9 495000   		.ascii	"IP\000"
 770 04dc 07       		.byte	0x7
 771 04dd CF01     		.2byte	0x1cf
 772 04df 62050000 		.4byte	0x562
 773 04e3 0003     		.2byte	0x300
 774 04e5 10       		.uleb128 0x10
 775 04e6 76040000 		.4byte	.LASF82
 776 04ea 07       		.byte	0x7
 777 04eb D001     		.2byte	0x1d0
 778 04ed 67050000 		.4byte	0x567
 779 04f1 F003     		.2byte	0x3f0
 780 04f3 10       		.uleb128 0x10
 781 04f4 5A060000 		.4byte	.LASF83
 782 04f8 07       		.byte	0x7
 783 04f9 D101     		.2byte	0x1d1
 784 04fb 78050000 		.4byte	0x578
 785 04ff 000E     		.2byte	0xe00
 786 0501 00       		.byte	0
 787 0502 13       		.uleb128 0x13
 788 0503 C3000000 		.4byte	0xc3
 789 0507 12050000 		.4byte	0x512
 790 050b 14       		.uleb128 0x14
 791 050c 12050000 		.4byte	0x512
 792 0510 07       		.byte	0x7
 793 0511 00       		.byte	0
 794 0512 03       		.uleb128 0x3
 795 0513 04       		.byte	0x4
ARM GAS  /tmp/ccMHMrzh.s 			page 15


 796 0514 07       		.byte	0x7
 797 0515 BE030000 		.4byte	.LASF84
 798 0519 15       		.uleb128 0x15
 799 051a 02050000 		.4byte	0x502
 800 051e 13       		.uleb128 0x13
 801 051f C3000000 		.4byte	0xc3
 802 0523 2E050000 		.4byte	0x52e
 803 0527 14       		.uleb128 0x14
 804 0528 12050000 		.4byte	0x512
 805 052c 17       		.byte	0x17
 806 052d 00       		.byte	0
 807 052e 15       		.uleb128 0x15
 808 052f 02050000 		.4byte	0x502
 809 0533 15       		.uleb128 0x15
 810 0534 02050000 		.4byte	0x502
 811 0538 15       		.uleb128 0x15
 812 0539 02050000 		.4byte	0x502
 813 053d 15       		.uleb128 0x15
 814 053e 02050000 		.4byte	0x502
 815 0542 13       		.uleb128 0x13
 816 0543 C3000000 		.4byte	0xc3
 817 0547 52050000 		.4byte	0x552
 818 054b 14       		.uleb128 0x14
 819 054c 12050000 		.4byte	0x512
 820 0550 37       		.byte	0x37
 821 0551 00       		.byte	0
 822 0552 13       		.uleb128 0x13
 823 0553 A2000000 		.4byte	0xa2
 824 0557 62050000 		.4byte	0x562
 825 055b 14       		.uleb128 0x14
 826 055c 12050000 		.4byte	0x512
 827 0560 EF       		.byte	0xef
 828 0561 00       		.byte	0
 829 0562 15       		.uleb128 0x15
 830 0563 52050000 		.4byte	0x552
 831 0567 13       		.uleb128 0x13
 832 0568 C3000000 		.4byte	0xc3
 833 056c 78050000 		.4byte	0x578
 834 0570 16       		.uleb128 0x16
 835 0571 12050000 		.4byte	0x512
 836 0575 8302     		.2byte	0x283
 837 0577 00       		.byte	0
 838 0578 15       		.uleb128 0x15
 839 0579 C3000000 		.4byte	0xc3
 840 057d 17       		.uleb128 0x17
 841 057e 93030000 		.4byte	.LASF85
 842 0582 07       		.byte	0x7
 843 0583 D201     		.2byte	0x1d2
 844 0585 46040000 		.4byte	0x446
 845 0589 18       		.uleb128 0x18
 846 058a 8C       		.byte	0x8c
 847 058b 07       		.byte	0x7
 848 058c E501     		.2byte	0x1e5
 849 058e A4060000 		.4byte	0x6a4
 850 0592 09       		.uleb128 0x9
 851 0593 69010000 		.4byte	.LASF86
 852 0597 07       		.byte	0x7
ARM GAS  /tmp/ccMHMrzh.s 			page 16


 853 0598 E701     		.2byte	0x1e7
 854 059a A4060000 		.4byte	0x6a4
 855 059e 00       		.byte	0
 856 059f 09       		.uleb128 0x9
 857 05a0 30030000 		.4byte	.LASF87
 858 05a4 07       		.byte	0x7
 859 05a5 E801     		.2byte	0x1e8
 860 05a7 78050000 		.4byte	0x578
 861 05ab 04       		.byte	0x4
 862 05ac 09       		.uleb128 0x9
 863 05ad 16030000 		.4byte	.LASF88
 864 05b1 07       		.byte	0x7
 865 05b2 E901     		.2byte	0x1e9
 866 05b4 78050000 		.4byte	0x578
 867 05b8 08       		.byte	0x8
 868 05b9 09       		.uleb128 0x9
 869 05ba 3B030000 		.4byte	.LASF89
 870 05be 07       		.byte	0x7
 871 05bf EA01     		.2byte	0x1ea
 872 05c1 78050000 		.4byte	0x578
 873 05c5 0C       		.byte	0xc
 874 05c6 08       		.uleb128 0x8
 875 05c7 53435200 		.ascii	"SCR\000"
 876 05cb 07       		.byte	0x7
 877 05cc EB01     		.2byte	0x1eb
 878 05ce 78050000 		.4byte	0x578
 879 05d2 10       		.byte	0x10
 880 05d3 08       		.uleb128 0x8
 881 05d4 43435200 		.ascii	"CCR\000"
 882 05d8 07       		.byte	0x7
 883 05d9 EC01     		.2byte	0x1ec
 884 05db 78050000 		.4byte	0x578
 885 05df 14       		.byte	0x14
 886 05e0 08       		.uleb128 0x8
 887 05e1 53485000 		.ascii	"SHP\000"
 888 05e5 07       		.byte	0x7
 889 05e6 ED01     		.2byte	0x1ed
 890 05e8 B9060000 		.4byte	0x6b9
 891 05ec 18       		.byte	0x18
 892 05ed 09       		.uleb128 0x9
 893 05ee B9040000 		.4byte	.LASF90
 894 05f2 07       		.byte	0x7
 895 05f3 EE01     		.2byte	0x1ee
 896 05f5 78050000 		.4byte	0x578
 897 05f9 24       		.byte	0x24
 898 05fa 09       		.uleb128 0x9
 899 05fb F7030000 		.4byte	.LASF91
 900 05ff 07       		.byte	0x7
 901 0600 EF01     		.2byte	0x1ef
 902 0602 78050000 		.4byte	0x578
 903 0606 28       		.byte	0x28
 904 0607 09       		.uleb128 0x9
 905 0608 79060000 		.4byte	.LASF92
 906 060c 07       		.byte	0x7
 907 060d F001     		.2byte	0x1f0
 908 060f 78050000 		.4byte	0x578
 909 0613 2C       		.byte	0x2c
ARM GAS  /tmp/ccMHMrzh.s 			page 17


 910 0614 09       		.uleb128 0x9
 911 0615 53040000 		.4byte	.LASF93
 912 0619 07       		.byte	0x7
 913 061a F101     		.2byte	0x1f1
 914 061c 78050000 		.4byte	0x578
 915 0620 30       		.byte	0x30
 916 0621 09       		.uleb128 0x9
 917 0622 4A030000 		.4byte	.LASF94
 918 0626 07       		.byte	0x7
 919 0627 F201     		.2byte	0x1f2
 920 0629 78050000 		.4byte	0x578
 921 062d 34       		.byte	0x34
 922 062e 09       		.uleb128 0x9
 923 062f 2B030000 		.4byte	.LASF95
 924 0633 07       		.byte	0x7
 925 0634 F301     		.2byte	0x1f3
 926 0636 78050000 		.4byte	0x578
 927 063a 38       		.byte	0x38
 928 063b 09       		.uleb128 0x9
 929 063c 99050000 		.4byte	.LASF96
 930 0640 07       		.byte	0x7
 931 0641 F401     		.2byte	0x1f4
 932 0643 78050000 		.4byte	0x578
 933 0647 3C       		.byte	0x3c
 934 0648 08       		.uleb128 0x8
 935 0649 50465200 		.ascii	"PFR\000"
 936 064d 07       		.byte	0x7
 937 064e F501     		.2byte	0x1f5
 938 0650 CE060000 		.4byte	0x6ce
 939 0654 40       		.byte	0x40
 940 0655 08       		.uleb128 0x8
 941 0656 44465200 		.ascii	"DFR\000"
 942 065a 07       		.byte	0x7
 943 065b F601     		.2byte	0x1f6
 944 065d A4060000 		.4byte	0x6a4
 945 0661 48       		.byte	0x48
 946 0662 08       		.uleb128 0x8
 947 0663 41445200 		.ascii	"ADR\000"
 948 0667 07       		.byte	0x7
 949 0668 F701     		.2byte	0x1f7
 950 066a A4060000 		.4byte	0x6a4
 951 066e 4C       		.byte	0x4c
 952 066f 09       		.uleb128 0x9
 953 0670 38060000 		.4byte	.LASF97
 954 0674 07       		.byte	0x7
 955 0675 F801     		.2byte	0x1f8
 956 0677 E8060000 		.4byte	0x6e8
 957 067b 50       		.byte	0x50
 958 067c 09       		.uleb128 0x9
 959 067d A0010000 		.4byte	.LASF98
 960 0681 07       		.byte	0x7
 961 0682 F901     		.2byte	0x1f9
 962 0684 02070000 		.4byte	0x702
 963 0688 60       		.byte	0x60
 964 0689 09       		.uleb128 0x9
 965 068a 49040000 		.4byte	.LASF73
 966 068e 07       		.byte	0x7
ARM GAS  /tmp/ccMHMrzh.s 			page 18


 967 068f FA01     		.2byte	0x1fa
 968 0691 F2060000 		.4byte	0x6f2
 969 0695 74       		.byte	0x74
 970 0696 09       		.uleb128 0x9
 971 0697 73060000 		.4byte	.LASF99
 972 069b 07       		.byte	0x7
 973 069c FB01     		.2byte	0x1fb
 974 069e 78050000 		.4byte	0x578
 975 06a2 88       		.byte	0x88
 976 06a3 00       		.byte	0
 977 06a4 19       		.uleb128 0x19
 978 06a5 78050000 		.4byte	0x578
 979 06a9 13       		.uleb128 0x13
 980 06aa A2000000 		.4byte	0xa2
 981 06ae B9060000 		.4byte	0x6b9
 982 06b2 14       		.uleb128 0x14
 983 06b3 12050000 		.4byte	0x512
 984 06b7 0B       		.byte	0xb
 985 06b8 00       		.byte	0
 986 06b9 15       		.uleb128 0x15
 987 06ba A9060000 		.4byte	0x6a9
 988 06be 13       		.uleb128 0x13
 989 06bf C3000000 		.4byte	0xc3
 990 06c3 CE060000 		.4byte	0x6ce
 991 06c7 14       		.uleb128 0x14
 992 06c8 12050000 		.4byte	0x512
 993 06cc 01       		.byte	0x1
 994 06cd 00       		.byte	0
 995 06ce 19       		.uleb128 0x19
 996 06cf D3060000 		.4byte	0x6d3
 997 06d3 15       		.uleb128 0x15
 998 06d4 BE060000 		.4byte	0x6be
 999 06d8 13       		.uleb128 0x13
 1000 06d9 C3000000 		.4byte	0xc3
 1001 06dd E8060000 		.4byte	0x6e8
 1002 06e1 14       		.uleb128 0x14
 1003 06e2 12050000 		.4byte	0x512
 1004 06e6 03       		.byte	0x3
 1005 06e7 00       		.byte	0
 1006 06e8 19       		.uleb128 0x19
 1007 06e9 ED060000 		.4byte	0x6ed
 1008 06ed 15       		.uleb128 0x15
 1009 06ee D8060000 		.4byte	0x6d8
 1010 06f2 13       		.uleb128 0x13
 1011 06f3 C3000000 		.4byte	0xc3
 1012 06f7 02070000 		.4byte	0x702
 1013 06fb 14       		.uleb128 0x14
 1014 06fc 12050000 		.4byte	0x512
 1015 0700 04       		.byte	0x4
 1016 0701 00       		.byte	0
 1017 0702 19       		.uleb128 0x19
 1018 0703 07070000 		.4byte	0x707
 1019 0707 15       		.uleb128 0x15
 1020 0708 F2060000 		.4byte	0x6f2
 1021 070c 17       		.uleb128 0x17
 1022 070d 2E020000 		.4byte	.LASF100
 1023 0711 07       		.byte	0x7
ARM GAS  /tmp/ccMHMrzh.s 			page 19


 1024 0712 FC01     		.2byte	0x1fc
 1025 0714 89050000 		.4byte	0x589
 1026 0718 04       		.uleb128 0x4
 1027 0719 25020000 		.4byte	.LASF101
 1028 071d 08       		.byte	0x8
 1029 071e 65       		.byte	0x65
 1030 071f 0D030000 		.4byte	0x30d
 1031 0723 04       		.uleb128 0x4
 1032 0724 88030000 		.4byte	.LASF102
 1033 0728 08       		.byte	0x8
 1034 0729 6D       		.byte	0x6d
 1035 072a CE000000 		.4byte	0xce
 1036 072e 05       		.uleb128 0x5
 1037 072f 01040000 		.4byte	.LASF103
 1038 0733 04       		.byte	0x4
 1039 0734 08       		.byte	0x8
 1040 0735 89       		.byte	0x89
 1041 0736 46070000 		.4byte	0x746
 1042 073a 07       		.uleb128 0x7
 1043 073b 737000   		.ascii	"sp\000"
 1044 073e 08       		.byte	0x8
 1045 073f 8A       		.byte	0x8a
 1046 0740 C2070000 		.4byte	0x7c2
 1047 0744 00       		.byte	0
 1048 0745 00       		.byte	0
 1049 0746 0B       		.uleb128 0xb
 1050 0747 47000000 		.4byte	.LASF104
 1051 074b 24       		.byte	0x24
 1052 074c 09       		.byte	0x9
 1053 074d 5901     		.2byte	0x159
 1054 074f C2070000 		.4byte	0x7c2
 1055 0753 08       		.uleb128 0x8
 1056 0754 723400   		.ascii	"r4\000"
 1057 0757 09       		.byte	0x9
 1058 0758 6C01     		.2byte	0x16c
 1059 075a 18070000 		.4byte	0x718
 1060 075e 00       		.byte	0
 1061 075f 08       		.uleb128 0x8
 1062 0760 723500   		.ascii	"r5\000"
 1063 0763 09       		.byte	0x9
 1064 0764 6D01     		.2byte	0x16d
 1065 0766 18070000 		.4byte	0x718
 1066 076a 04       		.byte	0x4
 1067 076b 08       		.uleb128 0x8
 1068 076c 723600   		.ascii	"r6\000"
 1069 076f 09       		.byte	0x9
 1070 0770 6E01     		.2byte	0x16e
 1071 0772 18070000 		.4byte	0x718
 1072 0776 08       		.byte	0x8
 1073 0777 08       		.uleb128 0x8
 1074 0778 723700   		.ascii	"r7\000"
 1075 077b 09       		.byte	0x9
 1076 077c 6F01     		.2byte	0x16f
 1077 077e 18070000 		.4byte	0x718
 1078 0782 0C       		.byte	0xc
 1079 0783 08       		.uleb128 0x8
 1080 0784 723800   		.ascii	"r8\000"
ARM GAS  /tmp/ccMHMrzh.s 			page 20


 1081 0787 09       		.byte	0x9
 1082 0788 7001     		.2byte	0x170
 1083 078a 18070000 		.4byte	0x718
 1084 078e 10       		.byte	0x10
 1085 078f 08       		.uleb128 0x8
 1086 0790 723900   		.ascii	"r9\000"
 1087 0793 09       		.byte	0x9
 1088 0794 7101     		.2byte	0x171
 1089 0796 18070000 		.4byte	0x718
 1090 079a 14       		.byte	0x14
 1091 079b 08       		.uleb128 0x8
 1092 079c 72313000 		.ascii	"r10\000"
 1093 07a0 09       		.byte	0x9
 1094 07a1 7201     		.2byte	0x172
 1095 07a3 18070000 		.4byte	0x718
 1096 07a7 18       		.byte	0x18
 1097 07a8 08       		.uleb128 0x8
 1098 07a9 72313100 		.ascii	"r11\000"
 1099 07ad 09       		.byte	0x9
 1100 07ae 7301     		.2byte	0x173
 1101 07b0 18070000 		.4byte	0x718
 1102 07b4 1C       		.byte	0x1c
 1103 07b5 08       		.uleb128 0x8
 1104 07b6 6C7200   		.ascii	"lr\000"
 1105 07b9 09       		.byte	0x9
 1106 07ba 7401     		.2byte	0x174
 1107 07bc 18070000 		.4byte	0x718
 1108 07c0 20       		.byte	0x20
 1109 07c1 00       		.byte	0
 1110 07c2 0A       		.uleb128 0xa
 1111 07c3 04       		.byte	0x4
 1112 07c4 46070000 		.4byte	0x746
 1113 07c8 1A       		.uleb128 0x1a
 1114 07c9 08       		.byte	0x8
 1115 07ca 0A       		.byte	0xa
 1116 07cb 80       		.byte	0x80
 1117 07cc E9070000 		.4byte	0x7e9
 1118 07d0 07       		.uleb128 0x7
 1119 07d1 6E747000 		.ascii	"ntp\000"
 1120 07d5 0A       		.byte	0xa
 1121 07d6 84       		.byte	0x84
 1122 07d7 30020000 		.4byte	0x230
 1123 07db 00       		.byte	0
 1124 07dc 06       		.uleb128 0x6
 1125 07dd 5F060000 		.4byte	.LASF105
 1126 07e1 0A       		.byte	0xa
 1127 07e2 88       		.byte	0x88
 1128 07e3 0D030000 		.4byte	0x30d
 1129 07e7 04       		.byte	0x4
 1130 07e8 00       		.byte	0
 1131 07e9 1A       		.uleb128 0x1a
 1132 07ea 04       		.byte	0x4
 1133 07eb 0A       		.byte	0xa
 1134 07ec 8D       		.byte	0x8d
 1135 07ed FE070000 		.4byte	0x7fe
 1136 07f1 06       		.uleb128 0x6
 1137 07f2 11030000 		.4byte	.LASF33
ARM GAS  /tmp/ccMHMrzh.s 			page 21


 1138 07f6 0A       		.byte	0xa
 1139 07f7 91       		.byte	0x91
 1140 07f8 FE070000 		.4byte	0x7fe
 1141 07fc 00       		.byte	0
 1142 07fd 00       		.byte	0
 1143 07fe 0A       		.uleb128 0xa
 1144 07ff 04       		.byte	0x4
 1145 0800 04080000 		.4byte	0x804
 1146 0804 19       		.uleb128 0x19
 1147 0805 09080000 		.4byte	0x809
 1148 0809 03       		.uleb128 0x3
 1149 080a 01       		.byte	0x1
 1150 080b 08       		.byte	0x8
 1151 080c BB050000 		.4byte	.LASF106
 1152 0810 1A       		.uleb128 0x1a
 1153 0811 04       		.byte	0x4
 1154 0812 0A       		.byte	0xa
 1155 0813 96       		.byte	0x96
 1156 0814 25080000 		.4byte	0x825
 1157 0818 06       		.uleb128 0x6
 1158 0819 64050000 		.4byte	.LASF107
 1159 081d 0A       		.byte	0xa
 1160 081e 9A       		.byte	0x9a
 1161 081f FE070000 		.4byte	0x7fe
 1162 0823 00       		.byte	0
 1163 0824 00       		.byte	0
 1164 0825 1A       		.uleb128 0x1a
 1165 0826 08       		.byte	0x8
 1166 0827 0A       		.byte	0xa
 1167 0828 9F       		.byte	0x9f
 1168 0829 46080000 		.4byte	0x846
 1169 082d 07       		.uleb128 0x7
 1170 082e 75703100 		.ascii	"up1\000"
 1171 0832 0A       		.byte	0xa
 1172 0833 A3       		.byte	0xa3
 1173 0834 0D030000 		.4byte	0x30d
 1174 0838 00       		.byte	0
 1175 0839 07       		.uleb128 0x7
 1176 083a 75703200 		.ascii	"up2\000"
 1177 083e 0A       		.byte	0xa
 1178 083f A7       		.byte	0xa7
 1179 0840 0D030000 		.4byte	0x30d
 1180 0844 04       		.byte	0x4
 1181 0845 00       		.byte	0
 1182 0846 1B       		.uleb128 0x1b
 1183 0847 08       		.byte	0x8
 1184 0848 0A       		.byte	0xa
 1185 0849 7C       		.byte	0x7c
 1186 084a 7A080000 		.4byte	0x87a
 1187 084e 1C       		.uleb128 0x1c
 1188 084f 737700   		.ascii	"sw\000"
 1189 0852 0A       		.byte	0xa
 1190 0853 89       		.byte	0x89
 1191 0854 C8070000 		.4byte	0x7c8
 1192 0858 1C       		.uleb128 0x1c
 1193 0859 69737200 		.ascii	"isr\000"
 1194 085d 0A       		.byte	0xa
ARM GAS  /tmp/ccMHMrzh.s 			page 22


 1195 085e 92       		.byte	0x92
 1196 085f E9070000 		.4byte	0x7e9
 1197 0863 1D       		.uleb128 0x1d
 1198 0864 E4040000 		.4byte	.LASF108
 1199 0868 0A       		.byte	0xa
 1200 0869 9B       		.byte	0x9b
 1201 086a 10080000 		.4byte	0x810
 1202 086e 1D       		.uleb128 0x1d
 1203 086f 80040000 		.4byte	.LASF109
 1204 0873 0A       		.byte	0xa
 1205 0874 A8       		.byte	0xa8
 1206 0875 25080000 		.4byte	0x825
 1207 0879 00       		.byte	0
 1208 087a 1A       		.uleb128 0x1a
 1209 087b 10       		.byte	0x10
 1210 087c 0A       		.byte	0xa
 1211 087d 69       		.byte	0x69
 1212 087e C6080000 		.4byte	0x8c6
 1213 0882 1E       		.uleb128 0x1e
 1214 0883 62000000 		.4byte	.LASF110
 1215 0887 0A       		.byte	0xa
 1216 0888 6D       		.byte	0x6d
 1217 0889 C3000000 		.4byte	0xc3
 1218 088d 04       		.byte	0x4
 1219 088e 03       		.byte	0x3
 1220 088f 1D       		.byte	0x1d
 1221 0890 00       		.byte	0
 1222 0891 1E       		.uleb128 0x1e
 1223 0892 DC010000 		.4byte	.LASF35
 1224 0896 0A       		.byte	0xa
 1225 0897 71       		.byte	0x71
 1226 0898 C3000000 		.4byte	0xc3
 1227 089c 04       		.byte	0x4
 1228 089d 05       		.byte	0x5
 1229 089e 18       		.byte	0x18
 1230 089f 00       		.byte	0
 1231 08a0 1E       		.uleb128 0x1e
 1232 08a1 E9040000 		.4byte	.LASF111
 1233 08a5 0A       		.byte	0xa
 1234 08a6 77       		.byte	0x77
 1235 08a7 C3000000 		.4byte	0xc3
 1236 08ab 04       		.byte	0x4
 1237 08ac 18       		.byte	0x18
 1238 08ad 00       		.byte	0
 1239 08ae 00       		.byte	0
 1240 08af 06       		.uleb128 0x6
 1241 08b0 24040000 		.4byte	.LASF112
 1242 08b4 0A       		.byte	0xa
 1243 08b5 7B       		.byte	0x7b
 1244 08b6 31010000 		.4byte	0x131
 1245 08ba 04       		.byte	0x4
 1246 08bb 07       		.uleb128 0x7
 1247 08bc 7500     		.ascii	"u\000"
 1248 08be 0A       		.byte	0xa
 1249 08bf A9       		.byte	0xa9
 1250 08c0 46080000 		.4byte	0x846
 1251 08c4 08       		.byte	0x8
ARM GAS  /tmp/ccMHMrzh.s 			page 23


 1252 08c5 00       		.byte	0
 1253 08c6 04       		.uleb128 0x4
 1254 08c7 F4010000 		.4byte	.LASF113
 1255 08cb 0A       		.byte	0xa
 1256 08cc AA       		.byte	0xaa
 1257 08cd 7A080000 		.4byte	0x87a
 1258 08d1 1F       		.uleb128 0x1f
 1259 08d2 0808     		.2byte	0x808
 1260 08d4 0A       		.byte	0xa
 1261 08d5 B0       		.byte	0xb0
 1262 08d6 0B090000 		.4byte	0x90b
 1263 08da 06       		.uleb128 0x6
 1264 08db 04010000 		.4byte	.LASF114
 1265 08df 0A       		.byte	0xa
 1266 08e0 B4       		.byte	0xb4
 1267 08e1 AD000000 		.4byte	0xad
 1268 08e5 00       		.byte	0
 1269 08e6 06       		.uleb128 0x6
 1270 08e7 BF010000 		.4byte	.LASF115
 1271 08eb 0A       		.byte	0xa
 1272 08ec B8       		.byte	0xb8
 1273 08ed AD000000 		.4byte	0xad
 1274 08f1 02       		.byte	0x2
 1275 08f2 07       		.uleb128 0x7
 1276 08f3 70747200 		.ascii	"ptr\000"
 1277 08f7 0A       		.byte	0xa
 1278 08f8 BC       		.byte	0xbc
 1279 08f9 0B090000 		.4byte	0x90b
 1280 08fd 04       		.byte	0x4
 1281 08fe 06       		.uleb128 0x6
 1282 08ff 13020000 		.4byte	.LASF116
 1283 0903 0A       		.byte	0xa
 1284 0904 C0       		.byte	0xc0
 1285 0905 11090000 		.4byte	0x911
 1286 0909 08       		.byte	0x8
 1287 090a 00       		.byte	0
 1288 090b 0A       		.uleb128 0xa
 1289 090c 04       		.byte	0x4
 1290 090d C6080000 		.4byte	0x8c6
 1291 0911 13       		.uleb128 0x13
 1292 0912 C6080000 		.4byte	0x8c6
 1293 0916 21090000 		.4byte	0x921
 1294 091a 14       		.uleb128 0x14
 1295 091b 12050000 		.4byte	0x512
 1296 091f 7F       		.byte	0x7f
 1297 0920 00       		.byte	0
 1298 0921 04       		.uleb128 0x4
 1299 0922 25010000 		.4byte	.LASF117
 1300 0926 0A       		.byte	0xa
 1301 0927 C1       		.byte	0xc1
 1302 0928 D1080000 		.4byte	0x8d1
 1303 092c 1A       		.uleb128 0x1a
 1304 092d 04       		.byte	0x4
 1305 092e 0B       		.byte	0xb
 1306 092f 38       		.byte	0x38
 1307 0930 41090000 		.4byte	0x941
 1308 0934 06       		.uleb128 0x6
ARM GAS  /tmp/ccMHMrzh.s 			page 24


 1309 0935 F7050000 		.4byte	.LASF118
 1310 0939 0B       		.byte	0xb
 1311 093a 3C       		.byte	0x3c
 1312 093b D9000000 		.4byte	0xd9
 1313 093f 00       		.byte	0
 1314 0940 00       		.byte	0
 1315 0941 04       		.uleb128 0x4
 1316 0942 0E040000 		.4byte	.LASF119
 1317 0946 0B       		.byte	0xb
 1318 0947 3D       		.byte	0x3d
 1319 0948 2C090000 		.4byte	0x92c
 1320 094c 1B       		.uleb128 0x1b
 1321 094d 04       		.byte	0x4
 1322 094e 06       		.byte	0x6
 1323 094f D2       		.byte	0xd2
 1324 0950 AF090000 		.4byte	0x9af
 1325 0954 1D       		.uleb128 0x1d
 1326 0955 28000000 		.4byte	.LASF120
 1327 0959 06       		.byte	0x6
 1328 095a D9       		.byte	0xd9
 1329 095b 10010000 		.4byte	0x110
 1330 095f 1D       		.uleb128 0x1d
 1331 0960 37010000 		.4byte	.LASF121
 1332 0964 06       		.byte	0x6
 1333 0965 E0       		.byte	0xe0
 1334 0966 10010000 		.4byte	0x110
 1335 096a 1D       		.uleb128 0x1d
 1336 096b 5F060000 		.4byte	.LASF105
 1337 096f 06       		.byte	0x6
 1338 0970 E7       		.byte	0xe7
 1339 0971 0D030000 		.4byte	0x30d
 1340 0975 1D       		.uleb128 0x1d
 1341 0976 1C000000 		.4byte	.LASF122
 1342 097a 06       		.byte	0x6
 1343 097b EE       		.byte	0xee
 1344 097c AF090000 		.4byte	0x9af
 1345 0980 1D       		.uleb128 0x1d
 1346 0981 4B010000 		.4byte	.LASF123
 1347 0985 06       		.byte	0x6
 1348 0986 F3       		.byte	0xf3
 1349 0987 10010000 		.4byte	0x110
 1350 098b 1D       		.uleb128 0x1d
 1351 098c F3020000 		.4byte	.LASF124
 1352 0990 06       		.byte	0x6
 1353 0991 FC       		.byte	0xfc
 1354 0992 DA090000 		.4byte	0x9da
 1355 0996 20       		.uleb128 0x20
 1356 0997 92050000 		.4byte	.LASF125
 1357 099b 06       		.byte	0x6
 1358 099c 0501     		.2byte	0x105
 1359 099e 110A0000 		.4byte	0xa11
 1360 09a2 20       		.uleb128 0x20
 1361 09a3 0E050000 		.4byte	.LASF126
 1362 09a7 06       		.byte	0x6
 1363 09a8 0D01     		.2byte	0x10d
 1364 09aa 1B010000 		.4byte	0x11b
 1365 09ae 00       		.byte	0
ARM GAS  /tmp/ccMHMrzh.s 			page 25


 1366 09af 0A       		.uleb128 0xa
 1367 09b0 04       		.byte	0x4
 1368 09b1 25020000 		.4byte	0x225
 1369 09b5 05       		.uleb128 0x5
 1370 09b6 7C050000 		.4byte	.LASF127
 1371 09ba 0C       		.byte	0xc
 1372 09bb 0C       		.byte	0xc
 1373 09bc 34       		.byte	0x34
 1374 09bd DA090000 		.4byte	0x9da
 1375 09c1 06       		.uleb128 0x6
 1376 09c2 F1030000 		.4byte	.LASF29
 1377 09c6 0C       		.byte	0xc
 1378 09c7 35       		.byte	0x35
 1379 09c8 5A020000 		.4byte	0x25a
 1380 09cc 00       		.byte	0
 1381 09cd 07       		.uleb128 0x7
 1382 09ce 636E7400 		.ascii	"cnt\000"
 1383 09d2 0C       		.byte	0xc
 1384 09d3 37       		.byte	0x37
 1385 09d4 26010000 		.4byte	0x126
 1386 09d8 08       		.byte	0x8
 1387 09d9 00       		.byte	0
 1388 09da 0A       		.uleb128 0xa
 1389 09db 04       		.byte	0x4
 1390 09dc B5090000 		.4byte	0x9b5
 1391 09e0 05       		.uleb128 0x5
 1392 09e1 2F060000 		.4byte	.LASF128
 1393 09e5 10       		.byte	0x10
 1394 09e6 0D       		.byte	0xd
 1395 09e7 39       		.byte	0x39
 1396 09e8 110A0000 		.4byte	0xa11
 1397 09ec 06       		.uleb128 0x6
 1398 09ed F1030000 		.4byte	.LASF29
 1399 09f1 0D       		.byte	0xd
 1400 09f2 3A       		.byte	0x3a
 1401 09f3 5A020000 		.4byte	0x25a
 1402 09f7 00       		.byte	0
 1403 09f8 06       		.uleb128 0x6
 1404 09f9 AE050000 		.4byte	.LASF129
 1405 09fd 0D       		.byte	0xd
 1406 09fe 3C       		.byte	0x3c
 1407 09ff 30020000 		.4byte	0x230
 1408 0a03 08       		.byte	0x8
 1409 0a04 06       		.uleb128 0x6
 1410 0a05 6F010000 		.4byte	.LASF48
 1411 0a09 0D       		.byte	0xd
 1412 0a0a 3E       		.byte	0x3e
 1413 0a0b 330A0000 		.4byte	0xa33
 1414 0a0f 0C       		.byte	0xc
 1415 0a10 00       		.byte	0
 1416 0a11 0A       		.uleb128 0xa
 1417 0a12 04       		.byte	0x4
 1418 0a13 E0090000 		.4byte	0x9e0
 1419 0a17 0A       		.uleb128 0xa
 1420 0a18 04       		.byte	0x4
 1421 0a19 23070000 		.4byte	0x723
 1422 0a1d 0A       		.uleb128 0xa
ARM GAS  /tmp/ccMHMrzh.s 			page 26


 1423 0a1e 04       		.byte	0x4
 1424 0a1f 0F030000 		.4byte	0x30f
 1425 0a23 15       		.uleb128 0x15
 1426 0a24 FE070000 		.4byte	0x7fe
 1427 0a28 04       		.uleb128 0x4
 1428 0a29 3F020000 		.4byte	.LASF130
 1429 0a2d 0D       		.byte	0xd
 1430 0a2e 34       		.byte	0x34
 1431 0a2f E0090000 		.4byte	0x9e0
 1432 0a33 0A       		.uleb128 0xa
 1433 0a34 04       		.byte	0x4
 1434 0a35 280A0000 		.4byte	0xa28
 1435 0a39 03       		.uleb128 0x3
 1436 0a3a 01       		.byte	0x1
 1437 0a3b 02       		.byte	0x2
 1438 0a3c 9D040000 		.4byte	.LASF131
 1439 0a40 21       		.uleb128 0x21
 1440 0a41 8A010000 		.4byte	.LASF132
 1441 0a45 01       		.byte	0x1
 1442 0a46 39       		.byte	0x39
 1443 0a47 00000000 		.4byte	.LFB270
 1444 0a4b 34000000 		.4byte	.LFE270-.LFB270
 1445 0a4f 01       		.uleb128 0x1
 1446 0a50 9C       		.byte	0x9c
 1447 0a51 720A0000 		.4byte	0xa72
 1448 0a55 22       		.uleb128 0x22
 1449 0a56 6E00     		.ascii	"n\000"
 1450 0a58 01       		.byte	0x1
 1451 0a59 39       		.byte	0x39
 1452 0a5a C3000000 		.4byte	0xc3
 1453 0a5e 00000000 		.4byte	.LLST0
 1454 0a62 23       		.uleb128 0x23
 1455 0a63 29040000 		.4byte	.LASF30
 1456 0a67 01       		.byte	0x1
 1457 0a68 39       		.byte	0x39
 1458 0a69 C3000000 		.4byte	0xc3
 1459 0a6d 24000000 		.4byte	.LLST1
 1460 0a71 00       		.byte	0
 1461 0a72 21       		.uleb128 0x21
 1462 0a73 63020000 		.4byte	.LASF133
 1463 0a77 01       		.byte	0x1
 1464 0a78 4A       		.byte	0x4a
 1465 0a79 00000000 		.4byte	.LFB271
 1466 0a7d 28000000 		.4byte	.LFE271-.LFB271
 1467 0a81 01       		.uleb128 0x1
 1468 0a82 9C       		.byte	0x9c
 1469 0a83 950A0000 		.4byte	0xa95
 1470 0a87 22       		.uleb128 0x22
 1471 0a88 6E00     		.ascii	"n\000"
 1472 0a8a 01       		.byte	0x1
 1473 0a8b 4A       		.byte	0x4a
 1474 0a8c C3000000 		.4byte	0xc3
 1475 0a90 45000000 		.4byte	.LLST2
 1476 0a94 00       		.byte	0
 1477 0a95 21       		.uleb128 0x21
 1478 0a96 F1040000 		.4byte	.LASF134
 1479 0a9a 01       		.byte	0x1
ARM GAS  /tmp/ccMHMrzh.s 			page 27


 1480 0a9b 5A       		.byte	0x5a
 1481 0a9c 00000000 		.4byte	.LFB272
 1482 0aa0 10000000 		.4byte	.LFE272-.LFB272
 1483 0aa4 01       		.uleb128 0x1
 1484 0aa5 9C       		.byte	0x9c
 1485 0aa6 D20A0000 		.4byte	0xad2
 1486 0aaa 23       		.uleb128 0x23
 1487 0aab 9D030000 		.4byte	.LASF135
 1488 0aaf 01       		.byte	0x1
 1489 0ab0 5A       		.byte	0x5a
 1490 0ab1 C3000000 		.4byte	0xc3
 1491 0ab5 66000000 		.4byte	.LLST3
 1492 0ab9 23       		.uleb128 0x23
 1493 0aba 29040000 		.4byte	.LASF30
 1494 0abe 01       		.byte	0x1
 1495 0abf 5A       		.byte	0x5a
 1496 0ac0 C3000000 		.4byte	0xc3
 1497 0ac4 9B000000 		.4byte	.LLST4
 1498 0ac8 24       		.uleb128 0x24
 1499 0ac9 1F050000 		.4byte	.LASF141
 1500 0acd E20A0000 		.4byte	0xae2
 1501 0ad1 00       		.byte	0
 1502 0ad2 13       		.uleb128 0x13
 1503 0ad3 09080000 		.4byte	0x809
 1504 0ad7 E20A0000 		.4byte	0xae2
 1505 0adb 14       		.uleb128 0x14
 1506 0adc 12050000 		.4byte	0x512
 1507 0ae0 1C       		.byte	0x1c
 1508 0ae1 00       		.byte	0
 1509 0ae2 19       		.uleb128 0x19
 1510 0ae3 D20A0000 		.4byte	0xad2
 1511 0ae7 21       		.uleb128 0x21
 1512 0ae8 C4010000 		.4byte	.LASF136
 1513 0aec 01       		.byte	0x1
 1514 0aed 6D       		.byte	0x6d
 1515 0aee 00000000 		.4byte	.LFB273
 1516 0af2 1C000000 		.4byte	.LFE273-.LFB273
 1517 0af6 01       		.uleb128 0x1
 1518 0af7 9C       		.byte	0x9c
 1519 0af8 0A0B0000 		.4byte	0xb0a
 1520 0afc 22       		.uleb128 0x22
 1521 0afd 6E00     		.ascii	"n\000"
 1522 0aff 01       		.byte	0x1
 1523 0b00 6D       		.byte	0x6d
 1524 0b01 C3000000 		.4byte	0xc3
 1525 0b05 BC000000 		.4byte	.LLST5
 1526 0b09 00       		.byte	0
 1527 0b0a 25       		.uleb128 0x25
 1528 0b0b BF040000 		.4byte	.LASF137
 1529 0b0f 07       		.byte	0x7
 1530 0b10 4407     		.2byte	0x744
 1531 0b12 160B0000 		.4byte	0xb16
 1532 0b16 15       		.uleb128 0x15
 1533 0b17 B8000000 		.4byte	0xb8
 1534 0b1b 26       		.uleb128 0x26
 1535 0b1c 636800   		.ascii	"ch\000"
 1536 0b1f 06       		.byte	0x6
ARM GAS  /tmp/ccMHMrzh.s 			page 28


 1537 0b20 D201     		.2byte	0x1d2
 1538 0b22 EA030000 		.4byte	0x3ea
 1539 0b26 00       		.byte	0
 1540              		.section	.debug_abbrev,"",%progbits
 1541              	.Ldebug_abbrev0:
 1542 0000 01       		.uleb128 0x1
 1543 0001 11       		.uleb128 0x11
 1544 0002 01       		.byte	0x1
 1545 0003 25       		.uleb128 0x25
 1546 0004 0E       		.uleb128 0xe
 1547 0005 13       		.uleb128 0x13
 1548 0006 0B       		.uleb128 0xb
 1549 0007 03       		.uleb128 0x3
 1550 0008 0E       		.uleb128 0xe
 1551 0009 1B       		.uleb128 0x1b
 1552 000a 0E       		.uleb128 0xe
 1553 000b 55       		.uleb128 0x55
 1554 000c 17       		.uleb128 0x17
 1555 000d 11       		.uleb128 0x11
 1556 000e 01       		.uleb128 0x1
 1557 000f 10       		.uleb128 0x10
 1558 0010 17       		.uleb128 0x17
 1559 0011 00       		.byte	0
 1560 0012 00       		.byte	0
 1561 0013 02       		.uleb128 0x2
 1562 0014 24       		.uleb128 0x24
 1563 0015 00       		.byte	0
 1564 0016 0B       		.uleb128 0xb
 1565 0017 0B       		.uleb128 0xb
 1566 0018 3E       		.uleb128 0x3e
 1567 0019 0B       		.uleb128 0xb
 1568 001a 03       		.uleb128 0x3
 1569 001b 08       		.uleb128 0x8
 1570 001c 00       		.byte	0
 1571 001d 00       		.byte	0
 1572 001e 03       		.uleb128 0x3
 1573 001f 24       		.uleb128 0x24
 1574 0020 00       		.byte	0
 1575 0021 0B       		.uleb128 0xb
 1576 0022 0B       		.uleb128 0xb
 1577 0023 3E       		.uleb128 0x3e
 1578 0024 0B       		.uleb128 0xb
 1579 0025 03       		.uleb128 0x3
 1580 0026 0E       		.uleb128 0xe
 1581 0027 00       		.byte	0
 1582 0028 00       		.byte	0
 1583 0029 04       		.uleb128 0x4
 1584 002a 16       		.uleb128 0x16
 1585 002b 00       		.byte	0
 1586 002c 03       		.uleb128 0x3
 1587 002d 0E       		.uleb128 0xe
 1588 002e 3A       		.uleb128 0x3a
 1589 002f 0B       		.uleb128 0xb
 1590 0030 3B       		.uleb128 0x3b
 1591 0031 0B       		.uleb128 0xb
 1592 0032 49       		.uleb128 0x49
 1593 0033 13       		.uleb128 0x13
ARM GAS  /tmp/ccMHMrzh.s 			page 29


 1594 0034 00       		.byte	0
 1595 0035 00       		.byte	0
 1596 0036 05       		.uleb128 0x5
 1597 0037 13       		.uleb128 0x13
 1598 0038 01       		.byte	0x1
 1599 0039 03       		.uleb128 0x3
 1600 003a 0E       		.uleb128 0xe
 1601 003b 0B       		.uleb128 0xb
 1602 003c 0B       		.uleb128 0xb
 1603 003d 3A       		.uleb128 0x3a
 1604 003e 0B       		.uleb128 0xb
 1605 003f 3B       		.uleb128 0x3b
 1606 0040 0B       		.uleb128 0xb
 1607 0041 01       		.uleb128 0x1
 1608 0042 13       		.uleb128 0x13
 1609 0043 00       		.byte	0
 1610 0044 00       		.byte	0
 1611 0045 06       		.uleb128 0x6
 1612 0046 0D       		.uleb128 0xd
 1613 0047 00       		.byte	0
 1614 0048 03       		.uleb128 0x3
 1615 0049 0E       		.uleb128 0xe
 1616 004a 3A       		.uleb128 0x3a
 1617 004b 0B       		.uleb128 0xb
 1618 004c 3B       		.uleb128 0x3b
 1619 004d 0B       		.uleb128 0xb
 1620 004e 49       		.uleb128 0x49
 1621 004f 13       		.uleb128 0x13
 1622 0050 38       		.uleb128 0x38
 1623 0051 0B       		.uleb128 0xb
 1624 0052 00       		.byte	0
 1625 0053 00       		.byte	0
 1626 0054 07       		.uleb128 0x7
 1627 0055 0D       		.uleb128 0xd
 1628 0056 00       		.byte	0
 1629 0057 03       		.uleb128 0x3
 1630 0058 08       		.uleb128 0x8
 1631 0059 3A       		.uleb128 0x3a
 1632 005a 0B       		.uleb128 0xb
 1633 005b 3B       		.uleb128 0x3b
 1634 005c 0B       		.uleb128 0xb
 1635 005d 49       		.uleb128 0x49
 1636 005e 13       		.uleb128 0x13
 1637 005f 38       		.uleb128 0x38
 1638 0060 0B       		.uleb128 0xb
 1639 0061 00       		.byte	0
 1640 0062 00       		.byte	0
 1641 0063 08       		.uleb128 0x8
 1642 0064 0D       		.uleb128 0xd
 1643 0065 00       		.byte	0
 1644 0066 03       		.uleb128 0x3
 1645 0067 08       		.uleb128 0x8
 1646 0068 3A       		.uleb128 0x3a
 1647 0069 0B       		.uleb128 0xb
 1648 006a 3B       		.uleb128 0x3b
 1649 006b 05       		.uleb128 0x5
 1650 006c 49       		.uleb128 0x49
ARM GAS  /tmp/ccMHMrzh.s 			page 30


 1651 006d 13       		.uleb128 0x13
 1652 006e 38       		.uleb128 0x38
 1653 006f 0B       		.uleb128 0xb
 1654 0070 00       		.byte	0
 1655 0071 00       		.byte	0
 1656 0072 09       		.uleb128 0x9
 1657 0073 0D       		.uleb128 0xd
 1658 0074 00       		.byte	0
 1659 0075 03       		.uleb128 0x3
 1660 0076 0E       		.uleb128 0xe
 1661 0077 3A       		.uleb128 0x3a
 1662 0078 0B       		.uleb128 0xb
 1663 0079 3B       		.uleb128 0x3b
 1664 007a 05       		.uleb128 0x5
 1665 007b 49       		.uleb128 0x49
 1666 007c 13       		.uleb128 0x13
 1667 007d 38       		.uleb128 0x38
 1668 007e 0B       		.uleb128 0xb
 1669 007f 00       		.byte	0
 1670 0080 00       		.byte	0
 1671 0081 0A       		.uleb128 0xa
 1672 0082 0F       		.uleb128 0xf
 1673 0083 00       		.byte	0
 1674 0084 0B       		.uleb128 0xb
 1675 0085 0B       		.uleb128 0xb
 1676 0086 49       		.uleb128 0x49
 1677 0087 13       		.uleb128 0x13
 1678 0088 00       		.byte	0
 1679 0089 00       		.byte	0
 1680 008a 0B       		.uleb128 0xb
 1681 008b 13       		.uleb128 0x13
 1682 008c 01       		.byte	0x1
 1683 008d 03       		.uleb128 0x3
 1684 008e 0E       		.uleb128 0xe
 1685 008f 0B       		.uleb128 0xb
 1686 0090 0B       		.uleb128 0xb
 1687 0091 3A       		.uleb128 0x3a
 1688 0092 0B       		.uleb128 0xb
 1689 0093 3B       		.uleb128 0x3b
 1690 0094 05       		.uleb128 0x5
 1691 0095 01       		.uleb128 0x1
 1692 0096 13       		.uleb128 0x13
 1693 0097 00       		.byte	0
 1694 0098 00       		.byte	0
 1695 0099 0C       		.uleb128 0xc
 1696 009a 15       		.uleb128 0x15
 1697 009b 01       		.byte	0x1
 1698 009c 27       		.uleb128 0x27
 1699 009d 19       		.uleb128 0x19
 1700 009e 01       		.uleb128 0x1
 1701 009f 13       		.uleb128 0x13
 1702 00a0 00       		.byte	0
 1703 00a1 00       		.byte	0
 1704 00a2 0D       		.uleb128 0xd
 1705 00a3 05       		.uleb128 0x5
 1706 00a4 00       		.byte	0
 1707 00a5 49       		.uleb128 0x49
ARM GAS  /tmp/ccMHMrzh.s 			page 31


 1708 00a6 13       		.uleb128 0x13
 1709 00a7 00       		.byte	0
 1710 00a8 00       		.byte	0
 1711 00a9 0E       		.uleb128 0xe
 1712 00aa 0F       		.uleb128 0xf
 1713 00ab 00       		.byte	0
 1714 00ac 0B       		.uleb128 0xb
 1715 00ad 0B       		.uleb128 0xb
 1716 00ae 00       		.byte	0
 1717 00af 00       		.byte	0
 1718 00b0 0F       		.uleb128 0xf
 1719 00b1 13       		.uleb128 0x13
 1720 00b2 01       		.byte	0x1
 1721 00b3 03       		.uleb128 0x3
 1722 00b4 0E       		.uleb128 0xe
 1723 00b5 0B       		.uleb128 0xb
 1724 00b6 05       		.uleb128 0x5
 1725 00b7 3A       		.uleb128 0x3a
 1726 00b8 0B       		.uleb128 0xb
 1727 00b9 3B       		.uleb128 0x3b
 1728 00ba 05       		.uleb128 0x5
 1729 00bb 01       		.uleb128 0x1
 1730 00bc 13       		.uleb128 0x13
 1731 00bd 00       		.byte	0
 1732 00be 00       		.byte	0
 1733 00bf 10       		.uleb128 0x10
 1734 00c0 0D       		.uleb128 0xd
 1735 00c1 00       		.byte	0
 1736 00c2 03       		.uleb128 0x3
 1737 00c3 0E       		.uleb128 0xe
 1738 00c4 3A       		.uleb128 0x3a
 1739 00c5 0B       		.uleb128 0xb
 1740 00c6 3B       		.uleb128 0x3b
 1741 00c7 05       		.uleb128 0x5
 1742 00c8 49       		.uleb128 0x49
 1743 00c9 13       		.uleb128 0x13
 1744 00ca 38       		.uleb128 0x38
 1745 00cb 05       		.uleb128 0x5
 1746 00cc 00       		.byte	0
 1747 00cd 00       		.byte	0
 1748 00ce 11       		.uleb128 0x11
 1749 00cf 0D       		.uleb128 0xd
 1750 00d0 00       		.byte	0
 1751 00d1 03       		.uleb128 0x3
 1752 00d2 08       		.uleb128 0x8
 1753 00d3 3A       		.uleb128 0x3a
 1754 00d4 0B       		.uleb128 0xb
 1755 00d5 3B       		.uleb128 0x3b
 1756 00d6 05       		.uleb128 0x5
 1757 00d7 49       		.uleb128 0x49
 1758 00d8 13       		.uleb128 0x13
 1759 00d9 38       		.uleb128 0x38
 1760 00da 05       		.uleb128 0x5
 1761 00db 00       		.byte	0
 1762 00dc 00       		.byte	0
 1763 00dd 12       		.uleb128 0x12
 1764 00de 13       		.uleb128 0x13
ARM GAS  /tmp/ccMHMrzh.s 			page 32


 1765 00df 01       		.byte	0x1
 1766 00e0 0B       		.uleb128 0xb
 1767 00e1 05       		.uleb128 0x5
 1768 00e2 3A       		.uleb128 0x3a
 1769 00e3 0B       		.uleb128 0xb
 1770 00e4 3B       		.uleb128 0x3b
 1771 00e5 05       		.uleb128 0x5
 1772 00e6 01       		.uleb128 0x1
 1773 00e7 13       		.uleb128 0x13
 1774 00e8 00       		.byte	0
 1775 00e9 00       		.byte	0
 1776 00ea 13       		.uleb128 0x13
 1777 00eb 01       		.uleb128 0x1
 1778 00ec 01       		.byte	0x1
 1779 00ed 49       		.uleb128 0x49
 1780 00ee 13       		.uleb128 0x13
 1781 00ef 01       		.uleb128 0x1
 1782 00f0 13       		.uleb128 0x13
 1783 00f1 00       		.byte	0
 1784 00f2 00       		.byte	0
 1785 00f3 14       		.uleb128 0x14
 1786 00f4 21       		.uleb128 0x21
 1787 00f5 00       		.byte	0
 1788 00f6 49       		.uleb128 0x49
 1789 00f7 13       		.uleb128 0x13
 1790 00f8 2F       		.uleb128 0x2f
 1791 00f9 0B       		.uleb128 0xb
 1792 00fa 00       		.byte	0
 1793 00fb 00       		.byte	0
 1794 00fc 15       		.uleb128 0x15
 1795 00fd 35       		.uleb128 0x35
 1796 00fe 00       		.byte	0
 1797 00ff 49       		.uleb128 0x49
 1798 0100 13       		.uleb128 0x13
 1799 0101 00       		.byte	0
 1800 0102 00       		.byte	0
 1801 0103 16       		.uleb128 0x16
 1802 0104 21       		.uleb128 0x21
 1803 0105 00       		.byte	0
 1804 0106 49       		.uleb128 0x49
 1805 0107 13       		.uleb128 0x13
 1806 0108 2F       		.uleb128 0x2f
 1807 0109 05       		.uleb128 0x5
 1808 010a 00       		.byte	0
 1809 010b 00       		.byte	0
 1810 010c 17       		.uleb128 0x17
 1811 010d 16       		.uleb128 0x16
 1812 010e 00       		.byte	0
 1813 010f 03       		.uleb128 0x3
 1814 0110 0E       		.uleb128 0xe
 1815 0111 3A       		.uleb128 0x3a
 1816 0112 0B       		.uleb128 0xb
 1817 0113 3B       		.uleb128 0x3b
 1818 0114 05       		.uleb128 0x5
 1819 0115 49       		.uleb128 0x49
 1820 0116 13       		.uleb128 0x13
 1821 0117 00       		.byte	0
ARM GAS  /tmp/ccMHMrzh.s 			page 33


 1822 0118 00       		.byte	0
 1823 0119 18       		.uleb128 0x18
 1824 011a 13       		.uleb128 0x13
 1825 011b 01       		.byte	0x1
 1826 011c 0B       		.uleb128 0xb
 1827 011d 0B       		.uleb128 0xb
 1828 011e 3A       		.uleb128 0x3a
 1829 011f 0B       		.uleb128 0xb
 1830 0120 3B       		.uleb128 0x3b
 1831 0121 05       		.uleb128 0x5
 1832 0122 01       		.uleb128 0x1
 1833 0123 13       		.uleb128 0x13
 1834 0124 00       		.byte	0
 1835 0125 00       		.byte	0
 1836 0126 19       		.uleb128 0x19
 1837 0127 26       		.uleb128 0x26
 1838 0128 00       		.byte	0
 1839 0129 49       		.uleb128 0x49
 1840 012a 13       		.uleb128 0x13
 1841 012b 00       		.byte	0
 1842 012c 00       		.byte	0
 1843 012d 1A       		.uleb128 0x1a
 1844 012e 13       		.uleb128 0x13
 1845 012f 01       		.byte	0x1
 1846 0130 0B       		.uleb128 0xb
 1847 0131 0B       		.uleb128 0xb
 1848 0132 3A       		.uleb128 0x3a
 1849 0133 0B       		.uleb128 0xb
 1850 0134 3B       		.uleb128 0x3b
 1851 0135 0B       		.uleb128 0xb
 1852 0136 01       		.uleb128 0x1
 1853 0137 13       		.uleb128 0x13
 1854 0138 00       		.byte	0
 1855 0139 00       		.byte	0
 1856 013a 1B       		.uleb128 0x1b
 1857 013b 17       		.uleb128 0x17
 1858 013c 01       		.byte	0x1
 1859 013d 0B       		.uleb128 0xb
 1860 013e 0B       		.uleb128 0xb
 1861 013f 3A       		.uleb128 0x3a
 1862 0140 0B       		.uleb128 0xb
 1863 0141 3B       		.uleb128 0x3b
 1864 0142 0B       		.uleb128 0xb
 1865 0143 01       		.uleb128 0x1
 1866 0144 13       		.uleb128 0x13
 1867 0145 00       		.byte	0
 1868 0146 00       		.byte	0
 1869 0147 1C       		.uleb128 0x1c
 1870 0148 0D       		.uleb128 0xd
 1871 0149 00       		.byte	0
 1872 014a 03       		.uleb128 0x3
 1873 014b 08       		.uleb128 0x8
 1874 014c 3A       		.uleb128 0x3a
 1875 014d 0B       		.uleb128 0xb
 1876 014e 3B       		.uleb128 0x3b
 1877 014f 0B       		.uleb128 0xb
 1878 0150 49       		.uleb128 0x49
ARM GAS  /tmp/ccMHMrzh.s 			page 34


 1879 0151 13       		.uleb128 0x13
 1880 0152 00       		.byte	0
 1881 0153 00       		.byte	0
 1882 0154 1D       		.uleb128 0x1d
 1883 0155 0D       		.uleb128 0xd
 1884 0156 00       		.byte	0
 1885 0157 03       		.uleb128 0x3
 1886 0158 0E       		.uleb128 0xe
 1887 0159 3A       		.uleb128 0x3a
 1888 015a 0B       		.uleb128 0xb
 1889 015b 3B       		.uleb128 0x3b
 1890 015c 0B       		.uleb128 0xb
 1891 015d 49       		.uleb128 0x49
 1892 015e 13       		.uleb128 0x13
 1893 015f 00       		.byte	0
 1894 0160 00       		.byte	0
 1895 0161 1E       		.uleb128 0x1e
 1896 0162 0D       		.uleb128 0xd
 1897 0163 00       		.byte	0
 1898 0164 03       		.uleb128 0x3
 1899 0165 0E       		.uleb128 0xe
 1900 0166 3A       		.uleb128 0x3a
 1901 0167 0B       		.uleb128 0xb
 1902 0168 3B       		.uleb128 0x3b
 1903 0169 0B       		.uleb128 0xb
 1904 016a 49       		.uleb128 0x49
 1905 016b 13       		.uleb128 0x13
 1906 016c 0B       		.uleb128 0xb
 1907 016d 0B       		.uleb128 0xb
 1908 016e 0D       		.uleb128 0xd
 1909 016f 0B       		.uleb128 0xb
 1910 0170 0C       		.uleb128 0xc
 1911 0171 0B       		.uleb128 0xb
 1912 0172 38       		.uleb128 0x38
 1913 0173 0B       		.uleb128 0xb
 1914 0174 00       		.byte	0
 1915 0175 00       		.byte	0
 1916 0176 1F       		.uleb128 0x1f
 1917 0177 13       		.uleb128 0x13
 1918 0178 01       		.byte	0x1
 1919 0179 0B       		.uleb128 0xb
 1920 017a 05       		.uleb128 0x5
 1921 017b 3A       		.uleb128 0x3a
 1922 017c 0B       		.uleb128 0xb
 1923 017d 3B       		.uleb128 0x3b
 1924 017e 0B       		.uleb128 0xb
 1925 017f 01       		.uleb128 0x1
 1926 0180 13       		.uleb128 0x13
 1927 0181 00       		.byte	0
 1928 0182 00       		.byte	0
 1929 0183 20       		.uleb128 0x20
 1930 0184 0D       		.uleb128 0xd
 1931 0185 00       		.byte	0
 1932 0186 03       		.uleb128 0x3
 1933 0187 0E       		.uleb128 0xe
 1934 0188 3A       		.uleb128 0x3a
 1935 0189 0B       		.uleb128 0xb
ARM GAS  /tmp/ccMHMrzh.s 			page 35


 1936 018a 3B       		.uleb128 0x3b
 1937 018b 05       		.uleb128 0x5
 1938 018c 49       		.uleb128 0x49
 1939 018d 13       		.uleb128 0x13
 1940 018e 00       		.byte	0
 1941 018f 00       		.byte	0
 1942 0190 21       		.uleb128 0x21
 1943 0191 2E       		.uleb128 0x2e
 1944 0192 01       		.byte	0x1
 1945 0193 3F       		.uleb128 0x3f
 1946 0194 19       		.uleb128 0x19
 1947 0195 03       		.uleb128 0x3
 1948 0196 0E       		.uleb128 0xe
 1949 0197 3A       		.uleb128 0x3a
 1950 0198 0B       		.uleb128 0xb
 1951 0199 3B       		.uleb128 0x3b
 1952 019a 0B       		.uleb128 0xb
 1953 019b 27       		.uleb128 0x27
 1954 019c 19       		.uleb128 0x19
 1955 019d 11       		.uleb128 0x11
 1956 019e 01       		.uleb128 0x1
 1957 019f 12       		.uleb128 0x12
 1958 01a0 06       		.uleb128 0x6
 1959 01a1 40       		.uleb128 0x40
 1960 01a2 18       		.uleb128 0x18
 1961 01a3 9742     		.uleb128 0x2117
 1962 01a5 19       		.uleb128 0x19
 1963 01a6 01       		.uleb128 0x1
 1964 01a7 13       		.uleb128 0x13
 1965 01a8 00       		.byte	0
 1966 01a9 00       		.byte	0
 1967 01aa 22       		.uleb128 0x22
 1968 01ab 05       		.uleb128 0x5
 1969 01ac 00       		.byte	0
 1970 01ad 03       		.uleb128 0x3
 1971 01ae 08       		.uleb128 0x8
 1972 01af 3A       		.uleb128 0x3a
 1973 01b0 0B       		.uleb128 0xb
 1974 01b1 3B       		.uleb128 0x3b
 1975 01b2 0B       		.uleb128 0xb
 1976 01b3 49       		.uleb128 0x49
 1977 01b4 13       		.uleb128 0x13
 1978 01b5 02       		.uleb128 0x2
 1979 01b6 17       		.uleb128 0x17
 1980 01b7 00       		.byte	0
 1981 01b8 00       		.byte	0
 1982 01b9 23       		.uleb128 0x23
 1983 01ba 05       		.uleb128 0x5
 1984 01bb 00       		.byte	0
 1985 01bc 03       		.uleb128 0x3
 1986 01bd 0E       		.uleb128 0xe
 1987 01be 3A       		.uleb128 0x3a
 1988 01bf 0B       		.uleb128 0xb
 1989 01c0 3B       		.uleb128 0x3b
 1990 01c1 0B       		.uleb128 0xb
 1991 01c2 49       		.uleb128 0x49
 1992 01c3 13       		.uleb128 0x13
ARM GAS  /tmp/ccMHMrzh.s 			page 36


 1993 01c4 02       		.uleb128 0x2
 1994 01c5 17       		.uleb128 0x17
 1995 01c6 00       		.byte	0
 1996 01c7 00       		.byte	0
 1997 01c8 24       		.uleb128 0x24
 1998 01c9 34       		.uleb128 0x34
 1999 01ca 00       		.byte	0
 2000 01cb 03       		.uleb128 0x3
 2001 01cc 0E       		.uleb128 0xe
 2002 01cd 49       		.uleb128 0x49
 2003 01ce 13       		.uleb128 0x13
 2004 01cf 34       		.uleb128 0x34
 2005 01d0 19       		.uleb128 0x19
 2006 01d1 00       		.byte	0
 2007 01d2 00       		.byte	0
 2008 01d3 25       		.uleb128 0x25
 2009 01d4 34       		.uleb128 0x34
 2010 01d5 00       		.byte	0
 2011 01d6 03       		.uleb128 0x3
 2012 01d7 0E       		.uleb128 0xe
 2013 01d8 3A       		.uleb128 0x3a
 2014 01d9 0B       		.uleb128 0xb
 2015 01da 3B       		.uleb128 0x3b
 2016 01db 05       		.uleb128 0x5
 2017 01dc 49       		.uleb128 0x49
 2018 01dd 13       		.uleb128 0x13
 2019 01de 3F       		.uleb128 0x3f
 2020 01df 19       		.uleb128 0x19
 2021 01e0 3C       		.uleb128 0x3c
 2022 01e1 19       		.uleb128 0x19
 2023 01e2 00       		.byte	0
 2024 01e3 00       		.byte	0
 2025 01e4 26       		.uleb128 0x26
 2026 01e5 34       		.uleb128 0x34
 2027 01e6 00       		.byte	0
 2028 01e7 03       		.uleb128 0x3
 2029 01e8 08       		.uleb128 0x8
 2030 01e9 3A       		.uleb128 0x3a
 2031 01ea 0B       		.uleb128 0xb
 2032 01eb 3B       		.uleb128 0x3b
 2033 01ec 05       		.uleb128 0x5
 2034 01ed 49       		.uleb128 0x49
 2035 01ee 13       		.uleb128 0x13
 2036 01ef 3F       		.uleb128 0x3f
 2037 01f0 19       		.uleb128 0x19
 2038 01f1 3C       		.uleb128 0x3c
 2039 01f2 19       		.uleb128 0x19
 2040 01f3 00       		.byte	0
 2041 01f4 00       		.byte	0
 2042 01f5 00       		.byte	0
 2043              		.section	.debug_loc,"",%progbits
 2044              	.Ldebug_loc0:
 2045              	.LLST0:
 2046 0000 00000000 		.4byte	.LVL0
 2047 0004 1E000000 		.4byte	.LVL2
 2048 0008 0100     		.2byte	0x1
 2049 000a 50       		.byte	0x50
ARM GAS  /tmp/ccMHMrzh.s 			page 37


 2050 000b 1E000000 		.4byte	.LVL2
 2051 000f 34000000 		.4byte	.LFE270
 2052 0013 0700     		.2byte	0x7
 2053 0015 73       		.byte	0x73
 2054 0016 80BEFCFF 		.sleb128 536813312
 2054      01
 2055 001b 9F       		.byte	0x9f
 2056 001c 00000000 		.4byte	0
 2057 0020 00000000 		.4byte	0
 2058              	.LLST1:
 2059 0024 00000000 		.4byte	.LVL0
 2060 0028 16000000 		.4byte	.LVL1
 2061 002c 0100     		.2byte	0x1
 2062 002e 51       		.byte	0x51
 2063 002f 16000000 		.4byte	.LVL1
 2064 0033 34000000 		.4byte	.LFE270
 2065 0037 0400     		.2byte	0x4
 2066 0039 F3       		.byte	0xf3
 2067 003a 01       		.uleb128 0x1
 2068 003b 51       		.byte	0x51
 2069 003c 9F       		.byte	0x9f
 2070 003d 00000000 		.4byte	0
 2071 0041 00000000 		.4byte	0
 2072              	.LLST2:
 2073 0045 00000000 		.4byte	.LVL3
 2074 0049 16000000 		.4byte	.LVL4
 2075 004d 0100     		.2byte	0x1
 2076 004f 50       		.byte	0x50
 2077 0050 16000000 		.4byte	.LVL4
 2078 0054 28000000 		.4byte	.LFE271
 2079 0058 0400     		.2byte	0x4
 2080 005a F3       		.byte	0xf3
 2081 005b 01       		.uleb128 0x1
 2082 005c 50       		.byte	0x50
 2083 005d 9F       		.byte	0x9f
 2084 005e 00000000 		.4byte	0
 2085 0062 00000000 		.4byte	0
 2086              	.LLST3:
 2087 0066 00000000 		.4byte	.LVL5
 2088 006a 04000000 		.4byte	.LVL6
 2089 006e 0100     		.2byte	0x1
 2090 0070 50       		.byte	0x50
 2091 0071 04000000 		.4byte	.LVL6
 2092 0075 08000000 		.4byte	.LVL7
 2093 0079 0700     		.2byte	0x7
 2094 007b 70       		.byte	0x70
 2095 007c 80808080 		.sleb128 536870912
 2095      02
 2096 0081 9F       		.byte	0x9f
 2097 0082 08000000 		.4byte	.LVL7
 2098 0086 10000000 		.4byte	.LFE272
 2099 008a 0700     		.2byte	0x7
 2100 008c 70       		.byte	0x70
 2101 008d 80A6FCFF 		.sleb128 536810240
 2101      01
 2102 0092 9F       		.byte	0x9f
 2103 0093 00000000 		.4byte	0
ARM GAS  /tmp/ccMHMrzh.s 			page 38


 2104 0097 00000000 		.4byte	0
 2105              	.LLST4:
 2106 009b 00000000 		.4byte	.LVL5
 2107 009f 0A000000 		.4byte	.LVL8
 2108 00a3 0100     		.2byte	0x1
 2109 00a5 51       		.byte	0x51
 2110 00a6 0A000000 		.4byte	.LVL8
 2111 00aa 10000000 		.4byte	.LFE272
 2112 00ae 0400     		.2byte	0x4
 2113 00b0 F3       		.byte	0xf3
 2114 00b1 01       		.uleb128 0x1
 2115 00b2 51       		.byte	0x51
 2116 00b3 9F       		.byte	0x9f
 2117 00b4 00000000 		.4byte	0
 2118 00b8 00000000 		.4byte	0
 2119              	.LLST5:
 2120 00bc 00000000 		.4byte	.LVL9
 2121 00c0 0C000000 		.4byte	.LVL10
 2122 00c4 0100     		.2byte	0x1
 2123 00c6 50       		.byte	0x50
 2124 00c7 0C000000 		.4byte	.LVL10
 2125 00cb 1C000000 		.4byte	.LFE273
 2126 00cf 0400     		.2byte	0x4
 2127 00d1 F3       		.byte	0xf3
 2128 00d2 01       		.uleb128 0x1
 2129 00d3 50       		.byte	0x50
 2130 00d4 9F       		.byte	0x9f
 2131 00d5 00000000 		.4byte	0
 2132 00d9 00000000 		.4byte	0
 2133              		.section	.debug_aranges,"",%progbits
 2134 0000 34000000 		.4byte	0x34
 2135 0004 0200     		.2byte	0x2
 2136 0006 00000000 		.4byte	.Ldebug_info0
 2137 000a 04       		.byte	0x4
 2138 000b 00       		.byte	0
 2139 000c 0000     		.2byte	0
 2140 000e 0000     		.2byte	0
 2141 0010 00000000 		.4byte	.LFB270
 2142 0014 34000000 		.4byte	.LFE270-.LFB270
 2143 0018 00000000 		.4byte	.LFB271
 2144 001c 28000000 		.4byte	.LFE271-.LFB271
 2145 0020 00000000 		.4byte	.LFB272
 2146 0024 10000000 		.4byte	.LFE272-.LFB272
 2147 0028 00000000 		.4byte	.LFB273
 2148 002c 1C000000 		.4byte	.LFE273-.LFB273
 2149 0030 00000000 		.4byte	0
 2150 0034 00000000 		.4byte	0
 2151              		.section	.debug_ranges,"",%progbits
 2152              	.Ldebug_ranges0:
 2153 0000 00000000 		.4byte	.LFB270
 2154 0004 34000000 		.4byte	.LFE270
 2155 0008 00000000 		.4byte	.LFB271
 2156 000c 28000000 		.4byte	.LFE271
 2157 0010 00000000 		.4byte	.LFB272
 2158 0014 10000000 		.4byte	.LFE272
 2159 0018 00000000 		.4byte	.LFB273
 2160 001c 1C000000 		.4byte	.LFE273
ARM GAS  /tmp/ccMHMrzh.s 			page 39


 2161 0020 00000000 		.4byte	0
 2162 0024 00000000 		.4byte	0
 2163              		.section	.debug_line,"",%progbits
 2164              	.Ldebug_line0:
 2165 0000 4E020000 		.section	.debug_str,"MS",%progbits,1
 2165      0200F001 
 2165      00000201 
 2165      FB0E0D00 
 2165      01010101 
 2166              	.LASF45:
 2167 0000 74687265 		.ascii	"threads_list_t\000"
 2167      6164735F 
 2167      6C697374 
 2167      5F7400
 2168              	.LASF52:
 2169 000f 72656164 		.ascii	"ready_list_t\000"
 2169      795F6C69 
 2169      73745F74 
 2169      00
 2170              	.LASF122:
 2171 001c 77747472 		.ascii	"wttrp\000"
 2171      7000
 2172              	.LASF58:
 2173 0022 64656C74 		.ascii	"delta\000"
 2173      6100
 2174              	.LASF120:
 2175 0028 7264796D 		.ascii	"rdymsg\000"
 2175      736700
 2176              	.LASF18:
 2177 002f 75696E74 		.ascii	"uint64_t\000"
 2177      36345F74 
 2177      00
 2178              	.LASF4:
 2179 0038 5F5F7569 		.ascii	"__uint8_t\000"
 2179      6E74385F 
 2179      7400
 2180              	.LASF51:
 2181 0042 70726576 		.ascii	"prev\000"
 2181      00
 2182              	.LASF104:
 2183 0047 706F7274 		.ascii	"port_intctx\000"
 2183      5F696E74 
 2183      63747800 
 2184              	.LASF63:
 2185 0053 73797374 		.ascii	"system_debug_t\000"
 2185      656D5F64 
 2185      65627567 
 2185      5F7400
 2186              	.LASF110:
 2187 0062 74797065 		.ascii	"type\000"
 2187      00
 2188              	.LASF138:
 2189 0067 474E5520 		.ascii	"GNU C 4.8.2 -mcpu=cortex-m4 -mno-thumb-interwork -m"
 2189      4320342E 
 2189      382E3220 
 2189      2D6D6370 
 2189      753D636F 
ARM GAS  /tmp/ccMHMrzh.s 			page 40


 2190 009a 7468756D 		.ascii	"thumb -ggdb -O2 -fomit-frame-pointer -falign-functi"
 2190      62202D67 
 2190      67646220 
 2190      2D4F3220 
 2190      2D666F6D 
 2191 00cd 6F6E733D 		.ascii	"ons=16 -ffunction-sections -fdata-sections -fno-com"
 2191      3136202D 
 2191      6666756E 
 2191      6374696F 
 2191      6E2D7365 
 2192 0100 6D6F6E00 		.ascii	"mon\000"
 2193              	.LASF114:
 2194 0104 73757370 		.ascii	"suspended\000"
 2194      656E6465 
 2194      6400
 2195              	.LASF13:
 2196 010e 6C6F6E67 		.ascii	"long long unsigned int\000"
 2196      206C6F6E 
 2196      6720756E 
 2196      7369676E 
 2196      65642069 
 2197              	.LASF117:
 2198 0125 63685F74 		.ascii	"ch_trace_buffer_t\000"
 2198      72616365 
 2198      5F627566 
 2198      6665725F 
 2198      7400
 2199              	.LASF121:
 2200 0137 65786974 		.ascii	"exitcode\000"
 2200      636F6465 
 2200      00
 2201              	.LASF71:
 2202 0140 6D61696E 		.ascii	"mainthread\000"
 2202      74687265 
 2202      616400
 2203              	.LASF123:
 2204 014b 73656E74 		.ascii	"sentmsg\000"
 2204      6D736700 
 2205              	.LASF60:
 2206 0153 76697274 		.ascii	"virtual_timers_list_t\000"
 2206      75616C5F 
 2206      74696D65 
 2206      72735F6C 
 2206      6973745F 
 2207              	.LASF86:
 2208 0169 43505549 		.ascii	"CPUID\000"
 2208      4400
 2209              	.LASF48:
 2210 016f 6E657874 		.ascii	"next\000"
 2210      00
 2211              	.LASF50:
 2212 0174 63685F74 		.ascii	"ch_threads_queue\000"
 2212      68726561 
 2212      64735F71 
 2212      75657565 
 2212      00
 2213              	.LASF76:
ARM GAS  /tmp/ccMHMrzh.s 			page 41


 2214 0185 49535052 		.ascii	"ISPR\000"
 2214      00
 2215              	.LASF132:
 2216 018a 6E766963 		.ascii	"nvicEnableVector\000"
 2216      456E6162 
 2216      6C655665 
 2216      63746F72 
 2216      00
 2217              	.LASF37:
 2218 019b 72656673 		.ascii	"refs\000"
 2218      00
 2219              	.LASF98:
 2220 01a0 49534152 		.ascii	"ISAR\000"
 2220      00
 2221              	.LASF11:
 2222 01a5 6C6F6E67 		.ascii	"long long int\000"
 2222      206C6F6E 
 2222      6720696E 
 2222      7400
 2223              	.LASF1:
 2224 01b3 7369676E 		.ascii	"signed char\000"
 2224      65642063 
 2224      68617200 
 2225              	.LASF115:
 2226 01bf 73697A65 		.ascii	"size\000"
 2226      00
 2227              	.LASF136:
 2228 01c4 6E766963 		.ascii	"nvicClearPending\000"
 2228      436C6561 
 2228      7250656E 
 2228      64696E67 
 2228      00
 2229              	.LASF70:
 2230 01d5 76746C69 		.ascii	"vtlist\000"
 2230      737400
 2231              	.LASF35:
 2232 01dc 73746174 		.ascii	"state\000"
 2232      6500
 2233              	.LASF8:
 2234 01e2 6C6F6E67 		.ascii	"long int\000"
 2234      20696E74 
 2234      00
 2235              	.LASF21:
 2236 01eb 74737461 		.ascii	"tstate_t\000"
 2236      74655F74 
 2236      00
 2237              	.LASF113:
 2238 01f4 63685F74 		.ascii	"ch_trace_event_t\000"
 2238      72616365 
 2238      5F657665 
 2238      6E745F74 
 2238      00
 2239              	.LASF59:
 2240 0205 66756E63 		.ascii	"func\000"
 2240      00
 2241              	.LASF15:
 2242 020a 75696E74 		.ascii	"uint16_t\000"
ARM GAS  /tmp/ccMHMrzh.s 			page 42


 2242      31365F74 
 2242      00
 2243              	.LASF116:
 2244 0213 62756666 		.ascii	"buffer\000"
 2244      657200
 2245              	.LASF9:
 2246 021a 5F5F7569 		.ascii	"__uint32_t\000"
 2246      6E743332 
 2246      5F7400
 2247              	.LASF101:
 2248 0225 72656761 		.ascii	"regarm_t\000"
 2248      726D5F74 
 2248      00
 2249              	.LASF100:
 2250 022e 5343425F 		.ascii	"SCB_Type\000"
 2250      54797065 
 2250      00
 2251              	.LASF38:
 2252 0237 77616974 		.ascii	"waiting\000"
 2252      696E6700 
 2253              	.LASF130:
 2254 023f 6D757465 		.ascii	"mutex_t\000"
 2254      785F7400 
 2255              	.LASF26:
 2256 0247 636E745F 		.ascii	"cnt_t\000"
 2256      7400
 2257              	.LASF39:
 2258 024d 6D736771 		.ascii	"msgqueue\000"
 2258      75657565 
 2258      00
 2259              	.LASF0:
 2260 0256 756E7369 		.ascii	"unsigned int\000"
 2260      676E6564 
 2260      20696E74 
 2260      00
 2261              	.LASF133:
 2262 0263 6E766963 		.ascii	"nvicDisableVector\000"
 2262      44697361 
 2262      626C6556 
 2262      6563746F 
 2262      7200
 2263              	.LASF140:
 2264 0275 2F686F6D 		.ascii	"/home/johnnyco/Documentos/Embebidos/Chibios Johnny/"
 2264      652F6A6F 
 2264      686E6E79 
 2264      636F2F44 
 2264      6F63756D 
 2265 02a8 43686962 		.ascii	"ChibiOS-Contrib/testhal/STM32/STM32F4xx/1WIRE + RTC"
 2265      694F532D 
 2265      436F6E74 
 2265      7269622F 
 2265      74657374 
 2266 02db 202B2055 		.ascii	" + UART + PWM + ADC 1.0\000"
 2266      41525420 
 2266      2B205057 
 2266      4D202B20 
 2266      41444320 
ARM GAS  /tmp/ccMHMrzh.s 			page 43


 2267              	.LASF124:
 2268 02f3 77747365 		.ascii	"wtsemp\000"
 2268      6D7000
 2269              	.LASF10:
 2270 02fa 6C6F6E67 		.ascii	"long unsigned int\000"
 2270      20756E73 
 2270      69676E65 
 2270      6420696E 
 2270      7400
 2271              	.LASF78:
 2272 030c 49435052 		.ascii	"ICPR\000"
 2272      00
 2273              	.LASF33:
 2274 0311 6E616D65 		.ascii	"name\000"
 2274      00
 2275              	.LASF88:
 2276 0316 56544F52 		.ascii	"VTOR\000"
 2276      00
 2277              	.LASF43:
 2278 031b 6D706F6F 		.ascii	"mpool\000"
 2278      6C00
 2279              	.LASF46:
 2280 0321 63685F74 		.ascii	"ch_thread\000"
 2280      68726561 
 2280      6400
 2281              	.LASF95:
 2282 032b 42464152 		.ascii	"BFAR\000"
 2282      00
 2283              	.LASF87:
 2284 0330 49435352 		.ascii	"ICSR\000"
 2284      00
 2285              	.LASF24:
 2286 0335 6D73675F 		.ascii	"msg_t\000"
 2286      7400
 2287              	.LASF89:
 2288 033b 41495243 		.ascii	"AIRCR\000"
 2288      5200
 2289              	.LASF40:
 2290 0341 6570656E 		.ascii	"epending\000"
 2290      64696E67 
 2290      00
 2291              	.LASF94:
 2292 034a 4D4D4641 		.ascii	"MMFAR\000"
 2292      5200
 2293              	.LASF67:
 2294 0350 63685F73 		.ascii	"ch_system_t\000"
 2294      79737465 
 2294      6D5F7400 
 2295              	.LASF20:
 2296 035c 746D6F64 		.ascii	"tmode_t\000"
 2296      655F7400 
 2297              	.LASF53:
 2298 0364 63685F72 		.ascii	"ch_ready_list\000"
 2298      65616479 
 2298      5F6C6973 
 2298      7400
 2299              	.LASF25:
ARM GAS  /tmp/ccMHMrzh.s 			page 44


 2300 0372 6576656E 		.ascii	"eventmask_t\000"
 2300      746D6173 
 2300      6B5F7400 
 2301              	.LASF7:
 2302 037e 5F5F696E 		.ascii	"__int32_t\000"
 2302      7433325F 
 2302      7400
 2303              	.LASF102:
 2304 0388 73746B61 		.ascii	"stkalign_t\000"
 2304      6C69676E 
 2304      5F7400
 2305              	.LASF85:
 2306 0393 4E564943 		.ascii	"NVIC_Type\000"
 2306      5F547970 
 2306      6500
 2307              	.LASF135:
 2308 039d 68616E64 		.ascii	"handler\000"
 2308      6C657200 
 2309              	.LASF56:
 2310 03a5 76697274 		.ascii	"virtual_timer_t\000"
 2310      75616C5F 
 2310      74696D65 
 2310      725F7400 
 2311              	.LASF42:
 2312 03b5 7265616C 		.ascii	"realprio\000"
 2312      7072696F 
 2312      00
 2313              	.LASF84:
 2314 03be 73697A65 		.ascii	"sizetype\000"
 2314      74797065 
 2314      00
 2315              	.LASF44:
 2316 03c7 74687265 		.ascii	"thread_reference_t\000"
 2316      61645F72 
 2316      65666572 
 2316      656E6365 
 2316      5F7400
 2317              	.LASF61:
 2318 03da 63685F76 		.ascii	"ch_virtual_timers_list\000"
 2318      69727475 
 2318      616C5F74 
 2318      696D6572 
 2318      735F6C69 
 2319              	.LASF29:
 2320 03f1 71756575 		.ascii	"queue\000"
 2320      6500
 2321              	.LASF91:
 2322 03f7 43465352 		.ascii	"CFSR\000"
 2322      00
 2323              	.LASF80:
 2324 03fc 49414252 		.ascii	"IABR\000"
 2324      00
 2325              	.LASF103:
 2326 0401 706F7274 		.ascii	"port_context\000"
 2326      5F636F6E 
 2326      74657874 
 2326      00
ARM GAS  /tmp/ccMHMrzh.s 			page 45


 2327              	.LASF119:
 2328 040e 746D5F63 		.ascii	"tm_calibration_t\000"
 2328      616C6962 
 2328      72617469 
 2328      6F6E5F74 
 2328      00
 2329              	.LASF74:
 2330 041f 49434552 		.ascii	"ICER\000"
 2330      00
 2331              	.LASF112:
 2332 0424 74696D65 		.ascii	"time\000"
 2332      00
 2333              	.LASF30:
 2334 0429 7072696F 		.ascii	"prio\000"
 2334      00
 2335              	.LASF54:
 2336 042e 63757272 		.ascii	"current\000"
 2336      656E7400 
 2337              	.LASF12:
 2338 0436 5F5F7569 		.ascii	"__uint64_t\000"
 2338      6E743634 
 2338      5F7400
 2339              	.LASF22:
 2340 0441 74726566 		.ascii	"trefs_t\000"
 2340      735F7400 
 2341              	.LASF73:
 2342 0449 52455345 		.ascii	"RESERVED0\000"
 2342      52564544 
 2342      3000
 2343              	.LASF93:
 2344 0453 44465352 		.ascii	"DFSR\000"
 2344      00
 2345              	.LASF77:
 2346 0458 52455345 		.ascii	"RESERVED2\000"
 2346      52564544 
 2346      3200
 2347              	.LASF79:
 2348 0462 52455345 		.ascii	"RESERVED3\000"
 2348      52564544 
 2348      3300
 2349              	.LASF81:
 2350 046c 52455345 		.ascii	"RESERVED4\000"
 2350      52564544 
 2350      3400
 2351              	.LASF82:
 2352 0476 52455345 		.ascii	"RESERVED5\000"
 2352      52564544 
 2352      3500
 2353              	.LASF109:
 2354 0480 75736572 		.ascii	"user\000"
 2354      00
 2355              	.LASF23:
 2356 0485 74707269 		.ascii	"tprio_t\000"
 2356      6F5F7400 
 2357              	.LASF64:
 2358 048d 63685F73 		.ascii	"ch_system_debug\000"
 2358      79737465 
ARM GAS  /tmp/ccMHMrzh.s 			page 46


 2358      6D5F6465 
 2358      62756700 
 2359              	.LASF131:
 2360 049d 5F426F6F 		.ascii	"_Bool\000"
 2360      6C00
 2361              	.LASF16:
 2362 04a3 696E7433 		.ascii	"int32_t\000"
 2362      325F7400 
 2363              	.LASF2:
 2364 04ab 756E7369 		.ascii	"unsigned char\000"
 2364      676E6564 
 2364      20636861 
 2364      7200
 2365              	.LASF90:
 2366 04b9 53484353 		.ascii	"SHCSR\000"
 2366      5200
 2367              	.LASF137:
 2368 04bf 49544D5F 		.ascii	"ITM_RxBuffer\000"
 2368      52784275 
 2368      66666572 
 2368      00
 2369              	.LASF3:
 2370 04cc 73686F72 		.ascii	"short int\000"
 2370      7420696E 
 2370      7400
 2371              	.LASF72:
 2372 04d6 49534552 		.ascii	"ISER\000"
 2372      00
 2373              	.LASF62:
 2374 04db 6C617374 		.ascii	"lasttime\000"
 2374      74696D65 
 2374      00
 2375              	.LASF108:
 2376 04e4 68616C74 		.ascii	"halt\000"
 2376      00
 2377              	.LASF111:
 2378 04e9 72747374 		.ascii	"rtstamp\000"
 2378      616D7000 
 2379              	.LASF134:
 2380 04f1 6E766963 		.ascii	"nvicSetSystemHandlerPriority\000"
 2380      53657453 
 2380      79737465 
 2380      6D48616E 
 2380      646C6572 
 2381              	.LASF126:
 2382 050e 65776D61 		.ascii	"ewmask\000"
 2382      736B00
 2383              	.LASF68:
 2384 0515 63685F73 		.ascii	"ch_system\000"
 2384      79737465 
 2384      6D00
 2385              	.LASF141:
 2386 051f 5F5F6675 		.ascii	"__func__\000"
 2386      6E635F5F 
 2386      00
 2387              	.LASF139:
 2388 0528 2E2E2F2E 		.ascii	"../../../../../ChibiOS-RT/os/hal/ports/common/ARMCM"
ARM GAS  /tmp/ccMHMrzh.s 			page 47


 2388      2E2F2E2E 
 2388      2F2E2E2F 
 2388      2E2E2F43 
 2388      68696269 
 2389 055b 782F6E76 		.ascii	"x/nvic.c\000"
 2389      69632E63 
 2389      00
 2390              	.LASF107:
 2391 0564 72656173 		.ascii	"reason\000"
 2391      6F6E00
 2392              	.LASF57:
 2393 056b 63685F76 		.ascii	"ch_virtual_timer\000"
 2393      69727475 
 2393      616C5F74 
 2393      696D6572 
 2393      00
 2394              	.LASF127:
 2395 057c 63685F73 		.ascii	"ch_semaphore\000"
 2395      656D6170 
 2395      686F7265 
 2395      00
 2396              	.LASF17:
 2397 0589 75696E74 		.ascii	"uint32_t\000"
 2397      33325F74 
 2397      00
 2398              	.LASF125:
 2399 0592 77746D74 		.ascii	"wtmtxp\000"
 2399      787000
 2400              	.LASF96:
 2401 0599 41465352 		.ascii	"AFSR\000"
 2401      00
 2402              	.LASF47:
 2403 059e 63685F74 		.ascii	"ch_threads_list\000"
 2403      68726561 
 2403      64735F6C 
 2403      69737400 
 2404              	.LASF129:
 2405 05ae 6F776E65 		.ascii	"owner\000"
 2405      7200
 2406              	.LASF34:
 2407 05b4 77616261 		.ascii	"wabase\000"
 2407      736500
 2408              	.LASF106:
 2409 05bb 63686172 		.ascii	"char\000"
 2409      00
 2410              	.LASF32:
 2411 05c0 6F6C6465 		.ascii	"older\000"
 2411      7200
 2412              	.LASF5:
 2413 05c6 5F5F7569 		.ascii	"__uint16_t\000"
 2413      6E743136 
 2413      5F7400
 2414              	.LASF28:
 2415 05d1 74687265 		.ascii	"thread_t\000"
 2415      61645F74 
 2415      00
 2416              	.LASF27:
ARM GAS  /tmp/ccMHMrzh.s 			page 48


 2417 05da 73797374 		.ascii	"systime_t\000"
 2417      696D655F 
 2417      7400
 2418              	.LASF55:
 2419 05e4 76746675 		.ascii	"vtfunc_t\000"
 2419      6E635F74 
 2419      00
 2420              	.LASF65:
 2421 05ed 70616E69 		.ascii	"panic_msg\000"
 2421      635F6D73 
 2421      6700
 2422              	.LASF118:
 2423 05f7 6F666673 		.ascii	"offset\000"
 2423      657400
 2424              	.LASF6:
 2425 05fe 73686F72 		.ascii	"short unsigned int\000"
 2425      7420756E 
 2425      7369676E 
 2425      65642069 
 2425      6E7400
 2426              	.LASF19:
 2427 0611 7274636E 		.ascii	"rtcnt_t\000"
 2427      745F7400 
 2428              	.LASF31:
 2429 0619 6E657765 		.ascii	"newer\000"
 2429      7200
 2430              	.LASF49:
 2431 061f 74687265 		.ascii	"threads_queue_t\000"
 2431      6164735F 
 2431      71756575 
 2431      655F7400 
 2432              	.LASF128:
 2433 062f 63685F6D 		.ascii	"ch_mutex\000"
 2433      75746578 
 2433      00
 2434              	.LASF97:
 2435 0638 4D4D4652 		.ascii	"MMFR\000"
 2435      00
 2436              	.LASF69:
 2437 063d 726C6973 		.ascii	"rlist\000"
 2437      7400
 2438              	.LASF14:
 2439 0643 75696E74 		.ascii	"uint8_t\000"
 2439      385F7400 
 2440              	.LASF36:
 2441 064b 666C6167 		.ascii	"flags\000"
 2441      7300
 2442              	.LASF75:
 2443 0651 52534552 		.ascii	"RSERVED1\000"
 2443      56454431 
 2443      00
 2444              	.LASF83:
 2445 065a 53544952 		.ascii	"STIR\000"
 2445      00
 2446              	.LASF105:
 2447 065f 77746F62 		.ascii	"wtobjp\000"
 2447      6A7000
ARM GAS  /tmp/ccMHMrzh.s 			page 49


 2448              	.LASF66:
 2449 0666 74726163 		.ascii	"trace_buffer\000"
 2449      655F6275 
 2449      66666572 
 2449      00
 2450              	.LASF99:
 2451 0673 43504143 		.ascii	"CPACR\000"
 2451      5200
 2452              	.LASF92:
 2453 0679 48465352 		.ascii	"HFSR\000"
 2453      00
 2454              	.LASF41:
 2455 067e 6D74786C 		.ascii	"mtxlist\000"
 2455      69737400 
 2456              		.ident	"GCC: (4.8.2-14ubuntu1+6) 4.8.2"
ARM GAS  /tmp/ccMHMrzh.s 			page 50


DEFINED SYMBOLS
                            *ABS*:0000000000000000 nvic.c
     /tmp/ccMHMrzh.s:19     .text.nvicEnableVector:0000000000000000 $t
     /tmp/ccMHMrzh.s:25     .text.nvicEnableVector:0000000000000000 nvicEnableVector
     /tmp/ccMHMrzh.s:69     .text.nvicDisableVector:0000000000000000 $t
     /tmp/ccMHMrzh.s:75     .text.nvicDisableVector:0000000000000000 nvicDisableVector
     /tmp/ccMHMrzh.s:113    .text.nvicSetSystemHandlerPriority:0000000000000000 $t
     /tmp/ccMHMrzh.s:119    .text.nvicSetSystemHandlerPriority:0000000000000000 nvicSetSystemHandlerPriority
     /tmp/ccMHMrzh.s:141    .text.nvicClearPending:0000000000000000 $t
     /tmp/ccMHMrzh.s:147    .text.nvicClearPending:0000000000000000 nvicClearPending
                     .debug_frame:0000000000000010 $d

NO UNDEFINED SYMBOLS
