ARM GAS  /tmp/ccPjNsKi.s 			page 1


   1              		.syntax unified
   2              		.cpu cortex-m4
   3              		.fpu softvfp
   4              		.eabi_attribute 20, 1
   5              		.eabi_attribute 21, 1
   6              		.eabi_attribute 23, 3
   7              		.eabi_attribute 24, 1
   8              		.eabi_attribute 25, 1
   9              		.eabi_attribute 26, 1
  10              		.eabi_attribute 30, 2
  11              		.eabi_attribute 34, 1
  12              		.eabi_attribute 18, 4
  13              		.thumb
  14              		.file	"stm32_dma.c"
  15              		.text
  16              	.Ltext0:
  17              		.cfi_sections	.debug_frame
  18              		.section	.text.Vector6C,"ax",%progbits
  19              		.align	2
  20              		.p2align 4,,15
  21              		.global	Vector6C
  22              		.thumb
  23              		.thumb_func
  24              		.type	Vector6C, %function
  25              	Vector6C:
  26              	.LFB270:
  27              		.file 1 "../../../../../ChibiOS-RT/os/hal/ports/STM32/LLD/DMAv2/stm32_dma.c"
  28              		.loc 1 117 0
  29              		.cfi_startproc
  30              		@ args = 0, pretend = 0, frame = 0
  31              		@ frame_needed = 0, uses_anonymous_args = 0
  32              		.loc 1 120 0
  33 0000 40F20000 		movw	r0, #:lower16:.LANCHOR0
  34              		.loc 1 117 0
  35 0004 10B5     		push	{r4, lr}
  36              		.cfi_def_cfa_offset 8
  37              		.cfi_offset 4, -8
  38              		.cfi_offset 14, -4
  39              		.loc 1 120 0
  40 0006 C0F20000 		movt	r0, #:upper16:.LANCHOR0
  41 000a FFF7FEFF 		bl	_trace_isr_enter
  42              	.LVL0:
  43              		.loc 1 122 0
  44 000e 4FF4C042 		mov	r2, #24576
  45 0012 C4F20202 		movt	r2, 16386
  46              		.loc 1 124 0
  47 0016 40F20003 		movw	r3, #:lower16:.LANCHOR1
  48 001a C0F20003 		movt	r3, #:upper16:.LANCHOR1
  49              		.loc 1 122 0
  50 001e 1168     		ldr	r1, [r2]
  51              		.loc 1 124 0
  52 0020 1C68     		ldr	r4, [r3]
  53              		.loc 1 122 0
  54 0022 01F03D01 		and	r1, r1, #61
  55              	.LVL1:
  56              		.loc 1 123 0
  57 0026 9160     		str	r1, [r2, #8]
ARM GAS  /tmp/ccPjNsKi.s 			page 2


  58              		.loc 1 124 0
  59 0028 0CB1     		cbz	r4, .L2
  60              		.loc 1 125 0
  61 002a 5868     		ldr	r0, [r3, #4]
  62 002c A047     		blx	r4
  63              	.LVL2:
  64              	.L2:
  65              		.loc 1 127 0
  66 002e 40F20000 		movw	r0, #:lower16:.LANCHOR0
  67 0032 C0F20000 		movt	r0, #:upper16:.LANCHOR0
  68 0036 FFF7FEFF 		bl	_trace_isr_leave
  69              	.LVL3:
  70              		.loc 1 128 0
  71 003a BDE81040 		pop	{r4, lr}
  72              		.loc 1 127 0
  73 003e FFF7FEBF 		b	_port_irq_epilogue
  74              	.LVL4:
  75              		.cfi_endproc
  76              	.LFE270:
  77              		.size	Vector6C, .-Vector6C
  78 0042 00BFAFF3 		.section	.text.Vector70,"ax",%progbits
  78      0080AFF3 
  78      0080AFF3 
  78      0080
  79              		.align	2
  80              		.p2align 4,,15
  81              		.global	Vector70
  82              		.thumb
  83              		.thumb_func
  84              		.type	Vector70, %function
  85              	Vector70:
  86              	.LFB271:
  87              		.loc 1 135 0
  88              		.cfi_startproc
  89              		@ args = 0, pretend = 0, frame = 0
  90              		@ frame_needed = 0, uses_anonymous_args = 0
  91              		.loc 1 138 0
  92 0000 40F20000 		movw	r0, #:lower16:.LANCHOR2
  93              		.loc 1 135 0
  94 0004 10B5     		push	{r4, lr}
  95              		.cfi_def_cfa_offset 8
  96              		.cfi_offset 4, -8
  97              		.cfi_offset 14, -4
  98              		.loc 1 138 0
  99 0006 C0F20000 		movt	r0, #:upper16:.LANCHOR2
 100 000a FFF7FEFF 		bl	_trace_isr_enter
 101              	.LVL5:
 102              		.loc 1 140 0
 103 000e 4FF4C042 		mov	r2, #24576
 104 0012 C4F20202 		movt	r2, 16386
 105              		.loc 1 142 0
 106 0016 40F20003 		movw	r3, #:lower16:.LANCHOR1
 107              		.loc 1 140 0
 108 001a 1168     		ldr	r1, [r2]
 109              		.loc 1 142 0
 110 001c C0F20003 		movt	r3, #:upper16:.LANCHOR1
 111              		.loc 1 140 0
ARM GAS  /tmp/ccPjNsKi.s 			page 3


 112 0020 8909     		lsrs	r1, r1, #6
 113 0022 01F03D01 		and	r1, r1, #61
 114              	.LVL6:
 115              		.loc 1 142 0
 116 0026 9C68     		ldr	r4, [r3, #8]
 117              		.loc 1 141 0
 118 0028 8801     		lsls	r0, r1, #6
 119 002a 9060     		str	r0, [r2, #8]
 120              		.loc 1 142 0
 121 002c 0CB1     		cbz	r4, .L8
 122              		.loc 1 143 0
 123 002e D868     		ldr	r0, [r3, #12]
 124 0030 A047     		blx	r4
 125              	.LVL7:
 126              	.L8:
 127              		.loc 1 145 0
 128 0032 40F20000 		movw	r0, #:lower16:.LANCHOR2
 129 0036 C0F20000 		movt	r0, #:upper16:.LANCHOR2
 130 003a FFF7FEFF 		bl	_trace_isr_leave
 131              	.LVL8:
 132              		.loc 1 146 0
 133 003e BDE81040 		pop	{r4, lr}
 134              		.loc 1 145 0
 135 0042 FFF7FEBF 		b	_port_irq_epilogue
 136              	.LVL9:
 137              		.cfi_endproc
 138              	.LFE271:
 139              		.size	Vector70, .-Vector70
 140 0046 00BFAFF3 		.section	.text.Vector74,"ax",%progbits
 140      0080AFF3 
 140      0080
 141              		.align	2
 142              		.p2align 4,,15
 143              		.global	Vector74
 144              		.thumb
 145              		.thumb_func
 146              		.type	Vector74, %function
 147              	Vector74:
 148              	.LFB272:
 149              		.loc 1 153 0
 150              		.cfi_startproc
 151              		@ args = 0, pretend = 0, frame = 0
 152              		@ frame_needed = 0, uses_anonymous_args = 0
 153              		.loc 1 156 0
 154 0000 40F20000 		movw	r0, #:lower16:.LANCHOR3
 155              		.loc 1 153 0
 156 0004 10B5     		push	{r4, lr}
 157              		.cfi_def_cfa_offset 8
 158              		.cfi_offset 4, -8
 159              		.cfi_offset 14, -4
 160              		.loc 1 156 0
 161 0006 C0F20000 		movt	r0, #:upper16:.LANCHOR3
 162 000a FFF7FEFF 		bl	_trace_isr_enter
 163              	.LVL10:
 164              		.loc 1 158 0
 165 000e 4FF4C042 		mov	r2, #24576
 166 0012 C4F20202 		movt	r2, 16386
ARM GAS  /tmp/ccPjNsKi.s 			page 4


 167              		.loc 1 160 0
 168 0016 40F20003 		movw	r3, #:lower16:.LANCHOR1
 169              		.loc 1 158 0
 170 001a 1168     		ldr	r1, [r2]
 171              		.loc 1 160 0
 172 001c C0F20003 		movt	r3, #:upper16:.LANCHOR1
 173              		.loc 1 158 0
 174 0020 090C     		lsrs	r1, r1, #16
 175 0022 01F03D01 		and	r1, r1, #61
 176              	.LVL11:
 177              		.loc 1 160 0
 178 0026 1C69     		ldr	r4, [r3, #16]
 179              		.loc 1 159 0
 180 0028 0804     		lsls	r0, r1, #16
 181 002a 9060     		str	r0, [r2, #8]
 182              		.loc 1 160 0
 183 002c 0CB1     		cbz	r4, .L13
 184              		.loc 1 161 0
 185 002e 5869     		ldr	r0, [r3, #20]
 186 0030 A047     		blx	r4
 187              	.LVL12:
 188              	.L13:
 189              		.loc 1 163 0
 190 0032 40F20000 		movw	r0, #:lower16:.LANCHOR3
 191 0036 C0F20000 		movt	r0, #:upper16:.LANCHOR3
 192 003a FFF7FEFF 		bl	_trace_isr_leave
 193              	.LVL13:
 194              		.loc 1 164 0
 195 003e BDE81040 		pop	{r4, lr}
 196              		.loc 1 163 0
 197 0042 FFF7FEBF 		b	_port_irq_epilogue
 198              	.LVL14:
 199              		.cfi_endproc
 200              	.LFE272:
 201              		.size	Vector74, .-Vector74
 202 0046 00BFAFF3 		.section	.text.Vector78,"ax",%progbits
 202      0080AFF3 
 202      0080
 203              		.align	2
 204              		.p2align 4,,15
 205              		.global	Vector78
 206              		.thumb
 207              		.thumb_func
 208              		.type	Vector78, %function
 209              	Vector78:
 210              	.LFB273:
 211              		.loc 1 171 0
 212              		.cfi_startproc
 213              		@ args = 0, pretend = 0, frame = 0
 214              		@ frame_needed = 0, uses_anonymous_args = 0
 215              		.loc 1 174 0
 216 0000 40F20000 		movw	r0, #:lower16:.LANCHOR4
 217              		.loc 1 171 0
 218 0004 10B5     		push	{r4, lr}
 219              		.cfi_def_cfa_offset 8
 220              		.cfi_offset 4, -8
 221              		.cfi_offset 14, -4
ARM GAS  /tmp/ccPjNsKi.s 			page 5


 222              		.loc 1 174 0
 223 0006 C0F20000 		movt	r0, #:upper16:.LANCHOR4
 224 000a FFF7FEFF 		bl	_trace_isr_enter
 225              	.LVL15:
 226              		.loc 1 176 0
 227 000e 4FF4C042 		mov	r2, #24576
 228 0012 C4F20202 		movt	r2, 16386
 229              		.loc 1 178 0
 230 0016 40F20003 		movw	r3, #:lower16:.LANCHOR1
 231              		.loc 1 176 0
 232 001a 1168     		ldr	r1, [r2]
 233              		.loc 1 178 0
 234 001c C0F20003 		movt	r3, #:upper16:.LANCHOR1
 235              		.loc 1 176 0
 236 0020 890D     		lsrs	r1, r1, #22
 237 0022 01F03D01 		and	r1, r1, #61
 238              	.LVL16:
 239              		.loc 1 178 0
 240 0026 9C69     		ldr	r4, [r3, #24]
 241              		.loc 1 177 0
 242 0028 8805     		lsls	r0, r1, #22
 243 002a 9060     		str	r0, [r2, #8]
 244              		.loc 1 178 0
 245 002c 0CB1     		cbz	r4, .L18
 246              		.loc 1 179 0
 247 002e D869     		ldr	r0, [r3, #28]
 248 0030 A047     		blx	r4
 249              	.LVL17:
 250              	.L18:
 251              		.loc 1 181 0
 252 0032 40F20000 		movw	r0, #:lower16:.LANCHOR4
 253 0036 C0F20000 		movt	r0, #:upper16:.LANCHOR4
 254 003a FFF7FEFF 		bl	_trace_isr_leave
 255              	.LVL18:
 256              		.loc 1 182 0
 257 003e BDE81040 		pop	{r4, lr}
 258              		.loc 1 181 0
 259 0042 FFF7FEBF 		b	_port_irq_epilogue
 260              	.LVL19:
 261              		.cfi_endproc
 262              	.LFE273:
 263              		.size	Vector78, .-Vector78
 264 0046 00BFAFF3 		.section	.text.Vector7C,"ax",%progbits
 264      0080AFF3 
 264      0080
 265              		.align	2
 266              		.p2align 4,,15
 267              		.global	Vector7C
 268              		.thumb
 269              		.thumb_func
 270              		.type	Vector7C, %function
 271              	Vector7C:
 272              	.LFB274:
 273              		.loc 1 189 0
 274              		.cfi_startproc
 275              		@ args = 0, pretend = 0, frame = 0
 276              		@ frame_needed = 0, uses_anonymous_args = 0
ARM GAS  /tmp/ccPjNsKi.s 			page 6


 277              		.loc 1 192 0
 278 0000 40F20000 		movw	r0, #:lower16:.LANCHOR5
 279              		.loc 1 189 0
 280 0004 10B5     		push	{r4, lr}
 281              		.cfi_def_cfa_offset 8
 282              		.cfi_offset 4, -8
 283              		.cfi_offset 14, -4
 284              		.loc 1 192 0
 285 0006 C0F20000 		movt	r0, #:upper16:.LANCHOR5
 286 000a FFF7FEFF 		bl	_trace_isr_enter
 287              	.LVL20:
 288              		.loc 1 194 0
 289 000e 4FF4C042 		mov	r2, #24576
 290 0012 C4F20202 		movt	r2, 16386
 291              		.loc 1 196 0
 292 0016 40F20003 		movw	r3, #:lower16:.LANCHOR1
 293 001a C0F20003 		movt	r3, #:upper16:.LANCHOR1
 294              		.loc 1 194 0
 295 001e 5168     		ldr	r1, [r2, #4]
 296              		.loc 1 196 0
 297 0020 1C6A     		ldr	r4, [r3, #32]
 298              		.loc 1 194 0
 299 0022 01F03D01 		and	r1, r1, #61
 300              	.LVL21:
 301              		.loc 1 195 0
 302 0026 D160     		str	r1, [r2, #12]
 303              		.loc 1 196 0
 304 0028 0CB1     		cbz	r4, .L23
 305              		.loc 1 197 0
 306 002a 586A     		ldr	r0, [r3, #36]
 307 002c A047     		blx	r4
 308              	.LVL22:
 309              	.L23:
 310              		.loc 1 199 0
 311 002e 40F20000 		movw	r0, #:lower16:.LANCHOR5
 312 0032 C0F20000 		movt	r0, #:upper16:.LANCHOR5
 313 0036 FFF7FEFF 		bl	_trace_isr_leave
 314              	.LVL23:
 315              		.loc 1 200 0
 316 003a BDE81040 		pop	{r4, lr}
 317              		.loc 1 199 0
 318 003e FFF7FEBF 		b	_port_irq_epilogue
 319              	.LVL24:
 320              		.cfi_endproc
 321              	.LFE274:
 322              		.size	Vector7C, .-Vector7C
 323 0042 00BFAFF3 		.section	.text.Vector80,"ax",%progbits
 323      0080AFF3 
 323      0080AFF3 
 323      0080
 324              		.align	2
 325              		.p2align 4,,15
 326              		.global	Vector80
 327              		.thumb
 328              		.thumb_func
 329              		.type	Vector80, %function
 330              	Vector80:
ARM GAS  /tmp/ccPjNsKi.s 			page 7


 331              	.LFB275:
 332              		.loc 1 207 0
 333              		.cfi_startproc
 334              		@ args = 0, pretend = 0, frame = 0
 335              		@ frame_needed = 0, uses_anonymous_args = 0
 336              		.loc 1 210 0
 337 0000 40F20000 		movw	r0, #:lower16:.LANCHOR6
 338              		.loc 1 207 0
 339 0004 10B5     		push	{r4, lr}
 340              		.cfi_def_cfa_offset 8
 341              		.cfi_offset 4, -8
 342              		.cfi_offset 14, -4
 343              		.loc 1 210 0
 344 0006 C0F20000 		movt	r0, #:upper16:.LANCHOR6
 345 000a FFF7FEFF 		bl	_trace_isr_enter
 346              	.LVL25:
 347              		.loc 1 212 0
 348 000e 4FF4C042 		mov	r2, #24576
 349 0012 C4F20202 		movt	r2, 16386
 350              		.loc 1 214 0
 351 0016 40F20003 		movw	r3, #:lower16:.LANCHOR1
 352              		.loc 1 212 0
 353 001a 5168     		ldr	r1, [r2, #4]
 354              		.loc 1 214 0
 355 001c C0F20003 		movt	r3, #:upper16:.LANCHOR1
 356              		.loc 1 212 0
 357 0020 8909     		lsrs	r1, r1, #6
 358 0022 01F03D01 		and	r1, r1, #61
 359              	.LVL26:
 360              		.loc 1 214 0
 361 0026 9C6A     		ldr	r4, [r3, #40]
 362              		.loc 1 213 0
 363 0028 8801     		lsls	r0, r1, #6
 364 002a D060     		str	r0, [r2, #12]
 365              		.loc 1 214 0
 366 002c 0CB1     		cbz	r4, .L28
 367              		.loc 1 215 0
 368 002e D86A     		ldr	r0, [r3, #44]
 369 0030 A047     		blx	r4
 370              	.LVL27:
 371              	.L28:
 372              		.loc 1 217 0
 373 0032 40F20000 		movw	r0, #:lower16:.LANCHOR6
 374 0036 C0F20000 		movt	r0, #:upper16:.LANCHOR6
 375 003a FFF7FEFF 		bl	_trace_isr_leave
 376              	.LVL28:
 377              		.loc 1 218 0
 378 003e BDE81040 		pop	{r4, lr}
 379              		.loc 1 217 0
 380 0042 FFF7FEBF 		b	_port_irq_epilogue
 381              	.LVL29:
 382              		.cfi_endproc
 383              	.LFE275:
 384              		.size	Vector80, .-Vector80
 385 0046 00BFAFF3 		.section	.text.Vector84,"ax",%progbits
 385      0080AFF3 
 385      0080
ARM GAS  /tmp/ccPjNsKi.s 			page 8


 386              		.align	2
 387              		.p2align 4,,15
 388              		.global	Vector84
 389              		.thumb
 390              		.thumb_func
 391              		.type	Vector84, %function
 392              	Vector84:
 393              	.LFB276:
 394              		.loc 1 225 0
 395              		.cfi_startproc
 396              		@ args = 0, pretend = 0, frame = 0
 397              		@ frame_needed = 0, uses_anonymous_args = 0
 398              		.loc 1 228 0
 399 0000 40F20000 		movw	r0, #:lower16:.LANCHOR7
 400              		.loc 1 225 0
 401 0004 10B5     		push	{r4, lr}
 402              		.cfi_def_cfa_offset 8
 403              		.cfi_offset 4, -8
 404              		.cfi_offset 14, -4
 405              		.loc 1 228 0
 406 0006 C0F20000 		movt	r0, #:upper16:.LANCHOR7
 407 000a FFF7FEFF 		bl	_trace_isr_enter
 408              	.LVL30:
 409              		.loc 1 230 0
 410 000e 4FF4C042 		mov	r2, #24576
 411 0012 C4F20202 		movt	r2, 16386
 412              		.loc 1 232 0
 413 0016 40F20003 		movw	r3, #:lower16:.LANCHOR1
 414              		.loc 1 230 0
 415 001a 5168     		ldr	r1, [r2, #4]
 416              		.loc 1 232 0
 417 001c C0F20003 		movt	r3, #:upper16:.LANCHOR1
 418              		.loc 1 230 0
 419 0020 090C     		lsrs	r1, r1, #16
 420 0022 01F03D01 		and	r1, r1, #61
 421              	.LVL31:
 422              		.loc 1 232 0
 423 0026 1C6B     		ldr	r4, [r3, #48]
 424              		.loc 1 231 0
 425 0028 0804     		lsls	r0, r1, #16
 426 002a D060     		str	r0, [r2, #12]
 427              		.loc 1 232 0
 428 002c 0CB1     		cbz	r4, .L33
 429              		.loc 1 233 0
 430 002e 586B     		ldr	r0, [r3, #52]
 431 0030 A047     		blx	r4
 432              	.LVL32:
 433              	.L33:
 434              		.loc 1 235 0
 435 0032 40F20000 		movw	r0, #:lower16:.LANCHOR7
 436 0036 C0F20000 		movt	r0, #:upper16:.LANCHOR7
 437 003a FFF7FEFF 		bl	_trace_isr_leave
 438              	.LVL33:
 439              		.loc 1 236 0
 440 003e BDE81040 		pop	{r4, lr}
 441              		.loc 1 235 0
 442 0042 FFF7FEBF 		b	_port_irq_epilogue
ARM GAS  /tmp/ccPjNsKi.s 			page 9


 443              	.LVL34:
 444              		.cfi_endproc
 445              	.LFE276:
 446              		.size	Vector84, .-Vector84
 447 0046 00BFAFF3 		.section	.text.VectorFC,"ax",%progbits
 447      0080AFF3 
 447      0080
 448              		.align	2
 449              		.p2align 4,,15
 450              		.global	VectorFC
 451              		.thumb
 452              		.thumb_func
 453              		.type	VectorFC, %function
 454              	VectorFC:
 455              	.LFB277:
 456              		.loc 1 243 0
 457              		.cfi_startproc
 458              		@ args = 0, pretend = 0, frame = 0
 459              		@ frame_needed = 0, uses_anonymous_args = 0
 460              		.loc 1 246 0
 461 0000 40F20000 		movw	r0, #:lower16:.LANCHOR8
 462              		.loc 1 243 0
 463 0004 10B5     		push	{r4, lr}
 464              		.cfi_def_cfa_offset 8
 465              		.cfi_offset 4, -8
 466              		.cfi_offset 14, -4
 467              		.loc 1 246 0
 468 0006 C0F20000 		movt	r0, #:upper16:.LANCHOR8
 469 000a FFF7FEFF 		bl	_trace_isr_enter
 470              	.LVL35:
 471              		.loc 1 248 0
 472 000e 4FF4C042 		mov	r2, #24576
 473 0012 C4F20202 		movt	r2, 16386
 474              		.loc 1 250 0
 475 0016 40F20003 		movw	r3, #:lower16:.LANCHOR1
 476              		.loc 1 248 0
 477 001a 5168     		ldr	r1, [r2, #4]
 478              		.loc 1 250 0
 479 001c C0F20003 		movt	r3, #:upper16:.LANCHOR1
 480              		.loc 1 248 0
 481 0020 890D     		lsrs	r1, r1, #22
 482 0022 01F03D01 		and	r1, r1, #61
 483              	.LVL36:
 484              		.loc 1 250 0
 485 0026 9C6B     		ldr	r4, [r3, #56]
 486              		.loc 1 249 0
 487 0028 8805     		lsls	r0, r1, #22
 488 002a D060     		str	r0, [r2, #12]
 489              		.loc 1 250 0
 490 002c 0CB1     		cbz	r4, .L38
 491              		.loc 1 251 0
 492 002e D86B     		ldr	r0, [r3, #60]
 493 0030 A047     		blx	r4
 494              	.LVL37:
 495              	.L38:
 496              		.loc 1 253 0
 497 0032 40F20000 		movw	r0, #:lower16:.LANCHOR8
ARM GAS  /tmp/ccPjNsKi.s 			page 10


 498 0036 C0F20000 		movt	r0, #:upper16:.LANCHOR8
 499 003a FFF7FEFF 		bl	_trace_isr_leave
 500              	.LVL38:
 501              		.loc 1 254 0
 502 003e BDE81040 		pop	{r4, lr}
 503              		.loc 1 253 0
 504 0042 FFF7FEBF 		b	_port_irq_epilogue
 505              	.LVL39:
 506              		.cfi_endproc
 507              	.LFE277:
 508              		.size	VectorFC, .-VectorFC
 509 0046 00BFAFF3 		.section	.text.Vector120,"ax",%progbits
 509      0080AFF3 
 509      0080
 510              		.align	2
 511              		.p2align 4,,15
 512              		.global	Vector120
 513              		.thumb
 514              		.thumb_func
 515              		.type	Vector120, %function
 516              	Vector120:
 517              	.LFB278:
 518              		.loc 1 261 0
 519              		.cfi_startproc
 520              		@ args = 0, pretend = 0, frame = 0
 521              		@ frame_needed = 0, uses_anonymous_args = 0
 522              		.loc 1 264 0
 523 0000 40F20000 		movw	r0, #:lower16:.LANCHOR9
 524              		.loc 1 261 0
 525 0004 10B5     		push	{r4, lr}
 526              		.cfi_def_cfa_offset 8
 527              		.cfi_offset 4, -8
 528              		.cfi_offset 14, -4
 529              		.loc 1 264 0
 530 0006 C0F20000 		movt	r0, #:upper16:.LANCHOR9
 531 000a FFF7FEFF 		bl	_trace_isr_enter
 532              	.LVL40:
 533              		.loc 1 266 0
 534 000e 4FF4C842 		mov	r2, #25600
 535 0012 C4F20202 		movt	r2, 16386
 536              		.loc 1 268 0
 537 0016 40F20003 		movw	r3, #:lower16:.LANCHOR1
 538 001a C0F20003 		movt	r3, #:upper16:.LANCHOR1
 539              		.loc 1 266 0
 540 001e 1168     		ldr	r1, [r2]
 541              		.loc 1 268 0
 542 0020 1C6C     		ldr	r4, [r3, #64]
 543              		.loc 1 266 0
 544 0022 01F03D01 		and	r1, r1, #61
 545              	.LVL41:
 546              		.loc 1 267 0
 547 0026 9160     		str	r1, [r2, #8]
 548              		.loc 1 268 0
 549 0028 0CB1     		cbz	r4, .L43
 550              		.loc 1 269 0
 551 002a 586C     		ldr	r0, [r3, #68]
 552 002c A047     		blx	r4
ARM GAS  /tmp/ccPjNsKi.s 			page 11


 553              	.LVL42:
 554              	.L43:
 555              		.loc 1 271 0
 556 002e 40F20000 		movw	r0, #:lower16:.LANCHOR9
 557 0032 C0F20000 		movt	r0, #:upper16:.LANCHOR9
 558 0036 FFF7FEFF 		bl	_trace_isr_leave
 559              	.LVL43:
 560              		.loc 1 272 0
 561 003a BDE81040 		pop	{r4, lr}
 562              		.loc 1 271 0
 563 003e FFF7FEBF 		b	_port_irq_epilogue
 564              	.LVL44:
 565              		.cfi_endproc
 566              	.LFE278:
 567              		.size	Vector120, .-Vector120
 568 0042 00BFAFF3 		.section	.text.Vector124,"ax",%progbits
 568      0080AFF3 
 568      0080AFF3 
 568      0080
 569              		.align	2
 570              		.p2align 4,,15
 571              		.global	Vector124
 572              		.thumb
 573              		.thumb_func
 574              		.type	Vector124, %function
 575              	Vector124:
 576              	.LFB279:
 577              		.loc 1 279 0
 578              		.cfi_startproc
 579              		@ args = 0, pretend = 0, frame = 0
 580              		@ frame_needed = 0, uses_anonymous_args = 0
 581              		.loc 1 282 0
 582 0000 40F20000 		movw	r0, #:lower16:.LANCHOR10
 583              		.loc 1 279 0
 584 0004 10B5     		push	{r4, lr}
 585              		.cfi_def_cfa_offset 8
 586              		.cfi_offset 4, -8
 587              		.cfi_offset 14, -4
 588              		.loc 1 282 0
 589 0006 C0F20000 		movt	r0, #:upper16:.LANCHOR10
 590 000a FFF7FEFF 		bl	_trace_isr_enter
 591              	.LVL45:
 592              		.loc 1 284 0
 593 000e 4FF4C842 		mov	r2, #25600
 594 0012 C4F20202 		movt	r2, 16386
 595              		.loc 1 286 0
 596 0016 40F20003 		movw	r3, #:lower16:.LANCHOR1
 597              		.loc 1 284 0
 598 001a 1168     		ldr	r1, [r2]
 599              		.loc 1 286 0
 600 001c C0F20003 		movt	r3, #:upper16:.LANCHOR1
 601              		.loc 1 284 0
 602 0020 8909     		lsrs	r1, r1, #6
 603 0022 01F03D01 		and	r1, r1, #61
 604              	.LVL46:
 605              		.loc 1 286 0
 606 0026 9C6C     		ldr	r4, [r3, #72]
ARM GAS  /tmp/ccPjNsKi.s 			page 12


 607              		.loc 1 285 0
 608 0028 8801     		lsls	r0, r1, #6
 609 002a 9060     		str	r0, [r2, #8]
 610              		.loc 1 286 0
 611 002c 0CB1     		cbz	r4, .L48
 612              		.loc 1 287 0
 613 002e D86C     		ldr	r0, [r3, #76]
 614 0030 A047     		blx	r4
 615              	.LVL47:
 616              	.L48:
 617              		.loc 1 289 0
 618 0032 40F20000 		movw	r0, #:lower16:.LANCHOR10
 619 0036 C0F20000 		movt	r0, #:upper16:.LANCHOR10
 620 003a FFF7FEFF 		bl	_trace_isr_leave
 621              	.LVL48:
 622              		.loc 1 290 0
 623 003e BDE81040 		pop	{r4, lr}
 624              		.loc 1 289 0
 625 0042 FFF7FEBF 		b	_port_irq_epilogue
 626              	.LVL49:
 627              		.cfi_endproc
 628              	.LFE279:
 629              		.size	Vector124, .-Vector124
 630 0046 00BFAFF3 		.section	.text.Vector128,"ax",%progbits
 630      0080AFF3 
 630      0080
 631              		.align	2
 632              		.p2align 4,,15
 633              		.global	Vector128
 634              		.thumb
 635              		.thumb_func
 636              		.type	Vector128, %function
 637              	Vector128:
 638              	.LFB280:
 639              		.loc 1 297 0
 640              		.cfi_startproc
 641              		@ args = 0, pretend = 0, frame = 0
 642              		@ frame_needed = 0, uses_anonymous_args = 0
 643              		.loc 1 300 0
 644 0000 40F20000 		movw	r0, #:lower16:.LANCHOR11
 645              		.loc 1 297 0
 646 0004 10B5     		push	{r4, lr}
 647              		.cfi_def_cfa_offset 8
 648              		.cfi_offset 4, -8
 649              		.cfi_offset 14, -4
 650              		.loc 1 300 0
 651 0006 C0F20000 		movt	r0, #:upper16:.LANCHOR11
 652 000a FFF7FEFF 		bl	_trace_isr_enter
 653              	.LVL50:
 654              		.loc 1 302 0
 655 000e 4FF4C842 		mov	r2, #25600
 656 0012 C4F20202 		movt	r2, 16386
 657              		.loc 1 304 0
 658 0016 40F20003 		movw	r3, #:lower16:.LANCHOR1
 659              		.loc 1 302 0
 660 001a 1168     		ldr	r1, [r2]
 661              		.loc 1 304 0
ARM GAS  /tmp/ccPjNsKi.s 			page 13


 662 001c C0F20003 		movt	r3, #:upper16:.LANCHOR1
 663              		.loc 1 302 0
 664 0020 090C     		lsrs	r1, r1, #16
 665 0022 01F03D01 		and	r1, r1, #61
 666              	.LVL51:
 667              		.loc 1 304 0
 668 0026 1C6D     		ldr	r4, [r3, #80]
 669              		.loc 1 303 0
 670 0028 0804     		lsls	r0, r1, #16
 671 002a 9060     		str	r0, [r2, #8]
 672              		.loc 1 304 0
 673 002c 0CB1     		cbz	r4, .L53
 674              		.loc 1 305 0
 675 002e 586D     		ldr	r0, [r3, #84]
 676 0030 A047     		blx	r4
 677              	.LVL52:
 678              	.L53:
 679              		.loc 1 307 0
 680 0032 40F20000 		movw	r0, #:lower16:.LANCHOR11
 681 0036 C0F20000 		movt	r0, #:upper16:.LANCHOR11
 682 003a FFF7FEFF 		bl	_trace_isr_leave
 683              	.LVL53:
 684              		.loc 1 308 0
 685 003e BDE81040 		pop	{r4, lr}
 686              		.loc 1 307 0
 687 0042 FFF7FEBF 		b	_port_irq_epilogue
 688              	.LVL54:
 689              		.cfi_endproc
 690              	.LFE280:
 691              		.size	Vector128, .-Vector128
 692 0046 00BFAFF3 		.section	.text.Vector12C,"ax",%progbits
 692      0080AFF3 
 692      0080
 693              		.align	2
 694              		.p2align 4,,15
 695              		.global	Vector12C
 696              		.thumb
 697              		.thumb_func
 698              		.type	Vector12C, %function
 699              	Vector12C:
 700              	.LFB281:
 701              		.loc 1 315 0
 702              		.cfi_startproc
 703              		@ args = 0, pretend = 0, frame = 0
 704              		@ frame_needed = 0, uses_anonymous_args = 0
 705              		.loc 1 318 0
 706 0000 40F20000 		movw	r0, #:lower16:.LANCHOR12
 707              		.loc 1 315 0
 708 0004 10B5     		push	{r4, lr}
 709              		.cfi_def_cfa_offset 8
 710              		.cfi_offset 4, -8
 711              		.cfi_offset 14, -4
 712              		.loc 1 318 0
 713 0006 C0F20000 		movt	r0, #:upper16:.LANCHOR12
 714 000a FFF7FEFF 		bl	_trace_isr_enter
 715              	.LVL55:
 716              		.loc 1 320 0
ARM GAS  /tmp/ccPjNsKi.s 			page 14


 717 000e 4FF4C842 		mov	r2, #25600
 718 0012 C4F20202 		movt	r2, 16386
 719              		.loc 1 322 0
 720 0016 40F20003 		movw	r3, #:lower16:.LANCHOR1
 721              		.loc 1 320 0
 722 001a 1168     		ldr	r1, [r2]
 723              		.loc 1 322 0
 724 001c C0F20003 		movt	r3, #:upper16:.LANCHOR1
 725              		.loc 1 320 0
 726 0020 890D     		lsrs	r1, r1, #22
 727 0022 01F03D01 		and	r1, r1, #61
 728              	.LVL56:
 729              		.loc 1 322 0
 730 0026 9C6D     		ldr	r4, [r3, #88]
 731              		.loc 1 321 0
 732 0028 8805     		lsls	r0, r1, #22
 733 002a 9060     		str	r0, [r2, #8]
 734              		.loc 1 322 0
 735 002c 0CB1     		cbz	r4, .L58
 736              		.loc 1 323 0
 737 002e D86D     		ldr	r0, [r3, #92]
 738 0030 A047     		blx	r4
 739              	.LVL57:
 740              	.L58:
 741              		.loc 1 325 0
 742 0032 40F20000 		movw	r0, #:lower16:.LANCHOR12
 743 0036 C0F20000 		movt	r0, #:upper16:.LANCHOR12
 744 003a FFF7FEFF 		bl	_trace_isr_leave
 745              	.LVL58:
 746              		.loc 1 326 0
 747 003e BDE81040 		pop	{r4, lr}
 748              		.loc 1 325 0
 749 0042 FFF7FEBF 		b	_port_irq_epilogue
 750              	.LVL59:
 751              		.cfi_endproc
 752              	.LFE281:
 753              		.size	Vector12C, .-Vector12C
 754 0046 00BFAFF3 		.section	.text.Vector130,"ax",%progbits
 754      0080AFF3 
 754      0080
 755              		.align	2
 756              		.p2align 4,,15
 757              		.global	Vector130
 758              		.thumb
 759              		.thumb_func
 760              		.type	Vector130, %function
 761              	Vector130:
 762              	.LFB282:
 763              		.loc 1 333 0
 764              		.cfi_startproc
 765              		@ args = 0, pretend = 0, frame = 0
 766              		@ frame_needed = 0, uses_anonymous_args = 0
 767              		.loc 1 336 0
 768 0000 40F20000 		movw	r0, #:lower16:.LANCHOR13
 769              		.loc 1 333 0
 770 0004 10B5     		push	{r4, lr}
 771              		.cfi_def_cfa_offset 8
ARM GAS  /tmp/ccPjNsKi.s 			page 15


 772              		.cfi_offset 4, -8
 773              		.cfi_offset 14, -4
 774              		.loc 1 336 0
 775 0006 C0F20000 		movt	r0, #:upper16:.LANCHOR13
 776 000a FFF7FEFF 		bl	_trace_isr_enter
 777              	.LVL60:
 778              		.loc 1 338 0
 779 000e 4FF4C842 		mov	r2, #25600
 780 0012 C4F20202 		movt	r2, 16386
 781              		.loc 1 340 0
 782 0016 40F20003 		movw	r3, #:lower16:.LANCHOR1
 783 001a C0F20003 		movt	r3, #:upper16:.LANCHOR1
 784              		.loc 1 338 0
 785 001e 5168     		ldr	r1, [r2, #4]
 786              		.loc 1 340 0
 787 0020 1C6E     		ldr	r4, [r3, #96]
 788              		.loc 1 338 0
 789 0022 01F03D01 		and	r1, r1, #61
 790              	.LVL61:
 791              		.loc 1 339 0
 792 0026 D160     		str	r1, [r2, #12]
 793              		.loc 1 340 0
 794 0028 0CB1     		cbz	r4, .L63
 795              		.loc 1 341 0
 796 002a 586E     		ldr	r0, [r3, #100]
 797 002c A047     		blx	r4
 798              	.LVL62:
 799              	.L63:
 800              		.loc 1 343 0
 801 002e 40F20000 		movw	r0, #:lower16:.LANCHOR13
 802 0032 C0F20000 		movt	r0, #:upper16:.LANCHOR13
 803 0036 FFF7FEFF 		bl	_trace_isr_leave
 804              	.LVL63:
 805              		.loc 1 344 0
 806 003a BDE81040 		pop	{r4, lr}
 807              		.loc 1 343 0
 808 003e FFF7FEBF 		b	_port_irq_epilogue
 809              	.LVL64:
 810              		.cfi_endproc
 811              	.LFE282:
 812              		.size	Vector130, .-Vector130
 813 0042 00BFAFF3 		.section	.text.Vector150,"ax",%progbits
 813      0080AFF3 
 813      0080AFF3 
 813      0080
 814              		.align	2
 815              		.p2align 4,,15
 816              		.global	Vector150
 817              		.thumb
 818              		.thumb_func
 819              		.type	Vector150, %function
 820              	Vector150:
 821              	.LFB283:
 822              		.loc 1 351 0
 823              		.cfi_startproc
 824              		@ args = 0, pretend = 0, frame = 0
 825              		@ frame_needed = 0, uses_anonymous_args = 0
ARM GAS  /tmp/ccPjNsKi.s 			page 16


 826              		.loc 1 354 0
 827 0000 40F20000 		movw	r0, #:lower16:.LANCHOR14
 828              		.loc 1 351 0
 829 0004 10B5     		push	{r4, lr}
 830              		.cfi_def_cfa_offset 8
 831              		.cfi_offset 4, -8
 832              		.cfi_offset 14, -4
 833              		.loc 1 354 0
 834 0006 C0F20000 		movt	r0, #:upper16:.LANCHOR14
 835 000a FFF7FEFF 		bl	_trace_isr_enter
 836              	.LVL65:
 837              		.loc 1 356 0
 838 000e 4FF4C842 		mov	r2, #25600
 839 0012 C4F20202 		movt	r2, 16386
 840              		.loc 1 358 0
 841 0016 40F20003 		movw	r3, #:lower16:.LANCHOR1
 842              		.loc 1 356 0
 843 001a 5168     		ldr	r1, [r2, #4]
 844              		.loc 1 358 0
 845 001c C0F20003 		movt	r3, #:upper16:.LANCHOR1
 846              		.loc 1 356 0
 847 0020 8909     		lsrs	r1, r1, #6
 848 0022 01F03D01 		and	r1, r1, #61
 849              	.LVL66:
 850              		.loc 1 358 0
 851 0026 9C6E     		ldr	r4, [r3, #104]
 852              		.loc 1 357 0
 853 0028 8801     		lsls	r0, r1, #6
 854 002a D060     		str	r0, [r2, #12]
 855              		.loc 1 358 0
 856 002c 0CB1     		cbz	r4, .L68
 857              		.loc 1 359 0
 858 002e D86E     		ldr	r0, [r3, #108]
 859 0030 A047     		blx	r4
 860              	.LVL67:
 861              	.L68:
 862              		.loc 1 361 0
 863 0032 40F20000 		movw	r0, #:lower16:.LANCHOR14
 864 0036 C0F20000 		movt	r0, #:upper16:.LANCHOR14
 865 003a FFF7FEFF 		bl	_trace_isr_leave
 866              	.LVL68:
 867              		.loc 1 362 0
 868 003e BDE81040 		pop	{r4, lr}
 869              		.loc 1 361 0
 870 0042 FFF7FEBF 		b	_port_irq_epilogue
 871              	.LVL69:
 872              		.cfi_endproc
 873              	.LFE283:
 874              		.size	Vector150, .-Vector150
 875 0046 00BFAFF3 		.section	.text.Vector154,"ax",%progbits
 875      0080AFF3 
 875      0080
 876              		.align	2
 877              		.p2align 4,,15
 878              		.global	Vector154
 879              		.thumb
 880              		.thumb_func
ARM GAS  /tmp/ccPjNsKi.s 			page 17


 881              		.type	Vector154, %function
 882              	Vector154:
 883              	.LFB284:
 884              		.loc 1 369 0
 885              		.cfi_startproc
 886              		@ args = 0, pretend = 0, frame = 0
 887              		@ frame_needed = 0, uses_anonymous_args = 0
 888              		.loc 1 372 0
 889 0000 40F20000 		movw	r0, #:lower16:.LANCHOR15
 890              		.loc 1 369 0
 891 0004 10B5     		push	{r4, lr}
 892              		.cfi_def_cfa_offset 8
 893              		.cfi_offset 4, -8
 894              		.cfi_offset 14, -4
 895              		.loc 1 372 0
 896 0006 C0F20000 		movt	r0, #:upper16:.LANCHOR15
 897 000a FFF7FEFF 		bl	_trace_isr_enter
 898              	.LVL70:
 899              		.loc 1 374 0
 900 000e 4FF4C842 		mov	r2, #25600
 901 0012 C4F20202 		movt	r2, 16386
 902              		.loc 1 376 0
 903 0016 40F20003 		movw	r3, #:lower16:.LANCHOR1
 904              		.loc 1 374 0
 905 001a 5168     		ldr	r1, [r2, #4]
 906              		.loc 1 376 0
 907 001c C0F20003 		movt	r3, #:upper16:.LANCHOR1
 908              		.loc 1 374 0
 909 0020 090C     		lsrs	r1, r1, #16
 910 0022 01F03D01 		and	r1, r1, #61
 911              	.LVL71:
 912              		.loc 1 376 0
 913 0026 1C6F     		ldr	r4, [r3, #112]
 914              		.loc 1 375 0
 915 0028 0804     		lsls	r0, r1, #16
 916 002a D060     		str	r0, [r2, #12]
 917              		.loc 1 376 0
 918 002c 0CB1     		cbz	r4, .L73
 919              		.loc 1 377 0
 920 002e 586F     		ldr	r0, [r3, #116]
 921 0030 A047     		blx	r4
 922              	.LVL72:
 923              	.L73:
 924              		.loc 1 379 0
 925 0032 40F20000 		movw	r0, #:lower16:.LANCHOR15
 926 0036 C0F20000 		movt	r0, #:upper16:.LANCHOR15
 927 003a FFF7FEFF 		bl	_trace_isr_leave
 928              	.LVL73:
 929              		.loc 1 380 0
 930 003e BDE81040 		pop	{r4, lr}
 931              		.loc 1 379 0
 932 0042 FFF7FEBF 		b	_port_irq_epilogue
 933              	.LVL74:
 934              		.cfi_endproc
 935              	.LFE284:
 936              		.size	Vector154, .-Vector154
 937 0046 00BFAFF3 		.section	.text.Vector158,"ax",%progbits
ARM GAS  /tmp/ccPjNsKi.s 			page 18


 937      0080AFF3 
 937      0080
 938              		.align	2
 939              		.p2align 4,,15
 940              		.global	Vector158
 941              		.thumb
 942              		.thumb_func
 943              		.type	Vector158, %function
 944              	Vector158:
 945              	.LFB285:
 946              		.loc 1 387 0
 947              		.cfi_startproc
 948              		@ args = 0, pretend = 0, frame = 0
 949              		@ frame_needed = 0, uses_anonymous_args = 0
 950              		.loc 1 390 0
 951 0000 40F20000 		movw	r0, #:lower16:.LANCHOR16
 952              		.loc 1 387 0
 953 0004 10B5     		push	{r4, lr}
 954              		.cfi_def_cfa_offset 8
 955              		.cfi_offset 4, -8
 956              		.cfi_offset 14, -4
 957              		.loc 1 390 0
 958 0006 C0F20000 		movt	r0, #:upper16:.LANCHOR16
 959 000a FFF7FEFF 		bl	_trace_isr_enter
 960              	.LVL75:
 961              		.loc 1 392 0
 962 000e 4FF4C842 		mov	r2, #25600
 963 0012 C4F20202 		movt	r2, 16386
 964              		.loc 1 394 0
 965 0016 40F20003 		movw	r3, #:lower16:.LANCHOR1
 966              		.loc 1 392 0
 967 001a 5168     		ldr	r1, [r2, #4]
 968              		.loc 1 394 0
 969 001c C0F20003 		movt	r3, #:upper16:.LANCHOR1
 970              		.loc 1 392 0
 971 0020 890D     		lsrs	r1, r1, #22
 972 0022 01F03D01 		and	r1, r1, #61
 973              	.LVL76:
 974              		.loc 1 394 0
 975 0026 9C6F     		ldr	r4, [r3, #120]
 976              		.loc 1 393 0
 977 0028 8805     		lsls	r0, r1, #22
 978 002a D060     		str	r0, [r2, #12]
 979              		.loc 1 394 0
 980 002c 0CB1     		cbz	r4, .L78
 981              		.loc 1 395 0
 982 002e D86F     		ldr	r0, [r3, #124]
 983 0030 A047     		blx	r4
 984              	.LVL77:
 985              	.L78:
 986              		.loc 1 397 0
 987 0032 40F20000 		movw	r0, #:lower16:.LANCHOR16
 988 0036 C0F20000 		movt	r0, #:upper16:.LANCHOR16
 989 003a FFF7FEFF 		bl	_trace_isr_leave
 990              	.LVL78:
 991              		.loc 1 398 0
 992 003e BDE81040 		pop	{r4, lr}
ARM GAS  /tmp/ccPjNsKi.s 			page 19


 993              		.loc 1 397 0
 994 0042 FFF7FEBF 		b	_port_irq_epilogue
 995              	.LVL79:
 996              		.cfi_endproc
 997              	.LFE285:
 998              		.size	Vector158, .-Vector158
 999 0046 00BFAFF3 		.section	.text.dmaInit,"ax",%progbits
 999      0080AFF3 
 999      0080
 1000              		.align	2
 1001              		.p2align 4,,15
 1002              		.global	dmaInit
 1003              		.thumb
 1004              		.thumb_func
 1005              		.type	dmaInit, %function
 1006              	dmaInit:
 1007              	.LFB286:
 1008              		.loc 1 409 0
 1009              		.cfi_startproc
 1010              		@ args = 0, pretend = 0, frame = 0
 1011              		@ frame_needed = 0, uses_anonymous_args = 0
 1012              		@ link register save eliminated.
 1013              		.loc 1 412 0
 1014 0000 40F20003 		movw	r3, #:lower16:.LANCHOR17
 1015 0004 C0F20003 		movt	r3, #:upper16:.LANCHOR17
 1016              		.loc 1 409 0
 1017 0008 30B4     		push	{r4, r5}
 1018              		.cfi_def_cfa_offset 8
 1019              		.cfi_offset 4, -8
 1020              		.cfi_offset 5, -4
 1021              		.loc 1 412 0
 1022 000a 0021     		movs	r1, #0
 1023 000c 40F20005 		movw	r5, #:lower16:.LANCHOR18
 1024 0010 40F20004 		movw	r4, #:lower16:.LANCHOR1
 1025 0014 1960     		str	r1, [r3]
 1026              	.LVL80:
 1027 0016 0A46     		mov	r2, r1
 1028 0018 0B46     		mov	r3, r1
 1029 001a C0F20005 		movt	r5, #:upper16:.LANCHOR18
 1030 001e C0F20004 		movt	r4, #:upper16:.LANCHOR1
 1031              	.LVL81:
 1032              	.L84:
 1033              		.loc 1 414 0 discriminator 2
 1034 0022 E858     		ldr	r0, [r5, r3]
 1035 0024 0C33     		adds	r3, r3, #12
 1036              		.loc 1 413 0 discriminator 2
 1037 0026 C02B     		cmp	r3, #192
 1038              		.loc 1 414 0 discriminator 2
 1039 0028 0160     		str	r1, [r0]
 1040              		.loc 1 415 0 discriminator 2
 1041 002a A150     		str	r1, [r4, r2]
 1042 002c 02F10802 		add	r2, r2, #8
 1043              		.loc 1 413 0 discriminator 2
 1044 0030 F7D1     		bne	.L84
 1045              		.loc 1 417 0
 1046 0032 4FF4C041 		mov	r1, #24576
 1047              		.loc 1 419 0
ARM GAS  /tmp/ccPjNsKi.s 			page 20


 1048 0036 4FF4C842 		mov	r2, #25600
 1049              		.loc 1 417 0
 1050 003a C4F20201 		movt	r1, 16386
 1051              		.loc 1 419 0
 1052 003e C4F20202 		movt	r2, 16386
 1053              		.loc 1 417 0
 1054 0042 4FF0FF33 		mov	r3, #-1
 1055 0046 8B60     		str	r3, [r1, #8]
 1056              		.loc 1 421 0
 1057 0048 30BC     		pop	{r4, r5}
 1058              		.loc 1 418 0
 1059 004a CB60     		str	r3, [r1, #12]
 1060              		.loc 1 419 0
 1061 004c 9360     		str	r3, [r2, #8]
 1062              		.loc 1 420 0
 1063 004e D360     		str	r3, [r2, #12]
 1064              		.loc 1 421 0
 1065 0050 7047     		bx	lr
 1066              		.cfi_endproc
 1067              	.LFE286:
 1068              		.size	dmaInit, .-dmaInit
 1069 0052 00BFAFF3 		.section	.text.dmaStreamAllocate,"ax",%progbits
 1069      0080AFF3 
 1069      0080AFF3 
 1069      0080
 1070              		.align	2
 1071              		.p2align 4,,15
 1072              		.global	dmaStreamAllocate
 1073              		.thumb
 1074              		.thumb_func
 1075              		.type	dmaStreamAllocate, %function
 1076              	dmaStreamAllocate:
 1077              	.LFB287:
 1078              		.loc 1 450 0
 1079              		.cfi_startproc
 1080              		@ args = 0, pretend = 0, frame = 0
 1081              		@ frame_needed = 0, uses_anonymous_args = 0
 1082              	.LVL82:
 1083 0000 2DE9F041 		push	{r4, r5, r6, r7, r8, lr}
 1084              		.cfi_def_cfa_offset 24
 1085              		.cfi_offset 4, -24
 1086              		.cfi_offset 5, -20
 1087              		.cfi_offset 6, -16
 1088              		.cfi_offset 7, -12
 1089              		.cfi_offset 8, -8
 1090              		.cfi_offset 14, -4
 1091              		.loc 1 455 0
 1092 0004 40F20004 		movw	r4, #:lower16:.LANCHOR17
 1093 0008 C0F20004 		movt	r4, #:upper16:.LANCHOR17
 1094 000c 467A     		ldrb	r6, [r0, #9]	@ zero_extendqisi2
 1095 000e 2568     		ldr	r5, [r4]
 1096 0010 0127     		movs	r7, #1
 1097 0012 07FA06FC 		lsl	ip, r7, r6
 1098 0016 1CEA050F 		tst	ip, r5
 1099 001a 3CD1     		bne	.L92
 1100              		.loc 1 459 0
 1101 001c 40F20007 		movw	r7, #:lower16:.LANCHOR1
ARM GAS  /tmp/ccPjNsKi.s 			page 21


 1102 0020 C0F20007 		movt	r7, #:upper16:.LANCHOR1
 1103              		.loc 1 461 0
 1104 0024 4CEA0505 		orr	r5, ip, r5
 1105              		.loc 1 460 0
 1106 0028 07EBC608 		add	r8, r7, r6, lsl #3
 1107              		.loc 1 464 0
 1108 002c 15F0FF0F 		tst	r5, #255
 1109              		.loc 1 459 0
 1110 0030 47F83620 		str	r2, [r7, r6, lsl #3]
 1111              		.loc 1 460 0
 1112 0034 C8F80430 		str	r3, [r8, #4]
 1113              		.loc 1 465 0
 1114 0038 1CBF     		itt	ne
 1115 003a 4FF46053 		movne	r3, #14336
 1116              	.LVL83:
 1117 003e C4F20203 		movtne	r3, 16386
 1118              		.loc 1 461 0
 1119 0042 2560     		str	r5, [r4]
 1120              		.loc 1 465 0
 1121 0044 1EBF     		ittt	ne
 1122 0046 1C6B     		ldrne	r4, [r3, #48]
 1123 0048 44F40014 		orrne	r4, r4, #2097152
 1124 004c 1C63     		strne	r4, [r3, #48]
 1125              		.loc 1 467 0
 1126 004e 15F47F4F 		tst	r5, #65280
 1127              		.loc 1 468 0
 1128 0052 1FBF     		itttt	ne
 1129 0054 4FF46053 		movne	r3, #14336
 1130 0058 C4F20203 		movtne	r3, 16386
 1131 005c 1C6B     		ldrne	r4, [r3, #48]
 1132 005e 44F48004 		orrne	r4, r4, #4194304
 1133 0062 18BF     		it	ne
 1134 0064 1C63     		strne	r4, [r3, #48]
 1135              		.loc 1 472 0
 1136 0066 0468     		ldr	r4, [r0]
 1137 0068 2368     		ldr	r3, [r4]
 1138 006a 23F01F03 		bic	r3, r3, #31
 1139 006e 2360     		str	r3, [r4]
 1140              	.L91:
 1141              		.loc 1 472 0 is_stmt 0 discriminator 1
 1142 0070 2368     		ldr	r3, [r4]
 1143 0072 13F00105 		ands	r5, r3, #1
 1144 0076 FBD1     		bne	.L91
 1145              		.loc 1 472 0 discriminator 2
 1146 0078 067A     		ldrb	r6, [r0, #8]	@ zero_extendqisi2
 1147 007a 4368     		ldr	r3, [r0, #4]
 1148 007c 3D27     		movs	r7, #61
 1149 007e B740     		lsls	r7, r7, r6
 1150              		.loc 1 474 0 is_stmt 1 discriminator 2
 1151 0080 2126     		movs	r6, #33
 1152              		.loc 1 472 0 discriminator 2
 1153 0082 1F60     		str	r7, [r3]
 1154              		.loc 1 473 0 discriminator 2
 1155 0084 2560     		str	r5, [r4]
 1156              		.loc 1 474 0 discriminator 2
 1157 0086 6661     		str	r6, [r4, #20]
 1158              		.loc 1 477 0 discriminator 2
ARM GAS  /tmp/ccPjNsKi.s 			page 22


 1159 0088 42B1     		cbz	r2, .L93
 1160              		.loc 1 478 0
 1161 008a 807A     		ldrb	r0, [r0, #10]	@ zero_extendqisi2
 1162              	.LVL84:
 1163 008c FFF7FEFF 		bl	nvicEnableVector
 1164              	.LVL85:
 1165              		.loc 1 481 0
 1166 0090 2846     		mov	r0, r5
 1167 0092 BDE8F081 		pop	{r4, r5, r6, r7, r8, pc}
 1168              	.LVL86:
 1169              	.L92:
 1170              		.loc 1 456 0
 1171 0096 3846     		mov	r0, r7
 1172              	.LVL87:
 1173 0098 BDE8F081 		pop	{r4, r5, r6, r7, r8, pc}
 1174              	.LVL88:
 1175              	.L93:
 1176              		.loc 1 481 0
 1177 009c 1046     		mov	r0, r2
 1178              	.LVL89:
 1179              		.loc 1 482 0
 1180 009e BDE8F081 		pop	{r4, r5, r6, r7, r8, pc}
 1181              		.cfi_endproc
 1182              	.LFE287:
 1183              		.size	dmaStreamAllocate, .-dmaStreamAllocate
 1184 00a2 00BFAFF3 		.section	.text.dmaStreamRelease,"ax",%progbits
 1184      0080AFF3 
 1184      0080AFF3 
 1184      0080
 1185              		.align	2
 1186              		.p2align 4,,15
 1187              		.global	dmaStreamRelease
 1188              		.thumb
 1189              		.thumb_func
 1190              		.type	dmaStreamRelease, %function
 1191              	dmaStreamRelease:
 1192              	.LFB288:
 1193              		.loc 1 497 0
 1194              		.cfi_startproc
 1195              		@ args = 0, pretend = 0, frame = 0
 1196              		@ frame_needed = 0, uses_anonymous_args = 0
 1197              	.LVL90:
 1198 0000 10B5     		push	{r4, lr}
 1199              		.cfi_def_cfa_offset 8
 1200              		.cfi_offset 4, -8
 1201              		.cfi_offset 14, -4
 1202              		.loc 1 497 0
 1203 0002 0446     		mov	r4, r0
 1204              		.loc 1 506 0
 1205 0004 807A     		ldrb	r0, [r0, #10]	@ zero_extendqisi2
 1206              	.LVL91:
 1207 0006 FFF7FEFF 		bl	nvicDisableVector
 1208              	.LVL92:
 1209              		.loc 1 509 0
 1210 000a 40F20003 		movw	r3, #:lower16:.LANCHOR17
 1211 000e C0F20003 		movt	r3, #:upper16:.LANCHOR17
 1212 0012 627A     		ldrb	r2, [r4, #9]	@ zero_extendqisi2
ARM GAS  /tmp/ccPjNsKi.s 			page 23


 1213 0014 1968     		ldr	r1, [r3]
 1214 0016 0120     		movs	r0, #1
 1215 0018 00FA02F2 		lsl	r2, r0, r2
 1216 001c 21EA0202 		bic	r2, r1, r2
 1217              		.loc 1 512 0
 1218 0020 12F0FF0F 		tst	r2, #255
 1219              		.loc 1 509 0
 1220 0024 1A60     		str	r2, [r3]
 1221              		.loc 1 513 0
 1222 0026 01BF     		itttt	eq
 1223 0028 4FF46053 		moveq	r3, #14336
 1224 002c C4F20203 		movteq	r3, 16386
 1225 0030 196B     		ldreq	r1, [r3, #48]
 1226 0032 21F40011 		biceq	r1, r1, #2097152
 1227 0036 08BF     		it	eq
 1228 0038 1963     		streq	r1, [r3, #48]
 1229              		.loc 1 515 0
 1230 003a 12F47F4F 		tst	r2, #65280
 1231              		.loc 1 516 0
 1232 003e 01BF     		itttt	eq
 1233 0040 4FF46053 		moveq	r3, #14336
 1234 0044 C4F20203 		movteq	r3, 16386
 1235 0048 1A6B     		ldreq	r2, [r3, #48]
 1236 004a 22F48002 		biceq	r2, r2, #4194304
 1237 004e 08BF     		it	eq
 1238 0050 1A63     		streq	r2, [r3, #48]
 1239 0052 10BD     		pop	{r4, pc}
 1240              		.cfi_endproc
 1241              	.LFE288:
 1242              		.size	dmaStreamRelease, .-dmaStreamRelease
 1243              		.global	_stm32_dma_streams
 1244 0054 AFF30080 		.section	.rodata.__func__.7598,"a",%progbits
 1244      AFF30080 
 1244      AFF30080 
 1245              		.align	2
 1246              		.set	.LANCHOR0,. + 0
 1247              		.type	__func__.7598, %object
 1248              		.size	__func__.7598, 9
 1249              	__func__.7598:
 1250 0000 56656374 		.ascii	"Vector6C\000"
 1250      6F723643 
 1250      00
 1251 0009 000000   		.section	.rodata.__func__.7638,"a",%progbits
 1252              		.align	2
 1253              		.set	.LANCHOR9,. + 0
 1254              		.type	__func__.7638, %object
 1255              		.size	__func__.7638, 10
 1256              	__func__.7638:
 1257 0000 56656374 		.ascii	"Vector120\000"
 1257      6F723132 
 1257      3000
 1258 000a 0000     		.section	.rodata.__func__.7663,"a",%progbits
 1259              		.align	2
 1260              		.set	.LANCHOR14,. + 0
 1261              		.type	__func__.7663, %object
 1262              		.size	__func__.7663, 10
 1263              	__func__.7663:
ARM GAS  /tmp/ccPjNsKi.s 			page 24


 1264 0000 56656374 		.ascii	"Vector150\000"
 1264      6F723135 
 1264      3000
 1265 000a 0000     		.section	.rodata.__func__.7643,"a",%progbits
 1266              		.align	2
 1267              		.set	.LANCHOR10,. + 0
 1268              		.type	__func__.7643, %object
 1269              		.size	__func__.7643, 10
 1270              	__func__.7643:
 1271 0000 56656374 		.ascii	"Vector124\000"
 1271      6F723132 
 1271      3400
 1272 000a 0000     		.section	.rodata.__func__.7603,"a",%progbits
 1273              		.align	2
 1274              		.set	.LANCHOR2,. + 0
 1275              		.type	__func__.7603, %object
 1276              		.size	__func__.7603, 9
 1277              	__func__.7603:
 1278 0000 56656374 		.ascii	"Vector70\000"
 1278      6F723730 
 1278      00
 1279 0009 000000   		.section	.rodata.__func__.7668,"a",%progbits
 1280              		.align	2
 1281              		.set	.LANCHOR15,. + 0
 1282              		.type	__func__.7668, %object
 1283              		.size	__func__.7668, 10
 1284              	__func__.7668:
 1285 0000 56656374 		.ascii	"Vector154\000"
 1285      6F723135 
 1285      3400
 1286 000a 0000     		.section	.rodata.__func__.7608,"a",%progbits
 1287              		.align	2
 1288              		.set	.LANCHOR3,. + 0
 1289              		.type	__func__.7608, %object
 1290              		.size	__func__.7608, 9
 1291              	__func__.7608:
 1292 0000 56656374 		.ascii	"Vector74\000"
 1292      6F723734 
 1292      00
 1293 0009 000000   		.section	.rodata.__func__.7648,"a",%progbits
 1294              		.align	2
 1295              		.set	.LANCHOR11,. + 0
 1296              		.type	__func__.7648, %object
 1297              		.size	__func__.7648, 10
 1298              	__func__.7648:
 1299 0000 56656374 		.ascii	"Vector128\000"
 1299      6F723132 
 1299      3800
 1300 000a 0000     		.section	.rodata.__func__.7618,"a",%progbits
 1301              		.align	2
 1302              		.set	.LANCHOR5,. + 0
 1303              		.type	__func__.7618, %object
 1304              		.size	__func__.7618, 9
 1305              	__func__.7618:
 1306 0000 56656374 		.ascii	"Vector7C\000"
 1306      6F723743 
 1306      00
ARM GAS  /tmp/ccPjNsKi.s 			page 25


 1307 0009 000000   		.section	.bss.dma_isr_redir,"aw",%nobits
 1308              		.align	2
 1309              		.set	.LANCHOR1,. + 0
 1310              		.type	dma_isr_redir, %object
 1311              		.size	dma_isr_redir, 128
 1312              	dma_isr_redir:
 1313 0000 00000000 		.space	128
 1313      00000000 
 1313      00000000 
 1313      00000000 
 1313      00000000 
 1314              		.section	.rodata.__func__.7673,"a",%progbits
 1315              		.align	2
 1316              		.set	.LANCHOR16,. + 0
 1317              		.type	__func__.7673, %object
 1318              		.size	__func__.7673, 10
 1319              	__func__.7673:
 1320 0000 56656374 		.ascii	"Vector158\000"
 1320      6F723135 
 1320      3800
 1321 000a 0000     		.section	.rodata.__func__.7653,"a",%progbits
 1322              		.align	2
 1323              		.set	.LANCHOR12,. + 0
 1324              		.type	__func__.7653, %object
 1325              		.size	__func__.7653, 10
 1326              	__func__.7653:
 1327 0000 56656374 		.ascii	"Vector12C\000"
 1327      6F723132 
 1327      4300
 1328 000a 0000     		.section	.rodata.__func__.7628,"a",%progbits
 1329              		.align	2
 1330              		.set	.LANCHOR7,. + 0
 1331              		.type	__func__.7628, %object
 1332              		.size	__func__.7628, 9
 1333              	__func__.7628:
 1334 0000 56656374 		.ascii	"Vector84\000"
 1334      6F723834 
 1334      00
 1335 0009 000000   		.section	.rodata.__func__.7633,"a",%progbits
 1336              		.align	2
 1337              		.set	.LANCHOR8,. + 0
 1338              		.type	__func__.7633, %object
 1339              		.size	__func__.7633, 9
 1340              	__func__.7633:
 1341 0000 56656374 		.ascii	"VectorFC\000"
 1341      6F724643 
 1341      00
 1342 0009 000000   		.section	.rodata.__func__.7613,"a",%progbits
 1343              		.align	2
 1344              		.set	.LANCHOR4,. + 0
 1345              		.type	__func__.7613, %object
 1346              		.size	__func__.7613, 9
 1347              	__func__.7613:
 1348 0000 56656374 		.ascii	"Vector78\000"
 1348      6F723738 
 1348      00
 1349 0009 000000   		.section	.rodata._stm32_dma_streams,"a",%progbits
ARM GAS  /tmp/ccPjNsKi.s 			page 26


 1350              		.align	2
 1351              		.set	.LANCHOR18,. + 0
 1352              		.type	_stm32_dma_streams, %object
 1353              		.size	_stm32_dma_streams, 192
 1354              	_stm32_dma_streams:
 1355 0000 10600240 		.word	1073897488
 1356 0004 08600240 		.word	1073897480
 1357 0008 00       		.byte	0
 1358 0009 00       		.byte	0
 1359 000a 0B       		.byte	11
 1360 000b 00       		.space	1
 1361 000c 28600240 		.word	1073897512
 1362 0010 08600240 		.word	1073897480
 1363 0014 06       		.byte	6
 1364 0015 01       		.byte	1
 1365 0016 0C       		.byte	12
 1366 0017 00       		.space	1
 1367 0018 40600240 		.word	1073897536
 1368 001c 08600240 		.word	1073897480
 1369 0020 10       		.byte	16
 1370 0021 02       		.byte	2
 1371 0022 0D       		.byte	13
 1372 0023 00       		.space	1
 1373 0024 58600240 		.word	1073897560
 1374 0028 08600240 		.word	1073897480
 1375 002c 16       		.byte	22
 1376 002d 03       		.byte	3
 1377 002e 0E       		.byte	14
 1378 002f 00       		.space	1
 1379 0030 70600240 		.word	1073897584
 1380 0034 0C600240 		.word	1073897484
 1381 0038 00       		.byte	0
 1382 0039 04       		.byte	4
 1383 003a 0F       		.byte	15
 1384 003b 00       		.space	1
 1385 003c 88600240 		.word	1073897608
 1386 0040 0C600240 		.word	1073897484
 1387 0044 06       		.byte	6
 1388 0045 05       		.byte	5
 1389 0046 10       		.byte	16
 1390 0047 00       		.space	1
 1391 0048 A0600240 		.word	1073897632
 1392 004c 0C600240 		.word	1073897484
 1393 0050 10       		.byte	16
 1394 0051 06       		.byte	6
 1395 0052 11       		.byte	17
 1396 0053 00       		.space	1
 1397 0054 B8600240 		.word	1073897656
 1398 0058 0C600240 		.word	1073897484
 1399 005c 16       		.byte	22
 1400 005d 07       		.byte	7
 1401 005e 2F       		.byte	47
 1402 005f 00       		.space	1
 1403 0060 10640240 		.word	1073898512
 1404 0064 08640240 		.word	1073898504
 1405 0068 00       		.byte	0
 1406 0069 08       		.byte	8
ARM GAS  /tmp/ccPjNsKi.s 			page 27


 1407 006a 38       		.byte	56
 1408 006b 00       		.space	1
 1409 006c 28640240 		.word	1073898536
 1410 0070 08640240 		.word	1073898504
 1411 0074 06       		.byte	6
 1412 0075 09       		.byte	9
 1413 0076 39       		.byte	57
 1414 0077 00       		.space	1
 1415 0078 40640240 		.word	1073898560
 1416 007c 08640240 		.word	1073898504
 1417 0080 10       		.byte	16
 1418 0081 0A       		.byte	10
 1419 0082 3A       		.byte	58
 1420 0083 00       		.space	1
 1421 0084 58640240 		.word	1073898584
 1422 0088 08640240 		.word	1073898504
 1423 008c 16       		.byte	22
 1424 008d 0B       		.byte	11
 1425 008e 3B       		.byte	59
 1426 008f 00       		.space	1
 1427 0090 70640240 		.word	1073898608
 1428 0094 0C640240 		.word	1073898508
 1429 0098 00       		.byte	0
 1430 0099 0C       		.byte	12
 1431 009a 3C       		.byte	60
 1432 009b 00       		.space	1
 1433 009c 88640240 		.word	1073898632
 1434 00a0 0C640240 		.word	1073898508
 1435 00a4 06       		.byte	6
 1436 00a5 0D       		.byte	13
 1437 00a6 44       		.byte	68
 1438 00a7 00       		.space	1
 1439 00a8 A0640240 		.word	1073898656
 1440 00ac 0C640240 		.word	1073898508
 1441 00b0 10       		.byte	16
 1442 00b1 0E       		.byte	14
 1443 00b2 45       		.byte	69
 1444 00b3 00       		.space	1
 1445 00b4 B8640240 		.word	1073898680
 1446 00b8 0C640240 		.word	1073898508
 1447 00bc 16       		.byte	22
 1448 00bd 0F       		.byte	15
 1449 00be 46       		.byte	70
 1450 00bf 00       		.space	1
 1451              		.section	.rodata.__func__.7623,"a",%progbits
 1452              		.align	2
 1453              		.set	.LANCHOR6,. + 0
 1454              		.type	__func__.7623, %object
 1455              		.size	__func__.7623, 9
 1456              	__func__.7623:
 1457 0000 56656374 		.ascii	"Vector80\000"
 1457      6F723830 
 1457      00
 1458 0009 000000   		.section	.bss.dma_streams_mask,"aw",%nobits
 1459              		.align	2
 1460              		.set	.LANCHOR17,. + 0
 1461              		.type	dma_streams_mask, %object
ARM GAS  /tmp/ccPjNsKi.s 			page 28


 1462              		.size	dma_streams_mask, 4
 1463              	dma_streams_mask:
 1464 0000 00000000 		.space	4
 1465              		.section	.rodata.__func__.7658,"a",%progbits
 1466              		.align	2
 1467              		.set	.LANCHOR13,. + 0
 1468              		.type	__func__.7658, %object
 1469              		.size	__func__.7658, 10
 1470              	__func__.7658:
 1471 0000 56656374 		.ascii	"Vector130\000"
 1471      6F723133 
 1471      3000
 1472 000a 0000     		.text
 1473              	.Letext0:
 1474              		.file 2 "/usr/include/newlib/machine/_default_types.h"
 1475              		.file 3 "/usr/include/newlib/stdint.h"
 1476              		.file 4 "../../../../../ChibiOS-RT/os/common/ports/ARMCMx/compilers/GCC/chtypes.h"
 1477              		.file 5 "../../../../../ChibiOS-RT/os/rt/include/chsystypes.h"
 1478              		.file 6 "../../../../../ChibiOS-RT/os/rt/include/chschd.h"
 1479              		.file 7 "../../../../../ChibiOS-RT/os/common/ext/CMSIS/ST/STM32F4xx/stm32f401xe.h"
 1480              		.file 8 "../../../../../ChibiOS-RT/os/common/ports/ARMCMx/chcore.h"
 1481              		.file 9 "../../../../../ChibiOS-RT/os/common/ports/ARMCMx/chcore_v7m.h"
 1482              		.file 10 "../../../../../ChibiOS-RT/os/rt/include/chtrace.h"
 1483              		.file 11 "../../../../../ChibiOS-RT/os/rt/include/chtm.h"
 1484              		.file 12 "../../../../../ChibiOS-RT/os/rt/include/chsem.h"
 1485              		.file 13 "../../../../../ChibiOS-RT/os/rt/include/chmtx.h"
 1486              		.file 14 "../../../../../ChibiOS-RT/os/hal/ports/STM32/LLD/DMAv2/stm32_dma.h"
 1487              		.file 15 "../../../../../ChibiOS-RT/os/common/ext/CMSIS/include/core_cm4.h"
 1488              		.file 16 "../../../../../ChibiOS-RT/os/hal/ports/common/ARMCMx/nvic.h"